
f823a58a-234c-11ed-861d-0242ac120002.elf:     file format elf64-littleaarch64
f823a58a-234c-11ed-861d-0242ac120002.elf
architecture: aarch64, flags 0x00000150:
HAS_SYMS, DYNAMIC, D_PAGED
start address 0x00000000000004b4

Program Header:
    LOAD off    0x0000000000001000 vaddr 0x0000000000000000 paddr 0x0000000000000000 align 2**12
         filesz 0x000000000000bc40 memsz 0x000000000000bc40 flags r-x
    LOAD off    0x000000000000d000 vaddr 0x000000000000c000 paddr 0x000000000000c000 align 2**12
         filesz 0x000000000000046c memsz 0x000000000000b4d8 flags rw-
 DYNAMIC off    0x000000000000d000 vaddr 0x000000000000c000 paddr 0x000000000000c000 align 2**3
         filesz 0x0000000000000110 memsz 0x0000000000000110 flags rw-
   STACK off    0x0000000000000000 vaddr 0x0000000000000000 paddr 0x0000000000000000 align 2**4
         filesz 0x0000000000000000 memsz 0x0000000000000000 flags rw-

Dynamic Section:
  HASH                 0x000000000000ba00
  GNU_HASH             0x000000000000b990
  STRTAB               0x000000000000b9f8
  SYMTAB               0x000000000000b9b0
  STRSZ                0x0000000000000001
  SYMENT               0x0000000000000018
  DEBUG                0x0000000000000000
  RELA                 0x000000000000ba18
  RELASZ               0x0000000000000378
  RELAENT              0x0000000000000018
  FLAGS_1              0x0000000008000000
  RELACOUNT            0x0000000000000017
private flags = 0:

Sections:
Idx Name          Size      VMA               LMA               File off  Algn
  0 .ta_head      00000020  0000000000000000  0000000000000000  00001000  2**3
                  CONTENTS, ALLOC, LOAD, READONLY, DATA
  1 .text         00008cbc  0000000000000020  0000000000000020  00001020  2**2
                  CONTENTS, ALLOC, LOAD, READONLY, CODE
  2 .eh_frame     00001b2c  0000000000008ce0  0000000000008ce0  00009ce0  2**3
                  CONTENTS, ALLOC, LOAD, READONLY, DATA
  3 .rodata       00001179  000000000000a810  000000000000a810  0000b810  2**3
                  CONTENTS, ALLOC, LOAD, READONLY, DATA
  4 .gnu.hash     0000001c  000000000000b990  000000000000b990  0000c990  2**3
                  CONTENTS, ALLOC, LOAD, READONLY, DATA
  5 .dynsym       00000048  000000000000b9b0  000000000000b9b0  0000c9b0  2**3
                  CONTENTS, ALLOC, LOAD, READONLY, DATA
  6 .dynstr       00000001  000000000000b9f8  000000000000b9f8  0000c9f8  2**0
                  CONTENTS, ALLOC, LOAD, READONLY, DATA
  7 .hash         00000018  000000000000ba00  000000000000ba00  0000ca00  2**3
                  CONTENTS, ALLOC, LOAD, READONLY, DATA
  8 .rela.dyn     00000228  000000000000ba18  000000000000ba18  0000ca18  2**3
                  CONTENTS, ALLOC, LOAD, READONLY, DATA
  9 .dynamic      00000110  000000000000c000  000000000000c000  0000d000  2**3
                  CONTENTS, ALLOC, LOAD, DATA
 10 .got          00000090  000000000000c110  000000000000c110  0000d110  2**3
                  CONTENTS, ALLOC, LOAD, DATA
 11 .rela.got     00000150  000000000000c1a0  000000000000c1a0  0000d1a0  2**3
                  CONTENTS, ALLOC, LOAD, READONLY, DATA
 12 .data         0000017c  000000000000c2f0  000000000000c2f0  0000d2f0  2**3
                  CONTENTS, ALLOC, LOAD, DATA
 13 .bss          0000b068  000000000000c470  000000000000c470  0000d46c  2**3
                  ALLOC
 14 .debug_info   00011db8  0000000000000000  0000000000000000  0000d46c  2**0
                  CONTENTS, READONLY, DEBUGGING
 15 .debug_abbrev 00002eb2  0000000000000000  0000000000000000  0001f224  2**0
                  CONTENTS, READONLY, DEBUGGING
 16 .debug_loc    000198bc  0000000000000000  0000000000000000  000220d6  2**0
                  CONTENTS, READONLY, DEBUGGING
 17 .debug_aranges 00000830  0000000000000000  0000000000000000  0003b9a0  2**4
                  CONTENTS, READONLY, DEBUGGING
 18 .debug_ranges 00001690  0000000000000000  0000000000000000  0003c1d0  2**4
                  CONTENTS, READONLY, DEBUGGING
 19 .debug_macro  0001153c  0000000000000000  0000000000000000  0003d860  2**0
                  CONTENTS, READONLY, DEBUGGING
 20 .debug_line   00009db6  0000000000000000  0000000000000000  0004ed9c  2**0
                  CONTENTS, READONLY, DEBUGGING
 21 .debug_str    00012133  0000000000000000  0000000000000000  00058b52  2**0
                  CONTENTS, READONLY, DEBUGGING
 22 .comment      00000055  0000000000000000  0000000000000000  0006ac85  2**0
                  CONTENTS, READONLY
SYMBOL TABLE:
0000000000000000 l    d  .ta_head	0000000000000000 .ta_head
0000000000000020 l    d  .text	0000000000000000 .text
0000000000008ce0 l    d  .eh_frame	0000000000000000 .eh_frame
000000000000a810 l    d  .rodata	0000000000000000 .rodata
000000000000b990 l    d  .gnu.hash	0000000000000000 .gnu.hash
000000000000b9b0 l    d  .dynsym	0000000000000000 .dynsym
000000000000b9f8 l    d  .dynstr	0000000000000000 .dynstr
000000000000ba00 l    d  .hash	0000000000000000 .hash
000000000000ba18 l    d  .rela.dyn	0000000000000000 .rela.dyn
000000000000c000 l    d  .dynamic	0000000000000000 .dynamic
000000000000c110 l    d  .got	0000000000000000 .got
000000000000c1a0 l    d  .rela.got	0000000000000000 .rela.got
000000000000c2f0 l    d  .data	0000000000000000 .data
000000000000c470 l    d  .bss	0000000000000000 .bss
0000000000000000 l    d  .debug_info	0000000000000000 .debug_info
0000000000000000 l    d  .debug_abbrev	0000000000000000 .debug_abbrev
0000000000000000 l    d  .debug_loc	0000000000000000 .debug_loc
0000000000000000 l    d  .debug_aranges	0000000000000000 .debug_aranges
0000000000000000 l    d  .debug_ranges	0000000000000000 .debug_ranges
0000000000000000 l    d  .debug_macro	0000000000000000 .debug_macro
0000000000000000 l    d  .debug_line	0000000000000000 .debug_line
0000000000000000 l    d  .debug_str	0000000000000000 .debug_str
0000000000000000 l    d  .comment	0000000000000000 .comment
0000000000000000 l    df *ABS*	0000000000000000 user_ta_header.c
000000000000a818 l     O .rodata	0000000000000004 __compound_literal.5
000000000000a81c l     O .rodata	0000000000000004 __compound_literal.4
000000000000a820 l     O .rodata	0000000000000004 __compound_literal.3
000000000000a824 l     O .rodata	0000000000000001 __compound_literal.2
000000000000a825 l     O .rodata	0000000000000001 __compound_literal.1
000000000000a826 l     O .rodata	0000000000000001 __compound_literal.0
0000000000000000 l    df *ABS*	0000000000000000 type_confusion.c
000000000000ab40 l     O .rodata	0000000000000014 __func__.4128
000000000000ab54 l     O .rodata	0000000000000015 __func__.4133
000000000000ab69 l     O .rodata	0000000000000019 __func__.4140
000000000000ab82 l     O .rodata	000000000000001a __func__.4144
000000000000ab9c l     O .rodata	000000000000000b __func__.4152
000000000000aba7 l     O .rodata	0000000000000010 __func__.4158
000000000000abb7 l     O .rodata	000000000000000d __func__.4168
0000000000000000 l    df *ABS*	0000000000000000 strdup.c
0000000000000000 l    df *ABS*	0000000000000000 memcpy.c
0000000000000000 l    df *ABS*	0000000000000000 strcpy.c
0000000000000000 l    df *ABS*	0000000000000000 strlen.c
0000000000000000 l    df *ABS*	0000000000000000 trace.c
0000000000000568 l     F .text	00000000000000c4 append
000000000000ae89 l     O .rodata	0000000000000005 lvl_strs.3494
000000000000ae8e l     O .rodata	000000000000000a __func__.3556
0000000000000000 l    df *ABS*	0000000000000000 bget_malloc.c
0000000000000a24 l     F .text	0000000000000044 raw_malloc_return_hook.constprop.21
000000000000aecf l     O .rodata	0000000000000005 __func__.3641
000000000000aed4 l     O .rodata	0000000000000006 __func__.3656
000000000000aeda l     O .rodata	0000000000000005 __func__.3674
000000000000aedf l     O .rodata	0000000000000006 __func__.3665
000000000000aee5 l     O .rodata	0000000000000006 __func__.3683
000000000000aeeb l     O .rodata	0000000000000007 __func__.3693
000000000000aef2 l     O .rodata	0000000000000014 __func__.3857
000000000000af06 l     O .rodata	000000000000000e __func__.3808
000000000000af14 l     O .rodata	0000000000000013 __func__.3755
000000000000c3d0 l     O .data	0000000000000080 malloc_ctx
0000000000000000 l    df *ABS*	0000000000000000 memset.c
0000000000000000 l    df *ABS*	0000000000000000 snprintk.c
000000000000b1e1 l     O .rodata	0000000000000011 hexdigits
000000000000b1f2 l     O .rodata	0000000000000011 HEXDIGITS
0000000000000000 l    df *ABS*	0000000000000000 memchr.c
0000000000000000 l    df *ABS*	0000000000000000 trace_ext.c
0000000000000000 l    df *ABS*	0000000000000000 assert.c
0000000000000000 l    df *ABS*	0000000000000000 tee_api.c
0000000000002578 l     F .text	00000000000000b8 update_out_param
00000000000026f0 l     F .text	00000000000001d0 copy_param.constprop.1
000000000000c470 l     O .bss	0000000000000008 tee_api_instance_data
000000000000a843 l     O .rodata	000000000000000b __func__.4702
0000000000000000 l    df *ABS*	0000000000000000 tee_api_panic.c
0000000000000000 l    df *ABS*	0000000000000000 tee_system_pta.c
0000000000002c9c l     F .text	0000000000000088 invoke_system_pta
000000000000a850 l     O .rodata	0000000000000010 uuid.4139
000000000000a860 l     O .rodata	000000000000000a __func__.4159
000000000000c478 l     O .bss	0000000000000008 sess.4138
0000000000000000 l    df *ABS*	0000000000000000 utee_syscalls_a64.o
0000000000000000 l    df *ABS*	0000000000000000 user_ta_entry.c
00000000000030d0 l     F .text	0000000000000028 ta_header_get_session
00000000000030f8 l     F .text	0000000000000078 to_utee_params
0000000000003170 l     F .text	0000000000000068 from_utee_params
00000000000031d8 l     F .text	0000000000000094 ta_header_remove_session
000000000000326c l     F .text	0000000000000014 ta_header_save_params.part.0
00000000000174d1 l     O .bss	0000000000000001 init_done
000000000000c450 l     O .data	0000000000000010 ta_sessions
0000000000000000 l    df *ABS*	0000000000000000 tee_api_arith_mpi.c
000000000000347c l     F .text	0000000000000030 api_panic
00000000000034ac l     F .text	0000000000000030 mpi_panic
00000000000034dc l     F .text	0000000000000098 get_mpi
0000000000003574 l     F .text	0000000000000064 copy_mpi_to_bigint
00000000000035d8 l     F .text	0000000000000118 bigint_binary
00000000000036f0 l     F .text	0000000000000020 mpi_is_odd
0000000000003710 l     F .text	0000000000000028 rng_read
0000000000003738 l     F .text	000000000000054c mpi_egcd
000000000000c4c8 l     O .bss	0000000000003000 data.4684
0000000000004020 l     F .text	0000000000000194 bigint_binary_mod
000000000000b29d l     O .rodata	0000000000000008 __func__.4718
000000000000b2a5 l     O .rodata	000000000000000e __func__.4815
000000000000b2b3 l     O .rodata	0000000000000009 __func__.4961
000000000000b2bc l     O .rodata	0000000000000012 __func__.4685
000000000000b2ce l     O .rodata	000000000000000f __func__.4724
000000000000b2dd l     O .rodata	000000000000001f __func__.4742
000000000000b2fc l     O .rodata	0000000000000019 __func__.4749
000000000000b315 l     O .rodata	0000000000000012 __func__.4827
000000000000b327 l     O .rodata	0000000000000015 __func__.4780
000000000000b33c l     O .rodata	000000000000000e __func__.4855
000000000000b34a l     O .rodata	000000000000000e __func__.4884
000000000000b358 l     O .rodata	000000000000000e __func__.4892
000000000000b366 l     O .rodata	0000000000000011 __func__.4921
000000000000b377 l     O .rodata	0000000000000018 __func__.4938
000000000000b38f l     O .rodata	000000000000001d __func__.5018
000000000000b3ac l     O .rodata	0000000000000019 __func__.5071
000000000000b3c5 l     O .rodata	0000000000000015 __func__.5086
0000000000000000 l    df *ABS*	0000000000000000 bignum.c
0000000000004dc0 l     F .text	0000000000000064 mpi_get_digit
0000000000004e24 l     F .text	0000000000000060 mpi_sub_hlp
0000000000004e84 l     F .text	00000000000004d4 mpi_mul_hlp
0000000000006d6c l     F .text	00000000000000d4 mpi_write_hlp
0000000000007014 l     F .text	0000000000000098 mpi_check_small_factors
0000000000007b28 l     F .text	0000000000000288 mpi_miller_rabin
000000000000a87c l     O .rodata	00000000000002a0 small_prime
000000000000ab1c l     O .rodata	0000000000000024 gcd_pairs
0000000000000000 l    df *ABS*	0000000000000000 platform_util.c
000000000000c460 l     O .data	0000000000000008 memset_func
0000000000000000 l    df *ABS*	0000000000000000 snprintf.c
0000000000000000 l    df *ABS*	0000000000000000 memmove.c
0000000000000000 l    df *ABS*	0000000000000000 mempool.c
000000000000b8ee l     O .rodata	0000000000000013 __func__.3549
000000000000b901 l     O .rodata	000000000000000e __func__.3558
0000000000000000 l    df *ABS*	0000000000000000 consttime_memcmp.c
0000000000000000 l    df *ABS*	0000000000000000 
000000000000c000 l     O *ABS*	0000000000000000 _DYNAMIC
000000000000c128 l     O *ABS*	0000000000000000 _GLOBAL_OFFSET_TABLE_
00000000000024e4 g     F .text	000000000000003c putchar
0000000000000534 g     F .text	0000000000000018 strcpy
0000000000004c08 g     F .text	0000000000000004 TEE_BigIntConvertToFMM
0000000000004764 g     F .text	000000000000000c TEE_BigIntSquareMod
00000000000041b4 g     F .text	000000000000016c TEE_BigIntShiftRight
0000000000003028 g     F .text	000000000000000c utee_storage_obj_create
00000000000053fc g     F .text	00000000000000f8 mbedtls_mpi_grow
0000000000002e30 g     F .text	000000000000000c utee_return
0000000000002c70 g     F .text	0000000000000008 TEE_Realloc
00000000000023dc g     F .text	00000000000000c8 printf
0000000000002e3c g     F .text	000000000000000c utee_log
00000000000028c0 g     F .text	0000000000000104 TEE_InvokeTACommand
0000000000005368 g     F .text	0000000000000028 mbedtls_mpi_init_mempool
0000000000005b70 g     F .text	00000000000000c4 mbedtls_mpi_write_binary
00000000000022b8 g     F .text	0000000000000054 vsnprintk
0000000000006304 g     F .text	0000000000000040 mbedtls_mpi_sub_int
0000000000008a68 g     F .text	000000000000005c memmove
000000000000899c g     F .text	0000000000000078 snprintf
0000000000003fd8 g     F .text	0000000000000048 TEE_BigIntCmpS32
00000000000054f4 g     F .text	0000000000000120 mbedtls_mpi_shrink
00000000000043ac g     F .text	000000000000000c TEE_BigIntAdd
0000000000002e60 g     F .text	000000000000000c utee_get_property_name_to_index
000000000000a828 g     O .rodata	0000000000000008 ta_heap_size
0000000000002ee4 g     F .text	000000000000000c utee_cryp_state_alloc
0000000000002fec g     F .text	000000000000000c utee_authenc_enc_final
00000000000064c8 g     F .text	00000000000001e4 mbedtls_mpi_read_string
00000000000043c4 g     F .text	00000000000000b0 TEE_BigIntNeg
0000000000000020 g       .text	0000000000000000 __text_start
0000000000005d34 g     F .text	00000000000000c8 mbedtls_mpi_shift_r
00000000000015fc g     F .text	000000000000006c malloc_buffer_overlaps_heap
000000000000474c g     F .text	000000000000000c TEE_BigIntSubMod
00000000000082a0 g     F .text	000000000000030c mbedtls_mpi_gen_prime
0000000000005934 g     F .text	000000000000002c mbedtls_mpi_get_bit
0000000000005ab8 g     F .text	00000000000000b8 mbedtls_mpi_read_binary
0000000000000848 g     F .text	0000000000000070 trace_printf
00000000000070e8 g     F .text	0000000000000134 mbedtls_mpi_montmul
0000000000000514 g     F .text	0000000000000020 memcpy
0000000000002efc g     F .text	000000000000000c utee_cryp_state_free
0000000000004c0c g     F .text	000000000000009c TEE_BigIntConvertFromFMM
0000000000002c94 g     F .text	0000000000000008 TEE_Panic
00000000000024a4 g     F .text	0000000000000040 puts
0000000000004ca8 g     F .text	0000000000000118 TEE_BigIntComputeFMM
00000000000011c0 g     F .text	0000000000000038 malloc_get_stats
0000000000002f44 g     F .text	000000000000000c utee_cipher_final
0000000000002bec g     F .text	0000000000000028 TEE_GetREETime
000000000000c2f8 g     O .data	00000000000000d8 ta_props
0000000000000144 g     F .text	0000000000000080 fibufnacci
00000000000011f8 g     F .text	0000000000000050 malloc
0000000000002f80 g     F .text	000000000000000c utee_cryp_obj_close
0000000000008a14 g     F .text	0000000000000054 vsnprintf
000000000000c468 g     O .data	0000000000000004 trace_level
000000000000f4d0 g     O .bss	0000000000000001 PRINTSECRET
0000000000003f70 g     F .text	0000000000000068 TEE_BigIntCmp
000000000000a810 g     O .rodata	0000000000000008 ta_num_props
0000000000000f70 g     F .text	00000000000000cc bgetr
0000000000002fe0 g     F .text	000000000000000c utee_authenc_update_payload
0000000000008c28 g     F .text	0000000000000044 mempool_free
0000000000003dd0 g     F .text	0000000000000094 TEE_BigIntConvertToOctetString
00000000000030c4 g     F .text	000000000000000c utee_cache_operation
0000000000005a40 g     F .text	000000000000005c mbedtls_mpi_bitlen
0000000000002fc8 g     F .text	000000000000000c utee_authenc_init
0000000000004320 g     F .text	000000000000004c TEE_BigIntGetBit
000000000000a830 g     O .rodata	0000000000000003 trace_ext_prefix
0000000000000c28 g     F .text	000000000000008c bgetz
0000000000002aac g     F .text	000000000000000c TEE_GetInstanceData
0000000000002af8 g     F .text	000000000000003c TEE_Wait
0000000000003094 g     F .text	000000000000000c utee_storage_obj_write
0000000000006344 g     F .text	0000000000000150 mbedtls_mpi_mul_mpi
0000000000002c84 g     F .text	0000000000000008 TEE_CacheFlush
0000000000000658 g     F .text	00000000000001f0 trace_vprintf
000000000000008c g     F .text	0000000000000024 TA_DestroyEntryPoint
0000000000005358 g     F .text	0000000000000010 mbedtls_mpi_init
00000000000059ec g     F .text	0000000000000054 mbedtls_mpi_lsb
0000000000002520 g     F .text	0000000000000044 _assert_log
0000000000004c00 g     F .text	0000000000000008 TEE_BigIntFMMContextSizeInU32
0000000000002d98 g     F .text	000000000000008c tee_unmap
0000000000003c84 g     F .text	0000000000000050 _TEE_MathAPI_Init
00000000000061b0 g     F .text	0000000000000088 mbedtls_mpi_add_mpi
000000000000307c g     F .text	000000000000000c utee_storage_next_enum
000000000000f4d1 g     O .bss	0000000000008000 ta_heap
0000000000004770 g     F .text	000000000000011c TEE_BigIntInvMod
0000000000000120 g     F .text	0000000000000024 TA_CloseSessionEntryPoint
0000000000006238 g     F .text	000000000000008c mbedtls_mpi_sub_mpi
0000000000008c6c g     F .text	0000000000000070 consttime_memcmp
0000000000002e48 g     F .text	000000000000000c __utee_panic
0000000000002ef0 g     F .text	000000000000000c utee_cryp_state_copy
00000000000001c4 g     F .text	00000000000002f0 TA_InvokeCommandEntryPoint
0000000000001314 g     F .text	0000000000000018 free_wipe
0000000000008b2c g     F .text	00000000000000ac mempool_alloc
0000000000002f74 g     F .text	000000000000000c utee_cryp_obj_alloc
0000000000002ed8 g     F .text	000000000000000c utee_set_ta_time
0000000000002f68 g     F .text	000000000000000c utee_cryp_obj_get_attr
0000000000008bd8 g     F .text	0000000000000050 mempool_calloc
0000000000001248 g     F .text	0000000000000064 calloc
0000000000002c14 g     F .text	000000000000005c TEE_Malloc
0000000000002eb4 g     F .text	000000000000000c utee_mask_cancellation
0000000000002f8c g     F .text	000000000000000c utee_cryp_obj_reset
00000000000026dc g     F .text	0000000000000014 TEE_CheckMemoryAccessRights
00000000000058cc g     F .text	0000000000000068 mbedtls_mpi_lset
00000000000000b0 g     F .text	0000000000000070 TA_OpenSessionEntryPoint
0000000000003070 g     F .text	000000000000000c utee_storage_start_enum
0000000000003040 g     F .text	000000000000000c utee_storage_obj_rename
00000000000174d8 g       .bss	0000000000000000 __ftrace_buf_end
000000000000c480 g     O .bss	0000000000000004 ta_param_types
0000000000006bd8 g     F .text	0000000000000040 mbedtls_mpi_div_int
00000000000081e8 g     F .text	00000000000000a8 mbedtls_mpi_is_prime_ext
0000000000004b98 g     F .text	0000000000000050 TEE_BigIntIsProbablePrime
0000000000006494 g     F .text	0000000000000034 mbedtls_mpi_mul_int
000000000000725c g     F .text	000000000000068c mbedtls_mpi_exp_mod
0000000000005728 g     F .text	00000000000000c0 mbedtls_mpi_safe_cond_assign
0000000000002e54 g     F .text	000000000000000c utee_get_property
0000000000003cd4 g     F .text	0000000000000070 TEE_BigIntInit
0000000000002ab8 g     F .text	0000000000000008 TEE_MemMove
0000000000008988 g     F .text	0000000000000014 mbedtls_platform_zeroize
0000000000003d44 g     F .text	000000000000008c TEE_BigIntConvertFromOctetString
0000000000005dfc g     F .text	000000000000009c mbedtls_mpi_cmp_abs
0000000000002380 g     F .text	000000000000002c memchr
0000000000002684 g     F .text	000000000000002c TEE_UnmaskCancellation
00000000000085ac g     F .text	00000000000003dc mbedtls_mpi_self_test
0000000000003034 g     F .text	000000000000000c utee_storage_obj_del
00000000000030ac g     F .text	000000000000000c utee_storage_obj_seek
0000000000005f70 g     F .text	0000000000000040 mbedtls_mpi_cmp_int
0000000000002f14 g     F .text	000000000000000c utee_hash_update
00000000000046dc g     F .text	0000000000000064 TEE_BigIntMod
0000000000006ccc g     F .text	00000000000000a0 mbedtls_mpi_mod_int
0000000000002e78 g     F .text	000000000000000c utee_close_ta_session
0000000000004564 g     F .text	0000000000000178 TEE_BigIntDiv
00000000000174d8 g       .bss	0000000000000000 __ftrace_buf_start
0000000000005614 g     F .text	00000000000000b4 mbedtls_mpi_copy
00000000000011a8 g     F .text	0000000000000018 malloc_reset_stats
0000000000002f38 g     F .text	000000000000000c utee_cipher_update
00000000000012ac g     F .text	0000000000000050 realloc
00000000000056c8 g     F .text	0000000000000060 mbedtls_mpi_swap
0000000000008ac4 g     F .text	0000000000000068 mempool_alloc_pool
0000000000003010 g     F .text	000000000000000c utee_asymm_verify
0000000000004474 g     F .text	00000000000000e8 TEE_BigIntMul
0000000000005c34 g     F .text	0000000000000100 mbedtls_mpi_shift_l
0000000000005e98 g     F .text	00000000000000d8 mbedtls_mpi_cmp_mpi
0000000000002ac8 g     F .text	0000000000000008 TEE_MemFill
000000000000132c g     F .text	0000000000000150 malloc_add_pool
0000000000000648 g     F .text	0000000000000010 trace_get_level
0000000000005fb0 g     F .text	000000000000012c mbedtls_mpi_add_abs
0000000000002fbc g     F .text	000000000000000c utee_cryp_random_number_generate
0000000000004bf0 g     F .text	0000000000000010 TEE_BigIntFMMSizeInU32
0000000000004be8 g     F .text	0000000000000004 TEE_BigIntInitFMM
0000000000003004 g     F .text	000000000000000c utee_asymm_operate
0000000000003280 g     F .text	00000000000001fc __utee_entry
0000000000008cdc g       .text	0000000000000000 __text_end
000000000000488c g     F .text	00000000000000d4 TEE_BigIntRelativePrime
0000000000006c18 g     F .text	00000000000000b4 mbedtls_mpi_mod_mpi
000000000000103c g     F .text	00000000000000d4 bpool
00000000000004d0 g     F .text	0000000000000044 strdup
0000000000002658 g     F .text	000000000000002c TEE_GetCancellationFlag
00000000000078e8 g     F .text	00000000000001bc mbedtls_mpi_gcd
0000000000002ba8 g     F .text	0000000000000044 TEE_SetTAPersistentTime
0000000000001668 g     F .text	000000000000001c memset
0000000000002b34 g     F .text	0000000000000074 TEE_GetTAPersistentTime
00000000000008b8 g     F .text	000000000000016c dhex_dump
00000000000026b0 g     F .text	000000000000002c TEE_MaskCancellation
0000000000003088 g     F .text	000000000000000c utee_storage_obj_read
0000000000002f98 g     F .text	000000000000000c utee_cryp_obj_populate
000000000000062c g     F .text	000000000000001c trace_set_level
0000000000002f50 g     F .text	000000000000000c utee_cryp_obj_get_info
000000000000304c g     F .text	000000000000000c utee_storage_alloc_enum
0000000000003064 g     F .text	000000000000000c utee_storage_reset_enum
00000000000030a0 g     F .text	000000000000000c utee_storage_obj_trunc
0000000000003ee8 g     F .text	0000000000000088 TEE_BigIntConvertToS32
00000000000043b8 g     F .text	000000000000000c TEE_BigIntSub
0000000000002e90 g     F .text	000000000000000c utee_get_cancellation_flag
0000000000002f08 g     F .text	000000000000000c utee_hash_init
00000000000004c8 g     F .text	0000000000000008 tahead_get_trace_level
0000000000002d24 g     F .text	0000000000000074 tee_map_zi
000000000000721c g     F .text	0000000000000040 mbedtls_mpi_montred
0000000000003e64 g     F .text	0000000000000084 TEE_BigIntConvertFromS32
00000000000062c4 g     F .text	0000000000000040 mbedtls_mpi_add_int
0000000000002f5c g     F .text	000000000000000c utee_cryp_obj_restrict_usage
000000000000c2f0 g     O .data	0000000000000008 SECRET
000000000000147c g     F .text	0000000000000180 malloc_buffer_is_within_alloced
0000000000002fa4 g     F .text	000000000000000c utee_cryp_obj_copy
0000000000004bec g     F .text	0000000000000004 TEE_BigIntInitFMMContext
0000000000002fb0 g     F .text	000000000000000c utee_cryp_derive_key
0000000000002ff8 g     F .text	000000000000000c utee_authenc_dec_final
000000000000455c g     F .text	0000000000000008 TEE_BigIntSquare
0000000000000020 g     F .text	000000000000006c TA_CreateEntryPoint
00000000000004b4 g     F .text	0000000000000014 __ta_entry
00000000000070ac g     F .text	000000000000003c mbedtls_mpi_montg_init
000000000000230c g     F .text	0000000000000074 snprintk
000000000000436c g     F .text	0000000000000040 TEE_BigIntGetBitCount
0000000000004758 g     F .text	000000000000000c TEE_BigIntMulMod
0000000000007db0 g     F .text	0000000000000438 mbedtls_mpi_inv_mod
000000000000c488 g     O .bss	0000000000000040 ta_params
00000000000066ac g     F .text	000000000000052c mbedtls_mpi_div_mpi
0000000000005a9c g     F .text	000000000000001c mbedtls_mpi_size
0000000000000a68 g     F .text	00000000000001c0 bget
0000000000005960 g     F .text	000000000000008c mbedtls_mpi_set_bit
0000000000002c78 g     F .text	0000000000000004 TEE_Free
0000000000008290 g     F .text	0000000000000010 mbedtls_mpi_is_prime
0000000000002c8c g     F .text	0000000000000008 TEE_CacheInvalidate
0000000000002f2c g     F .text	000000000000000c utee_cipher_init
0000000000002564 g     F .text	0000000000000014 _assert_break
0000000000004740 g     F .text	000000000000000c TEE_BigIntAddMod
0000000000003058 g     F .text	000000000000000c utee_storage_free_enum
0000000000002fd4 g     F .text	000000000000000c utee_authenc_update_aad
0000000000002ac0 g     F .text	0000000000000008 TEE_MemCompare
0000000000001684 g     F .text	0000000000000c34 __vsnprintf
00000000000029c4 g     F .text	00000000000000dc TEE_OpenTASession
0000000000002e24 g     F .text	000000000000000c utee_panic
00000000000023ac g     F .text	0000000000000028 trace_ext_puts
00000000000023d4 g     F .text	0000000000000008 trace_ext_get_thread_id
0000000000005390 g     F .text	000000000000006c mbedtls_mpi_free
0000000000002c7c g     F .text	0000000000000008 TEE_CacheClean
0000000000002e6c g     F .text	000000000000000c utee_open_ta_session
00000000000057e8 g     F .text	00000000000000e4 mbedtls_mpi_safe_cond_swap
0000000000002f20 g     F .text	000000000000000c utee_hash_final
000000000000054c g     F .text	000000000000001c strlen
0000000000004960 g     F .text	0000000000000238 TEE_BigIntComputeExtendedGcd
000000000000301c g     F .text	000000000000000c utee_storage_obj_open
0000000000002e84 g     F .text	000000000000000c utee_invoke_ta_command
0000000000002ec0 g     F .text	000000000000000c utee_wait
0000000000002ad0 g     F .text	0000000000000028 TEE_GetSystemTime
0000000000000000 g     O .ta_head	0000000000000020 ta_head
0000000000000cb4 g     F .text	00000000000002bc brel
00000000000060dc g     F .text	00000000000000d4 mbedtls_mpi_sub_abs
0000000000002ecc g     F .text	000000000000000c utee_get_time
0000000000007aa4 g     F .text	0000000000000084 mbedtls_mpi_fill_random
0000000000002aa0 g     F .text	000000000000000c TEE_SetInstanceData
0000000000002ea8 g     F .text	000000000000000c utee_unmask_cancellation
0000000000002e9c g     F .text	000000000000000c utee_check_access_rights
0000000000006e40 g     F .text	00000000000001d4 mbedtls_mpi_write_string
00000000000030b8 g     F .text	000000000000000c utee_cryp_obj_generate_key
0000000000002630 g     F .text	0000000000000028 TEE_CloseTASession
00000000000012fc g     F .text	0000000000000018 free
0000000000001110 g     F .text	0000000000000098 bstats
000000000000f4c8 g     O .bss	0000000000000008 mbedtls_mpi_mempool



Disassembly of section .text:

0000000000000020 <TA_CreateEntryPoint>:
TA_CreateEntryPoint():
/home/hei/Desktop/optee-qemu/optee_examples/typeConfusion/ta/type_confusion.c:15
      20:	a9bd7bfd 	stp	x29, x30, [sp, #-48]!
/home/hei/Desktop/optee-qemu/optee_examples/typeConfusion/ta/type_confusion.c:16
      24:	52800023 	mov	w3, #0x1                   	// #1
      28:	52800062 	mov	w2, #0x3                   	// #3
/home/hei/Desktop/optee-qemu/optee_examples/typeConfusion/ta/type_confusion.c:15
      2c:	910003fd 	mov	x29, sp
      30:	f9000bf3 	str	x19, [sp, #16]
/home/hei/Desktop/optee-qemu/optee_examples/typeConfusion/ta/type_confusion.c:16
      34:	d0000053 	adrp	x19, a000 <__text_end+0x1324>
      38:	912d0273 	add	x19, x19, #0xb40
      3c:	52800201 	mov	w1, #0x10                  	// #16
      40:	aa1303e0 	mov	x0, x19
      44:	d0000044 	adrp	x4, a000 <__text_end+0x1324>
      48:	912f8884 	add	x4, x4, #0xbe2
      4c:	940001ff 	bl	848 <trace_printf>
/home/hei/Desktop/optee-qemu/optee_examples/typeConfusion/ta/type_confusion.c:18
      50:	d28c0e05 	mov	x5, #0x6070                	// #24688
      54:	aa1303e0 	mov	x0, x19
      58:	f2a80a05 	movk	x5, #0x4050, lsl #16
      5c:	52800023 	mov	w3, #0x1                   	// #1
      60:	f2c40605 	movk	x5, #0x2030, lsl #32
      64:	52800062 	mov	w2, #0x3                   	// #3
      68:	f2e10205 	movk	x5, #0x810, lsl #48
      6c:	52800241 	mov	w1, #0x12                  	// #18
      70:	d0000044 	adrp	x4, a000 <__text_end+0x1324>
      74:	912f1084 	add	x4, x4, #0xbc4
      78:	940001f4 	bl	848 <trace_printf>
/home/hei/Desktop/optee-qemu/optee_examples/typeConfusion/ta/type_confusion.c:20
      7c:	52800000 	mov	w0, #0x0                   	// #0
      80:	f9400bf3 	ldr	x19, [sp, #16]
      84:	a8c37bfd 	ldp	x29, x30, [sp], #48
      88:	d65f03c0 	ret

000000000000008c <TA_DestroyEntryPoint>:
TA_DestroyEntryPoint():
/home/hei/Desktop/optee-qemu/optee_examples/typeConfusion/ta/type_confusion.c:24
      8c:	d0000040 	adrp	x0, a000 <__text_end+0x1324>
      90:	912d0000 	add	x0, x0, #0xb40
      94:	d0000044 	adrp	x4, a000 <__text_end+0x1324>
      98:	52800023 	mov	w3, #0x1                   	// #1
      9c:	912f8884 	add	x4, x4, #0xbe2
      a0:	52800062 	mov	w2, #0x3                   	// #3
      a4:	52800301 	mov	w1, #0x18                  	// #24
      a8:	91005000 	add	x0, x0, #0x14
      ac:	140001e7 	b	848 <trace_printf>

00000000000000b0 <TA_OpenSessionEntryPoint>:
TA_OpenSessionEntryPoint():
/home/hei/Desktop/optee-qemu/optee_examples/typeConfusion/ta/type_confusion.c:30
      b0:	a9be7bfd 	stp	x29, x30, [sp, #-32]!
/home/hei/Desktop/optee-qemu/optee_examples/typeConfusion/ta/type_confusion.c:36
      b4:	d0000044 	adrp	x4, a000 <__text_end+0x1324>
      b8:	52800023 	mov	w3, #0x1                   	// #1
/home/hei/Desktop/optee-qemu/optee_examples/typeConfusion/ta/type_confusion.c:30
      bc:	910003fd 	mov	x29, sp
      c0:	a90153f3 	stp	x19, x20, [sp, #16]
/home/hei/Desktop/optee-qemu/optee_examples/typeConfusion/ta/type_confusion.c:36
      c4:	d0000053 	adrp	x19, a000 <__text_end+0x1324>
      c8:	912d0273 	add	x19, x19, #0xb40
      cc:	9100a673 	add	x19, x19, #0x29
/home/hei/Desktop/optee-qemu/optee_examples/typeConfusion/ta/type_confusion.c:30
      d0:	2a0003f4 	mov	w20, w0
/home/hei/Desktop/optee-qemu/optee_examples/typeConfusion/ta/type_confusion.c:36
      d4:	912f5884 	add	x4, x4, #0xbd6
      d8:	52800062 	mov	w2, #0x3                   	// #3
      dc:	52800481 	mov	w1, #0x24                  	// #36
      e0:	aa1303e0 	mov	x0, x19
      e4:	940001d9 	bl	848 <trace_printf>
/home/hei/Desktop/optee-qemu/optee_examples/typeConfusion/ta/type_confusion.c:38
      e8:	35000194 	cbnz	w20, 118 <TA_OpenSessionEntryPoint+0x68>
/home/hei/Desktop/optee-qemu/optee_examples/typeConfusion/ta/type_confusion.c:49
      ec:	d0000044 	adrp	x4, a000 <__text_end+0x1324>
      f0:	52800023 	mov	w3, #0x1                   	// #1
      f4:	912fc884 	add	x4, x4, #0xbf2
      f8:	52800042 	mov	w2, #0x2                   	// #2
      fc:	52800621 	mov	w1, #0x31                  	// #49
     100:	aa1303e0 	mov	x0, x19
     104:	940001d1 	bl	848 <trace_printf>
/home/hei/Desktop/optee-qemu/optee_examples/typeConfusion/ta/type_confusion.c:52
     108:	2a1403e0 	mov	w0, w20
     10c:	a94153f3 	ldp	x19, x20, [sp, #16]
     110:	a8c27bfd 	ldp	x29, x30, [sp], #32
     114:	d65f03c0 	ret
/home/hei/Desktop/optee-qemu/optee_examples/typeConfusion/ta/type_confusion.c:39
     118:	129fff34 	mov	w20, #0xffff0006            	// #-65530
     11c:	17fffffb 	b	108 <TA_OpenSessionEntryPoint+0x58>

0000000000000120 <TA_CloseSessionEntryPoint>:
TA_CloseSessionEntryPoint():
/home/hei/Desktop/optee-qemu/optee_examples/typeConfusion/ta/type_confusion.c:57
     120:	d0000040 	adrp	x0, a000 <__text_end+0x1324>
     124:	912d0000 	add	x0, x0, #0xb40
     128:	d0000044 	adrp	x4, a000 <__text_end+0x1324>
     12c:	52800023 	mov	w3, #0x1                   	// #1
     130:	91300084 	add	x4, x4, #0xc00
     134:	52800042 	mov	w2, #0x2                   	// #2
     138:	52800721 	mov	w1, #0x39                  	// #57
     13c:	91010800 	add	x0, x0, #0x42
     140:	140001c2 	b	848 <trace_printf>

0000000000000144 <fibufnacci>:
fibufnacci():
/home/hei/Desktop/optee-qemu/optee_examples/typeConfusion/ta/type_confusion.c:62
     144:	a9b67bfd 	stp	x29, x30, [sp, #-160]!
     148:	aa0203e1 	mov	x1, x2
/home/hei/Desktop/optee-qemu/optee_examples/typeConfusion/ta/type_confusion.c:67
     14c:	aa0303e2 	mov	x2, x3
/home/hei/Desktop/optee-qemu/optee_examples/typeConfusion/ta/type_confusion.c:62
     150:	910003fd 	mov	x29, sp
     154:	a90153f3 	stp	x19, x20, [sp, #16]
/home/hei/Desktop/optee-qemu/optee_examples/typeConfusion/ta/type_confusion.c:67
     158:	910083f3 	add	x19, sp, #0x20
/home/hei/Desktop/optee-qemu/optee_examples/typeConfusion/ta/type_confusion.c:68
     15c:	d0000054 	adrp	x20, a000 <__text_end+0x1324>
     160:	912d0294 	add	x20, x20, #0xb40
/home/hei/Desktop/optee-qemu/optee_examples/typeConfusion/ta/type_confusion.c:67
     164:	aa1303e0 	mov	x0, x19
/home/hei/Desktop/optee-qemu/optee_examples/typeConfusion/ta/type_confusion.c:68
     168:	91017294 	add	x20, x20, #0x5c
/home/hei/Desktop/optee-qemu/optee_examples/typeConfusion/ta/type_confusion.c:67
     16c:	940000ea 	bl	514 <memcpy>
/home/hei/Desktop/optee-qemu/optee_examples/typeConfusion/ta/type_confusion.c:68
     170:	aa1303e5 	mov	x5, x19
     174:	aa1403e0 	mov	x0, x20
     178:	52800023 	mov	w3, #0x1                   	// #1
     17c:	52800062 	mov	w2, #0x3                   	// #3
     180:	52800881 	mov	w1, #0x44                  	// #68
     184:	d0000044 	adrp	x4, a000 <__text_end+0x1324>
     188:	91302884 	add	x4, x4, #0xc0a
     18c:	940001af 	bl	848 <trace_printf>
/home/hei/Desktop/optee-qemu/optee_examples/typeConfusion/ta/type_confusion.c:69
     190:	aa1303e5 	mov	x5, x19
     194:	d0000044 	adrp	x4, a000 <__text_end+0x1324>
     198:	91307484 	add	x4, x4, #0xc1d
     19c:	52800023 	mov	w3, #0x1                   	// #1
     1a0:	52800062 	mov	w2, #0x3                   	// #3
     1a4:	528008a1 	mov	w1, #0x45                  	// #69
     1a8:	aa1403e0 	mov	x0, x20
     1ac:	940001a7 	bl	848 <trace_printf>
/home/hei/Desktop/optee-qemu/optee_examples/typeConfusion/ta/type_confusion.c:70
     1b0:	aa1303e0 	mov	x0, x19
     1b4:	940000c7 	bl	4d0 <strdup>
/home/hei/Desktop/optee-qemu/optee_examples/typeConfusion/ta/type_confusion.c:71
     1b8:	a94153f3 	ldp	x19, x20, [sp, #16]
     1bc:	a8ca7bfd 	ldp	x29, x30, [sp], #160
     1c0:	d65f03c0 	ret

00000000000001c4 <TA_InvokeCommandEntryPoint>:
TA_InvokeCommandEntryPoint():
/home/hei/Desktop/optee-qemu/optee_examples/typeConfusion/ta/type_confusion.c:157
     1c4:	a9bb7bfd 	stp	x29, x30, [sp, #-80]!
     1c8:	910003fd 	mov	x29, sp
     1cc:	a90153f3 	stp	x19, x20, [sp, #16]
     1d0:	2a0103f3 	mov	w19, w1
     1d4:	a9025bf5 	stp	x21, x22, [sp, #32]
     1d8:	aa0303f6 	mov	x22, x3
     1dc:	a90363f7 	stp	x23, x24, [sp, #48]
     1e0:	f90023f9 	str	x25, [sp, #64]
     1e4:	2a0203f9 	mov	w25, w2
/home/hei/Desktop/optee-qemu/optee_examples/typeConfusion/ta/type_confusion.c:160
     1e8:	34000161 	cbz	w1, 214 <TA_InvokeCommandEntryPoint+0x50>
     1ec:	7100043f 	cmp	w1, #0x1
     1f0:	54000d80 	b.eq	3a0 <TA_InvokeCommandEntryPoint+0x1dc>  // b.none
/home/hei/Desktop/optee-qemu/optee_examples/typeConfusion/ta/type_confusion.c:167
     1f4:	129fff33 	mov	w19, #0xffff0006            	// #-65530
/home/hei/Desktop/optee-qemu/optee_examples/typeConfusion/ta/type_confusion.c:169
     1f8:	2a1303e0 	mov	w0, w19
     1fc:	a94153f3 	ldp	x19, x20, [sp, #16]
     200:	a9425bf5 	ldp	x21, x22, [sp, #32]
     204:	a94363f7 	ldp	x23, x24, [sp, #48]
     208:	f94023f9 	ldr	x25, [sp, #64]
     20c:	a8c57bfd 	ldp	x29, x30, [sp], #80
     210:	d65f03c0 	ret
call_fibufnacci():
/home/hei/Desktop/optee-qemu/optee_examples/typeConfusion/ta/type_confusion.c:83
     214:	d0000055 	adrp	x21, a000 <__text_end+0x1324>
     218:	912d02b4 	add	x20, x21, #0xb40
     21c:	91019e94 	add	x20, x20, #0x67
     220:	d0000058 	adrp	x24, a000 <__text_end+0x1324>
     224:	aa1403e0 	mov	x0, x20
     228:	9130bf04 	add	x4, x24, #0xc2f
     22c:	52800023 	mov	w3, #0x1                   	// #1
     230:	52800062 	mov	w2, #0x3                   	// #3
     234:	52800a61 	mov	w1, #0x53                  	// #83
     238:	94000184 	bl	848 <trace_printf>
/home/hei/Desktop/optee-qemu/optee_examples/typeConfusion/ta/type_confusion.c:85
     23c:	5282a6e0 	mov	w0, #0x1537                	// #5431
     240:	6b00033f 	cmp	w25, w0
     244:	54000100 	b.eq	264 <TA_InvokeCommandEntryPoint+0xa0>  // b.none
/home/hei/Desktop/optee-qemu/optee_examples/typeConfusion/ta/type_confusion.c:87
     248:	d0000044 	adrp	x4, a000 <__text_end+0x1324>
     24c:	52800023 	mov	w3, #0x1                   	// #1
     250:	91319484 	add	x4, x4, #0xc65
     254:	52800062 	mov	w2, #0x3                   	// #3
     258:	52800ae1 	mov	w1, #0x57                  	// #87
     25c:	aa1403e0 	mov	x0, x20
     260:	9400017a 	bl	848 <trace_printf>
/home/hei/Desktop/optee-qemu/optee_examples/typeConfusion/ta/type_confusion.c:89
     264:	912d02b7 	add	x23, x21, #0xb40
     268:	52800023 	mov	w3, #0x1                   	// #1
     26c:	91019ef7 	add	x23, x23, #0x67
     270:	52800062 	mov	w2, #0x3                   	// #3
     274:	52800b21 	mov	w1, #0x59                  	// #89
     278:	aa1703e0 	mov	x0, x23
     27c:	d0000044 	adrp	x4, a000 <__text_end+0x1324>
     280:	9131c084 	add	x4, x4, #0xc70
     284:	94000171 	bl	848 <trace_printf>
/home/hei/Desktop/optee-qemu/optee_examples/typeConfusion/ta/type_confusion.c:92
     288:	b9402ad9 	ldr	w25, [x22, #40]
reg_pair_to_64():
/home/hei/Desktop/optee-qemu/optee_examples/typeConfusion/ta/type_confusion.c:12
     28c:	294202d4 	ldp	w20, w0, [x22, #16]
call_fibufnacci():
/home/hei/Desktop/optee-qemu/optee_examples/typeConfusion/ta/type_confusion.c:94
     290:	aa1903e5 	mov	x5, x25
     294:	d0000044 	adrp	x4, a000 <__text_end+0x1324>
     298:	52800023 	mov	w3, #0x1                   	// #1
     29c:	91320884 	add	x4, x4, #0xc82
     2a0:	52800062 	mov	w2, #0x3                   	// #3
reg_pair_to_64():
/home/hei/Desktop/optee-qemu/optee_examples/typeConfusion/ta/type_confusion.c:12
     2a4:	aa148014 	orr	x20, x0, x20, lsl #32
call_fibufnacci():
/home/hei/Desktop/optee-qemu/optee_examples/typeConfusion/ta/type_confusion.c:94
     2a8:	52800bc1 	mov	w1, #0x5e                  	// #94
     2ac:	aa1703e0 	mov	x0, x23
     2b0:	94000166 	bl	848 <trace_printf>
/home/hei/Desktop/optee-qemu/optee_examples/typeConfusion/ta/type_confusion.c:95
     2b4:	b9400ac5 	ldr	w5, [x22, #8]
     2b8:	eb25429f 	cmp	x20, w5, uxtw
     2bc:	54000149 	b.ls	2e4 <TA_InvokeCommandEntryPoint+0x120>  // b.plast
/home/hei/Desktop/optee-qemu/optee_examples/typeConfusion/ta/type_confusion.c:97
     2c0:	d0000044 	adrp	x4, a000 <__text_end+0x1324>
     2c4:	52800023 	mov	w3, #0x1                   	// #1
     2c8:	91322c84 	add	x4, x4, #0xc8b
     2cc:	52800062 	mov	w2, #0x3                   	// #3
     2d0:	52800c21 	mov	w1, #0x61                  	// #97
     2d4:	aa1703e0 	mov	x0, x23
     2d8:	9400015c 	bl	848 <trace_printf>
/home/hei/Desktop/optee-qemu/optee_examples/typeConfusion/ta/type_confusion.c:111
     2dc:	129ffdf3 	mov	w19, #0xffff0010            	// #-65520
     2e0:	17ffffc6 	b	1f8 <TA_InvokeCommandEntryPoint+0x34>
/home/hei/Desktop/optee-qemu/optee_examples/typeConfusion/ta/type_confusion.c:101
     2e4:	f94002c0 	ldr	x0, [x22]
     2e8:	aa1403e1 	mov	x1, x20
     2ec:	f94012c2 	ldr	x2, [x22, #32]
     2f0:	aa1903e3 	mov	x3, x25
     2f4:	97ffff94 	bl	144 <fibufnacci>
     2f8:	aa0003f4 	mov	x20, x0
/home/hei/Desktop/optee-qemu/optee_examples/typeConfusion/ta/type_confusion.c:107
     2fc:	94000094 	bl	54c <strlen>
     300:	91000400 	add	x0, x0, #0x1
     304:	b9400ac1 	ldr	w1, [x22, #8]
     308:	eb01001f 	cmp	x0, x1
     30c:	54000169 	b.ls	338 <TA_InvokeCommandEntryPoint+0x174>  // b.plast
/home/hei/Desktop/optee-qemu/optee_examples/typeConfusion/ta/type_confusion.c:109
     310:	d0000044 	adrp	x4, a000 <__text_end+0x1324>
     314:	9132dc84 	add	x4, x4, #0xcb7
     318:	52800023 	mov	w3, #0x1                   	// #1
     31c:	52800062 	mov	w2, #0x3                   	// #3
     320:	52800da1 	mov	w1, #0x6d                  	// #109
     324:	aa1703e0 	mov	x0, x23
     328:	94000148 	bl	848 <trace_printf>
/home/hei/Desktop/optee-qemu/optee_examples/typeConfusion/ta/type_confusion.c:110
     32c:	aa1403e0 	mov	x0, x20
     330:	94000a52 	bl	2c78 <TEE_Free>
     334:	17ffffea 	b	2dc <TA_InvokeCommandEntryPoint+0x118>
/home/hei/Desktop/optee-qemu/optee_examples/typeConfusion/ta/type_confusion.c:113
     338:	f94002c0 	ldr	x0, [x22]
     33c:	aa1403e1 	mov	x1, x20
     340:	9400007d 	bl	534 <strcpy>
/home/hei/Desktop/optee-qemu/optee_examples/typeConfusion/ta/type_confusion.c:114
     344:	aa1403e0 	mov	x0, x20
/home/hei/Desktop/optee-qemu/optee_examples/typeConfusion/ta/type_confusion.c:115
     348:	90000074 	adrp	x20, c000 <_DYNAMIC>
/home/hei/Desktop/optee-qemu/optee_examples/typeConfusion/ta/type_confusion.c:114
     34c:	94000a4b 	bl	2c78 <TEE_Free>
/home/hei/Desktop/optee-qemu/optee_examples/typeConfusion/ta/type_confusion.c:115
     350:	f940a280 	ldr	x0, [x20, #320]
     354:	39400000 	ldrb	w0, [x0]
     358:	34000140 	cbz	w0, 380 <TA_InvokeCommandEntryPoint+0x1bc>
/home/hei/Desktop/optee-qemu/optee_examples/typeConfusion/ta/type_confusion.c:117
     35c:	f940c294 	ldr	x20, [x20, #384]
     360:	d0000044 	adrp	x4, a000 <__text_end+0x1324>
     364:	52800023 	mov	w3, #0x1                   	// #1
     368:	9130b084 	add	x4, x4, #0xc2c
     36c:	52800062 	mov	w2, #0x3                   	// #3
     370:	52800ea1 	mov	w1, #0x75                  	// #117
     374:	f9400285 	ldr	x5, [x20]
     378:	aa1703e0 	mov	x0, x23
     37c:	94000133 	bl	848 <trace_printf>
/home/hei/Desktop/optee-qemu/optee_examples/typeConfusion/ta/type_confusion.c:119
     380:	912d02a0 	add	x0, x21, #0xb40
     384:	9130bf04 	add	x4, x24, #0xc2f
     388:	52800023 	mov	w3, #0x1                   	// #1
     38c:	52800062 	mov	w2, #0x3                   	// #3
     390:	52800ee1 	mov	w1, #0x77                  	// #119
     394:	91019c00 	add	x0, x0, #0x67
     398:	9400012c 	bl	848 <trace_printf>
/home/hei/Desktop/optee-qemu/optee_examples/typeConfusion/ta/type_confusion.c:120
     39c:	17ffff97 	b	1f8 <TA_InvokeCommandEntryPoint+0x34>
show_pointer():
/home/hei/Desktop/optee-qemu/optee_examples/typeConfusion/ta/type_confusion.c:135
     3a0:	d0000055 	adrp	x21, a000 <__text_end+0x1324>
     3a4:	912d02b7 	add	x23, x21, #0xb40
     3a8:	9101def7 	add	x23, x23, #0x77
     3ac:	2a0103e3 	mov	w3, w1
     3b0:	52800062 	mov	w2, #0x3                   	// #3
     3b4:	528010e1 	mov	w1, #0x87                  	// #135
     3b8:	aa1703e0 	mov	x0, x23
     3bc:	d0000044 	adrp	x4, a000 <__text_end+0x1324>
     3c0:	9130bc84 	add	x4, x4, #0xc2f
     3c4:	94000121 	bl	848 <trace_printf>
/home/hei/Desktop/optee-qemu/optee_examples/typeConfusion/ta/type_confusion.c:136
     3c8:	d0000044 	adrp	x4, a000 <__text_end+0x1324>
     3cc:	2a1303e3 	mov	w3, w19
     3d0:	91335484 	add	x4, x4, #0xcd5
     3d4:	52800062 	mov	w2, #0x3                   	// #3
     3d8:	52801101 	mov	w1, #0x88                  	// #136
     3dc:	aa1703e0 	mov	x0, x23
     3e0:	9400011a 	bl	848 <trace_printf>
/home/hei/Desktop/optee-qemu/optee_examples/typeConfusion/ta/type_confusion.c:137
     3e4:	71000f3f 	cmp	w25, #0x3
     3e8:	54000100 	b.eq	408 <TA_InvokeCommandEntryPoint+0x244>  // b.none
/home/hei/Desktop/optee-qemu/optee_examples/typeConfusion/ta/type_confusion.c:139
     3ec:	d0000044 	adrp	x4, a000 <__text_end+0x1324>
     3f0:	2a1303e3 	mov	w3, w19
     3f4:	91319484 	add	x4, x4, #0xc65
     3f8:	52800062 	mov	w2, #0x3                   	// #3
     3fc:	52801161 	mov	w1, #0x8b                  	// #139
     400:	aa1703e0 	mov	x0, x23
     404:	94000111 	bl	848 <trace_printf>
/home/hei/Desktop/optee-qemu/optee_examples/typeConfusion/ta/type_confusion.c:141
     408:	90000074 	adrp	x20, c000 <_DYNAMIC>
     40c:	912d02b3 	add	x19, x21, #0xb40
     410:	9101de73 	add	x19, x19, #0x77
     414:	52800023 	mov	w3, #0x1                   	// #1
     418:	f940c297 	ldr	x23, [x20, #384]
     41c:	52800062 	mov	w2, #0x3                   	// #3
     420:	528011a1 	mov	w1, #0x8d                  	// #141
     424:	aa1303e0 	mov	x0, x19
     428:	d0000044 	adrp	x4, a000 <__text_end+0x1324>
     42c:	9133ac84 	add	x4, x4, #0xceb
     430:	f94002e5 	ldr	x5, [x23]
     434:	94000105 	bl	848 <trace_printf>
/home/hei/Desktop/optee-qemu/optee_examples/typeConfusion/ta/type_confusion.c:142
     438:	f94002e5 	ldr	x5, [x23]
     43c:	52800023 	mov	w3, #0x1                   	// #1
     440:	52800062 	mov	w2, #0x3                   	// #3
     444:	528011c1 	mov	w1, #0x8e                  	// #142
     448:	aa1303e0 	mov	x0, x19
     44c:	d0000044 	adrp	x4, a000 <__text_end+0x1324>
     450:	9133e084 	add	x4, x4, #0xcf8
     454:	940000fd 	bl	848 <trace_printf>
/home/hei/Desktop/optee-qemu/optee_examples/typeConfusion/ta/type_confusion.c:143
     458:	f94002e0 	ldr	x0, [x23]
     45c:	b90002c0 	str	w0, [x22]
/home/hei/Desktop/optee-qemu/optee_examples/typeConfusion/ta/type_confusion.c:144
     460:	d0000044 	adrp	x4, a000 <__text_end+0x1324>
     464:	aa1303e0 	mov	x0, x19
     468:	f94002c5 	ldr	x5, [x22]
     46c:	91342084 	add	x4, x4, #0xd08
     470:	52800023 	mov	w3, #0x1                   	// #1
     474:	52800062 	mov	w2, #0x3                   	// #3
     478:	52801201 	mov	w1, #0x90                  	// #144
     47c:	940000f3 	bl	848 <trace_printf>
/home/hei/Desktop/optee-qemu/optee_examples/typeConfusion/ta/type_confusion.c:145
     480:	f940a294 	ldr	x20, [x20, #320]
     484:	39400280 	ldrb	w0, [x20]
     488:	34000120 	cbz	w0, 4ac <TA_InvokeCommandEntryPoint+0x2e8>
/home/hei/Desktop/optee-qemu/optee_examples/typeConfusion/ta/type_confusion.c:147
     48c:	f94002e5 	ldr	x5, [x23]
     490:	d0000044 	adrp	x4, a000 <__text_end+0x1324>
     494:	52800023 	mov	w3, #0x1                   	// #1
     498:	9130b084 	add	x4, x4, #0xc2c
     49c:	52800062 	mov	w2, #0x3                   	// #3
     4a0:	52801261 	mov	w1, #0x93                  	// #147
     4a4:	aa1303e0 	mov	x0, x19
     4a8:	940000e8 	bl	848 <trace_printf>
TA_InvokeCommandEntryPoint():
/home/hei/Desktop/optee-qemu/optee_examples/typeConfusion/ta/type_confusion.c:164
     4ac:	52800013 	mov	w19, #0x0                   	// #0
     4b0:	17ffff52 	b	1f8 <TA_InvokeCommandEntryPoint+0x34>

00000000000004b4 <__ta_entry>:
__ta_entry():
/home/hei/Desktop/optee-qemu/optee_os/out/arm/export-ta_arm64/src/user_ta_header.c:47
     4b4:	a9bf7bfd 	stp	x29, x30, [sp, #-16]!
     4b8:	910003fd 	mov	x29, sp
/home/hei/Desktop/optee-qemu/optee_os/out/arm/export-ta_arm64/src/user_ta_header.c:48
     4bc:	94000b71 	bl	3280 <__utee_entry>
/home/hei/Desktop/optee-qemu/optee_os/out/arm/export-ta_arm64/src/user_ta_header.c:59
     4c0:	2a0003e0 	mov	w0, w0
     4c4:	94000a5b 	bl	2e30 <utee_return>

00000000000004c8 <tahead_get_trace_level>:
tahead_get_trace_level():
/home/hei/Desktop/optee-qemu/optee_os/out/arm/export-ta_arm64/src/user_ta_header.c:149
     4c8:	52800080 	mov	w0, #0x4                   	// #4
     4cc:	d65f03c0 	ret

00000000000004d0 <strdup>:
strdup():
/home/hei/Desktop/optee-qemu/optee_os/lib/libutils/isoc/strdup.c:9
     4d0:	a9bd7bfd 	stp	x29, x30, [sp, #-48]!
     4d4:	910003fd 	mov	x29, sp
     4d8:	a90153f3 	stp	x19, x20, [sp, #16]
     4dc:	f90017e0 	str	x0, [sp, #40]
/home/hei/Desktop/optee-qemu/optee_os/lib/libutils/isoc/strdup.c:10
     4e0:	9400001b 	bl	54c <strlen>
     4e4:	91000414 	add	x20, x0, #0x1
/home/hei/Desktop/optee-qemu/optee_os/lib/libutils/isoc/strdup.c:11
     4e8:	aa1403e0 	mov	x0, x20
     4ec:	94000343 	bl	11f8 <malloc>
     4f0:	aa0003f3 	mov	x19, x0
/home/hei/Desktop/optee-qemu/optee_os/lib/libutils/isoc/strdup.c:13
     4f4:	b4000080 	cbz	x0, 504 <strdup+0x34>
/home/hei/Desktop/optee-qemu/optee_os/lib/libutils/isoc/strdup.c:14
     4f8:	f94017e1 	ldr	x1, [sp, #40]
     4fc:	aa1403e2 	mov	x2, x20
     500:	94000005 	bl	514 <memcpy>
/home/hei/Desktop/optee-qemu/optee_os/lib/libutils/isoc/strdup.c:16
     504:	aa1303e0 	mov	x0, x19
     508:	a94153f3 	ldp	x19, x20, [sp, #16]
     50c:	a8c37bfd 	ldp	x29, x30, [sp], #48
     510:	d65f03c0 	ret

0000000000000514 <memcpy>:
memcpy():
/home/hei/Desktop/optee-qemu/optee_os/lib/libutils/isoc/newlib/memcpy.c:94
     514:	d2800003 	mov	x3, #0x0                   	// #0
     518:	eb03005f 	cmp	x2, x3
     51c:	54000041 	b.ne	524 <memcpy+0x10>  // b.any
/home/hei/Desktop/optee-qemu/optee_os/lib/libutils/isoc/newlib/memcpy.c:135
     520:	d65f03c0 	ret
/home/hei/Desktop/optee-qemu/optee_os/lib/libutils/isoc/newlib/memcpy.c:95
     524:	38636824 	ldrb	w4, [x1, x3]
     528:	38236804 	strb	w4, [x0, x3]
     52c:	91000463 	add	x3, x3, #0x1
     530:	17fffffa 	b	518 <memcpy+0x4>

0000000000000534 <strcpy>:
strcpy():
/home/hei/Desktop/optee-qemu/optee_os/lib/libutils/isoc/newlib/strcpy.c:101
     534:	d2800002 	mov	x2, #0x0                   	// #0
/home/hei/Desktop/optee-qemu/optee_os/lib/libutils/isoc/newlib/strcpy.c:101 (discriminator 1)
     538:	38626823 	ldrb	w3, [x1, x2]
     53c:	38226803 	strb	w3, [x0, x2]
     540:	91000442 	add	x2, x2, #0x1
     544:	35ffffa3 	cbnz	w3, 538 <strcpy+0x4>
/home/hei/Desktop/optee-qemu/optee_os/lib/libutils/isoc/newlib/strcpy.c:132
     548:	d65f03c0 	ret

000000000000054c <strlen>:
strlen():
/home/hei/Desktop/optee-qemu/optee_os/lib/libutils/isoc/newlib/strlen.c:117
     54c:	aa0003e1 	mov	x1, x0
     550:	39400022 	ldrb	w2, [x1]
     554:	35000062 	cbnz	w2, 560 <strlen+0x14>
/home/hei/Desktop/optee-qemu/optee_os/lib/libutils/isoc/newlib/strlen.c:120
     558:	cb000020 	sub	x0, x1, x0
     55c:	d65f03c0 	ret
/home/hei/Desktop/optee-qemu/optee_os/lib/libutils/isoc/newlib/strlen.c:118
     560:	91000421 	add	x1, x1, #0x1
     564:	17fffffb 	b	550 <strlen+0x4>

0000000000000568 <append>:
append():
/home/hei/Desktop/optee-qemu/optee_os/lib/libutils/ext/trace.c:204
     568:	a9af7bfd 	stp	x29, x30, [sp, #-272]!
     56c:	910003fd 	mov	x29, sp
     570:	3d801be0 	str	q0, [sp, #96]
     574:	3d801fe1 	str	q1, [sp, #112]
     578:	3d8023e2 	str	q2, [sp, #128]
     57c:	3d8027e3 	str	q3, [sp, #144]
     580:	3d802be4 	str	q4, [sp, #160]
     584:	3d802fe5 	str	q5, [sp, #176]
     588:	3d8033e6 	str	q6, [sp, #192]
     58c:	3d8037e7 	str	q7, [sp, #208]
     590:	a90e0fe2 	stp	x2, x3, [sp, #224]
     594:	a90f17e4 	stp	x4, x5, [sp, #240]
     598:	a9101fe6 	stp	x6, x7, [sp, #256]
     59c:	a90153f3 	stp	x19, x20, [sp, #16]
     5a0:	aa0003f3 	mov	x19, x0
/home/hei/Desktop/optee-qemu/optee_os/lib/libutils/ext/trace.c:209
     5a4:	f9408000 	ldr	x0, [x0, #256]
     5a8:	b5000040 	cbnz	x0, 5b0 <append+0x48>
/home/hei/Desktop/optee-qemu/optee_os/lib/libutils/ext/trace.c:210
     5ac:	f9008273 	str	x19, [x19, #256]
/home/hei/Desktop/optee-qemu/optee_os/lib/libutils/ext/trace.c:212
     5b0:	910443e2 	add	x2, sp, #0x110
     5b4:	a9040be2 	stp	x2, x2, [sp, #64]
     5b8:	910383e2 	add	x2, sp, #0xe0
     5bc:	f9002be2 	str	x2, [sp, #80]
     5c0:	128005e2 	mov	w2, #0xffffffd0            	// #-48
/home/hei/Desktop/optee-qemu/optee_os/lib/libutils/ext/trace.c:211
     5c4:	f9408260 	ldr	x0, [x19, #256]
/home/hei/Desktop/optee-qemu/optee_os/lib/libutils/ext/trace.c:212
     5c8:	b9005be2 	str	w2, [sp, #88]
     5cc:	12800fe2 	mov	w2, #0xffffff80            	// #-128
     5d0:	b9005fe2 	str	w2, [sp, #92]
/home/hei/Desktop/optee-qemu/optee_os/lib/libutils/ext/trace.c:213
     5d4:	a9440fe2 	ldp	x2, x3, [sp, #64]
/home/hei/Desktop/optee-qemu/optee_os/lib/libutils/ext/trace.c:211
     5d8:	4b000274 	sub	w20, w19, w0
/home/hei/Desktop/optee-qemu/optee_os/lib/libutils/ext/trace.c:213
     5dc:	a9020fe2 	stp	x2, x3, [sp, #32]
/home/hei/Desktop/optee-qemu/optee_os/lib/libutils/ext/trace.c:211
     5e0:	11040294 	add	w20, w20, #0x100
/home/hei/Desktop/optee-qemu/optee_os/lib/libutils/ext/trace.c:213
     5e4:	a9450fe2 	ldp	x2, x3, [sp, #80]
     5e8:	a9030fe2 	stp	x2, x3, [sp, #48]
     5ec:	aa0103e2 	mov	x2, x1
     5f0:	910083e3 	add	x3, sp, #0x20
     5f4:	93407e81 	sxtw	x1, w20
     5f8:	94000730 	bl	22b8 <vsnprintk>
/home/hei/Desktop/optee-qemu/optee_os/lib/libutils/ext/trace.c:215
     5fc:	37f80140 	tbnz	w0, #31, 624 <append+0xbc>
/home/hei/Desktop/optee-qemu/optee_os/lib/libutils/ext/trace.c:219
     600:	6b00029f 	cmp	w20, w0
     604:	5400010d 	b.le	624 <append+0xbc>
/home/hei/Desktop/optee-qemu/optee_os/lib/libutils/ext/trace.c:223
     608:	f9408261 	ldr	x1, [x19, #256]
     60c:	8b20c020 	add	x0, x1, w0, sxtw
     610:	f9008260 	str	x0, [x19, #256]
/home/hei/Desktop/optee-qemu/optee_os/lib/libutils/ext/trace.c:224
     614:	52800020 	mov	w0, #0x1                   	// #1
/home/hei/Desktop/optee-qemu/optee_os/lib/libutils/ext/trace.c:225
     618:	a94153f3 	ldp	x19, x20, [sp, #16]
     61c:	a8d17bfd 	ldp	x29, x30, [sp], #272
     620:	d65f03c0 	ret
/home/hei/Desktop/optee-qemu/optee_os/lib/libutils/ext/trace.c:217
     624:	52800000 	mov	w0, #0x0                   	// #0
     628:	17fffffc 	b	618 <append+0xb0>

000000000000062c <trace_set_level>:
trace_set_level():
/home/hei/Desktop/optee-qemu/optee_os/lib/libutils/ext/trace.c:29
     62c:	7100141f 	cmp	w0, #0x5
     630:	52800081 	mov	w1, #0x4                   	// #4
     634:	1a813000 	csel	w0, w0, w1, cc  // cc = lo, ul, last
     638:	90000061 	adrp	x1, c000 <_DYNAMIC>
     63c:	f9409c21 	ldr	x1, [x1, #312]
     640:	b9000020 	str	w0, [x1]
/home/hei/Desktop/optee-qemu/optee_os/lib/libutils/ext/trace.c:30
     644:	d65f03c0 	ret

0000000000000648 <trace_get_level>:
trace_get_level():
/home/hei/Desktop/optee-qemu/optee_os/lib/libutils/ext/trace.c:34
     648:	90000060 	adrp	x0, c000 <_DYNAMIC>
/home/hei/Desktop/optee-qemu/optee_os/lib/libutils/ext/trace.c:35
     64c:	f9409c00 	ldr	x0, [x0, #312]
     650:	b9400000 	ldr	w0, [x0]
     654:	d65f03c0 	ret

0000000000000658 <trace_vprintf>:
trace_vprintf():
/home/hei/Desktop/optee-qemu/optee_os/lib/libutils/ext/trace.c:106
     658:	a9a87bfd 	stp	x29, x30, [sp, #-384]!
     65c:	910003fd 	mov	x29, sp
     660:	a90153f3 	stp	x19, x20, [sp, #16]
     664:	a9025bf5 	stp	x21, x22, [sp, #32]
     668:	a90363f7 	stp	x23, x24, [sp, #48]
/home/hei/Desktop/optee-qemu/optee_os/lib/libutils/ext/trace.c:111
     66c:	72001c77 	ands	w23, w3, #0xff
/home/hei/Desktop/optee-qemu/optee_os/lib/libutils/ext/trace.c:106
     670:	a9046bf9 	stp	x25, x26, [sp, #64]
     674:	f9002bfb 	str	x27, [sp, #80]
/home/hei/Desktop/optee-qemu/optee_os/lib/libutils/ext/trace.c:111
     678:	54000c00 	b.eq	7f8 <trace_vprintf+0x1a0>  // b.none
/home/hei/Desktop/optee-qemu/optee_os/lib/libutils/ext/trace.c:111 (discriminator 1)
     67c:	90000063 	adrp	x3, c000 <_DYNAMIC>
     680:	f9409c63 	ldr	x3, [x3, #312]
     684:	b9400063 	ldr	w3, [x3]
     688:	6b02007f 	cmp	w3, w2
     68c:	54000a8b 	b.lt	7dc <trace_vprintf+0x184>  // b.tstop
trace_level_to_string():
/home/hei/Desktop/optee-qemu/optee_os/lib/libutils/ext/trace.c:52
     690:	7100105f 	cmp	w2, #0x4
/home/hei/Desktop/optee-qemu/optee_os/lib/libutils/ext/trace.c:55
     694:	d0000043 	adrp	x3, a000 <__text_end+0x1324>
/home/hei/Desktop/optee-qemu/optee_os/lib/libutils/ext/trace.c:52
     698:	1a9f9046 	csel	w6, w2, wzr, ls  // ls = plast
/home/hei/Desktop/optee-qemu/optee_os/lib/libutils/ext/trace.c:55
     69c:	913a2463 	add	x3, x3, #0xe89
     6a0:	3866c863 	ldrb	w3, [x3, w6, sxtw]
trace_vprintf():
/home/hei/Desktop/optee-qemu/optee_os/lib/libutils/ext/trace.c:115
     6a4:	910203f4 	add	x20, sp, #0x80
     6a8:	2a0203f8 	mov	w24, w2
     6ac:	2a0103fb 	mov	w27, w1
     6b0:	aa0003f6 	mov	x22, x0
     6b4:	d0000042 	adrp	x2, a000 <__text_end+0x1324>
     6b8:	aa0503fa 	mov	x26, x5
     6bc:	aa0403f9 	mov	x25, x4
     6c0:	913a6042 	add	x2, x2, #0xe98
     6c4:	d2802001 	mov	x1, #0x100                 	// #256
     6c8:	aa1403e0 	mov	x0, x20
     6cc:	94000710 	bl	230c <snprintk>
/home/hei/Desktop/optee-qemu/optee_os/lib/libutils/ext/trace.c:117
     6d0:	37f80860 	tbnz	w0, #31, 7dc <trace_vprintf+0x184>
/home/hei/Desktop/optee-qemu/optee_os/lib/libutils/ext/trace.c:122
     6d4:	90000063 	adrp	x3, c000 <_DYNAMIC>
/home/hei/Desktop/optee-qemu/optee_os/lib/libutils/ext/trace.c:119
     6d8:	93407c15 	sxtw	x21, w0
/home/hei/Desktop/optee-qemu/optee_os/lib/libutils/ext/trace.c:122
     6dc:	d2802013 	mov	x19, #0x100                 	// #256
     6e0:	d0000042 	adrp	x2, a000 <__text_end+0x1324>
     6e4:	f940a463 	ldr	x3, [x3, #328]
     6e8:	913a7042 	add	x2, x2, #0xe9c
     6ec:	cb150261 	sub	x1, x19, x21
     6f0:	8b150280 	add	x0, x20, x21
     6f4:	94000706 	bl	230c <snprintk>
/home/hei/Desktop/optee-qemu/optee_os/lib/libutils/ext/trace.c:124
     6f8:	37f80720 	tbnz	w0, #31, 7dc <trace_vprintf+0x184>
/home/hei/Desktop/optee-qemu/optee_os/lib/libutils/ext/trace.c:126
     6fc:	8b20c2b5 	add	x21, x21, w0, sxtw
/home/hei/Desktop/optee-qemu/optee_os/lib/libutils/ext/trace.c:128
     700:	34000937 	cbz	w23, 824 <trace_vprintf+0x1cc>
/home/hei/Desktop/optee-qemu/optee_os/lib/libutils/ext/trace.c:128 (discriminator 1)
     704:	52800342 	mov	w2, #0x1a                  	// #26
     708:	1ad82442 	lsr	w2, w2, w24
     70c:	360008c2 	tbz	w2, #0, 824 <trace_vprintf+0x1cc>
/home/hei/Desktop/optee-qemu/optee_os/lib/libutils/ext/trace.c:130
     710:	8b150297 	add	x23, x20, x21
     714:	cb150273 	sub	x19, x19, x21
print_thread_id():
/home/hei/Desktop/optee-qemu/optee_os/lib/libutils/ext/trace.c:65
     718:	9400072f 	bl	23d4 <trace_ext_get_thread_id>
/home/hei/Desktop/optee-qemu/optee_os/lib/libutils/ext/trace.c:67
     71c:	37f80720 	tbnz	w0, #31, 800 <trace_vprintf+0x1a8>
/home/hei/Desktop/optee-qemu/optee_os/lib/libutils/ext/trace.c:68
     720:	2a0003e4 	mov	w4, w0
     724:	d0000042 	adrp	x2, a000 <__text_end+0x1324>
     728:	52800023 	mov	w3, #0x1                   	// #1
     72c:	913a8042 	add	x2, x2, #0xea0
     730:	aa1303e1 	mov	x1, x19
     734:	aa1703e0 	mov	x0, x23
     738:	940006f5 	bl	230c <snprintk>
trace_vprintf():
/home/hei/Desktop/optee-qemu/optee_os/lib/libutils/ext/trace.c:137
     73c:	37f80500 	tbnz	w0, #31, 7dc <trace_vprintf+0x184>
/home/hei/Desktop/optee-qemu/optee_os/lib/libutils/ext/trace.c:139
     740:	8b20c2b3 	add	x19, x21, w0, sxtw
/home/hei/Desktop/optee-qemu/optee_os/lib/libutils/ext/trace.c:141
     744:	b4000176 	cbz	x22, 770 <trace_vprintf+0x118>
/home/hei/Desktop/optee-qemu/optee_os/lib/libutils/ext/trace.c:142
     748:	d0000042 	adrp	x2, a000 <__text_end+0x1324>
     74c:	d2802001 	mov	x1, #0x100                 	// #256
     750:	2a1b03e4 	mov	w4, w27
     754:	aa1603e3 	mov	x3, x22
     758:	913aac42 	add	x2, x2, #0xeab
     75c:	cb130021 	sub	x1, x1, x19
     760:	8b130280 	add	x0, x20, x19
     764:	940006ea 	bl	230c <snprintk>
/home/hei/Desktop/optee-qemu/optee_os/lib/libutils/ext/trace.c:144
     768:	37f803a0 	tbnz	w0, #31, 7dc <trace_vprintf+0x184>
/home/hei/Desktop/optee-qemu/optee_os/lib/libutils/ext/trace.c:146
     76c:	8b20c273 	add	x19, x19, w0, sxtw
/home/hei/Desktop/optee-qemu/optee_os/lib/libutils/ext/trace.c:156
     770:	910183e3 	add	x3, sp, #0x60
     774:	d2800402 	mov	x2, #0x20                  	// #32
     778:	aa1a03e1 	mov	x1, x26
     77c:	aa0303e0 	mov	x0, x3
     780:	97ffff65 	bl	514 <memcpy>
     784:	aa0003e3 	mov	x3, x0
     788:	aa1903e2 	mov	x2, x25
     78c:	d2802001 	mov	x1, #0x100                 	// #256
     790:	8b130280 	add	x0, x20, x19
     794:	cb130021 	sub	x1, x1, x19
     798:	940006c8 	bl	22b8 <vsnprintk>
/home/hei/Desktop/optee-qemu/optee_os/lib/libutils/ext/trace.c:157
     79c:	7100001f 	cmp	w0, #0x0
     7a0:	5400004d 	b.le	7a8 <trace_vprintf+0x150>
/home/hei/Desktop/optee-qemu/optee_os/lib/libutils/ext/trace.c:158
     7a4:	8b20c273 	add	x19, x19, w0, sxtw
/home/hei/Desktop/optee-qemu/optee_os/lib/libutils/ext/trace.c:160
     7a8:	f103fa7f 	cmp	x19, #0xfe
     7ac:	d2801fc0 	mov	x0, #0xfe                  	// #254
     7b0:	9a809273 	csel	x19, x19, x0, ls  // ls = plast
/home/hei/Desktop/optee-qemu/optee_os/lib/libutils/ext/trace.c:163
     7b4:	52800140 	mov	w0, #0xa                   	// #10
     7b8:	38336a80 	strb	w0, [x20, x19]
/home/hei/Desktop/optee-qemu/optee_os/lib/libutils/ext/trace.c:164
     7bc:	b4000093 	cbz	x19, 7cc <trace_vprintf+0x174>
/home/hei/Desktop/optee-qemu/optee_os/lib/libutils/ext/trace.c:164 (discriminator 1)
     7c0:	38736a80 	ldrb	w0, [x20, x19]
     7c4:	7100281f 	cmp	w0, #0xa
     7c8:	540003c0 	b.eq	840 <trace_vprintf+0x1e8>  // b.none
/home/hei/Desktop/optee-qemu/optee_os/lib/libutils/ext/trace.c:167
     7cc:	91020be0 	add	x0, sp, #0x82
     7d0:	3833681f 	strb	wzr, [x0, x19]
/home/hei/Desktop/optee-qemu/optee_os/lib/libutils/ext/trace.c:169
     7d4:	aa1403e0 	mov	x0, x20
     7d8:	940006f5 	bl	23ac <trace_ext_puts>
/home/hei/Desktop/optee-qemu/optee_os/lib/libutils/ext/trace.c:170
     7dc:	a94153f3 	ldp	x19, x20, [sp, #16]
     7e0:	a9425bf5 	ldp	x21, x22, [sp, #32]
     7e4:	a94363f7 	ldp	x23, x24, [sp, #48]
     7e8:	a9446bf9 	ldp	x25, x26, [sp, #64]
     7ec:	f9402bfb 	ldr	x27, [sp, #80]
     7f0:	a8d87bfd 	ldp	x29, x30, [sp], #384
     7f4:	d65f03c0 	ret
trace_level_to_string():
/home/hei/Desktop/optee-qemu/optee_os/lib/libutils/ext/trace.c:50
     7f8:	528009a3 	mov	w3, #0x4d                  	// #77
     7fc:	17ffffaa 	b	6a4 <trace_vprintf+0x4c>
print_thread_id():
/home/hei/Desktop/optee-qemu/optee_os/lib/libutils/ext/trace.c:70
     800:	d0000044 	adrp	x4, a000 <__text_end+0x1324>
     804:	52800023 	mov	w3, #0x1                   	// #1
     808:	91320484 	add	x4, x4, #0xc81
     80c:	d0000042 	adrp	x2, a000 <__text_end+0x1324>
     810:	aa1303e1 	mov	x1, x19
     814:	913a9842 	add	x2, x2, #0xea6
     818:	aa1703e0 	mov	x0, x23
     81c:	940006bc 	bl	230c <snprintk>
     820:	17ffffc7 	b	73c <trace_vprintf+0xe4>
trace_vprintf():
/home/hei/Desktop/optee-qemu/optee_os/lib/libutils/ext/trace.c:150
     824:	f103fabf 	cmp	x21, #0xfe
     828:	54fffda8 	b.hi	7dc <trace_vprintf+0x184>  // b.pmore
/home/hei/Desktop/optee-qemu/optee_os/lib/libutils/ext/trace.c:152
     82c:	910006b3 	add	x19, x21, #0x1
     830:	52800400 	mov	w0, #0x20                  	// #32
     834:	38356a80 	strb	w0, [x20, x21]
/home/hei/Desktop/optee-qemu/optee_os/lib/libutils/ext/trace.c:153
     838:	38336a9f 	strb	wzr, [x20, x19]
     83c:	17ffffcd 	b	770 <trace_vprintf+0x118>
/home/hei/Desktop/optee-qemu/optee_os/lib/libutils/ext/trace.c:165
     840:	d1000673 	sub	x19, x19, #0x1
     844:	17ffffde 	b	7bc <trace_vprintf+0x164>

0000000000000848 <trace_printf>:
trace_printf():
/home/hei/Desktop/optee-qemu/optee_os/lib/libutils/ext/trace.c:97
     848:	a9b17bfd 	stp	x29, x30, [sp, #-240]!
     84c:	910003fd 	mov	x29, sp
     850:	a90d9be5 	stp	x5, x6, [sp, #216]
/home/hei/Desktop/optee-qemu/optee_os/lib/libutils/ext/trace.c:100
     854:	9103c3e5 	add	x5, sp, #0xf0
     858:	a90317e5 	stp	x5, x5, [sp, #48]
     85c:	910343e5 	add	x5, sp, #0xd0
     860:	f90023e5 	str	x5, [sp, #64]
     864:	128002e5 	mov	w5, #0xffffffe8            	// #-24
     868:	b9004be5 	str	w5, [sp, #72]
     86c:	12800fe5 	mov	w5, #0xffffff80            	// #-128
     870:	b9004fe5 	str	w5, [sp, #76]
/home/hei/Desktop/optee-qemu/optee_os/lib/libutils/ext/trace.c:101
     874:	910043e5 	add	x5, sp, #0x10
/home/hei/Desktop/optee-qemu/optee_os/lib/libutils/ext/trace.c:97
     878:	f90077e7 	str	x7, [sp, #232]
/home/hei/Desktop/optee-qemu/optee_os/lib/libutils/ext/trace.c:101
     87c:	a9431fe6 	ldp	x6, x7, [sp, #48]
     880:	a9011fe6 	stp	x6, x7, [sp, #16]
     884:	a9441fe6 	ldp	x6, x7, [sp, #64]
     888:	a9021fe6 	stp	x6, x7, [sp, #32]
/home/hei/Desktop/optee-qemu/optee_os/lib/libutils/ext/trace.c:97
     88c:	3d8017e0 	str	q0, [sp, #80]
     890:	3d801be1 	str	q1, [sp, #96]
     894:	3d801fe2 	str	q2, [sp, #112]
     898:	3d8023e3 	str	q3, [sp, #128]
     89c:	3d8027e4 	str	q4, [sp, #144]
     8a0:	3d802be5 	str	q5, [sp, #160]
     8a4:	3d802fe6 	str	q6, [sp, #176]
     8a8:	3d8033e7 	str	q7, [sp, #192]
/home/hei/Desktop/optee-qemu/optee_os/lib/libutils/ext/trace.c:101
     8ac:	97ffff6b 	bl	658 <trace_vprintf>
/home/hei/Desktop/optee-qemu/optee_os/lib/libutils/ext/trace.c:103
     8b0:	a8cf7bfd 	ldp	x29, x30, [sp], #240
     8b4:	d65f03c0 	ret

00000000000008b8 <dhex_dump>:
dhex_dump():
/home/hei/Desktop/optee-qemu/optee_os/lib/libutils/ext/trace.c:235
     8b8:	90000065 	adrp	x5, c000 <_DYNAMIC>
     8bc:	f9409ca5 	ldr	x5, [x5, #312]
     8c0:	b94000a5 	ldr	w5, [x5]
     8c4:	6b0200bf 	cmp	w5, w2
     8c8:	54000acb 	b.lt	a20 <dhex_dump+0x168>  // b.tstop
/home/hei/Desktop/optee-qemu/optee_os/lib/libutils/ext/trace.c:229
     8cc:	a9a97bfd 	stp	x29, x30, [sp, #-368]!
     8d0:	910003fd 	mov	x29, sp
     8d4:	a90153f3 	stp	x19, x20, [sp, #16]
     8d8:	2a0203f4 	mov	w20, w2
/home/hei/Desktop/optee-qemu/optee_os/lib/libutils/ext/trace.c:237
     8dc:	d2800013 	mov	x19, #0x0                   	// #0
/home/hei/Desktop/optee-qemu/optee_os/lib/libutils/ext/trace.c:229
     8e0:	a9025bf5 	stp	x21, x22, [sp, #32]
     8e4:	2a0103f6 	mov	w22, w1
     8e8:	aa0003f5 	mov	x21, x0
     8ec:	a90363f7 	stp	x23, x24, [sp, #48]
     8f0:	aa0303f8 	mov	x24, x3
     8f4:	9101a3f7 	add	x23, sp, #0x68
     8f8:	a9046bf9 	stp	x25, x26, [sp, #64]
/home/hei/Desktop/optee-qemu/optee_os/lib/libutils/ext/trace.c:239
     8fc:	d000005a 	adrp	x26, a000 <__text_end+0x1324>
     900:	2a0403f9 	mov	w25, w4
     904:	913ae35a 	add	x26, x26, #0xeb8
/home/hei/Desktop/optee-qemu/optee_os/lib/libutils/ext/trace.c:229
     908:	a90573fb 	stp	x27, x28, [sp, #80]
/home/hei/Desktop/optee-qemu/optee_os/lib/libutils/ext/trace.c:244
     90c:	d000005b 	adrp	x27, a000 <__text_end+0x1324>
     910:	913acb7b 	add	x27, x27, #0xeb2
/home/hei/Desktop/optee-qemu/optee_os/lib/libutils/ext/trace.c:236
     914:	f900b7ff 	str	xzr, [sp, #360]
/home/hei/Desktop/optee-qemu/optee_os/lib/libutils/ext/trace.c:237
     918:	2a1303fc 	mov	w28, w19
/home/hei/Desktop/optee-qemu/optee_os/lib/libutils/ext/trace.c:237 (discriminator 1)
     91c:	6b13033f 	cmp	w25, w19
     920:	5400024c 	b.gt	968 <dhex_dump+0xb0>
/home/hei/Desktop/optee-qemu/optee_os/lib/libutils/ext/trace.c:257
     924:	f940b7e0 	ldr	x0, [sp, #360]
     928:	b4000120 	cbz	x0, 94c <dhex_dump+0x94>
/home/hei/Desktop/optee-qemu/optee_os/lib/libutils/ext/trace.c:259
     92c:	d0000044 	adrp	x4, a000 <__text_end+0x1324>
     930:	9101a3e5 	add	x5, sp, #0x68
     934:	9130b084 	add	x4, x4, #0xc2c
     938:	52800023 	mov	w3, #0x1                   	// #1
     93c:	2a1403e2 	mov	w2, w20
     940:	2a1603e1 	mov	w1, w22
     944:	aa1503e0 	mov	x0, x21
     948:	97ffffc0 	bl	848 <trace_printf>
/home/hei/Desktop/optee-qemu/optee_os/lib/libutils/ext/trace.c:267
     94c:	a94153f3 	ldp	x19, x20, [sp, #16]
     950:	a9425bf5 	ldp	x21, x22, [sp, #32]
     954:	a94363f7 	ldp	x23, x24, [sp, #48]
     958:	a9446bf9 	ldp	x25, x26, [sp, #64]
     95c:	a94573fb 	ldp	x27, x28, [sp, #80]
     960:	a8d77bfd 	ldp	x29, x30, [sp], #368
     964:	d65f03c0 	ret
/home/hei/Desktop/optee-qemu/optee_os/lib/libutils/ext/trace.c:238
     968:	f2400e7f 	tst	x19, #0xf
     96c:	54000200 	b.eq	9ac <dhex_dump+0xf4>  // b.none
/home/hei/Desktop/optee-qemu/optee_os/lib/libutils/ext/trace.c:244
     970:	38736b02 	ldrb	w2, [x24, x19]
     974:	aa1b03e1 	mov	x1, x27
     978:	aa1703e0 	mov	x0, x23
     97c:	97fffefb 	bl	568 <append>
/home/hei/Desktop/optee-qemu/optee_os/lib/libutils/ext/trace.c:245
     980:	35000240 	cbnz	w0, 9c8 <dhex_dump+0x110>
/home/hei/Desktop/optee-qemu/optee_os/lib/libutils/ext/trace.c:266
     984:	d0000040 	adrp	x0, a000 <__text_end+0x1324>
     988:	913a2400 	add	x0, x0, #0xe89
     98c:	d0000044 	adrp	x4, a000 <__text_end+0x1324>
     990:	52800023 	mov	w3, #0x1                   	// #1
     994:	913b0084 	add	x4, x4, #0xec0
     998:	52800062 	mov	w2, #0x3                   	// #3
     99c:	52802141 	mov	w1, #0x10a                 	// #266
     9a0:	91001400 	add	x0, x0, #0x5
     9a4:	97ffffa9 	bl	848 <trace_printf>
     9a8:	17ffffe9 	b	94c <dhex_dump+0x94>
/home/hei/Desktop/optee-qemu/optee_os/lib/libutils/ext/trace.c:239
     9ac:	8b130303 	add	x3, x24, x19
     9b0:	52800202 	mov	w2, #0x10                  	// #16
     9b4:	aa1a03e1 	mov	x1, x26
     9b8:	aa1703e0 	mov	x0, x23
     9bc:	97fffeeb 	bl	568 <append>
/home/hei/Desktop/optee-qemu/optee_os/lib/libutils/ext/trace.c:241
     9c0:	35fffd80 	cbnz	w0, 970 <dhex_dump+0xb8>
     9c4:	17fffff0 	b	984 <dhex_dump+0xcc>
/home/hei/Desktop/optee-qemu/optee_os/lib/libutils/ext/trace.c:247
     9c8:	12000f80 	and	w0, w28, #0xf
     9cc:	71001c1f 	cmp	w0, #0x7
     9d0:	54000101 	b.ne	9f0 <dhex_dump+0x138>  // b.any
/home/hei/Desktop/optee-qemu/optee_os/lib/libutils/ext/trace.c:248
     9d4:	d0000041 	adrp	x1, a000 <__text_end+0x1324>
     9d8:	aa1703e0 	mov	x0, x23
     9dc:	913af821 	add	x1, x1, #0xebe
     9e0:	97fffee2 	bl	568 <append>
/home/hei/Desktop/optee-qemu/optee_os/lib/libutils/ext/trace.c:249
     9e4:	34fffd00 	cbz	w0, 984 <dhex_dump+0xcc>
     9e8:	91000673 	add	x19, x19, #0x1
     9ec:	17ffffcb 	b	918 <dhex_dump+0x60>
/home/hei/Desktop/optee-qemu/optee_os/lib/libutils/ext/trace.c:251
     9f0:	71003c1f 	cmp	w0, #0xf
     9f4:	54ffffa1 	b.ne	9e8 <dhex_dump+0x130>  // b.any
/home/hei/Desktop/optee-qemu/optee_os/lib/libutils/ext/trace.c:252
     9f8:	aa1703e5 	mov	x5, x23
     9fc:	d0000044 	adrp	x4, a000 <__text_end+0x1324>
     a00:	52800023 	mov	w3, #0x1                   	// #1
     a04:	9130b084 	add	x4, x4, #0xc2c
     a08:	2a1403e2 	mov	w2, w20
     a0c:	2a1603e1 	mov	w1, w22
     a10:	aa1503e0 	mov	x0, x21
     a14:	97ffff8d 	bl	848 <trace_printf>
/home/hei/Desktop/optee-qemu/optee_os/lib/libutils/ext/trace.c:254
     a18:	f900b7ff 	str	xzr, [sp, #360]
     a1c:	17fffff3 	b	9e8 <dhex_dump+0x130>
     a20:	d65f03c0 	ret

0000000000000a24 <raw_malloc_return_hook.constprop.21>:
raw_malloc_return_hook():
/home/hei/Desktop/optee-qemu/optee_os/lib/libutils/isoc/bget_malloc.c:210
     a24:	90000062 	adrp	x2, c000 <_DYNAMIC>
     a28:	910f4044 	add	x4, x2, #0x3d0
     a2c:	f9401083 	ldr	x3, [x4, #32]
     a30:	b9406c85 	ldr	w5, [x4, #108]
     a34:	eb05007f 	cmp	x3, x5
     a38:	5400004d 	b.le	a40 <raw_malloc_return_hook.constprop.21+0x1c>
/home/hei/Desktop/optee-qemu/optee_os/lib/libutils/isoc/bget_malloc.c:211
     a3c:	b9006c83 	str	w3, [x4, #108]
/home/hei/Desktop/optee-qemu/optee_os/lib/libutils/isoc/bget_malloc.c:213
     a40:	b5000120 	cbnz	x0, a64 <raw_malloc_return_hook.constprop.21+0x40>
/home/hei/Desktop/optee-qemu/optee_os/lib/libutils/isoc/bget_malloc.c:214
     a44:	910f4040 	add	x0, x2, #0x3d0
     a48:	b9407402 	ldr	w2, [x0, #116]
     a4c:	11000442 	add	w2, w2, #0x1
     a50:	b9007402 	str	w2, [x0, #116]
/home/hei/Desktop/optee-qemu/optee_os/lib/libutils/isoc/bget_malloc.c:216
     a54:	b9407802 	ldr	w2, [x0, #120]
     a58:	eb01005f 	cmp	x2, x1
     a5c:	54000042 	b.cs	a64 <raw_malloc_return_hook.constprop.21+0x40>  // b.hs, b.nlast
/home/hei/Desktop/optee-qemu/optee_os/lib/libutils/isoc/bget_malloc.c:218
     a60:	290f0c01 	stp	w1, w3, [x0, #120]
/home/hei/Desktop/optee-qemu/optee_os/lib/libutils/isoc/bget_malloc.c:222
     a64:	d65f03c0 	ret

0000000000000a68 <bget>:
bget():
/home/hei/Desktop/optee-qemu/optee_os/lib/libutils/isoc/bget.c:583
     a68:	a9bf7bfd 	stp	x29, x30, [sp, #-16]!
/home/hei/Desktop/optee-qemu/optee_os/lib/libutils/isoc/bget.c:594
     a6c:	f100001f 	cmp	x0, #0x0
/home/hei/Desktop/optee-qemu/optee_os/lib/libutils/isoc/bget.c:583
     a70:	910003fd 	mov	x29, sp
/home/hei/Desktop/optee-qemu/optee_os/lib/libutils/isoc/bget.c:594
     a74:	5400014c 	b.gt	a9c <bget+0x34>
/home/hei/Desktop/optee-qemu/optee_os/lib/libutils/isoc/bget.c:594 (discriminator 1)
     a78:	d0000043 	adrp	x3, a000 <__text_end+0x1324>
     a7c:	d0000041 	adrp	x1, a000 <__text_end+0x1324>
     a80:	f0000040 	adrp	x0, b000 <__func__.3755+0xec>
     a84:	913b3c63 	add	x3, x3, #0xecf
     a88:	913c9c21 	add	x1, x1, #0xf27
     a8c:	91065000 	add	x0, x0, #0x194
     a90:	52804a42 	mov	w2, #0x252                 	// #594
/home/hei/Desktop/optee-qemu/optee_os/lib/libutils/isoc/bget.c:658 (discriminator 1)
     a94:	940006a3 	bl	2520 <_assert_log>
     a98:	940006b3 	bl	2564 <_assert_break>
/home/hei/Desktop/optee-qemu/optee_os/lib/libutils/isoc/bget.c:601
     a9c:	f100401f 	cmp	x0, #0x10
     aa0:	d2800202 	mov	x2, #0x10                  	// #16
     aa4:	9a82a000 	csel	x0, x0, x2, ge  // ge = tcont
     aa8:	b1003c02 	adds	x2, x0, #0xf
     aac:	54000144 	b.mi	ad4 <bget+0x6c>  // b.first
     ab0:	eb00005f 	cmp	x2, x0
     ab4:	54000103 	b.cc	ad4 <bget+0x6c>  // b.lo, b.ul, b.last
/home/hei/Desktop/optee-qemu/optee_os/lib/libutils/isoc/bget.c:604
     ab8:	927cec40 	and	x0, x2, #0xfffffffffffffff0
/home/hei/Desktop/optee-qemu/optee_os/lib/libutils/isoc/bget.c:609
     abc:	91004003 	add	x3, x0, #0x10
     ac0:	eb00007f 	cmp	x3, x0
     ac4:	5400008b 	b.lt	ad4 <bget+0x6c>  // b.tstop
/home/hei/Desktop/optee-qemu/optee_os/lib/libutils/isoc/bget.c:619
     ac8:	f9400820 	ldr	x0, [x1, #16]
/home/hei/Desktop/optee-qemu/optee_os/lib/libutils/isoc/bget.c:641
     acc:	eb00003f 	cmp	x1, x0
     ad0:	54000061 	b.ne	adc <bget+0x74>  // b.any
/home/hei/Desktop/optee-qemu/optee_os/lib/libutils/isoc/bget.c:602
     ad4:	d2800000 	mov	x0, #0x0                   	// #0
     ad8:	1400001e 	b	b50 <bget+0xe8>
/home/hei/Desktop/optee-qemu/optee_os/lib/libutils/isoc/bget.c:642
     adc:	f9400402 	ldr	x2, [x0, #8]
     ae0:	eb02007f 	cmp	x3, x2
     ae4:	540009ec 	b.gt	c20 <bget+0x1b8>
/home/hei/Desktop/optee-qemu/optee_os/lib/libutils/isoc/bget.c:653
     ae8:	cb030044 	sub	x4, x2, x3
     aec:	f100809f 	cmp	x4, #0x20
     af0:	5400034d 	b.le	b58 <bget+0xf0>
/home/hei/Desktop/optee-qemu/optee_os/lib/libutils/isoc/bget.c:656
     af4:	8b040005 	add	x5, x0, x4
/home/hei/Desktop/optee-qemu/optee_os/lib/libutils/isoc/bget.c:658
     af8:	f86368a6 	ldr	x6, [x5, x3]
     afc:	eb06005f 	cmp	x2, x6
     b00:	54000120 	b.eq	b24 <bget+0xbc>  // b.none
/home/hei/Desktop/optee-qemu/optee_os/lib/libutils/isoc/bget.c:658 (discriminator 1)
     b04:	d0000043 	adrp	x3, a000 <__text_end+0x1324>
     b08:	d0000041 	adrp	x1, a000 <__text_end+0x1324>
     b0c:	d0000040 	adrp	x0, a000 <__text_end+0x1324>
     b10:	913b3c63 	add	x3, x3, #0xecf
     b14:	52805242 	mov	w2, #0x292                 	// #658
     b18:	913c9c21 	add	x1, x1, #0xf27
     b1c:	913d0000 	add	x0, x0, #0xf40
     b20:	17ffffdd 	b	a94 <bget+0x2c>
/home/hei/Desktop/optee-qemu/optee_os/lib/libutils/isoc/bget.c:660
     b24:	f9000404 	str	x4, [x0, #8]
/home/hei/Desktop/optee-qemu/optee_os/lib/libutils/isoc/bget.c:662
     b28:	f8246804 	str	x4, [x0, x4]
/home/hei/Desktop/optee-qemu/optee_os/lib/libutils/isoc/bget.c:664
     b2c:	cb0303e0 	neg	x0, x3
     b30:	f90004a0 	str	x0, [x5, #8]
/home/hei/Desktop/optee-qemu/optee_os/lib/libutils/isoc/bget.c:669
     b34:	f9401020 	ldr	x0, [x1, #32]
/home/hei/Desktop/optee-qemu/optee_os/lib/libutils/isoc/bget.c:666
     b38:	f82368bf 	str	xzr, [x5, x3]
/home/hei/Desktop/optee-qemu/optee_os/lib/libutils/isoc/bget.c:669
     b3c:	8b030003 	add	x3, x0, x3
/home/hei/Desktop/optee-qemu/optee_os/lib/libutils/isoc/bget.c:670
     b40:	f9401420 	ldr	x0, [x1, #40]
     b44:	91000400 	add	x0, x0, #0x1
     b48:	a9020023 	stp	x3, x0, [x1, #32]
/home/hei/Desktop/optee-qemu/optee_os/lib/libutils/isoc/bget.c:672
     b4c:	910040a0 	add	x0, x5, #0x10
/home/hei/Desktop/optee-qemu/optee_os/lib/libutils/isoc/bget.c:770
     b50:	a8c17bfd 	ldp	x29, x30, [sp], #16
     b54:	d65f03c0 	ret
/home/hei/Desktop/optee-qemu/optee_os/lib/libutils/isoc/bget.c:679
     b58:	f8626803 	ldr	x3, [x0, x2]
/home/hei/Desktop/optee-qemu/optee_os/lib/libutils/isoc/bget.c:678
     b5c:	8b020005 	add	x5, x0, x2
/home/hei/Desktop/optee-qemu/optee_os/lib/libutils/isoc/bget.c:679
     b60:	eb03005f 	cmp	x2, x3
     b64:	54000120 	b.eq	b88 <bget+0x120>  // b.none
/home/hei/Desktop/optee-qemu/optee_os/lib/libutils/isoc/bget.c:679 (discriminator 1)
     b68:	d0000043 	adrp	x3, a000 <__text_end+0x1324>
     b6c:	d0000041 	adrp	x1, a000 <__text_end+0x1324>
     b70:	d0000040 	adrp	x0, a000 <__text_end+0x1324>
     b74:	913b3c63 	add	x3, x3, #0xecf
     b78:	528054e2 	mov	w2, #0x2a7                 	// #679
     b7c:	913c9c21 	add	x1, x1, #0xf27
     b80:	913d7000 	add	x0, x0, #0xf5c
     b84:	17ffffc4 	b	a94 <bget+0x2c>
/home/hei/Desktop/optee-qemu/optee_os/lib/libutils/isoc/bget.c:684
     b88:	f9400c03 	ldr	x3, [x0, #24]
     b8c:	f9400864 	ldr	x4, [x3, #16]
     b90:	eb00009f 	cmp	x4, x0
     b94:	54000120 	b.eq	bb8 <bget+0x150>  // b.none
/home/hei/Desktop/optee-qemu/optee_os/lib/libutils/isoc/bget.c:684 (discriminator 1)
     b98:	d0000043 	adrp	x3, a000 <__text_end+0x1324>
     b9c:	d0000041 	adrp	x1, a000 <__text_end+0x1324>
     ba0:	d0000040 	adrp	x0, a000 <__text_end+0x1324>
     ba4:	913b3c63 	add	x3, x3, #0xecf
     ba8:	52805582 	mov	w2, #0x2ac                 	// #684
     bac:	913c9c21 	add	x1, x1, #0xf27
     bb0:	913de000 	add	x0, x0, #0xf78
     bb4:	17ffffb8 	b	a94 <bget+0x2c>
/home/hei/Desktop/optee-qemu/optee_os/lib/libutils/isoc/bget.c:685
     bb8:	f9400804 	ldr	x4, [x0, #16]
     bbc:	f9400c86 	ldr	x6, [x4, #24]
     bc0:	eb0000df 	cmp	x6, x0
     bc4:	54000120 	b.eq	be8 <bget+0x180>  // b.none
/home/hei/Desktop/optee-qemu/optee_os/lib/libutils/isoc/bget.c:685 (discriminator 1)
     bc8:	d0000043 	adrp	x3, a000 <__text_end+0x1324>
     bcc:	d0000041 	adrp	x1, a000 <__text_end+0x1324>
     bd0:	d0000040 	adrp	x0, a000 <__text_end+0x1324>
     bd4:	913b3c63 	add	x3, x3, #0xecf
     bd8:	528055a2 	mov	w2, #0x2ad                 	// #685
     bdc:	913c9c21 	add	x1, x1, #0xf27
     be0:	913e4c00 	add	x0, x0, #0xf93
     be4:	17ffffac 	b	a94 <bget+0x2c>
/home/hei/Desktop/optee-qemu/optee_os/lib/libutils/isoc/bget.c:686
     be8:	f9000864 	str	x4, [x3, #16]
/home/hei/Desktop/optee-qemu/optee_os/lib/libutils/isoc/bget.c:701
     bec:	91004000 	add	x0, x0, #0x10
/home/hei/Desktop/optee-qemu/optee_os/lib/libutils/isoc/bget.c:687
     bf0:	f9400004 	ldr	x4, [x0]
     bf4:	f9000c83 	str	x3, [x4, #24]
/home/hei/Desktop/optee-qemu/optee_os/lib/libutils/isoc/bget.c:690
     bf8:	f9401023 	ldr	x3, [x1, #32]
     bfc:	8b020063 	add	x3, x3, x2
     c00:	f9001023 	str	x3, [x1, #32]
/home/hei/Desktop/optee-qemu/optee_os/lib/libutils/isoc/bget.c:691
     c04:	f9401423 	ldr	x3, [x1, #40]
/home/hei/Desktop/optee-qemu/optee_os/lib/libutils/isoc/bget.c:694
     c08:	cb0203e2 	neg	x2, x2
/home/hei/Desktop/optee-qemu/optee_os/lib/libutils/isoc/bget.c:691
     c0c:	91000463 	add	x3, x3, #0x1
     c10:	f9001423 	str	x3, [x1, #40]
/home/hei/Desktop/optee-qemu/optee_os/lib/libutils/isoc/bget.c:694
     c14:	f81f8002 	stur	x2, [x0, #-8]
/home/hei/Desktop/optee-qemu/optee_os/lib/libutils/isoc/bget.c:698
     c18:	f90000bf 	str	xzr, [x5]
/home/hei/Desktop/optee-qemu/optee_os/lib/libutils/isoc/bget.c:703
     c1c:	17ffffcd 	b	b50 <bget+0xe8>
/home/hei/Desktop/optee-qemu/optee_os/lib/libutils/isoc/bget.c:706
     c20:	f9400800 	ldr	x0, [x0, #16]
     c24:	17ffffaa 	b	acc <bget+0x64>

0000000000000c28 <bgetz>:
bgetz():
/home/hei/Desktop/optee-qemu/optee_os/lib/libutils/isoc/bget.c:779
     c28:	a9be7bfd 	stp	x29, x30, [sp, #-32]!
     c2c:	910003fd 	mov	x29, sp
     c30:	f9000bf3 	str	x19, [sp, #16]
     c34:	aa0003f3 	mov	x19, x0
/home/hei/Desktop/optee-qemu/optee_os/lib/libutils/isoc/bget.c:780
     c38:	97ffff8c 	bl	a68 <bget>
     c3c:	aa0003e3 	mov	x3, x0
/home/hei/Desktop/optee-qemu/optee_os/lib/libutils/isoc/bget.c:782
     c40:	b4000320 	cbz	x0, ca4 <bgetz+0x7c>
/home/hei/Desktop/optee-qemu/optee_os/lib/libutils/isoc/bget.c:787
     c44:	f85f8000 	ldur	x0, [x0, #-8]
/home/hei/Desktop/optee-qemu/optee_os/lib/libutils/isoc/bget.c:788
     c48:	b50001e0 	cbnz	x0, c84 <bgetz+0x5c>
/home/hei/Desktop/optee-qemu/optee_os/lib/libutils/isoc/bget.c:792
     c4c:	f85e8062 	ldur	x2, [x3, #-24]
     c50:	d1006042 	sub	x2, x2, #0x18
/home/hei/Desktop/optee-qemu/optee_os/lib/libutils/isoc/bget.c:796
     c54:	eb13005f 	cmp	x2, x19
     c58:	540001ca 	b.ge	c90 <bgetz+0x68>  // b.tcont
     c5c:	d0000043 	adrp	x3, a000 <__text_end+0x1324>
     c60:	913b3c63 	add	x3, x3, #0xecf
     c64:	91001463 	add	x3, x3, #0x5
     c68:	d0000041 	adrp	x1, a000 <__text_end+0x1324>
     c6c:	d0000040 	adrp	x0, a000 <__text_end+0x1324>
     c70:	913c9c21 	add	x1, x1, #0xf27
     c74:	913eb800 	add	x0, x0, #0xfae
     c78:	52806382 	mov	w2, #0x31c                 	// #796
     c7c:	94000629 	bl	2520 <_assert_log>
     c80:	94000639 	bl	2564 <_assert_break>
/home/hei/Desktop/optee-qemu/optee_os/lib/libutils/isoc/bget.c:794
     c84:	928001e2 	mov	x2, #0xfffffffffffffff0    	// #-16
     c88:	cb000042 	sub	x2, x2, x0
     c8c:	17fffff2 	b	c54 <bgetz+0x2c>
memset_unchecked():
/home/hei/Desktop/optee-qemu/optee_os/lib/libutils/isoc/bget_malloc.c:130
     c90:	aa0303e0 	mov	x0, x3
     c94:	93407c42 	sxtw	x2, w2
     c98:	52800001 	mov	w1, #0x0                   	// #0
     c9c:	94000273 	bl	1668 <memset>
     ca0:	aa0003e3 	mov	x3, x0
bgetz():
/home/hei/Desktop/optee-qemu/optee_os/lib/libutils/isoc/bget.c:800
     ca4:	aa0303e0 	mov	x0, x3
     ca8:	f9400bf3 	ldr	x19, [sp, #16]
     cac:	a8c27bfd 	ldp	x29, x30, [sp], #32
     cb0:	d65f03c0 	ret

0000000000000cb4 <brel>:
brel():
/home/hei/Desktop/optee-qemu/optee_os/lib/libutils/isoc/bget.c:852
     cb4:	a9be7bfd 	stp	x29, x30, [sp, #-32]!
     cb8:	910003fd 	mov	x29, sp
/home/hei/Desktop/optee-qemu/optee_os/lib/libutils/isoc/bget.c:858
     cbc:	f9401823 	ldr	x3, [x1, #48]
/home/hei/Desktop/optee-qemu/optee_os/lib/libutils/isoc/bget.c:852
     cc0:	a90153f3 	stp	x19, x20, [sp, #16]
/home/hei/Desktop/optee-qemu/optee_os/lib/libutils/isoc/bget.c:858
     cc4:	91000463 	add	x3, x3, #0x1
     cc8:	f9001823 	str	x3, [x1, #48]
/home/hei/Desktop/optee-qemu/optee_os/lib/libutils/isoc/bget.c:860
     ccc:	b5000160 	cbnz	x0, cf8 <brel+0x44>
/home/hei/Desktop/optee-qemu/optee_os/lib/libutils/isoc/bget.c:860 (discriminator 1)
     cd0:	d0000043 	adrp	x3, a000 <__text_end+0x1324>
     cd4:	913b3c63 	add	x3, x3, #0xecf
     cd8:	d0000041 	adrp	x1, a000 <__text_end+0x1324>
     cdc:	d0000040 	adrp	x0, a000 <__text_end+0x1324>
     ce0:	91002c63 	add	x3, x3, #0xb
     ce4:	913c9c21 	add	x1, x1, #0xf27
     ce8:	913ef000 	add	x0, x0, #0xfbc
     cec:	52806b82 	mov	w2, #0x35c                 	// #860
/home/hei/Desktop/optee-qemu/optee_os/lib/libutils/isoc/bget.c:895 (discriminator 1)
     cf0:	9400060c 	bl	2520 <_assert_log>
     cf4:	9400061c 	bl	2564 <_assert_break>
/home/hei/Desktop/optee-qemu/optee_os/lib/libutils/isoc/bget.c:892
     cf8:	f85f8003 	ldur	x3, [x0, #-8]
/home/hei/Desktop/optee-qemu/optee_os/lib/libutils/isoc/bget.c:895
     cfc:	b7f80143 	tbnz	x3, #63, d24 <brel+0x70>
/home/hei/Desktop/optee-qemu/optee_os/lib/libutils/isoc/bget.c:895 (discriminator 1)
     d00:	d0000043 	adrp	x3, a000 <__text_end+0x1324>
     d04:	913b3c63 	add	x3, x3, #0xecf
     d08:	d0000041 	adrp	x1, a000 <__text_end+0x1324>
     d0c:	d0000040 	adrp	x0, a000 <__text_end+0x1324>
     d10:	91002c63 	add	x3, x3, #0xb
     d14:	52806fe2 	mov	w2, #0x37f                 	// #895
     d18:	913c9c21 	add	x1, x1, #0xf27
     d1c:	913f2000 	add	x0, x0, #0xfc8
     d20:	17fffff4 	b	cf0 <brel+0x3c>
     d24:	d1004013 	sub	x19, x0, #0x10
/home/hei/Desktop/optee-qemu/optee_os/lib/libutils/isoc/bget.c:901
     d28:	cb030264 	sub	x4, x19, x3
     d2c:	f9400084 	ldr	x4, [x4]
     d30:	b4000144 	cbz	x4, d58 <brel+0xa4>
/home/hei/Desktop/optee-qemu/optee_os/lib/libutils/isoc/bget.c:901 (discriminator 1)
     d34:	d0000043 	adrp	x3, a000 <__text_end+0x1324>
     d38:	913b3c63 	add	x3, x3, #0xecf
     d3c:	d0000041 	adrp	x1, a000 <__text_end+0x1324>
     d40:	d0000040 	adrp	x0, a000 <__text_end+0x1324>
     d44:	91002c63 	add	x3, x3, #0xb
     d48:	528070a2 	mov	w2, #0x385                 	// #901
     d4c:	913c9c21 	add	x1, x1, #0xf27
     d50:	913f6000 	add	x0, x0, #0xfd8
     d54:	17ffffe7 	b	cf0 <brel+0x3c>
/home/hei/Desktop/optee-qemu/optee_os/lib/libutils/isoc/bget.c:904
     d58:	f9401024 	ldr	x4, [x1, #32]
     d5c:	8b040064 	add	x4, x3, x4
     d60:	f9001024 	str	x4, [x1, #32]
/home/hei/Desktop/optee-qemu/optee_os/lib/libutils/isoc/bget.c:905
     d64:	b6f80144 	tbz	x4, #63, d8c <brel+0xd8>
/home/hei/Desktop/optee-qemu/optee_os/lib/libutils/isoc/bget.c:905 (discriminator 1)
     d68:	d0000043 	adrp	x3, a000 <__text_end+0x1324>
     d6c:	913b3c63 	add	x3, x3, #0xecf
     d70:	d0000041 	adrp	x1, a000 <__text_end+0x1324>
     d74:	f0000040 	adrp	x0, b000 <__func__.3755+0xec>
     d78:	91002c63 	add	x3, x3, #0xb
     d7c:	52807122 	mov	w2, #0x389                 	// #905
     d80:	913c9c21 	add	x1, x1, #0xf27
     d84:	91001000 	add	x0, x0, #0x4
     d88:	17ffffda 	b	cf0 <brel+0x3c>
/home/hei/Desktop/optee-qemu/optee_os/lib/libutils/isoc/bget.c:910
     d8c:	f85f0004 	ldur	x4, [x0, #-16]
     d90:	b4000424 	cbz	x4, e14 <brel+0x160>
/home/hei/Desktop/optee-qemu/optee_os/lib/libutils/isoc/bget.c:921
     d94:	cb040273 	sub	x19, x19, x4
     d98:	f9400660 	ldr	x0, [x19, #8]
     d9c:	eb00009f 	cmp	x4, x0
     da0:	54000140 	b.eq	dc8 <brel+0x114>  // b.none
/home/hei/Desktop/optee-qemu/optee_os/lib/libutils/isoc/bget.c:921 (discriminator 1)
     da4:	d0000043 	adrp	x3, a000 <__text_end+0x1324>
     da8:	913b3c63 	add	x3, x3, #0xecf
     dac:	d0000041 	adrp	x1, a000 <__text_end+0x1324>
     db0:	f0000040 	adrp	x0, b000 <__func__.3755+0xec>
     db4:	91002c63 	add	x3, x3, #0xb
     db8:	52807322 	mov	w2, #0x399                 	// #921
     dbc:	913c9c21 	add	x1, x1, #0xf27
     dc0:	91006c00 	add	x0, x0, #0x1b
     dc4:	17ffffcb 	b	cf0 <brel+0x3c>
/home/hei/Desktop/optee-qemu/optee_os/lib/libutils/isoc/bget.c:923
     dc8:	cb030083 	sub	x3, x4, x3
     dcc:	f9000663 	str	x3, [x19, #8]
/home/hei/Desktop/optee-qemu/optee_os/lib/libutils/isoc/bget.c:943
     dd0:	f9400660 	ldr	x0, [x19, #8]
     dd4:	8b000274 	add	x20, x19, x0
/home/hei/Desktop/optee-qemu/optee_os/lib/libutils/isoc/bget.c:944
     dd8:	f9400681 	ldr	x1, [x20, #8]
     ddc:	f100003f 	cmp	x1, #0x0
     de0:	540009ad 	b.le	f14 <brel+0x260>
/home/hei/Desktop/optee-qemu/optee_os/lib/libutils/isoc/bget.c:949
     de4:	f8616a83 	ldr	x3, [x20, x1]
     de8:	eb03003f 	cmp	x1, x3
     dec:	54000560 	b.eq	e98 <brel+0x1e4>  // b.none
/home/hei/Desktop/optee-qemu/optee_os/lib/libutils/isoc/bget.c:949 (discriminator 1)
     df0:	d0000043 	adrp	x3, a000 <__text_end+0x1324>
     df4:	913b3c63 	add	x3, x3, #0xecf
     df8:	d0000041 	adrp	x1, a000 <__text_end+0x1324>
     dfc:	f0000040 	adrp	x0, b000 <__func__.3755+0xec>
     e00:	91002c63 	add	x3, x3, #0xb
     e04:	528076a2 	mov	w2, #0x3b5                 	// #949
     e08:	913c9c21 	add	x1, x1, #0xf27
     e0c:	91032800 	add	x0, x0, #0xca
     e10:	17ffffb8 	b	cf0 <brel+0x3c>
/home/hei/Desktop/optee-qemu/optee_os/lib/libutils/isoc/bget.c:929
     e14:	f9400c25 	ldr	x5, [x1, #24]
     e18:	f94008a4 	ldr	x4, [x5, #16]
     e1c:	eb01009f 	cmp	x4, x1
     e20:	54000140 	b.eq	e48 <brel+0x194>  // b.none
/home/hei/Desktop/optee-qemu/optee_os/lib/libutils/isoc/bget.c:929 (discriminator 1)
     e24:	d0000043 	adrp	x3, a000 <__text_end+0x1324>
     e28:	913b3c63 	add	x3, x3, #0xecf
     e2c:	d0000041 	adrp	x1, a000 <__text_end+0x1324>
     e30:	f0000040 	adrp	x0, b000 <__func__.3755+0xec>
     e34:	91002c63 	add	x3, x3, #0xb
     e38:	52807422 	mov	w2, #0x3a1                 	// #929
     e3c:	913c9c21 	add	x1, x1, #0xf27
     e40:	91015000 	add	x0, x0, #0x54
     e44:	17ffffab 	b	cf0 <brel+0x3c>
/home/hei/Desktop/optee-qemu/optee_os/lib/libutils/isoc/bget.c:930
     e48:	f9400881 	ldr	x1, [x4, #16]
     e4c:	f9400c21 	ldr	x1, [x1, #24]
     e50:	eb01009f 	cmp	x4, x1
     e54:	54000140 	b.eq	e7c <brel+0x1c8>  // b.none
/home/hei/Desktop/optee-qemu/optee_os/lib/libutils/isoc/bget.c:930 (discriminator 1)
     e58:	d0000043 	adrp	x3, a000 <__text_end+0x1324>
     e5c:	913b3c63 	add	x3, x3, #0xecf
     e60:	d0000041 	adrp	x1, a000 <__text_end+0x1324>
     e64:	f0000040 	adrp	x0, b000 <__func__.3755+0xec>
     e68:	91002c63 	add	x3, x3, #0xb
     e6c:	52807442 	mov	w2, #0x3a2                 	// #930
     e70:	913c9c21 	add	x1, x1, #0xf27
     e74:	91023c00 	add	x0, x0, #0x8f
     e78:	17ffff9e 	b	cf0 <brel+0x3c>
/home/hei/Desktop/optee-qemu/optee_os/lib/libutils/isoc/bget.c:932
     e7c:	a9011664 	stp	x4, x5, [x19, #16]
/home/hei/Desktop/optee-qemu/optee_os/lib/libutils/isoc/bget.c:896
     e80:	cb0303e3 	neg	x3, x3
/home/hei/Desktop/optee-qemu/optee_os/lib/libutils/isoc/bget.c:933
     e84:	f9000c93 	str	x19, [x4, #24]
/home/hei/Desktop/optee-qemu/optee_os/lib/libutils/isoc/bget.c:934
     e88:	f9400e61 	ldr	x1, [x19, #24]
     e8c:	f9000833 	str	x19, [x1, #16]
/home/hei/Desktop/optee-qemu/optee_os/lib/libutils/isoc/bget.c:935
     e90:	f81f8003 	stur	x3, [x0, #-8]
     e94:	17ffffcf 	b	dd0 <brel+0x11c>
/home/hei/Desktop/optee-qemu/optee_os/lib/libutils/isoc/bget.c:950
     e98:	f9400e84 	ldr	x4, [x20, #24]
     e9c:	f9400885 	ldr	x5, [x4, #16]
     ea0:	eb1400bf 	cmp	x5, x20
     ea4:	54000140 	b.eq	ecc <brel+0x218>  // b.none
/home/hei/Desktop/optee-qemu/optee_os/lib/libutils/isoc/bget.c:950 (discriminator 1)
     ea8:	d0000043 	adrp	x3, a000 <__text_end+0x1324>
     eac:	913b3c63 	add	x3, x3, #0xecf
     eb0:	d0000041 	adrp	x1, a000 <__text_end+0x1324>
     eb4:	f0000040 	adrp	x0, b000 <__func__.3755+0xec>
     eb8:	91002c63 	add	x3, x3, #0xb
     ebc:	528076c2 	mov	w2, #0x3b6                 	// #950
     ec0:	913c9c21 	add	x1, x1, #0xf27
     ec4:	91040c00 	add	x0, x0, #0x103
     ec8:	17ffff8a 	b	cf0 <brel+0x3c>
/home/hei/Desktop/optee-qemu/optee_os/lib/libutils/isoc/bget.c:951
     ecc:	f94008a3 	ldr	x3, [x5, #16]
     ed0:	f9400c66 	ldr	x6, [x3, #24]
     ed4:	eb0500df 	cmp	x6, x5
     ed8:	54000140 	b.eq	f00 <brel+0x24c>  // b.none
/home/hei/Desktop/optee-qemu/optee_os/lib/libutils/isoc/bget.c:951 (discriminator 1)
     edc:	d0000043 	adrp	x3, a000 <__text_end+0x1324>
     ee0:	913b3c63 	add	x3, x3, #0xecf
     ee4:	d0000041 	adrp	x1, a000 <__text_end+0x1324>
     ee8:	f0000040 	adrp	x0, b000 <__func__.3755+0xec>
     eec:	91002c63 	add	x3, x3, #0xb
     ef0:	528076e2 	mov	w2, #0x3b7                 	// #951
     ef4:	913c9c21 	add	x1, x1, #0xf27
     ef8:	91048000 	add	x0, x0, #0x120
     efc:	17ffff7d 	b	cf0 <brel+0x3c>
/home/hei/Desktop/optee-qemu/optee_os/lib/libutils/isoc/bget.c:952
     f00:	f9000883 	str	x3, [x4, #16]
/home/hei/Desktop/optee-qemu/optee_os/lib/libutils/isoc/bget.c:954
     f04:	8b010014 	add	x20, x0, x1
/home/hei/Desktop/optee-qemu/optee_os/lib/libutils/isoc/bget.c:953
     f08:	f9000c64 	str	x4, [x3, #24]
/home/hei/Desktop/optee-qemu/optee_os/lib/libutils/isoc/bget.c:954
     f0c:	f9000674 	str	x20, [x19, #8]
/home/hei/Desktop/optee-qemu/optee_os/lib/libutils/isoc/bget.c:963
     f10:	8b140274 	add	x20, x19, x20
/home/hei/Desktop/optee-qemu/optee_os/lib/libutils/isoc/bget.c:965
     f14:	340000e2 	cbz	w2, f30 <brel+0x27c>
/home/hei/Desktop/optee-qemu/optee_os/lib/libutils/isoc/bget.c:967
     f18:	f9400662 	ldr	x2, [x19, #8]
memset_unchecked():
/home/hei/Desktop/optee-qemu/optee_os/lib/libutils/isoc/bget_malloc.c:130
     f1c:	52800aa1 	mov	w1, #0x55                  	// #85
     f20:	91008260 	add	x0, x19, #0x20
brel():
/home/hei/Desktop/optee-qemu/optee_os/lib/libutils/isoc/bget.c:967
     f24:	51008042 	sub	w2, w2, #0x20
memset_unchecked():
/home/hei/Desktop/optee-qemu/optee_os/lib/libutils/isoc/bget_malloc.c:130
     f28:	93407c42 	sxtw	x2, w2
     f2c:	940001cf 	bl	1668 <memset>
brel():
/home/hei/Desktop/optee-qemu/optee_os/lib/libutils/isoc/bget.c:969
     f30:	f9400680 	ldr	x0, [x20, #8]
     f34:	b7f80140 	tbnz	x0, #63, f5c <brel+0x2a8>
/home/hei/Desktop/optee-qemu/optee_os/lib/libutils/isoc/bget.c:969 (discriminator 1)
     f38:	d0000043 	adrp	x3, a000 <__text_end+0x1324>
     f3c:	913b3c63 	add	x3, x3, #0xecf
     f40:	d0000041 	adrp	x1, a000 <__text_end+0x1324>
     f44:	f0000040 	adrp	x0, b000 <__func__.3755+0xec>
     f48:	91002c63 	add	x3, x3, #0xb
     f4c:	52807922 	mov	w2, #0x3c9                 	// #969
     f50:	913c9c21 	add	x1, x1, #0xf27
     f54:	9104f400 	add	x0, x0, #0x13d
     f58:	17ffff66 	b	cf0 <brel+0x3c>
/home/hei/Desktop/optee-qemu/optee_os/lib/libutils/isoc/bget.c:974
     f5c:	f9400660 	ldr	x0, [x19, #8]
     f60:	f9000280 	str	x0, [x20]
/home/hei/Desktop/optee-qemu/optee_os/lib/libutils/isoc/bget.c:1002
     f64:	a94153f3 	ldp	x19, x20, [sp, #16]
     f68:	a8c27bfd 	ldp	x29, x30, [sp], #32
     f6c:	d65f03c0 	ret

0000000000000f70 <bgetr>:
bgetr():
/home/hei/Desktop/optee-qemu/optee_os/lib/libutils/isoc/bget.c:811
     f70:	a9bc7bfd 	stp	x29, x30, [sp, #-64]!
     f74:	910003fd 	mov	x29, sp
     f78:	a90153f3 	stp	x19, x20, [sp, #16]
     f7c:	aa0103f4 	mov	x20, x1
/home/hei/Desktop/optee-qemu/optee_os/lib/libutils/isoc/bget.c:816
     f80:	aa0203e1 	mov	x1, x2
/home/hei/Desktop/optee-qemu/optee_os/lib/libutils/isoc/bget.c:811
     f84:	a9025bf5 	stp	x21, x22, [sp, #32]
     f88:	aa0003f5 	mov	x21, x0
/home/hei/Desktop/optee-qemu/optee_os/lib/libutils/isoc/bget.c:816
     f8c:	aa1403e0 	mov	x0, x20
/home/hei/Desktop/optee-qemu/optee_os/lib/libutils/isoc/bget.c:811
     f90:	f9001bf7 	str	x23, [sp, #48]
     f94:	aa0203f7 	mov	x23, x2
/home/hei/Desktop/optee-qemu/optee_os/lib/libutils/isoc/bget.c:816
     f98:	97fffeb4 	bl	a68 <bget>
     f9c:	aa0003f6 	mov	x22, x0
     fa0:	b4000420 	cbz	x0, 1024 <bgetr+0xb4>
/home/hei/Desktop/optee-qemu/optee_os/lib/libutils/isoc/bget.c:819
     fa4:	b4000415 	cbz	x21, 1024 <bgetr+0xb4>
/home/hei/Desktop/optee-qemu/optee_os/lib/libutils/isoc/bget.c:833
     fa8:	f85f82a1 	ldur	x1, [x21, #-8]
     fac:	928001f3 	mov	x19, #0xfffffffffffffff0    	// #-16
     fb0:	cb010273 	sub	x19, x19, x1
/home/hei/Desktop/optee-qemu/optee_os/lib/libutils/isoc/bget.c:834
     fb4:	f100027f 	cmp	x19, #0x0
     fb8:	5400016c 	b.gt	fe4 <bgetr+0x74>
     fbc:	d0000043 	adrp	x3, a000 <__text_end+0x1324>
     fc0:	913b3c63 	add	x3, x3, #0xecf
     fc4:	91004063 	add	x3, x3, #0x10
     fc8:	d0000041 	adrp	x1, a000 <__text_end+0x1324>
     fcc:	f0000040 	adrp	x0, b000 <__func__.3755+0xec>
     fd0:	913c9c21 	add	x1, x1, #0xf27
     fd4:	91053800 	add	x0, x0, #0x14e
     fd8:	52806842 	mov	w2, #0x342                 	// #834
     fdc:	94000551 	bl	2520 <_assert_log>
     fe0:	94000561 	bl	2564 <_assert_break>
/home/hei/Desktop/optee-qemu/optee_os/lib/libutils/isoc/bget.c:835
     fe4:	eb13029f 	cmp	x20, x19
     fe8:	93407e81 	sxtw	x1, w20
     fec:	93407e62 	sxtw	x2, w19
     ff0:	9a81a042 	csel	x2, x2, x1, ge  // ge = tcont
     ff4:	aa1503e1 	mov	x1, x21
     ff8:	97fffd47 	bl	514 <memcpy>
/home/hei/Desktop/optee-qemu/optee_os/lib/libutils/isoc/bget.c:839
     ffc:	eb13029f 	cmp	x20, x19
    1000:	540000ad 	b.le	1014 <bgetr+0xa4>
/home/hei/Desktop/optee-qemu/optee_os/lib/libutils/isoc/bget.c:840
    1004:	cb130282 	sub	x2, x20, x19
    1008:	52800001 	mov	w1, #0x0                   	// #0
    100c:	8b1302c0 	add	x0, x22, x19
    1010:	94000196 	bl	1668 <memset>
/home/hei/Desktop/optee-qemu/optee_os/lib/libutils/isoc/bget.c:842
    1014:	52800002 	mov	w2, #0x0                   	// #0
    1018:	aa1703e1 	mov	x1, x23
    101c:	aa1503e0 	mov	x0, x21
    1020:	97ffff25 	bl	cb4 <brel>
/home/hei/Desktop/optee-qemu/optee_os/lib/libutils/isoc/bget.c:844
    1024:	aa1603e0 	mov	x0, x22
    1028:	a94153f3 	ldp	x19, x20, [sp, #16]
    102c:	a9425bf5 	ldp	x21, x22, [sp, #32]
    1030:	f9401bf7 	ldr	x23, [sp, #48]
    1034:	a8c47bfd 	ldp	x29, x30, [sp], #64
    1038:	d65f03c0 	ret

000000000000103c <bpool>:
bpool():
/home/hei/Desktop/optee-qemu/optee_os/lib/libutils/isoc/bget.c:1028
    103c:	a9bf7bfd 	stp	x29, x30, [sp, #-16]!
/home/hei/Desktop/optee-qemu/optee_os/lib/libutils/isoc/bget.c:1033
    1040:	927cec21 	and	x1, x1, #0xfffffffffffffff0
/home/hei/Desktop/optee-qemu/optee_os/lib/libutils/isoc/bget.c:1052
    1044:	f1004021 	subs	x1, x1, #0x10
/home/hei/Desktop/optee-qemu/optee_os/lib/libutils/isoc/bget.c:1028
    1048:	910003fd 	mov	x29, sp
/home/hei/Desktop/optee-qemu/optee_os/lib/libutils/isoc/bget.c:1052
    104c:	54000165 	b.pl	1078 <bpool+0x3c>  // b.nfrst
/home/hei/Desktop/optee-qemu/optee_os/lib/libutils/isoc/bget.c:1052 (discriminator 1)
    1050:	b0000043 	adrp	x3, a000 <__text_end+0x1324>
    1054:	913b3c63 	add	x3, x3, #0xecf
    1058:	b0000041 	adrp	x1, a000 <__text_end+0x1324>
    105c:	d0000040 	adrp	x0, b000 <__func__.3755+0xec>
    1060:	91005863 	add	x3, x3, #0x16
    1064:	913c9c21 	add	x1, x1, #0xf27
    1068:	91056000 	add	x0, x0, #0x158
    106c:	52808382 	mov	w2, #0x41c                 	// #1052
/home/hei/Desktop/optee-qemu/optee_os/lib/libutils/isoc/bget.c:1062 (discriminator 1)
    1070:	9400052c 	bl	2520 <_assert_log>
    1074:	9400053c 	bl	2564 <_assert_break>
/home/hei/Desktop/optee-qemu/optee_os/lib/libutils/isoc/bget.c:1062
    1078:	f9400c44 	ldr	x4, [x2, #24]
    107c:	f9400883 	ldr	x3, [x4, #16]
/home/hei/Desktop/optee-qemu/optee_os/lib/libutils/isoc/bget.c:1058
    1080:	f900001f 	str	xzr, [x0]
/home/hei/Desktop/optee-qemu/optee_os/lib/libutils/isoc/bget.c:1062
    1084:	eb02007f 	cmp	x3, x2
    1088:	54000140 	b.eq	10b0 <bpool+0x74>  // b.none
/home/hei/Desktop/optee-qemu/optee_os/lib/libutils/isoc/bget.c:1062 (discriminator 1)
    108c:	b0000043 	adrp	x3, a000 <__text_end+0x1324>
    1090:	913b3c63 	add	x3, x3, #0xecf
    1094:	b0000041 	adrp	x1, a000 <__text_end+0x1324>
    1098:	d0000040 	adrp	x0, b000 <__func__.3755+0xec>
    109c:	91005863 	add	x3, x3, #0x16
    10a0:	528084c2 	mov	w2, #0x426                 	// #1062
    10a4:	913c9c21 	add	x1, x1, #0xf27
    10a8:	91015000 	add	x0, x0, #0x54
    10ac:	17fffff1 	b	1070 <bpool+0x34>
/home/hei/Desktop/optee-qemu/optee_os/lib/libutils/isoc/bget.c:1063
    10b0:	f9400862 	ldr	x2, [x3, #16]
    10b4:	f9400c42 	ldr	x2, [x2, #24]
    10b8:	eb02007f 	cmp	x3, x2
    10bc:	54000140 	b.eq	10e4 <bpool+0xa8>  // b.none
    10c0:	b0000043 	adrp	x3, a000 <__text_end+0x1324>
    10c4:	913b3c63 	add	x3, x3, #0xecf
    10c8:	b0000041 	adrp	x1, a000 <__text_end+0x1324>
    10cc:	d0000040 	adrp	x0, b000 <__func__.3755+0xec>
    10d0:	91005863 	add	x3, x3, #0x16
    10d4:	528084e2 	mov	w2, #0x427                 	// #1063
    10d8:	913c9c21 	add	x1, x1, #0xf27
    10dc:	91023c00 	add	x0, x0, #0x8f
    10e0:	17ffffe4 	b	1070 <bpool+0x34>
/home/hei/Desktop/optee-qemu/optee_os/lib/libutils/isoc/bget.c:1065
    10e4:	a9011003 	stp	x3, x4, [x0, #16]
/home/hei/Desktop/optee-qemu/optee_os/lib/libutils/isoc/bget.c:1066
    10e8:	f9000c60 	str	x0, [x3, #24]
/home/hei/Desktop/optee-qemu/optee_os/lib/libutils/isoc/bget.c:1067
    10ec:	f9400c02 	ldr	x2, [x0, #24]
    10f0:	f9000840 	str	x0, [x2, #16]
/home/hei/Desktop/optee-qemu/optee_os/lib/libutils/isoc/bget.c:1083
    10f4:	8b010002 	add	x2, x0, x1
/home/hei/Desktop/optee-qemu/optee_os/lib/libutils/isoc/bget.c:1078
    10f8:	f9000401 	str	x1, [x0, #8]
/home/hei/Desktop/optee-qemu/optee_os/lib/libutils/isoc/bget.c:1084
    10fc:	f8216801 	str	x1, [x0, x1]
/home/hei/Desktop/optee-qemu/optee_os/lib/libutils/isoc/bget.c:1087
    1100:	d2f00000 	mov	x0, #0x8000000000000000    	// #-9223372036854775808
    1104:	f9000440 	str	x0, [x2, #8]
/home/hei/Desktop/optee-qemu/optee_os/lib/libutils/isoc/bget.c:1088
    1108:	a8c17bfd 	ldp	x29, x30, [sp], #16
    110c:	d65f03c0 	ret

0000000000001110 <bstats>:
bstats():
/home/hei/Desktop/optee-qemu/optee_os/lib/libutils/isoc/bget.c:1101
    1110:	f94014a7 	ldr	x7, [x5, #40]
/home/hei/Desktop/optee-qemu/optee_os/lib/libutils/isoc/bget.c:1099
    1114:	f94008a6 	ldr	x6, [x5, #16]
/home/hei/Desktop/optee-qemu/optee_os/lib/libutils/isoc/bget.c:1101
    1118:	f9000067 	str	x7, [x3]
/home/hei/Desktop/optee-qemu/optee_os/lib/libutils/isoc/bget.c:1102
    111c:	f94018a3 	ldr	x3, [x5, #48]
    1120:	f9000083 	str	x3, [x4]
/home/hei/Desktop/optee-qemu/optee_os/lib/libutils/isoc/bget.c:1103
    1124:	f94010a3 	ldr	x3, [x5, #32]
    1128:	f9000003 	str	x3, [x0]
/home/hei/Desktop/optee-qemu/optee_os/lib/libutils/isoc/bget.c:1104
    112c:	f900003f 	str	xzr, [x1]
/home/hei/Desktop/optee-qemu/optee_os/lib/libutils/isoc/bget.c:1105
    1130:	92800000 	mov	x0, #0xffffffffffffffff    	// #-1
    1134:	f9000040 	str	x0, [x2]
/home/hei/Desktop/optee-qemu/optee_os/lib/libutils/isoc/bget.c:1106
    1138:	eb0600bf 	cmp	x5, x6
    113c:	54000041 	b.ne	1144 <bstats+0x34>  // b.any
    1140:	d65f03c0 	ret
/home/hei/Desktop/optee-qemu/optee_os/lib/libutils/isoc/bget.c:1107
    1144:	f94004c3 	ldr	x3, [x6, #8]
    1148:	f100007f 	cmp	x3, #0x0
    114c:	540001ac 	b.gt	1180 <bstats+0x70>
/home/hei/Desktop/optee-qemu/optee_os/lib/libutils/isoc/bget.c:1107 (discriminator 1)
    1150:	b0000043 	adrp	x3, a000 <__text_end+0x1324>
    1154:	913b3c63 	add	x3, x3, #0xecf
    1158:	91007063 	add	x3, x3, #0x1c
    115c:	b0000041 	adrp	x1, a000 <__text_end+0x1324>
    1160:	d0000040 	adrp	x0, b000 <__func__.3755+0xec>
    1164:	913c9c21 	add	x1, x1, #0xf27
    1168:	91063400 	add	x0, x0, #0x18d
/home/hei/Desktop/optee-qemu/optee_os/lib/libutils/isoc/bget.c:1098 (discriminator 1)
    116c:	a9bf7bfd 	stp	x29, x30, [sp, #-16]!
/home/hei/Desktop/optee-qemu/optee_os/lib/libutils/isoc/bget.c:1107 (discriminator 1)
    1170:	52808a62 	mov	w2, #0x453                 	// #1107
/home/hei/Desktop/optee-qemu/optee_os/lib/libutils/isoc/bget.c:1098 (discriminator 1)
    1174:	910003fd 	mov	x29, sp
/home/hei/Desktop/optee-qemu/optee_os/lib/libutils/isoc/bget.c:1107 (discriminator 1)
    1178:	940004ea 	bl	2520 <_assert_log>
    117c:	940004fa 	bl	2564 <_assert_break>
/home/hei/Desktop/optee-qemu/optee_os/lib/libutils/isoc/bget.c:1108
    1180:	f9400020 	ldr	x0, [x1]
    1184:	8b030000 	add	x0, x0, x3
    1188:	f9000020 	str	x0, [x1]
/home/hei/Desktop/optee-qemu/optee_os/lib/libutils/isoc/bget.c:1109
    118c:	f9400043 	ldr	x3, [x2]
    1190:	f94004c0 	ldr	x0, [x6, #8]
    1194:	eb03001f 	cmp	x0, x3
    1198:	5400004d 	b.le	11a0 <bstats+0x90>
/home/hei/Desktop/optee-qemu/optee_os/lib/libutils/isoc/bget.c:1110
    119c:	f9000040 	str	x0, [x2]
/home/hei/Desktop/optee-qemu/optee_os/lib/libutils/isoc/bget.c:1112
    11a0:	f94008c6 	ldr	x6, [x6, #16]
    11a4:	17ffffe5 	b	1138 <bstats+0x28>

00000000000011a8 <malloc_reset_stats>:
gen_malloc_reset_stats():
/home/hei/Desktop/optee-qemu/optee_os/lib/libutils/isoc/bget_malloc.c:228
    11a8:	f0000040 	adrp	x0, c000 <_DYNAMIC>
    11ac:	910f4000 	add	x0, x0, #0x3d0
    11b0:	b9006c1f 	str	wzr, [x0, #108]
/home/hei/Desktop/optee-qemu/optee_os/lib/libutils/isoc/bget_malloc.c:229
    11b4:	b900741f 	str	wzr, [x0, #116]
/home/hei/Desktop/optee-qemu/optee_os/lib/libutils/isoc/bget_malloc.c:230
    11b8:	f9003c1f 	str	xzr, [x0, #120]
malloc_reset_stats():
/home/hei/Desktop/optee-qemu/optee_os/lib/libutils/isoc/bget_malloc.c:238
    11bc:	d65f03c0 	ret

00000000000011c0 <malloc_get_stats>:
malloc_get_stats():
/home/hei/Desktop/optee-qemu/optee_os/lib/libutils/isoc/bget_malloc.c:251
    11c0:	a9be7bfd 	stp	x29, x30, [sp, #-32]!
memcpy_unchecked():
/home/hei/Desktop/optee-qemu/optee_os/lib/libutils/isoc/bget_malloc.c:136
    11c4:	d2800702 	mov	x2, #0x38                  	// #56
malloc_get_stats():
/home/hei/Desktop/optee-qemu/optee_os/lib/libutils/isoc/bget_malloc.c:251
    11c8:	910003fd 	mov	x29, sp
    11cc:	f9000bf3 	str	x19, [sp, #16]
memcpy_unchecked():
/home/hei/Desktop/optee-qemu/optee_os/lib/libutils/isoc/bget_malloc.c:136
    11d0:	f0000053 	adrp	x19, c000 <_DYNAMIC>
    11d4:	910f4273 	add	x19, x19, #0x3d0
    11d8:	91012261 	add	x1, x19, #0x48
    11dc:	97fffcce 	bl	514 <memcpy>
    11e0:	aa0003e3 	mov	x3, x0
gen_malloc_get_stats():
/home/hei/Desktop/optee-qemu/optee_os/lib/libutils/isoc/bget_malloc.c:246
    11e4:	f9401260 	ldr	x0, [x19, #32]
malloc_get_stats():
/home/hei/Desktop/optee-qemu/optee_os/lib/libutils/isoc/bget_malloc.c:253
    11e8:	f9400bf3 	ldr	x19, [sp, #16]
gen_malloc_get_stats():
/home/hei/Desktop/optee-qemu/optee_os/lib/libutils/isoc/bget_malloc.c:246
    11ec:	b9002060 	str	w0, [x3, #32]
malloc_get_stats():
/home/hei/Desktop/optee-qemu/optee_os/lib/libutils/isoc/bget_malloc.c:253
    11f0:	a8c27bfd 	ldp	x29, x30, [sp], #32
    11f4:	d65f03c0 	ret

00000000000011f8 <malloc>:
malloc():
/home/hei/Desktop/optee-qemu/optee_os/lib/libutils/isoc/bget_malloc.c:668
    11f8:	a9be7bfd 	stp	x29, x30, [sp, #-32]!
    11fc:	910003fd 	mov	x29, sp
    1200:	f9000bf3 	str	x19, [sp, #16]
    1204:	aa0003f3 	mov	x19, x0
raw_malloc():
/home/hei/Desktop/optee-qemu/optee_os/lib/libutils/isoc/bget_malloc.c:364
    1208:	b7f801c0 	tbnz	x0, #63, 1240 <malloc+0x48>
/home/hei/Desktop/optee-qemu/optee_os/lib/libutils/isoc/bget_malloc.c:371
    120c:	f100001f 	cmp	x0, #0x0
/home/hei/Desktop/optee-qemu/optee_os/lib/libutils/isoc/bget_malloc.c:373
    1210:	f0000041 	adrp	x1, c000 <_DYNAMIC>
    1214:	9a9f1400 	csinc	x0, x0, xzr, ne  // ne = any
    1218:	910f4021 	add	x1, x1, #0x3d0
    121c:	97fffe13 	bl	a68 <bget>
    1220:	aa0003e6 	mov	x6, x0
/home/hei/Desktop/optee-qemu/optee_os/lib/libutils/isoc/bget_malloc.c:375
    1224:	aa1303e1 	mov	x1, x19
    1228:	aa0603e0 	mov	x0, x6
    122c:	97fffdfe 	bl	a24 <raw_malloc_return_hook.constprop.21>
malloc():
/home/hei/Desktop/optee-qemu/optee_os/lib/libutils/isoc/bget_malloc.c:675
    1230:	aa0603e0 	mov	x0, x6
    1234:	f9400bf3 	ldr	x19, [sp, #16]
    1238:	a8c27bfd 	ldp	x29, x30, [sp], #32
    123c:	d65f03c0 	ret
raw_malloc():
/home/hei/Desktop/optee-qemu/optee_os/lib/libutils/isoc/bget_malloc.c:351
    1240:	d2800006 	mov	x6, #0x0                   	// #0
    1244:	17fffff8 	b	1224 <malloc+0x2c>

0000000000001248 <calloc>:
calloc():
/home/hei/Desktop/optee-qemu/optee_os/lib/libutils/isoc/bget_malloc.c:686
    1248:	a9be7bfd 	stp	x29, x30, [sp, #-32]!
    124c:	910003fd 	mov	x29, sp
    1250:	f9000bf3 	str	x19, [sp, #16]
raw_calloc():
/home/hei/Desktop/optee-qemu/optee_os/lib/libutils/isoc/bget_malloc.c:397
    1254:	9b017c13 	mul	x19, x0, x1
    1258:	9bc17c00 	umulh	x0, x0, x1
    125c:	f100001f 	cmp	x0, #0x0
    1260:	d2800020 	mov	x0, #0x1                   	// #1
    1264:	9a9f07e1 	cset	x1, ne  // ne = any
    1268:	f100027f 	cmp	x19, #0x0
    126c:	9a80a021 	csel	x1, x1, x0, ge  // ge = tcont
    1270:	b50001a1 	cbnz	x1, 12a4 <calloc+0x5c>
/home/hei/Desktop/optee-qemu/optee_os/lib/libutils/isoc/bget_malloc.c:408
    1274:	f0000041 	adrp	x1, c000 <_DYNAMIC>
    1278:	9a801260 	csel	x0, x19, x0, ne  // ne = any
    127c:	910f4021 	add	x1, x1, #0x3d0
    1280:	97fffe6a 	bl	c28 <bgetz>
    1284:	aa0003e6 	mov	x6, x0
/home/hei/Desktop/optee-qemu/optee_os/lib/libutils/isoc/bget_malloc.c:410
    1288:	aa1303e1 	mov	x1, x19
    128c:	aa0603e0 	mov	x0, x6
    1290:	97fffde5 	bl	a24 <raw_malloc_return_hook.constprop.21>
calloc():
/home/hei/Desktop/optee-qemu/optee_os/lib/libutils/isoc/bget_malloc.c:693
    1294:	aa0603e0 	mov	x0, x6
    1298:	f9400bf3 	ldr	x19, [sp, #16]
    129c:	a8c27bfd 	ldp	x29, x30, [sp], #32
    12a0:	d65f03c0 	ret
raw_calloc():
/home/hei/Desktop/optee-qemu/optee_os/lib/libutils/isoc/bget_malloc.c:391
    12a4:	d2800006 	mov	x6, #0x0                   	// #0
    12a8:	17fffff8 	b	1288 <calloc+0x40>

00000000000012ac <realloc>:
realloc():
/home/hei/Desktop/optee-qemu/optee_os/lib/libutils/isoc/bget_malloc.c:702
    12ac:	a9be7bfd 	stp	x29, x30, [sp, #-32]!
    12b0:	910003fd 	mov	x29, sp
    12b4:	f9000bf3 	str	x19, [sp, #16]
    12b8:	aa0103f3 	mov	x19, x1
raw_realloc():
/home/hei/Desktop/optee-qemu/optee_os/lib/libutils/isoc/bget_malloc.c:422
    12bc:	b7f801c1 	tbnz	x1, #63, 12f4 <realloc+0x48>
/home/hei/Desktop/optee-qemu/optee_os/lib/libutils/isoc/bget_malloc.c:431
    12c0:	f100003f 	cmp	x1, #0x0
/home/hei/Desktop/optee-qemu/optee_os/lib/libutils/isoc/bget_malloc.c:433
    12c4:	f0000042 	adrp	x2, c000 <_DYNAMIC>
    12c8:	9a9f1421 	csinc	x1, x1, xzr, ne  // ne = any
    12cc:	910f4042 	add	x2, x2, #0x3d0
    12d0:	97ffff28 	bl	f70 <bgetr>
    12d4:	aa0003e6 	mov	x6, x0
/home/hei/Desktop/optee-qemu/optee_os/lib/libutils/isoc/bget_malloc.c:435
    12d8:	aa1303e1 	mov	x1, x19
    12dc:	aa0603e0 	mov	x0, x6
    12e0:	97fffdd1 	bl	a24 <raw_malloc_return_hook.constprop.21>
realloc():
/home/hei/Desktop/optee-qemu/optee_os/lib/libutils/isoc/bget_malloc.c:709
    12e4:	aa0603e0 	mov	x0, x6
    12e8:	f9400bf3 	ldr	x19, [sp, #16]
    12ec:	a8c27bfd 	ldp	x29, x30, [sp], #32
    12f0:	d65f03c0 	ret
raw_realloc():
/home/hei/Desktop/optee-qemu/optee_os/lib/libutils/isoc/bget_malloc.c:418
    12f4:	d2800006 	mov	x6, #0x0                   	// #0
    12f8:	17fffff8 	b	12d8 <realloc+0x2c>

00000000000012fc <free>:
raw_free():
/home/hei/Desktop/optee-qemu/optee_os/lib/libutils/isoc/bget_malloc.c:384
    12fc:	b40000a0 	cbz	x0, 1310 <free+0x14>
/home/hei/Desktop/optee-qemu/optee_os/lib/libutils/isoc/bget_malloc.c:385
    1300:	52800002 	mov	w2, #0x0                   	// #0
    1304:	f0000041 	adrp	x1, c000 <_DYNAMIC>
    1308:	910f4021 	add	x1, x1, #0x3d0
    130c:	17fffe6a 	b	cb4 <brel>
free():
/home/hei/Desktop/optee-qemu/optee_os/lib/libutils/isoc/bget_malloc.c:722
    1310:	d65f03c0 	ret

0000000000001314 <free_wipe>:
raw_free():
/home/hei/Desktop/optee-qemu/optee_os/lib/libutils/isoc/bget_malloc.c:384
    1314:	b40000a0 	cbz	x0, 1328 <free_wipe+0x14>
/home/hei/Desktop/optee-qemu/optee_os/lib/libutils/isoc/bget_malloc.c:385
    1318:	52800022 	mov	w2, #0x1                   	// #1
    131c:	f0000041 	adrp	x1, c000 <_DYNAMIC>
    1320:	910f4021 	add	x1, x1, #0x3d0
    1324:	17fffe64 	b	cb4 <brel>
free_wipe():
/home/hei/Desktop/optee-qemu/optee_os/lib/libutils/isoc/bget_malloc.c:727
    1328:	d65f03c0 	ret

000000000000132c <malloc_add_pool>:
malloc_add_pool():
/home/hei/Desktop/optee-qemu/optee_os/lib/libutils/isoc/bget_malloc.c:835
    132c:	a9bc7bfd 	stp	x29, x30, [sp, #-64]!
    1330:	910003fd 	mov	x29, sp
    1334:	a90153f3 	stp	x19, x20, [sp, #16]
gen_malloc_add_pool():
/home/hei/Desktop/optee-qemu/optee_os/lib/libutils/isoc/bget_malloc.c:735
    1338:	8b010014 	add	x20, x0, x1
/home/hei/Desktop/optee-qemu/optee_os/lib/libutils/isoc/bget_malloc.c:741
    133c:	91003c00 	add	x0, x0, #0xf
malloc_add_pool():
/home/hei/Desktop/optee-qemu/optee_os/lib/libutils/isoc/bget_malloc.c:835
    1340:	a9025bf5 	stp	x21, x22, [sp, #32]
gen_malloc_add_pool():
/home/hei/Desktop/optee-qemu/optee_os/lib/libutils/isoc/bget_malloc.c:742
    1344:	927cee94 	and	x20, x20, #0xfffffffffffffff0
/home/hei/Desktop/optee-qemu/optee_os/lib/libutils/isoc/bget_malloc.c:741
    1348:	927cec16 	and	x22, x0, #0xfffffffffffffff0
malloc_add_pool():
/home/hei/Desktop/optee-qemu/optee_os/lib/libutils/isoc/bget_malloc.c:835
    134c:	a90363f7 	stp	x23, x24, [sp, #48]
gen_malloc_add_pool():
/home/hei/Desktop/optee-qemu/optee_os/lib/libutils/isoc/bget_malloc.c:743
    1350:	eb1402df 	cmp	x22, x20
    1354:	54000163 	b.cc	1380 <malloc_add_pool+0x54>  // b.lo, b.ul, b.last
    1358:	b0000043 	adrp	x3, a000 <__text_end+0x1324>
    135c:	913b3c63 	add	x3, x3, #0xecf
    1360:	d0000041 	adrp	x1, b000 <__func__.3755+0xec>
    1364:	d0000040 	adrp	x0, b000 <__func__.3755+0xec>
    1368:	91008c63 	add	x3, x3, #0x23
    136c:	91067421 	add	x1, x1, #0x19d
    1370:	9106f400 	add	x0, x0, #0x1bd
    1374:	52805ce2 	mov	w2, #0x2e7                 	// #743
/home/hei/Desktop/optee-qemu/optee_os/lib/libutils/isoc/bget_malloc.c:756
    1378:	9400046a 	bl	2520 <_assert_log>
    137c:	9400047a 	bl	2564 <_assert_break>
/home/hei/Desktop/optee-qemu/optee_os/lib/libutils/isoc/bget_malloc.c:745
    1380:	cb160294 	sub	x20, x20, x22
    1384:	f100be9f 	cmp	x20, #0x2f
    1388:	540001c8 	b.hi	13c0 <malloc_add_pool+0x94>  // b.pmore
malloc_add_pool():
/home/hei/Desktop/optee-qemu/optee_os/lib/libutils/isoc/bget_malloc.c:837
    138c:	a94153f3 	ldp	x19, x20, [sp, #16]
gen_malloc_add_pool():
/home/hei/Desktop/optee-qemu/optee_os/lib/libutils/isoc/bget_malloc.c:746
    1390:	b0000040 	adrp	x0, a000 <__text_end+0x1324>
malloc_add_pool():
/home/hei/Desktop/optee-qemu/optee_os/lib/libutils/isoc/bget_malloc.c:837
    1394:	a9425bf5 	ldp	x21, x22, [sp, #32]
gen_malloc_add_pool():
/home/hei/Desktop/optee-qemu/optee_os/lib/libutils/isoc/bget_malloc.c:746
    1398:	913b3c00 	add	x0, x0, #0xecf
malloc_add_pool():
/home/hei/Desktop/optee-qemu/optee_os/lib/libutils/isoc/bget_malloc.c:837
    139c:	a94363f7 	ldp	x23, x24, [sp, #48]
gen_malloc_add_pool():
/home/hei/Desktop/optee-qemu/optee_os/lib/libutils/isoc/bget_malloc.c:746
    13a0:	d0000044 	adrp	x4, b000 <__func__.3755+0xec>
malloc_add_pool():
/home/hei/Desktop/optee-qemu/optee_os/lib/libutils/isoc/bget_malloc.c:837
    13a4:	a8c47bfd 	ldp	x29, x30, [sp], #64
gen_malloc_add_pool():
/home/hei/Desktop/optee-qemu/optee_os/lib/libutils/isoc/bget_malloc.c:746
    13a8:	91072484 	add	x4, x4, #0x1c9
    13ac:	52800023 	mov	w3, #0x1                   	// #1
    13b0:	52800062 	mov	w2, #0x3                   	// #3
    13b4:	52805d41 	mov	w1, #0x2ea                 	// #746
    13b8:	91008c00 	add	x0, x0, #0x23
    13bc:	17fffd23 	b	848 <trace_printf>
/home/hei/Desktop/optee-qemu/optee_os/lib/libutils/isoc/bget_malloc.c:753
    13c0:	f0000053 	adrp	x19, c000 <_DYNAMIC>
    13c4:	910f4278 	add	x24, x19, #0x3d0
    13c8:	aa1803e2 	mov	x2, x24
    13cc:	aa1403e1 	mov	x1, x20
    13d0:	aa1603e0 	mov	x0, x22
    13d4:	97ffff1a 	bl	103c <bpool>
/home/hei/Desktop/optee-qemu/optee_os/lib/libutils/isoc/bget_malloc.c:754
    13d8:	f9402317 	ldr	x23, [x24, #64]
    13dc:	910006f7 	add	x23, x23, #0x1
/home/hei/Desktop/optee-qemu/optee_os/lib/libutils/isoc/bget_malloc.c:755
    13e0:	d37ceef5 	lsl	x21, x23, #4
raw_realloc():
/home/hei/Desktop/optee-qemu/optee_os/lib/libutils/isoc/bget_malloc.c:422
    13e4:	b7f80295 	tbnz	x21, #63, 1434 <malloc_add_pool+0x108>
/home/hei/Desktop/optee-qemu/optee_os/lib/libutils/isoc/bget_malloc.c:433
    13e8:	f9401f00 	ldr	x0, [x24, #56]
/home/hei/Desktop/optee-qemu/optee_os/lib/libutils/isoc/bget_malloc.c:431
    13ec:	f10002bf 	cmp	x21, #0x0
/home/hei/Desktop/optee-qemu/optee_os/lib/libutils/isoc/bget_malloc.c:433
    13f0:	aa1803e2 	mov	x2, x24
    13f4:	9a9f16a1 	csinc	x1, x21, xzr, ne  // ne = any
    13f8:	97fffede 	bl	f70 <bgetr>
    13fc:	aa0003e6 	mov	x6, x0
/home/hei/Desktop/optee-qemu/optee_os/lib/libutils/isoc/bget_malloc.c:435
    1400:	aa1503e1 	mov	x1, x21
    1404:	aa0603e0 	mov	x0, x6
    1408:	97fffd87 	bl	a24 <raw_malloc_return_hook.constprop.21>
gen_malloc_add_pool():
/home/hei/Desktop/optee-qemu/optee_os/lib/libutils/isoc/bget_malloc.c:756
    140c:	b5000186 	cbnz	x6, 143c <malloc_add_pool+0x110>
    1410:	b0000043 	adrp	x3, a000 <__text_end+0x1324>
    1414:	913b3c63 	add	x3, x3, #0xecf
    1418:	d0000041 	adrp	x1, b000 <__func__.3755+0xec>
    141c:	b0000040 	adrp	x0, a000 <__text_end+0x1324>
    1420:	91008c63 	add	x3, x3, #0x23
    1424:	52805e82 	mov	w2, #0x2f4                 	// #756
    1428:	91067421 	add	x1, x1, #0x19d
    142c:	912f5000 	add	x0, x0, #0xbd4
    1430:	17ffffd2 	b	1378 <malloc_add_pool+0x4c>
raw_realloc():
/home/hei/Desktop/optee-qemu/optee_os/lib/libutils/isoc/bget_malloc.c:418
    1434:	d2800006 	mov	x6, #0x0                   	// #0
    1438:	17fffff2 	b	1400 <malloc_add_pool+0xd4>
gen_malloc_add_pool():
/home/hei/Desktop/optee-qemu/optee_os/lib/libutils/isoc/bget_malloc.c:757
    143c:	910f4260 	add	x0, x19, #0x3d0
/home/hei/Desktop/optee-qemu/optee_os/lib/libutils/isoc/bget_malloc.c:758
    1440:	f9402001 	ldr	x1, [x0, #64]
/home/hei/Desktop/optee-qemu/optee_os/lib/libutils/isoc/bget_malloc.c:757
    1444:	f9001c06 	str	x6, [x0, #56]
/home/hei/Desktop/optee-qemu/optee_os/lib/libutils/isoc/bget_malloc.c:758
    1448:	d37cec21 	lsl	x1, x1, #4
    144c:	8b0100c2 	add	x2, x6, x1
    1450:	f82168d6 	str	x22, [x6, x1]
/home/hei/Desktop/optee-qemu/optee_os/lib/libutils/isoc/bget_malloc.c:761
    1454:	b9407001 	ldr	w1, [x0, #112]
malloc_add_pool():
/home/hei/Desktop/optee-qemu/optee_os/lib/libutils/isoc/bget_malloc.c:837
    1458:	a9425bf5 	ldp	x21, x22, [sp, #32]
gen_malloc_add_pool():
/home/hei/Desktop/optee-qemu/optee_os/lib/libutils/isoc/bget_malloc.c:759
    145c:	f9000454 	str	x20, [x2, #8]
/home/hei/Desktop/optee-qemu/optee_os/lib/libutils/isoc/bget_malloc.c:761
    1460:	0b140034 	add	w20, w1, w20
/home/hei/Desktop/optee-qemu/optee_os/lib/libutils/isoc/bget_malloc.c:763
    1464:	f9002017 	str	x23, [x0, #64]
/home/hei/Desktop/optee-qemu/optee_os/lib/libutils/isoc/bget_malloc.c:761
    1468:	b9007014 	str	w20, [x0, #112]
malloc_add_pool():
/home/hei/Desktop/optee-qemu/optee_os/lib/libutils/isoc/bget_malloc.c:837
    146c:	a94153f3 	ldp	x19, x20, [sp, #16]
    1470:	a94363f7 	ldp	x23, x24, [sp, #48]
    1474:	a8c47bfd 	ldp	x29, x30, [sp], #64
    1478:	d65f03c0 	ret

000000000000147c <malloc_buffer_is_within_alloced>:
gen_malloc_buffer_is_within_alloced():
/home/hei/Desktop/optee-qemu/optee_os/lib/libutils/isoc/bget_malloc.c:773
    147c:	8b010001 	add	x1, x0, x1
/home/hei/Desktop/optee-qemu/optee_os/lib/libutils/isoc/bget_malloc.c:780
    1480:	eb01001f 	cmp	x0, x1
    1484:	54000b88 	b.hi	15f4 <malloc_buffer_is_within_alloced+0x178>  // b.pmore
    1488:	aa0003e4 	mov	x4, x0
/home/hei/Desktop/optee-qemu/optee_os/lib/libutils/isoc/bget_malloc.c:783
    148c:	f0000040 	adrp	x0, c000 <_DYNAMIC>
    1490:	910f4000 	add	x0, x0, #0x3d0
bpool_foreach_iterator_init():
/home/hei/Desktop/optee-qemu/optee_os/lib/libutils/isoc/bget_malloc.c:288
    1494:	d2800005 	mov	x5, #0x0                   	// #0
bpool_foreach_pool():
/home/hei/Desktop/optee-qemu/optee_os/lib/libutils/isoc/bget_malloc.c:298
    1498:	d2f0000a 	mov	x10, #0x8000000000000000    	// #-9223372036854775808
    149c:	928001eb 	mov	x11, #0xfffffffffffffff0    	// #-16
bpool_foreach():
/home/hei/Desktop/optee-qemu/optee_os/lib/libutils/isoc/bget_malloc.c:335
    14a0:	a943a406 	ldp	x6, x9, [x0, #56]
bpool_foreach_iterator_init():
/home/hei/Desktop/optee-qemu/optee_os/lib/libutils/isoc/bget_malloc.c:289
    14a4:	f94000c3 	ldr	x3, [x6]
/home/hei/Desktop/optee-qemu/optee_os/lib/libutils/isoc/bget_malloc.c:288
    14a8:	aa0303e0 	mov	x0, x3
bpool_foreach_pool():
/home/hei/Desktop/optee-qemu/optee_os/lib/libutils/isoc/bget_malloc.c:296
    14ac:	f9400462 	ldr	x2, [x3, #8]
/home/hei/Desktop/optee-qemu/optee_os/lib/libutils/isoc/bget_malloc.c:298
    14b0:	eb0a005f 	cmp	x2, x10
    14b4:	540009a0 	b.eq	15e8 <malloc_buffer_is_within_alloced+0x16c>  // b.none
malloc_buffer_is_within_alloced():
/home/hei/Desktop/optee-qemu/optee_os/lib/libutils/isoc/bget_malloc.c:840
    14b8:	a9bf7bfd 	stp	x29, x30, [sp, #-16]!
    14bc:	910003fd 	mov	x29, sp
    14c0:	1400000d 	b	14f4 <malloc_buffer_is_within_alloced+0x78>
bpool_foreach_pool():
/home/hei/Desktop/optee-qemu/optee_os/lib/libutils/isoc/bget_malloc.c:315
    14c4:	91004000 	add	x0, x0, #0x10
gen_malloc_buffer_is_within_alloced():
/home/hei/Desktop/optee-qemu/optee_os/lib/libutils/isoc/bget_malloc.c:789
    14c8:	8b020002 	add	x2, x0, x2
/home/hei/Desktop/optee-qemu/optee_os/lib/libutils/isoc/bget_malloc.c:791
    14cc:	eb02003f 	cmp	x1, x2
    14d0:	1a9f87e2 	cset	w2, ls  // ls = plast
    14d4:	eb00009f 	cmp	x4, x0
    14d8:	1a9f37e0 	cset	w0, cs  // cs = hs, nlast
    14dc:	6a000040 	ands	w0, w2, w0
    14e0:	540007a1 	b.ne	15d4 <malloc_buffer_is_within_alloced+0x158>  // b.any
bpool_foreach_pool():
/home/hei/Desktop/optee-qemu/optee_os/lib/libutils/isoc/bget_malloc.c:296
    14e4:	f9400462 	ldr	x2, [x3, #8]
bpool_foreach_iterator_init():
/home/hei/Desktop/optee-qemu/optee_os/lib/libutils/isoc/bget_malloc.c:288
    14e8:	aa0303e0 	mov	x0, x3
bpool_foreach_pool():
/home/hei/Desktop/optee-qemu/optee_os/lib/libutils/isoc/bget_malloc.c:298
    14ec:	eb0a005f 	cmp	x2, x10
    14f0:	540006a0 	b.eq	15c4 <malloc_buffer_is_within_alloced+0x148>  // b.none
/home/hei/Desktop/optee-qemu/optee_os/lib/libutils/isoc/bget_malloc.c:301
    14f4:	b6f80242 	tbz	x2, #63, 153c <malloc_buffer_is_within_alloced+0xc0>
/home/hei/Desktop/optee-qemu/optee_os/lib/libutils/isoc/bget_malloc.c:303
    14f8:	cb0203e8 	neg	x8, x2
/home/hei/Desktop/optee-qemu/optee_os/lib/libutils/isoc/bget_malloc.c:305
    14fc:	52800007 	mov	w7, #0x0                   	// #0
/home/hei/Desktop/optee-qemu/optee_os/lib/libutils/isoc/bget_malloc.c:318
    1500:	8b080063 	add	x3, x3, x8
bpool_foreach():
/home/hei/Desktop/optee-qemu/optee_os/lib/libutils/isoc/bget_malloc.c:330
    1504:	35ffff07 	cbnz	w7, 14e4 <malloc_buffer_is_within_alloced+0x68>
bget_buf_size():
/home/hei/Desktop/optee-qemu/optee_os/lib/libutils/isoc/bget_malloc.c:457
    1508:	cb020162 	sub	x2, x11, x2
/home/hei/Desktop/optee-qemu/optee_os/lib/libutils/isoc/bget_malloc.c:458
    150c:	f100005f 	cmp	x2, #0x0
    1510:	54fffdac 	b.gt	14c4 <malloc_buffer_is_within_alloced+0x48>
    1514:	b0000043 	adrp	x3, a000 <__text_end+0x1324>
    1518:	913b3c63 	add	x3, x3, #0xecf
    151c:	9100dc63 	add	x3, x3, #0x37
    1520:	d0000041 	adrp	x1, b000 <__func__.3755+0xec>
    1524:	d0000040 	adrp	x0, b000 <__func__.3755+0xec>
    1528:	91067421 	add	x1, x1, #0x19d
    152c:	91053800 	add	x0, x0, #0x14e
    1530:	52803942 	mov	w2, #0x1ca                 	// #458
    1534:	940003fb 	bl	2520 <_assert_log>
    1538:	9400040b 	bl	2564 <_assert_break>
bpool_foreach_pool():
/home/hei/Desktop/optee-qemu/optee_os/lib/libutils/isoc/bget_malloc.c:311
    153c:	f9400c67 	ldr	x7, [x3, #24]
    1540:	f94008e7 	ldr	x7, [x7, #16]
    1544:	eb0300ff 	cmp	x7, x3
    1548:	54000160 	b.eq	1574 <malloc_buffer_is_within_alloced+0xf8>  // b.none
    154c:	b0000043 	adrp	x3, a000 <__text_end+0x1324>
    1550:	913b3c63 	add	x3, x3, #0xecf
    1554:	91011463 	add	x3, x3, #0x45
    1558:	d0000041 	adrp	x1, b000 <__func__.3755+0xec>
    155c:	b0000040 	adrp	x0, a000 <__text_end+0x1324>
    1560:	91067421 	add	x1, x1, #0x19d
    1564:	913de000 	add	x0, x0, #0xf78
    1568:	528026e2 	mov	w2, #0x137                 	// #311
    156c:	940003ed 	bl	2520 <_assert_log>
    1570:	940003fd 	bl	2564 <_assert_break>
/home/hei/Desktop/optee-qemu/optee_os/lib/libutils/isoc/bget_malloc.c:312
    1574:	f9400867 	ldr	x7, [x3, #16]
    1578:	f9400ce7 	ldr	x7, [x7, #24]
    157c:	eb0300ff 	cmp	x7, x3
    1580:	54000160 	b.eq	15ac <malloc_buffer_is_within_alloced+0x130>  // b.none
    1584:	b0000043 	adrp	x3, a000 <__text_end+0x1324>
    1588:	913b3c63 	add	x3, x3, #0xecf
    158c:	91011463 	add	x3, x3, #0x45
    1590:	d0000041 	adrp	x1, b000 <__func__.3755+0xec>
    1594:	b0000040 	adrp	x0, a000 <__text_end+0x1324>
    1598:	91067421 	add	x1, x1, #0x19d
    159c:	913e4c00 	add	x0, x0, #0xf93
    15a0:	52802702 	mov	w2, #0x138                 	// #312
    15a4:	940003df 	bl	2520 <_assert_log>
    15a8:	940003ef 	bl	2564 <_assert_break>
    15ac:	aa0203e8 	mov	x8, x2
/home/hei/Desktop/optee-qemu/optee_os/lib/libutils/isoc/bget_malloc.c:308
    15b0:	52800027 	mov	w7, #0x1                   	// #1
    15b4:	17ffffd3 	b	1500 <malloc_buffer_is_within_alloced+0x84>
bpool_foreach():
/home/hei/Desktop/optee-qemu/optee_os/lib/libutils/isoc/bget_malloc.c:339
    15b8:	d37ceca0 	lsl	x0, x5, #4
    15bc:	f86068c3 	ldr	x3, [x6, x0]
    15c0:	17ffffc9 	b	14e4 <malloc_buffer_is_within_alloced+0x68>
/home/hei/Desktop/optee-qemu/optee_os/lib/libutils/isoc/bget_malloc.c:335
    15c4:	910004a5 	add	x5, x5, #0x1
    15c8:	eb0900bf 	cmp	x5, x9
    15cc:	54ffff63 	b.cc	15b8 <malloc_buffer_is_within_alloced+0x13c>  // b.lo, b.ul, b.last
gen_malloc_buffer_is_within_alloced():
/home/hei/Desktop/optee-qemu/optee_os/lib/libutils/isoc/bget_malloc.c:774
    15d0:	52800000 	mov	w0, #0x0                   	// #0
malloc_buffer_is_within_alloced():
/home/hei/Desktop/optee-qemu/optee_os/lib/libutils/isoc/bget_malloc.c:842
    15d4:	a8c17bfd 	ldp	x29, x30, [sp], #16
    15d8:	d65f03c0 	ret
bpool_foreach():
/home/hei/Desktop/optee-qemu/optee_os/lib/libutils/isoc/bget_malloc.c:339
    15dc:	d37ceca0 	lsl	x0, x5, #4
    15e0:	f86068c3 	ldr	x3, [x6, x0]
    15e4:	17ffffb1 	b	14a8 <malloc_buffer_is_within_alloced+0x2c>
/home/hei/Desktop/optee-qemu/optee_os/lib/libutils/isoc/bget_malloc.c:335
    15e8:	910004a5 	add	x5, x5, #0x1
    15ec:	eb0900bf 	cmp	x5, x9
    15f0:	54ffff63 	b.cc	15dc <malloc_buffer_is_within_alloced+0x160>  // b.lo, b.ul, b.last
gen_malloc_buffer_is_within_alloced():
/home/hei/Desktop/optee-qemu/optee_os/lib/libutils/isoc/bget_malloc.c:774
    15f4:	52800000 	mov	w0, #0x0                   	// #0
malloc_buffer_is_within_alloced():
/home/hei/Desktop/optee-qemu/optee_os/lib/libutils/isoc/bget_malloc.c:842
    15f8:	d65f03c0 	ret

00000000000015fc <malloc_buffer_overlaps_heap>:
gen_malloc_buffer_overlaps_heap():
/home/hei/Desktop/optee-qemu/optee_os/lib/libutils/isoc/bget_malloc.c:814
    15fc:	f0000042 	adrp	x2, c000 <_DYNAMIC>
    1600:	910f4042 	add	x2, x2, #0x3d0
/home/hei/Desktop/optee-qemu/optee_os/lib/libutils/isoc/bget_malloc.c:807
    1604:	8b010001 	add	x1, x0, x1
/home/hei/Desktop/optee-qemu/optee_os/lib/libutils/isoc/bget_malloc.c:814
    1608:	d2800005 	mov	x5, #0x0                   	// #0
    160c:	a9439c43 	ldp	x3, x7, [x2, #56]
    1610:	eb0700bf 	cmp	x5, x7
    1614:	54000081 	b.ne	1624 <malloc_buffer_overlaps_heap+0x28>  // b.any
/home/hei/Desktop/optee-qemu/optee_os/lib/libutils/isoc/bget_malloc.c:809
    1618:	52800002 	mov	w2, #0x0                   	// #0
malloc_buffer_overlaps_heap():
/home/hei/Desktop/optee-qemu/optee_os/lib/libutils/isoc/bget_malloc.c:847
    161c:	2a0203e0 	mov	w0, w2
    1620:	d65f03c0 	ret
gen_malloc_buffer_overlaps_heap():
/home/hei/Desktop/optee-qemu/optee_os/lib/libutils/isoc/bget_malloc.c:816
    1624:	a9401066 	ldp	x6, x4, [x3]
/home/hei/Desktop/optee-qemu/optee_os/lib/libutils/isoc/bget_malloc.c:818
    1628:	eb01001f 	cmp	x0, x1
    162c:	1a9f97e2 	cset	w2, hi  // hi = pmore
/home/hei/Desktop/optee-qemu/optee_os/lib/libutils/isoc/bget_malloc.c:816
    1630:	8b0400c4 	add	x4, x6, x4
/home/hei/Desktop/optee-qemu/optee_os/lib/libutils/isoc/bget_malloc.c:818
    1634:	eb0400df 	cmp	x6, x4
    1638:	1a9f97e8 	cset	w8, hi  // hi = pmore
    163c:	2a080042 	orr	w2, w2, w8
    1640:	35fffee2 	cbnz	w2, 161c <malloc_buffer_overlaps_heap+0x20>
/home/hei/Desktop/optee-qemu/optee_os/lib/libutils/isoc/bget_malloc.c:823
    1644:	eb06003f 	cmp	x1, x6
    1648:	91004063 	add	x3, x3, #0x10
    164c:	1a9f97e2 	cset	w2, hi  // hi = pmore
    1650:	eb04001f 	cmp	x0, x4
    1654:	1a9f27e4 	cset	w4, cc  // cc = lo, ul, last
    1658:	2a040042 	orr	w2, w2, w4
    165c:	35fffe02 	cbnz	w2, 161c <malloc_buffer_overlaps_heap+0x20>
/home/hei/Desktop/optee-qemu/optee_os/lib/libutils/isoc/bget_malloc.c:814
    1660:	910004a5 	add	x5, x5, #0x1
    1664:	17ffffeb 	b	1610 <malloc_buffer_overlaps_heap+0x14>

0000000000001668 <memset>:
memset():
/home/hei/Desktop/optee-qemu/optee_os/lib/libutils/isoc/newlib/memset.c:125
    1668:	d2800003 	mov	x3, #0x0                   	// #0
    166c:	eb03005f 	cmp	x2, x3
    1670:	54000041 	b.ne	1678 <memset+0x10>  // b.any
/home/hei/Desktop/optee-qemu/optee_os/lib/libutils/isoc/newlib/memset.c:129
    1674:	d65f03c0 	ret
/home/hei/Desktop/optee-qemu/optee_os/lib/libutils/isoc/newlib/memset.c:126
    1678:	38236801 	strb	w1, [x0, x3]
    167c:	91000463 	add	x3, x3, #0x1
    1680:	17fffffb 	b	166c <memset+0x4>

0000000000001684 <__vsnprintf>:
__vsnprintf():
/home/hei/Desktop/optee-qemu/optee_os/lib/libutils/ext/snprintk.c:137
    1684:	d10403ff 	sub	sp, sp, #0x100
    1688:	aa0203e9 	mov	x9, x2
kprintf():
/home/hei/Desktop/optee-qemu/optee_os/lib/libutils/ext/snprintk.c:537
    168c:	910363ed 	add	x13, sp, #0xd8
__vsnprintf():
/home/hei/Desktop/optee-qemu/optee_os/lib/libutils/ext/snprintk.c:137
    1690:	a9037bfd 	stp	x29, x30, [sp, #48]
    1694:	9100c3fd 	add	x29, sp, #0x30
    1698:	a90987e0 	stp	x0, x1, [sp, #152]
    169c:	12001c80 	and	w0, w4, #0xff
    16a0:	a90453f3 	stp	x19, x20, [sp, #64]
    16a4:	b9401874 	ldr	w20, [x3, #24]
    16a8:	a90873fb 	stp	x27, x28, [sp, #128]
    16ac:	b900afe0 	str	w0, [sp, #172]
    16b0:	a9407073 	ldp	x19, x28, [x3]
    16b4:	a9076bf9 	stp	x25, x26, [sp, #112]
kprintf():
/home/hei/Desktop/optee-qemu/optee_os/lib/libutils/ext/snprintk.c:267
    16b8:	5280001a 	mov	w26, #0x0                   	// #0
__vsnprintf():
/home/hei/Desktop/optee-qemu/optee_os/lib/libutils/ext/snprintk.c:141
    16bc:	f9404fe0 	ldr	x0, [sp, #152]
/home/hei/Desktop/optee-qemu/optee_os/lib/libutils/ext/snprintk.c:137
    16c0:	a9055bf5 	stp	x21, x22, [sp, #80]
kprintf():
/home/hei/Desktop/optee-qemu/optee_os/lib/libutils/ext/snprintk.c:269
    16c4:	d2800016 	mov	x22, #0x0                   	// #0
__vsnprintf():
/home/hei/Desktop/optee-qemu/optee_os/lib/libutils/ext/snprintk.c:141
    16c8:	8b010019 	add	x25, x0, x1
    16cc:	aa0003fb 	mov	x27, x0
/home/hei/Desktop/optee-qemu/optee_os/lib/libutils/ext/snprintk.c:137
    16d0:	a90663f7 	stp	x23, x24, [sp, #96]
kprintf():
/home/hei/Desktop/optee-qemu/optee_os/lib/libutils/ext/snprintk.c:275
    16d4:	39400120 	ldrb	w0, [x9]
    16d8:	7100941f 	cmp	w0, #0x25
    16dc:	7a401804 	ccmp	w0, #0x0, #0x4, ne  // ne = any
    16e0:	540003c1 	b.ne	1758 <__vsnprintf+0xd4>  // b.any
/home/hei/Desktop/optee-qemu/optee_os/lib/libutils/ext/snprintk.c:279
    16e4:	34005be0 	cbz	w0, 2260 <__vsnprintf+0xbdc>
/home/hei/Desktop/optee-qemu/optee_os/lib/libutils/ext/snprintk.c:287
    16e8:	12800003 	mov	w3, #0xffffffff            	// #-1
/home/hei/Desktop/optee-qemu/optee_os/lib/libutils/ext/snprintk.c:282
    16ec:	91000529 	add	x9, x9, #0x1
    16f0:	2a1403e1 	mov	w1, w20
    16f4:	aa1303e0 	mov	x0, x19
/home/hei/Desktop/optee-qemu/optee_os/lib/libutils/ext/snprintk.c:324
    16f8:	2a0303e6 	mov	w6, w3
/home/hei/Desktop/optee-qemu/optee_os/lib/libutils/ext/snprintk.c:288
    16fc:	52800002 	mov	w2, #0x0                   	// #0
/home/hei/Desktop/optee-qemu/optee_os/lib/libutils/ext/snprintk.c:286
    1700:	52800017 	mov	w23, #0x0                   	// #0
/home/hei/Desktop/optee-qemu/optee_os/lib/libutils/ext/snprintk.c:284
    1704:	52800015 	mov	w21, #0x0                   	// #0
/home/hei/Desktop/optee-qemu/optee_os/lib/libutils/ext/snprintk.c:299
    1708:	52800407 	mov	w7, #0x20                  	// #32
/home/hei/Desktop/optee-qemu/optee_os/lib/libutils/ext/snprintk.c:290
    170c:	38401538 	ldrb	w24, [x9], #1
/home/hei/Desktop/optee-qemu/optee_os/lib/libutils/ext/snprintk.c:291
    1710:	71018f1f 	cmp	w24, #0x63
    1714:	540019e0 	b.eq	1a50 <__vsnprintf+0x3cc>  // b.none
    1718:	540007ec 	b.gt	1814 <__vsnprintf+0x190>
    171c:	7100c31f 	cmp	w24, #0x30
    1720:	540017c0 	b.eq	1a18 <__vsnprintf+0x394>  // b.none
    1724:	5400038c 	b.gt	1794 <__vsnprintf+0x110>
    1728:	7100ab1f 	cmp	w24, #0x2a
    172c:	54001100 	b.eq	194c <__vsnprintf+0x2c8>  // b.none
    1730:	5400022c 	b.gt	1774 <__vsnprintf+0xf0>
    1734:	7100831f 	cmp	w24, #0x20
    1738:	54001000 	b.eq	1938 <__vsnprintf+0x2b4>  // b.none
    173c:	71008f1f 	cmp	w24, #0x23
    1740:	54001020 	b.eq	1944 <__vsnprintf+0x2c0>  // b.none
/home/hei/Desktop/optee-qemu/optee_os/lib/libutils/ext/snprintk.c:541
    1744:	340058f8 	cbz	w24, 2260 <__vsnprintf+0xbdc>
/home/hei/Desktop/optee-qemu/optee_os/lib/libutils/ext/snprintk.c:545
    1748:	2a0103f4 	mov	w20, w1
    174c:	aa0003f3 	mov	x19, x0
    1750:	390363f8 	strb	w24, [sp, #216]
/home/hei/Desktop/optee-qemu/optee_os/lib/libutils/ext/snprintk.c:548
    1754:	140000c5 	b	1a68 <__vsnprintf+0x3e4>
/home/hei/Desktop/optee-qemu/optee_os/lib/libutils/ext/snprintk.c:276
    1758:	1100075a 	add	w26, w26, #0x1
/home/hei/Desktop/optee-qemu/optee_os/lib/libutils/ext/snprintk.c:277
    175c:	b400009b 	cbz	x27, 176c <__vsnprintf+0xe8>
    1760:	eb1b033f 	cmp	x25, x27
    1764:	54000049 	b.ls	176c <__vsnprintf+0xe8>  // b.plast
    1768:	38001760 	strb	w0, [x27], #1
/home/hei/Desktop/optee-qemu/optee_os/lib/libutils/ext/snprintk.c:275
    176c:	91000529 	add	x9, x9, #0x1
    1770:	17ffffd9 	b	16d4 <__vsnprintf+0x50>
/home/hei/Desktop/optee-qemu/optee_os/lib/libutils/ext/snprintk.c:291
    1774:	7100b71f 	cmp	w24, #0x2d
    1778:	54000f80 	b.eq	1968 <__vsnprintf+0x2e4>  // b.none
    177c:	7100bb1f 	cmp	w24, #0x2e
    1780:	540010e0 	b.eq	199c <__vsnprintf+0x318>  // b.none
    1784:	7100af1f 	cmp	w24, #0x2b
    1788:	54fffde1 	b.ne	1744 <__vsnprintf+0xc0>  // b.any
/home/hei/Desktop/optee-qemu/optee_os/lib/libutils/ext/snprintk.c:319
    178c:	2a1803e2 	mov	w2, w24
    1790:	17ffffdf 	b	170c <__vsnprintf+0x88>
/home/hei/Desktop/optee-qemu/optee_os/lib/libutils/ext/snprintk.c:291
    1794:	7101131f 	cmp	w24, #0x44
    1798:	54001840 	b.eq	1aa0 <__vsnprintf+0x41c>  // b.none
    179c:	5400018c 	b.gt	17cc <__vsnprintf+0x148>
    17a0:	7100e71f 	cmp	w24, #0x39
    17a4:	54fffd0c 	b.gt	1744 <__vsnprintf+0xc0>
/home/hei/Desktop/optee-qemu/optee_os/lib/libutils/ext/snprintk.c:344
    17a8:	52800017 	mov	w23, #0x0                   	// #0
/home/hei/Desktop/optee-qemu/optee_os/lib/libutils/ext/snprintk.c:346
    17ac:	5100c308 	sub	w8, w24, #0x30
    17b0:	52800144 	mov	w4, #0xa                   	// #10
/home/hei/Desktop/optee-qemu/optee_os/lib/libutils/ext/snprintk.c:347
    17b4:	38401538 	ldrb	w24, [x9], #1
/home/hei/Desktop/optee-qemu/optee_os/lib/libutils/ext/snprintk.c:346
    17b8:	1b0422f7 	madd	w23, w23, w4, w8
/home/hei/Desktop/optee-qemu/optee_os/lib/libutils/ext/snprintk.c:348
    17bc:	5100c304 	sub	w4, w24, #0x30
    17c0:	7100249f 	cmp	w4, #0x9
    17c4:	54ffff49 	b.ls	17ac <__vsnprintf+0x128>  // b.plast
    17c8:	17ffffd2 	b	1710 <__vsnprintf+0x8c>
/home/hei/Desktop/optee-qemu/optee_os/lib/libutils/ext/snprintk.c:291
    17cc:	7101571f 	cmp	w24, #0x55
    17d0:	54003e20 	b.eq	1f94 <__vsnprintf+0x910>  // b.none
    17d4:	7101631f 	cmp	w24, #0x58
    17d8:	540043a0 	b.eq	204c <__vsnprintf+0x9c8>  // b.none
    17dc:	71013f1f 	cmp	w24, #0x4f
    17e0:	54fffb21 	b.ne	1744 <__vsnprintf+0xc0>  // b.any
/home/hei/Desktop/optee-qemu/optee_os/lib/libutils/ext/snprintk.c:408
    17e4:	321c02b5 	orr	w21, w21, #0x10
/home/hei/Desktop/optee-qemu/optee_os/lib/libutils/ext/snprintk.c:411
    17e8:	36382675 	tbz	w21, #7, 1cb4 <__vsnprintf+0x630>
    17ec:	37f827a1 	tbnz	w1, #31, 1ce0 <__vsnprintf+0x65c>
    17f0:	91003c13 	add	x19, x0, #0xf
    17f4:	2a0103f4 	mov	w20, w1
    17f8:	927df273 	and	x19, x19, #0xfffffffffffffff8
    17fc:	f9400000 	ldr	x0, [x0]
/home/hei/Desktop/optee-qemu/optee_os/lib/libutils/ext/snprintk.c:488
    1800:	52800002 	mov	w2, #0x0                   	// #0
    1804:	3100047f 	cmn	w3, #0x1
    1808:	540016e0 	b.eq	1ae4 <__vsnprintf+0x460>  // b.none
    180c:	52800001 	mov	w1, #0x0                   	// #0
    1810:	1400024e 	b	2148 <__vsnprintf+0xac4>
/home/hei/Desktop/optee-qemu/optee_os/lib/libutils/ext/snprintk.c:291
    1814:	7101bf1f 	cmp	w24, #0x6f
    1818:	54fffe80 	b.eq	17e8 <__vsnprintf+0x164>  // b.none
    181c:	5400024c 	b.gt	1864 <__vsnprintf+0x1e0>
    1820:	7101a71f 	cmp	w24, #0x69
    1824:	54001400 	b.eq	1aa4 <__vsnprintf+0x420>  // b.none
    1828:	540000ec 	b.gt	1844 <__vsnprintf+0x1c0>
    182c:	7101931f 	cmp	w24, #0x64
    1830:	540013a0 	b.eq	1aa4 <__vsnprintf+0x420>  // b.none
    1834:	7101a31f 	cmp	w24, #0x68
    1838:	54fff861 	b.ne	1744 <__vsnprintf+0xc0>  // b.any
/home/hei/Desktop/optee-qemu/optee_os/lib/libutils/ext/snprintk.c:352
    183c:	321a02b5 	orr	w21, w21, #0x40
/home/hei/Desktop/optee-qemu/optee_os/lib/libutils/ext/snprintk.c:353
    1840:	17ffffb3 	b	170c <__vsnprintf+0x88>
/home/hei/Desktop/optee-qemu/optee_os/lib/libutils/ext/snprintk.c:291
    1844:	7101b31f 	cmp	w24, #0x6c
    1848:	54000ec0 	b.eq	1a20 <__vsnprintf+0x39c>  // b.none
    184c:	7101bb1f 	cmp	w24, #0x6e
    1850:	54001c40 	b.eq	1bd8 <__vsnprintf+0x554>  // b.none
    1854:	7101ab1f 	cmp	w24, #0x6a
    1858:	54fff761 	b.ne	1744 <__vsnprintf+0xc0>  // b.any
/home/hei/Desktop/optee-qemu/optee_os/lib/libutils/ext/snprintk.c:355
    185c:	321902b5 	orr	w21, w21, #0x80
/home/hei/Desktop/optee-qemu/optee_os/lib/libutils/ext/snprintk.c:356
    1860:	17ffffab 	b	170c <__vsnprintf+0x88>
/home/hei/Desktop/optee-qemu/optee_os/lib/libutils/ext/snprintk.c:291
    1864:	7101d31f 	cmp	w24, #0x74
    1868:	54000ec0 	b.eq	1a40 <__vsnprintf+0x3bc>  // b.none
    186c:	5400042c 	b.gt	18f0 <__vsnprintf+0x26c>
    1870:	7101c71f 	cmp	w24, #0x71
    1874:	54000de0 	b.eq	1a30 <__vsnprintf+0x3ac>  // b.none
    1878:	5400276b 	b.lt	1d64 <__vsnprintf+0x6e0>  // b.tstop
    187c:	7101cf1f 	cmp	w24, #0x73
    1880:	54fff621 	b.ne	1744 <__vsnprintf+0xc0>  // b.any
/home/hei/Desktop/optee-qemu/optee_os/lib/libutils/ext/snprintk.c:442
    1884:	37f83621 	tbnz	w1, #31, 1f48 <__vsnprintf+0x8c4>
    1888:	91003c13 	add	x19, x0, #0xf
    188c:	2a0103f4 	mov	w20, w1
    1890:	927df273 	and	x19, x19, #0xfffffffffffffff8
    1894:	f9400004 	ldr	x4, [x0]
    1898:	b5000064 	cbnz	x4, 18a4 <__vsnprintf+0x220>
/home/hei/Desktop/optee-qemu/optee_os/lib/libutils/ext/snprintk.c:444
    189c:	d0000044 	adrp	x4, b000 <__func__.3755+0xec>
    18a0:	91080c84 	add	x4, x4, #0x203
/home/hei/Desktop/optee-qemu/optee_os/lib/libutils/ext/snprintk.c:445
    18a4:	3100047f 	cmn	w3, #0x1
    18a8:	54003620 	b.eq	1f6c <__vsnprintf+0x8e8>  // b.none
/home/hei/Desktop/optee-qemu/optee_os/lib/libutils/ext/snprintk.c:451
    18ac:	93407c62 	sxtw	x2, w3
    18b0:	aa0403e0 	mov	x0, x4
    18b4:	52800001 	mov	w1, #0x0                   	// #0
    18b8:	f9005be4 	str	x4, [sp, #176]
    18bc:	b900bbe3 	str	w3, [sp, #184]
    18c0:	a90c37e9 	stp	x9, x13, [sp, #192]
    18c4:	940002af 	bl	2380 <memchr>
/home/hei/Desktop/optee-qemu/optee_os/lib/libutils/ext/snprintk.c:453
    18c8:	b940bbe3 	ldr	w3, [sp, #184]
    18cc:	f9405be4 	ldr	x4, [sp, #176]
    18d0:	a94c37e9 	ldp	x9, x13, [sp, #192]
    18d4:	b4000080 	cbz	x0, 18e4 <__vsnprintf+0x260>
/home/hei/Desktop/optee-qemu/optee_os/lib/libutils/ext/snprintk.c:454
    18d8:	cb040000 	sub	x0, x0, x4
    18dc:	6b00007f 	cmp	w3, w0
    18e0:	1a80d063 	csel	w3, w3, w0, le
/home/hei/Desktop/optee-qemu/optee_os/lib/libutils/ext/snprintk.c:285
    18e4:	52800001 	mov	w1, #0x0                   	// #0
/home/hei/Desktop/optee-qemu/optee_os/lib/libutils/ext/snprintk.c:461
    18e8:	52800002 	mov	w2, #0x0                   	// #0
    18ec:	14000148 	b	1e0c <__vsnprintf+0x788>
/home/hei/Desktop/optee-qemu/optee_os/lib/libutils/ext/snprintk.c:291
    18f0:	7101e31f 	cmp	w24, #0x78
    18f4:	54003ca0 	b.eq	2088 <__vsnprintf+0xa04>  // b.none
    18f8:	7101eb1f 	cmp	w24, #0x7a
    18fc:	54000a60 	b.eq	1a48 <__vsnprintf+0x3c4>  // b.none
    1900:	7101d71f 	cmp	w24, #0x75
    1904:	54fff201 	b.ne	1744 <__vsnprintf+0xc0>  // b.any
/home/hei/Desktop/optee-qemu/optee_os/lib/libutils/ext/snprintk.c:467
    1908:	363834b5 	tbz	w21, #7, 1f9c <__vsnprintf+0x918>
    190c:	37f835e1 	tbnz	w1, #31, 1fc8 <__vsnprintf+0x944>
    1910:	91003c13 	add	x19, x0, #0xf
    1914:	2a0103f4 	mov	w20, w1
    1918:	927df273 	and	x19, x19, #0xfffffffffffffff8
    191c:	f9400000 	ldr	x0, [x0]
/home/hei/Desktop/optee-qemu/optee_os/lib/libutils/ext/snprintk.c:482
    1920:	52800002 	mov	w2, #0x0                   	// #0
/home/hei/Desktop/optee-qemu/optee_os/lib/libutils/ext/snprintk.c:488
    1924:	3100047f 	cmn	w3, #0x1
    1928:	540041e1 	b.ne	2164 <__vsnprintf+0xae0>  // b.any
/home/hei/Desktop/optee-qemu/optee_os/lib/libutils/ext/snprintk.c:508
    192c:	910095a1 	add	x1, x13, #0x25
/home/hei/Desktop/optee-qemu/optee_os/lib/libutils/ext/snprintk.c:517
    1930:	d2800145 	mov	x5, #0xa                   	// #10
    1934:	14000216 	b	218c <__vsnprintf+0xb08>
/home/hei/Desktop/optee-qemu/optee_os/lib/libutils/ext/snprintk.c:299
    1938:	7100005f 	cmp	w2, #0x0
    193c:	1a871042 	csel	w2, w2, w7, ne  // ne = any
    1940:	17ffff73 	b	170c <__vsnprintf+0x88>
/home/hei/Desktop/optee-qemu/optee_os/lib/libutils/ext/snprintk.c:302
    1944:	320002b5 	orr	w21, w21, #0x1
/home/hei/Desktop/optee-qemu/optee_os/lib/libutils/ext/snprintk.c:303
    1948:	17ffff71 	b	170c <__vsnprintf+0x88>
/home/hei/Desktop/optee-qemu/optee_os/lib/libutils/ext/snprintk.c:311
    194c:	37f80121 	tbnz	w1, #31, 1970 <__vsnprintf+0x2ec>
    1950:	91002c05 	add	x5, x0, #0xb
    1954:	aa0003e4 	mov	x4, x0
    1958:	927df0a0 	and	x0, x5, #0xfffffffffffffff8
    195c:	b9400097 	ldr	w23, [x4]
    1960:	36ffed77 	tbz	w23, #31, 170c <__vsnprintf+0x88>
/home/hei/Desktop/optee-qemu/optee_os/lib/libutils/ext/snprintk.c:313
    1964:	4b1703f7 	neg	w23, w23
/home/hei/Desktop/optee-qemu/optee_os/lib/libutils/ext/snprintk.c:316
    1968:	321e02b5 	orr	w21, w21, #0x4
/home/hei/Desktop/optee-qemu/optee_os/lib/libutils/ext/snprintk.c:317
    196c:	17ffff68 	b	170c <__vsnprintf+0x88>
/home/hei/Desktop/optee-qemu/optee_os/lib/libutils/ext/snprintk.c:311
    1970:	11002025 	add	w5, w1, #0x8
    1974:	710000bf 	cmp	w5, #0x0
    1978:	540000cd 	b.le	1990 <__vsnprintf+0x30c>
    197c:	91002c08 	add	x8, x0, #0xb
    1980:	aa0003e4 	mov	x4, x0
    1984:	2a0503e1 	mov	w1, w5
    1988:	927df100 	and	x0, x8, #0xfffffffffffffff8
    198c:	17fffff4 	b	195c <__vsnprintf+0x2d8>
    1990:	8b21c384 	add	x4, x28, w1, sxtw
    1994:	2a0503e1 	mov	w1, w5
    1998:	17fffff1 	b	195c <__vsnprintf+0x2d8>
/home/hei/Desktop/optee-qemu/optee_os/lib/libutils/ext/snprintk.c:322
    199c:	38401538 	ldrb	w24, [x9], #1
    19a0:	7100ab1f 	cmp	w24, #0x2a
    19a4:	54000361 	b.ne	1a10 <__vsnprintf+0x38c>  // b.any
/home/hei/Desktop/optee-qemu/optee_os/lib/libutils/ext/snprintk.c:323
    19a8:	37f80141 	tbnz	w1, #31, 19d0 <__vsnprintf+0x34c>
    19ac:	91002c04 	add	x4, x0, #0xb
    19b0:	2a0103e5 	mov	w5, w1
    19b4:	927df084 	and	x4, x4, #0xfffffffffffffff8
/home/hei/Desktop/optee-qemu/optee_os/lib/libutils/ext/snprintk.c:324
    19b8:	b9400003 	ldr	w3, [x0]
    19bc:	2a0503e1 	mov	w1, w5
    19c0:	aa0403e0 	mov	x0, x4
    19c4:	7100007f 	cmp	w3, #0x0
    19c8:	1a86a063 	csel	w3, w3, w6, ge  // ge = tcont
/home/hei/Desktop/optee-qemu/optee_os/lib/libutils/ext/snprintk.c:325
    19cc:	17ffff50 	b	170c <__vsnprintf+0x88>
/home/hei/Desktop/optee-qemu/optee_os/lib/libutils/ext/snprintk.c:323
    19d0:	11002025 	add	w5, w1, #0x8
    19d4:	710000bf 	cmp	w5, #0x0
    19d8:	5400008d 	b.le	19e8 <__vsnprintf+0x364>
    19dc:	91002c04 	add	x4, x0, #0xb
    19e0:	927df084 	and	x4, x4, #0xfffffffffffffff8
    19e4:	17fffff5 	b	19b8 <__vsnprintf+0x334>
    19e8:	aa0003e4 	mov	x4, x0
    19ec:	8b21c380 	add	x0, x28, w1, sxtw
    19f0:	17fffff2 	b	19b8 <__vsnprintf+0x334>
/home/hei/Desktop/optee-qemu/optee_os/lib/libutils/ext/snprintk.c:329
    19f4:	52800145 	mov	w5, #0xa                   	// #10
/home/hei/Desktop/optee-qemu/optee_os/lib/libutils/ext/snprintk.c:330
    19f8:	38401538 	ldrb	w24, [x9], #1
/home/hei/Desktop/optee-qemu/optee_os/lib/libutils/ext/snprintk.c:329
    19fc:	1b051063 	madd	w3, w3, w5, w4
/home/hei/Desktop/optee-qemu/optee_os/lib/libutils/ext/snprintk.c:328
    1a00:	5100c304 	sub	w4, w24, #0x30
    1a04:	7100249f 	cmp	w4, #0x9
    1a08:	54ffff69 	b.ls	19f4 <__vsnprintf+0x370>  // b.plast
    1a0c:	17ffff41 	b	1710 <__vsnprintf+0x8c>
/home/hei/Desktop/optee-qemu/optee_os/lib/libutils/ext/snprintk.c:327
    1a10:	52800003 	mov	w3, #0x0                   	// #0
    1a14:	17fffffb 	b	1a00 <__vsnprintf+0x37c>
/home/hei/Desktop/optee-qemu/optee_os/lib/libutils/ext/snprintk.c:340
    1a18:	321602b5 	orr	w21, w21, #0x400
/home/hei/Desktop/optee-qemu/optee_os/lib/libutils/ext/snprintk.c:341
    1a1c:	17ffff3c 	b	170c <__vsnprintf+0x88>
/home/hei/Desktop/optee-qemu/optee_os/lib/libutils/ext/snprintk.c:358
    1a20:	39400124 	ldrb	w4, [x9]
    1a24:	7101b09f 	cmp	w4, #0x6c
    1a28:	54000081 	b.ne	1a38 <__vsnprintf+0x3b4>  // b.any
    1a2c:	91000529 	add	x9, x9, #0x1
/home/hei/Desktop/optee-qemu/optee_os/lib/libutils/ext/snprintk.c:366
    1a30:	321b02b5 	orr	w21, w21, #0x20
/home/hei/Desktop/optee-qemu/optee_os/lib/libutils/ext/snprintk.c:367
    1a34:	17ffff36 	b	170c <__vsnprintf+0x88>
/home/hei/Desktop/optee-qemu/optee_os/lib/libutils/ext/snprintk.c:362
    1a38:	321c02b5 	orr	w21, w21, #0x10
    1a3c:	17ffff34 	b	170c <__vsnprintf+0x88>
/home/hei/Desktop/optee-qemu/optee_os/lib/libutils/ext/snprintk.c:369
    1a40:	321802b5 	orr	w21, w21, #0x100
/home/hei/Desktop/optee-qemu/optee_os/lib/libutils/ext/snprintk.c:370
    1a44:	17ffff32 	b	170c <__vsnprintf+0x88>
/home/hei/Desktop/optee-qemu/optee_os/lib/libutils/ext/snprintk.c:372
    1a48:	321702b5 	orr	w21, w21, #0x200
/home/hei/Desktop/optee-qemu/optee_os/lib/libutils/ext/snprintk.c:373
    1a4c:	17ffff30 	b	170c <__vsnprintf+0x88>
/home/hei/Desktop/optee-qemu/optee_os/lib/libutils/ext/snprintk.c:375
    1a50:	37f80161 	tbnz	w1, #31, 1a7c <__vsnprintf+0x3f8>
    1a54:	91002c13 	add	x19, x0, #0xb
    1a58:	2a0103f4 	mov	w20, w1
    1a5c:	927df273 	and	x19, x19, #0xfffffffffffffff8
    1a60:	b9400000 	ldr	w0, [x0]
    1a64:	390363e0 	strb	w0, [sp, #216]
/home/hei/Desktop/optee-qemu/optee_os/lib/libutils/ext/snprintk.c:546
    1a68:	52800023 	mov	w3, #0x1                   	// #1
/home/hei/Desktop/optee-qemu/optee_os/lib/libutils/ext/snprintk.c:285
    1a6c:	52800001 	mov	w1, #0x0                   	// #0
/home/hei/Desktop/optee-qemu/optee_os/lib/libutils/ext/snprintk.c:547
    1a70:	52800002 	mov	w2, #0x0                   	// #0
/home/hei/Desktop/optee-qemu/optee_os/lib/libutils/ext/snprintk.c:544
    1a74:	910363e4 	add	x4, sp, #0xd8
    1a78:	140000e5 	b	1e0c <__vsnprintf+0x788>
/home/hei/Desktop/optee-qemu/optee_os/lib/libutils/ext/snprintk.c:375
    1a7c:	11002034 	add	w20, w1, #0x8
    1a80:	7100029f 	cmp	w20, #0x0
    1a84:	5400008d 	b.le	1a94 <__vsnprintf+0x410>
    1a88:	91002c13 	add	x19, x0, #0xb
    1a8c:	927df273 	and	x19, x19, #0xfffffffffffffff8
    1a90:	17fffff4 	b	1a60 <__vsnprintf+0x3dc>
    1a94:	aa0003f3 	mov	x19, x0
    1a98:	8b21c380 	add	x0, x28, w1, sxtw
    1a9c:	17fffff1 	b	1a60 <__vsnprintf+0x3dc>
/home/hei/Desktop/optee-qemu/optee_os/lib/libutils/ext/snprintk.c:380
    1aa0:	321c02b5 	orr	w21, w21, #0x10
/home/hei/Desktop/optee-qemu/optee_os/lib/libutils/ext/snprintk.c:384
    1aa4:	36380435 	tbz	w21, #7, 1b28 <__vsnprintf+0x4a4>
    1aa8:	37f80561 	tbnz	w1, #31, 1b54 <__vsnprintf+0x4d0>
    1aac:	91003c13 	add	x19, x0, #0xf
    1ab0:	2a0103f4 	mov	w20, w1
    1ab4:	927df273 	and	x19, x19, #0xfffffffffffffff8
    1ab8:	f9400000 	ldr	x0, [x0]
/home/hei/Desktop/optee-qemu/optee_os/lib/libutils/ext/snprintk.c:385
    1abc:	b6fff340 	tbz	x0, #63, 1924 <__vsnprintf+0x2a0>
/home/hei/Desktop/optee-qemu/optee_os/lib/libutils/ext/snprintk.c:386
    1ac0:	cb0003e0 	neg	x0, x0
/home/hei/Desktop/optee-qemu/optee_os/lib/libutils/ext/snprintk.c:389
    1ac4:	52800021 	mov	w1, #0x1                   	// #1
/home/hei/Desktop/optee-qemu/optee_os/lib/libutils/ext/snprintk.c:387
    1ac8:	528005a2 	mov	w2, #0x2d                  	// #45
/home/hei/Desktop/optee-qemu/optee_os/lib/libutils/ext/snprintk.c:488
    1acc:	3100047f 	cmn	w3, #0x1
    1ad0:	540033c1 	b.ne	2148 <__vsnprintf+0xac4>  // b.any
/home/hei/Desktop/optee-qemu/optee_os/lib/libutils/ext/snprintk.c:503
    1ad4:	7100043f 	cmp	w1, #0x1
    1ad8:	54fff2a0 	b.eq	192c <__vsnprintf+0x2a8>  // b.none
    1adc:	7100083f 	cmp	w1, #0x2
    1ae0:	54002140 	b.eq	1f08 <__vsnprintf+0x884>  // b.none
/home/hei/Desktop/optee-qemu/optee_os/lib/libutils/ext/snprintk.c:488
    1ae4:	910095a1 	add	x1, x13, #0x25
/home/hei/Desktop/optee-qemu/optee_os/lib/libutils/ext/snprintk.c:506
    1ae8:	12000805 	and	w5, w0, #0x7
    1aec:	d1000424 	sub	x4, x1, #0x1
    1af0:	1100c0a5 	add	w5, w5, #0x30
    1af4:	381ff025 	sturb	w5, [x1, #-1]
/home/hei/Desktop/optee-qemu/optee_os/lib/libutils/ext/snprintk.c:507
    1af8:	d343fc00 	lsr	x0, x0, #3
/home/hei/Desktop/optee-qemu/optee_os/lib/libutils/ext/snprintk.c:508
    1afc:	b5003380 	cbnz	x0, 216c <__vsnprintf+0xae8>
/home/hei/Desktop/optee-qemu/optee_os/lib/libutils/ext/snprintk.c:510
    1b00:	360000d5 	tbz	w21, #0, 1b18 <__vsnprintf+0x494>
    1b04:	7100c0bf 	cmp	w5, #0x30
    1b08:	54000080 	b.eq	1b18 <__vsnprintf+0x494>  // b.none
/home/hei/Desktop/optee-qemu/optee_os/lib/libutils/ext/snprintk.c:511
    1b0c:	52800600 	mov	w0, #0x30                  	// #48
    1b10:	381ff080 	sturb	w0, [x4, #-1]
    1b14:	d1000824 	sub	x4, x1, #0x2
/home/hei/Desktop/optee-qemu/optee_os/lib/libutils/ext/snprintk.c:537
    1b18:	910095a0 	add	x0, x13, #0x25
    1b1c:	2a0303e1 	mov	w1, w3
    1b20:	4b040003 	sub	w3, w0, w4
    1b24:	140000ba 	b	1e0c <__vsnprintf+0x788>
/home/hei/Desktop/optee-qemu/optee_os/lib/libutils/ext/snprintk.c:384
    1b28:	3747fc15 	tbnz	w21, #8, 1aa8 <__vsnprintf+0x424>
    1b2c:	374ffbf5 	tbnz	w21, #9, 1aa8 <__vsnprintf+0x424>
    1b30:	372ffbd5 	tbnz	w21, #5, 1aa8 <__vsnprintf+0x424>
    1b34:	3727fbb5 	tbnz	w21, #4, 1aa8 <__vsnprintf+0x424>
    1b38:	36300335 	tbz	w21, #6, 1b9c <__vsnprintf+0x518>
    1b3c:	37f801e1 	tbnz	w1, #31, 1b78 <__vsnprintf+0x4f4>
    1b40:	91002c13 	add	x19, x0, #0xb
    1b44:	2a0103f4 	mov	w20, w1
    1b48:	927df273 	and	x19, x19, #0xfffffffffffffff8
    1b4c:	79800000 	ldrsh	x0, [x0]
    1b50:	17ffffdb 	b	1abc <__vsnprintf+0x438>
    1b54:	11002034 	add	w20, w1, #0x8
    1b58:	7100029f 	cmp	w20, #0x0
    1b5c:	5400008d 	b.le	1b6c <__vsnprintf+0x4e8>
    1b60:	91003c13 	add	x19, x0, #0xf
    1b64:	927df273 	and	x19, x19, #0xfffffffffffffff8
    1b68:	17ffffd4 	b	1ab8 <__vsnprintf+0x434>
    1b6c:	aa0003f3 	mov	x19, x0
    1b70:	8b21c380 	add	x0, x28, w1, sxtw
    1b74:	17ffffd1 	b	1ab8 <__vsnprintf+0x434>
    1b78:	11002034 	add	w20, w1, #0x8
    1b7c:	7100029f 	cmp	w20, #0x0
    1b80:	5400008d 	b.le	1b90 <__vsnprintf+0x50c>
    1b84:	91002c13 	add	x19, x0, #0xb
    1b88:	927df273 	and	x19, x19, #0xfffffffffffffff8
    1b8c:	17fffff0 	b	1b4c <__vsnprintf+0x4c8>
    1b90:	aa0003f3 	mov	x19, x0
    1b94:	8b21c380 	add	x0, x28, w1, sxtw
    1b98:	17ffffed 	b	1b4c <__vsnprintf+0x4c8>
    1b9c:	37f800c1 	tbnz	w1, #31, 1bb4 <__vsnprintf+0x530>
    1ba0:	91002c13 	add	x19, x0, #0xb
    1ba4:	2a0103f4 	mov	w20, w1
    1ba8:	927df273 	and	x19, x19, #0xfffffffffffffff8
    1bac:	b9800000 	ldrsw	x0, [x0]
    1bb0:	17ffffc3 	b	1abc <__vsnprintf+0x438>
    1bb4:	11002034 	add	w20, w1, #0x8
    1bb8:	7100029f 	cmp	w20, #0x0
    1bbc:	5400008d 	b.le	1bcc <__vsnprintf+0x548>
    1bc0:	91002c13 	add	x19, x0, #0xb
    1bc4:	927df273 	and	x19, x19, #0xfffffffffffffff8
    1bc8:	17fffff9 	b	1bac <__vsnprintf+0x528>
    1bcc:	aa0003f3 	mov	x19, x0
    1bd0:	8b21c380 	add	x0, x28, w1, sxtw
    1bd4:	17fffff6 	b	1bac <__vsnprintf+0x528>
/home/hei/Desktop/optee-qemu/optee_os/lib/libutils/ext/snprintk.c:392
    1bd8:	36380135 	tbz	w21, #7, 1bfc <__vsnprintf+0x578>
/home/hei/Desktop/optee-qemu/optee_os/lib/libutils/ext/snprintk.c:401
    1bdc:	37f80281 	tbnz	w1, #31, 1c2c <__vsnprintf+0x5a8>
    1be0:	91003c13 	add	x19, x0, #0xf
    1be4:	2a0103f4 	mov	w20, w1
    1be8:	927df273 	and	x19, x19, #0xfffffffffffffff8
    1bec:	f9400000 	ldr	x0, [x0]
    1bf0:	93407f41 	sxtw	x1, w26
    1bf4:	f9000001 	str	x1, [x0]
    1bf8:	17fffeb7 	b	16d4 <__vsnprintf+0x50>
/home/hei/Desktop/optee-qemu/optee_os/lib/libutils/ext/snprintk.c:394
    1bfc:	3747ff15 	tbnz	w21, #8, 1bdc <__vsnprintf+0x558>
/home/hei/Desktop/optee-qemu/optee_os/lib/libutils/ext/snprintk.c:396
    1c00:	374ffef5 	tbnz	w21, #9, 1bdc <__vsnprintf+0x558>
/home/hei/Desktop/optee-qemu/optee_os/lib/libutils/ext/snprintk.c:398
    1c04:	372ffed5 	tbnz	w21, #5, 1bdc <__vsnprintf+0x558>
/home/hei/Desktop/optee-qemu/optee_os/lib/libutils/ext/snprintk.c:400
    1c08:	3727feb5 	tbnz	w21, #4, 1bdc <__vsnprintf+0x558>
/home/hei/Desktop/optee-qemu/optee_os/lib/libutils/ext/snprintk.c:402
    1c0c:	36300355 	tbz	w21, #6, 1c74 <__vsnprintf+0x5f0>
/home/hei/Desktop/optee-qemu/optee_os/lib/libutils/ext/snprintk.c:403
    1c10:	37f80201 	tbnz	w1, #31, 1c50 <__vsnprintf+0x5cc>
    1c14:	91003c13 	add	x19, x0, #0xf
    1c18:	2a0103f4 	mov	w20, w1
    1c1c:	927df273 	and	x19, x19, #0xfffffffffffffff8
    1c20:	f9400000 	ldr	x0, [x0]
    1c24:	7900001a 	strh	w26, [x0]
    1c28:	17fffeab 	b	16d4 <__vsnprintf+0x50>
/home/hei/Desktop/optee-qemu/optee_os/lib/libutils/ext/snprintk.c:401
    1c2c:	11002034 	add	w20, w1, #0x8
    1c30:	7100029f 	cmp	w20, #0x0
    1c34:	5400008d 	b.le	1c44 <__vsnprintf+0x5c0>
    1c38:	91003c13 	add	x19, x0, #0xf
    1c3c:	927df273 	and	x19, x19, #0xfffffffffffffff8
    1c40:	17ffffeb 	b	1bec <__vsnprintf+0x568>
    1c44:	aa0003f3 	mov	x19, x0
    1c48:	8b21c380 	add	x0, x28, w1, sxtw
    1c4c:	17ffffe8 	b	1bec <__vsnprintf+0x568>
/home/hei/Desktop/optee-qemu/optee_os/lib/libutils/ext/snprintk.c:403
    1c50:	11002034 	add	w20, w1, #0x8
    1c54:	7100029f 	cmp	w20, #0x0
    1c58:	5400008d 	b.le	1c68 <__vsnprintf+0x5e4>
    1c5c:	91003c13 	add	x19, x0, #0xf
    1c60:	927df273 	and	x19, x19, #0xfffffffffffffff8
    1c64:	17ffffef 	b	1c20 <__vsnprintf+0x59c>
    1c68:	aa0003f3 	mov	x19, x0
    1c6c:	8b21c380 	add	x0, x28, w1, sxtw
    1c70:	17ffffec 	b	1c20 <__vsnprintf+0x59c>
/home/hei/Desktop/optee-qemu/optee_os/lib/libutils/ext/snprintk.c:405
    1c74:	37f800e1 	tbnz	w1, #31, 1c90 <__vsnprintf+0x60c>
    1c78:	91003c13 	add	x19, x0, #0xf
    1c7c:	2a0103f4 	mov	w20, w1
    1c80:	927df273 	and	x19, x19, #0xfffffffffffffff8
    1c84:	f9400000 	ldr	x0, [x0]
    1c88:	b900001a 	str	w26, [x0]
    1c8c:	17fffe92 	b	16d4 <__vsnprintf+0x50>
    1c90:	11002034 	add	w20, w1, #0x8
    1c94:	7100029f 	cmp	w20, #0x0
    1c98:	5400008d 	b.le	1ca8 <__vsnprintf+0x624>
    1c9c:	91003c13 	add	x19, x0, #0xf
    1ca0:	927df273 	and	x19, x19, #0xfffffffffffffff8
    1ca4:	17fffff8 	b	1c84 <__vsnprintf+0x600>
    1ca8:	aa0003f3 	mov	x19, x0
    1cac:	8b21c380 	add	x0, x28, w1, sxtw
    1cb0:	17fffff5 	b	1c84 <__vsnprintf+0x600>
/home/hei/Desktop/optee-qemu/optee_os/lib/libutils/ext/snprintk.c:411
    1cb4:	3747d9d5 	tbnz	w21, #8, 17ec <__vsnprintf+0x168>
    1cb8:	374fd9b5 	tbnz	w21, #9, 17ec <__vsnprintf+0x168>
    1cbc:	372fd995 	tbnz	w21, #5, 17ec <__vsnprintf+0x168>
    1cc0:	3727d975 	tbnz	w21, #4, 17ec <__vsnprintf+0x168>
    1cc4:	36300335 	tbz	w21, #6, 1d28 <__vsnprintf+0x6a4>
    1cc8:	37f801e1 	tbnz	w1, #31, 1d04 <__vsnprintf+0x680>
    1ccc:	91002c13 	add	x19, x0, #0xb
    1cd0:	2a0103f4 	mov	w20, w1
    1cd4:	927df273 	and	x19, x19, #0xfffffffffffffff8
    1cd8:	79400000 	ldrh	w0, [x0]
    1cdc:	17fffec9 	b	1800 <__vsnprintf+0x17c>
    1ce0:	11002034 	add	w20, w1, #0x8
    1ce4:	7100029f 	cmp	w20, #0x0
    1ce8:	5400008d 	b.le	1cf8 <__vsnprintf+0x674>
    1cec:	91003c13 	add	x19, x0, #0xf
    1cf0:	927df273 	and	x19, x19, #0xfffffffffffffff8
    1cf4:	17fffec2 	b	17fc <__vsnprintf+0x178>
    1cf8:	aa0003f3 	mov	x19, x0
    1cfc:	8b21c380 	add	x0, x28, w1, sxtw
    1d00:	17fffebf 	b	17fc <__vsnprintf+0x178>
    1d04:	11002034 	add	w20, w1, #0x8
    1d08:	7100029f 	cmp	w20, #0x0
    1d0c:	5400008d 	b.le	1d1c <__vsnprintf+0x698>
    1d10:	91002c13 	add	x19, x0, #0xb
    1d14:	927df273 	and	x19, x19, #0xfffffffffffffff8
    1d18:	17fffff0 	b	1cd8 <__vsnprintf+0x654>
    1d1c:	aa0003f3 	mov	x19, x0
    1d20:	8b21c380 	add	x0, x28, w1, sxtw
    1d24:	17ffffed 	b	1cd8 <__vsnprintf+0x654>
    1d28:	37f800c1 	tbnz	w1, #31, 1d40 <__vsnprintf+0x6bc>
    1d2c:	91002c13 	add	x19, x0, #0xb
    1d30:	2a0103f4 	mov	w20, w1
    1d34:	927df273 	and	x19, x19, #0xfffffffffffffff8
    1d38:	b9400000 	ldr	w0, [x0]
    1d3c:	17fffeb1 	b	1800 <__vsnprintf+0x17c>
    1d40:	11002034 	add	w20, w1, #0x8
    1d44:	7100029f 	cmp	w20, #0x0
    1d48:	5400008d 	b.le	1d58 <__vsnprintf+0x6d4>
    1d4c:	91002c13 	add	x19, x0, #0xb
    1d50:	927df273 	and	x19, x19, #0xfffffffffffffff8
    1d54:	17fffff9 	b	1d38 <__vsnprintf+0x6b4>
    1d58:	aa0003f3 	mov	x19, x0
    1d5c:	8b21c380 	add	x0, x28, w1, sxtw
    1d60:	17fffff6 	b	1d38 <__vsnprintf+0x6b4>
/home/hei/Desktop/optee-qemu/optee_os/lib/libutils/ext/snprintk.c:415
    1d64:	b940afe2 	ldr	w2, [sp, #172]
    1d68:	34000b82 	cbz	w2, 1ed8 <__vsnprintf+0x854>
    1d6c:	39400122 	ldrb	w2, [x9]
    1d70:	7101545f 	cmp	w2, #0x55
    1d74:	54000b21 	b.ne	1ed8 <__vsnprintf+0x854>  // b.any
    1d78:	39400522 	ldrb	w2, [x9, #1]
    1d7c:	7101b05f 	cmp	w2, #0x6c
    1d80:	54000ac1 	b.ne	1ed8 <__vsnprintf+0x854>  // b.any
/home/hei/Desktop/optee-qemu/optee_os/lib/libutils/ext/snprintk.c:420
    1d84:	91000929 	add	x9, x9, #0x2
/home/hei/Desktop/optee-qemu/optee_os/lib/libutils/ext/snprintk.c:421
    1d88:	37f80961 	tbnz	w1, #31, 1eb4 <__vsnprintf+0x830>
    1d8c:	91003c13 	add	x19, x0, #0xf
    1d90:	2a0103f4 	mov	w20, w1
    1d94:	927df273 	and	x19, x19, #0xfffffffffffffff8
    1d98:	f9400000 	ldr	x0, [x0]
uuid2str():
/home/hei/Desktop/optee-qemu/optee_os/lib/libutils/ext/snprintk.c:223
    1d9c:	d0000042 	adrp	x2, b000 <__func__.3755+0xec>
    1da0:	91082842 	add	x2, x2, #0x20a
    1da4:	a90b27ed 	stp	x13, x9, [sp, #176]
    1da8:	39403c01 	ldrb	w1, [x0, #15]
    1dac:	79400804 	ldrh	w4, [x0, #4]
    1db0:	39402407 	ldrb	w7, [x0, #9]
    1db4:	39402006 	ldrb	w6, [x0, #8]
    1db8:	79400c05 	ldrh	w5, [x0, #6]
    1dbc:	b9002be1 	str	w1, [sp, #40]
    1dc0:	39403801 	ldrb	w1, [x0, #14]
    1dc4:	b90023e1 	str	w1, [sp, #32]
    1dc8:	39403401 	ldrb	w1, [x0, #13]
    1dcc:	b9001be1 	str	w1, [sp, #24]
    1dd0:	39403001 	ldrb	w1, [x0, #12]
    1dd4:	b90013e1 	str	w1, [sp, #16]
    1dd8:	39402c01 	ldrb	w1, [x0, #11]
    1ddc:	b9000be1 	str	w1, [sp, #8]
    1de0:	39402801 	ldrb	w1, [x0, #10]
    1de4:	b90003e1 	str	w1, [sp]
    1de8:	d28004a1 	mov	x1, #0x25                  	// #37
    1dec:	b9400003 	ldr	w3, [x0]
    1df0:	aa0d03e0 	mov	x0, x13
    1df4:	94000146 	bl	230c <snprintk>
    1df8:	2a0003e3 	mov	w3, w0
kprintf():
/home/hei/Desktop/optee-qemu/optee_os/lib/libutils/ext/snprintk.c:425
    1dfc:	a94b27ed 	ldp	x13, x9, [sp, #176]
/home/hei/Desktop/optee-qemu/optee_os/lib/libutils/ext/snprintk.c:285
    1e00:	52800001 	mov	w1, #0x0                   	// #0
/home/hei/Desktop/optee-qemu/optee_os/lib/libutils/ext/snprintk.c:424
    1e04:	52800002 	mov	w2, #0x0                   	// #0
/home/hei/Desktop/optee-qemu/optee_os/lib/libutils/ext/snprintk.c:423
    1e08:	aa0d03e4 	mov	x4, x13
/home/hei/Desktop/optee-qemu/optee_os/lib/libutils/ext/snprintk.c:565
    1e0c:	6b03003f 	cmp	w1, w3
    1e10:	1a83a020 	csel	w0, w1, w3, ge  // ge = tcont
/home/hei/Desktop/optee-qemu/optee_os/lib/libutils/ext/snprintk.c:566
    1e14:	34001c82 	cbz	w2, 21a4 <__vsnprintf+0xb20>
/home/hei/Desktop/optee-qemu/optee_os/lib/libutils/ext/snprintk.c:567
    1e18:	11000400 	add	w0, w0, #0x1
/home/hei/Desktop/optee-qemu/optee_os/lib/libutils/ext/snprintk.c:572
    1e1c:	6b17001f 	cmp	w0, w23
    1e20:	1a97a005 	csel	w5, w0, w23, ge  // ge = tcont
    1e24:	0b05035a 	add	w26, w26, w5
/home/hei/Desktop/optee-qemu/optee_os/lib/libutils/ext/snprintk.c:575
    1e28:	52808085 	mov	w5, #0x404                 	// #1028
    1e2c:	6a0502a5 	ands	w5, w21, w5
    1e30:	540000a1 	b.ne	1e44 <__vsnprintf+0x7c0>  // b.any
/home/hei/Desktop/optee-qemu/optee_os/lib/libutils/ext/snprintk.c:576
    1e34:	4b0002e6 	sub	w6, w23, w0
/home/hei/Desktop/optee-qemu/optee_os/lib/libutils/ext/snprintk.c:578
    1e38:	52800407 	mov	w7, #0x20                  	// #32
/home/hei/Desktop/optee-qemu/optee_os/lib/libutils/ext/snprintk.c:577
    1e3c:	710000df 	cmp	w6, #0x0
    1e40:	54001b8c 	b.gt	21b0 <__vsnprintf+0xb2c>
/home/hei/Desktop/optee-qemu/optee_os/lib/libutils/ext/snprintk.c:582
    1e44:	34001ca2 	cbz	w2, 21d8 <__vsnprintf+0xb54>
/home/hei/Desktop/optee-qemu/optee_os/lib/libutils/ext/snprintk.c:583
    1e48:	b5001c1b 	cbnz	x27, 21c8 <__vsnprintf+0xb44>
/home/hei/Desktop/optee-qemu/optee_os/lib/libutils/ext/snprintk.c:586
    1e4c:	d280001b 	mov	x27, #0x0                   	// #0
/home/hei/Desktop/optee-qemu/optee_os/lib/libutils/ext/snprintk.c:590
    1e50:	711000bf 	cmp	w5, #0x400
    1e54:	540000a1 	b.ne	1e68 <__vsnprintf+0x7e4>  // b.any
/home/hei/Desktop/optee-qemu/optee_os/lib/libutils/ext/snprintk.c:591
    1e58:	4b0002e2 	sub	w2, w23, w0
/home/hei/Desktop/optee-qemu/optee_os/lib/libutils/ext/snprintk.c:593
    1e5c:	52800605 	mov	w5, #0x30                  	// #48
/home/hei/Desktop/optee-qemu/optee_os/lib/libutils/ext/snprintk.c:592
    1e60:	7100005f 	cmp	w2, #0x0
    1e64:	54001d8c 	b.gt	2214 <__vsnprintf+0xb90>
/home/hei/Desktop/optee-qemu/optee_os/lib/libutils/ext/snprintk.c:597
    1e68:	4b030021 	sub	w1, w1, w3
/home/hei/Desktop/optee-qemu/optee_os/lib/libutils/ext/snprintk.c:599
    1e6c:	52800602 	mov	w2, #0x30                  	// #48
/home/hei/Desktop/optee-qemu/optee_os/lib/libutils/ext/snprintk.c:598
    1e70:	7100003f 	cmp	w1, #0x0
    1e74:	54001dcc 	b.gt	222c <__vsnprintf+0xba8>
    1e78:	2a0303e3 	mov	w3, w3
    1e7c:	d2800001 	mov	x1, #0x0                   	// #0
/home/hei/Desktop/optee-qemu/optee_os/lib/libutils/ext/snprintk.c:602
    1e80:	eb01007f 	cmp	x3, x1
    1e84:	54001e01 	b.ne	2244 <__vsnprintf+0xbc0>  // b.any
/home/hei/Desktop/optee-qemu/optee_os/lib/libutils/ext/snprintk.c:605
    1e88:	3617c275 	tbz	w21, #2, 16d4 <__vsnprintf+0x50>
/home/hei/Desktop/optee-qemu/optee_os/lib/libutils/ext/snprintk.c:606
    1e8c:	4b0002eb 	sub	w11, w23, w0
/home/hei/Desktop/optee-qemu/optee_os/lib/libutils/ext/snprintk.c:608
    1e90:	52800400 	mov	w0, #0x20                  	// #32
/home/hei/Desktop/optee-qemu/optee_os/lib/libutils/ext/snprintk.c:607
    1e94:	7100017f 	cmp	w11, #0x0
    1e98:	54ffc1ed 	b.le	16d4 <__vsnprintf+0x50>
/home/hei/Desktop/optee-qemu/optee_os/lib/libutils/ext/snprintk.c:608
    1e9c:	b400009b 	cbz	x27, 1eac <__vsnprintf+0x828>
    1ea0:	eb1b033f 	cmp	x25, x27
    1ea4:	54000049 	b.ls	1eac <__vsnprintf+0x828>  // b.plast
    1ea8:	38001760 	strb	w0, [x27], #1
    1eac:	5100056b 	sub	w11, w11, #0x1
    1eb0:	17fffff9 	b	1e94 <__vsnprintf+0x810>
/home/hei/Desktop/optee-qemu/optee_os/lib/libutils/ext/snprintk.c:421
    1eb4:	11002034 	add	w20, w1, #0x8
    1eb8:	7100029f 	cmp	w20, #0x0
    1ebc:	5400008d 	b.le	1ecc <__vsnprintf+0x848>
    1ec0:	91003c13 	add	x19, x0, #0xf
    1ec4:	927df273 	and	x19, x19, #0xfffffffffffffff8
    1ec8:	17ffffb4 	b	1d98 <__vsnprintf+0x714>
    1ecc:	aa0003f3 	mov	x19, x0
    1ed0:	8b21c380 	add	x0, x28, w1, sxtw
    1ed4:	17ffffb1 	b	1d98 <__vsnprintf+0x714>
/home/hei/Desktop/optee-qemu/optee_os/lib/libutils/ext/snprintk.c:435
    1ed8:	37f80261 	tbnz	w1, #31, 1f24 <__vsnprintf+0x8a0>
    1edc:	91003c13 	add	x19, x0, #0xf
    1ee0:	2a0103f4 	mov	w20, w1
    1ee4:	927df273 	and	x19, x19, #0xfffffffffffffff8
    1ee8:	f9400000 	ldr	x0, [x0]
/home/hei/Desktop/optee-qemu/optee_os/lib/libutils/ext/snprintk.c:437
    1eec:	d0000056 	adrp	x22, b000 <__func__.3755+0xec>
/home/hei/Desktop/optee-qemu/optee_os/lib/libutils/ext/snprintk.c:438
    1ef0:	321f02b5 	orr	w21, w21, #0x2
/home/hei/Desktop/optee-qemu/optee_os/lib/libutils/ext/snprintk.c:437
    1ef4:	910786d6 	add	x22, x22, #0x1e1
/home/hei/Desktop/optee-qemu/optee_os/lib/libutils/ext/snprintk.c:439
    1ef8:	52800f18 	mov	w24, #0x78                  	// #120
/home/hei/Desktop/optee-qemu/optee_os/lib/libutils/ext/snprintk.c:488
    1efc:	52800002 	mov	w2, #0x0                   	// #0
    1f00:	3100047f 	cmn	w3, #0x1
    1f04:	54001201 	b.ne	2144 <__vsnprintf+0xac0>  // b.any
    1f08:	910095a4 	add	x4, x13, #0x25
/home/hei/Desktop/optee-qemu/optee_os/lib/libutils/ext/snprintk.c:525
    1f0c:	92400c01 	and	x1, x0, #0xf
/home/hei/Desktop/optee-qemu/optee_os/lib/libutils/ext/snprintk.c:526
    1f10:	d344fc00 	lsr	x0, x0, #4
/home/hei/Desktop/optee-qemu/optee_os/lib/libutils/ext/snprintk.c:525
    1f14:	38616ac1 	ldrb	w1, [x22, x1]
    1f18:	381ffc81 	strb	w1, [x4, #-1]!
/home/hei/Desktop/optee-qemu/optee_os/lib/libutils/ext/snprintk.c:527
    1f1c:	b5ffff80 	cbnz	x0, 1f0c <__vsnprintf+0x888>
    1f20:	17fffefe 	b	1b18 <__vsnprintf+0x494>
/home/hei/Desktop/optee-qemu/optee_os/lib/libutils/ext/snprintk.c:435
    1f24:	11002034 	add	w20, w1, #0x8
    1f28:	7100029f 	cmp	w20, #0x0
    1f2c:	5400008d 	b.le	1f3c <__vsnprintf+0x8b8>
    1f30:	91003c13 	add	x19, x0, #0xf
    1f34:	927df273 	and	x19, x19, #0xfffffffffffffff8
    1f38:	17ffffec 	b	1ee8 <__vsnprintf+0x864>
    1f3c:	aa0003f3 	mov	x19, x0
    1f40:	8b21c380 	add	x0, x28, w1, sxtw
    1f44:	17ffffe9 	b	1ee8 <__vsnprintf+0x864>
/home/hei/Desktop/optee-qemu/optee_os/lib/libutils/ext/snprintk.c:442
    1f48:	11002034 	add	w20, w1, #0x8
    1f4c:	7100029f 	cmp	w20, #0x0
    1f50:	5400008d 	b.le	1f60 <__vsnprintf+0x8dc>
    1f54:	91003c13 	add	x19, x0, #0xf
    1f58:	927df273 	and	x19, x19, #0xfffffffffffffff8
    1f5c:	17fffe4e 	b	1894 <__vsnprintf+0x210>
    1f60:	aa0003f3 	mov	x19, x0
    1f64:	8b21c380 	add	x0, x28, w1, sxtw
    1f68:	17fffe4b 	b	1894 <__vsnprintf+0x210>
/home/hei/Desktop/optee-qemu/optee_os/lib/libutils/ext/snprintk.c:460
    1f6c:	aa0403e0 	mov	x0, x4
    1f70:	a90b27e4 	stp	x4, x9, [sp, #176]
    1f74:	f90063ed 	str	x13, [sp, #192]
    1f78:	97fff975 	bl	54c <strlen>
/home/hei/Desktop/optee-qemu/optee_os/lib/libutils/ext/snprintk.c:285
    1f7c:	52800001 	mov	w1, #0x0                   	// #0
/home/hei/Desktop/optee-qemu/optee_os/lib/libutils/ext/snprintk.c:460
    1f80:	2a0003e3 	mov	w3, w0
/home/hei/Desktop/optee-qemu/optee_os/lib/libutils/ext/snprintk.c:461
    1f84:	52800002 	mov	w2, #0x0                   	// #0
    1f88:	a94b27e4 	ldp	x4, x9, [sp, #176]
    1f8c:	f94063ed 	ldr	x13, [sp, #192]
    1f90:	17ffff9f 	b	1e0c <__vsnprintf+0x788>
/home/hei/Desktop/optee-qemu/optee_os/lib/libutils/ext/snprintk.c:464
    1f94:	321c02b5 	orr	w21, w21, #0x10
    1f98:	17fffe5c 	b	1908 <__vsnprintf+0x284>
/home/hei/Desktop/optee-qemu/optee_os/lib/libutils/ext/snprintk.c:467
    1f9c:	3747cb95 	tbnz	w21, #8, 190c <__vsnprintf+0x288>
    1fa0:	374fcb75 	tbnz	w21, #9, 190c <__vsnprintf+0x288>
    1fa4:	372fcb55 	tbnz	w21, #5, 190c <__vsnprintf+0x288>
    1fa8:	3727cb35 	tbnz	w21, #4, 190c <__vsnprintf+0x288>
    1fac:	36300335 	tbz	w21, #6, 2010 <__vsnprintf+0x98c>
    1fb0:	37f801e1 	tbnz	w1, #31, 1fec <__vsnprintf+0x968>
    1fb4:	91002c13 	add	x19, x0, #0xb
    1fb8:	2a0103f4 	mov	w20, w1
    1fbc:	927df273 	and	x19, x19, #0xfffffffffffffff8
    1fc0:	79400000 	ldrh	w0, [x0]
    1fc4:	17fffe57 	b	1920 <__vsnprintf+0x29c>
    1fc8:	11002034 	add	w20, w1, #0x8
    1fcc:	7100029f 	cmp	w20, #0x0
    1fd0:	5400008d 	b.le	1fe0 <__vsnprintf+0x95c>
    1fd4:	91003c13 	add	x19, x0, #0xf
    1fd8:	927df273 	and	x19, x19, #0xfffffffffffffff8
    1fdc:	17fffe50 	b	191c <__vsnprintf+0x298>
    1fe0:	aa0003f3 	mov	x19, x0
    1fe4:	8b21c380 	add	x0, x28, w1, sxtw
    1fe8:	17fffe4d 	b	191c <__vsnprintf+0x298>
    1fec:	11002034 	add	w20, w1, #0x8
    1ff0:	7100029f 	cmp	w20, #0x0
    1ff4:	5400008d 	b.le	2004 <__vsnprintf+0x980>
    1ff8:	91002c13 	add	x19, x0, #0xb
    1ffc:	927df273 	and	x19, x19, #0xfffffffffffffff8
    2000:	17fffff0 	b	1fc0 <__vsnprintf+0x93c>
    2004:	aa0003f3 	mov	x19, x0
    2008:	8b21c380 	add	x0, x28, w1, sxtw
    200c:	17ffffed 	b	1fc0 <__vsnprintf+0x93c>
    2010:	37f800c1 	tbnz	w1, #31, 2028 <__vsnprintf+0x9a4>
    2014:	91002c13 	add	x19, x0, #0xb
    2018:	2a0103f4 	mov	w20, w1
    201c:	927df273 	and	x19, x19, #0xfffffffffffffff8
    2020:	b9400000 	ldr	w0, [x0]
    2024:	17fffe3f 	b	1920 <__vsnprintf+0x29c>
    2028:	11002034 	add	w20, w1, #0x8
    202c:	7100029f 	cmp	w20, #0x0
    2030:	5400008d 	b.le	2040 <__vsnprintf+0x9bc>
    2034:	91002c13 	add	x19, x0, #0xb
    2038:	927df273 	and	x19, x19, #0xfffffffffffffff8
    203c:	17fffff9 	b	2020 <__vsnprintf+0x99c>
    2040:	aa0003f3 	mov	x19, x0
    2044:	8b21c380 	add	x0, x28, w1, sxtw
    2048:	17fffff6 	b	2020 <__vsnprintf+0x99c>
/home/hei/Desktop/optee-qemu/optee_os/lib/libutils/ext/snprintk.c:471
    204c:	b0000056 	adrp	x22, b000 <__func__.3755+0xec>
    2050:	910786d6 	add	x22, x22, #0x1e1
    2054:	910046d6 	add	x22, x22, #0x11
/home/hei/Desktop/optee-qemu/optee_os/lib/libutils/ext/snprintk.c:475
    2058:	363801f5 	tbz	w21, #7, 2094 <__vsnprintf+0xa10>
    205c:	37f80321 	tbnz	w1, #31, 20c0 <__vsnprintf+0xa3c>
    2060:	91003c13 	add	x19, x0, #0xf
    2064:	2a0103f4 	mov	w20, w1
    2068:	927df273 	and	x19, x19, #0xfffffffffffffff8
    206c:	f9400000 	ldr	x0, [x0]
/home/hei/Desktop/optee-qemu/optee_os/lib/libutils/ext/snprintk.c:478
    2070:	3607f475 	tbz	w21, #0, 1efc <__vsnprintf+0x878>
    2074:	b4fff440 	cbz	x0, 1efc <__vsnprintf+0x878>
/home/hei/Desktop/optee-qemu/optee_os/lib/libutils/ext/snprintk.c:479
    2078:	321f02b5 	orr	w21, w21, #0x2
/home/hei/Desktop/optee-qemu/optee_os/lib/libutils/ext/snprintk.c:476
    207c:	52800041 	mov	w1, #0x2                   	// #2
/home/hei/Desktop/optee-qemu/optee_os/lib/libutils/ext/snprintk.c:482
    2080:	52800002 	mov	w2, #0x0                   	// #0
    2084:	17fffe92 	b	1acc <__vsnprintf+0x448>
/home/hei/Desktop/optee-qemu/optee_os/lib/libutils/ext/snprintk.c:474
    2088:	b0000056 	adrp	x22, b000 <__func__.3755+0xec>
    208c:	910786d6 	add	x22, x22, #0x1e1
    2090:	17fffff2 	b	2058 <__vsnprintf+0x9d4>
/home/hei/Desktop/optee-qemu/optee_os/lib/libutils/ext/snprintk.c:475
    2094:	3747fe55 	tbnz	w21, #8, 205c <__vsnprintf+0x9d8>
    2098:	374ffe35 	tbnz	w21, #9, 205c <__vsnprintf+0x9d8>
    209c:	372ffe15 	tbnz	w21, #5, 205c <__vsnprintf+0x9d8>
    20a0:	3727fdf5 	tbnz	w21, #4, 205c <__vsnprintf+0x9d8>
    20a4:	36300335 	tbz	w21, #6, 2108 <__vsnprintf+0xa84>
    20a8:	37f801e1 	tbnz	w1, #31, 20e4 <__vsnprintf+0xa60>
    20ac:	91002c13 	add	x19, x0, #0xb
    20b0:	2a0103f4 	mov	w20, w1
    20b4:	927df273 	and	x19, x19, #0xfffffffffffffff8
    20b8:	79400000 	ldrh	w0, [x0]
    20bc:	17ffffed 	b	2070 <__vsnprintf+0x9ec>
    20c0:	11002034 	add	w20, w1, #0x8
    20c4:	7100029f 	cmp	w20, #0x0
    20c8:	5400008d 	b.le	20d8 <__vsnprintf+0xa54>
    20cc:	91003c13 	add	x19, x0, #0xf
    20d0:	927df273 	and	x19, x19, #0xfffffffffffffff8
    20d4:	17ffffe6 	b	206c <__vsnprintf+0x9e8>
    20d8:	aa0003f3 	mov	x19, x0
    20dc:	8b21c380 	add	x0, x28, w1, sxtw
    20e0:	17ffffe3 	b	206c <__vsnprintf+0x9e8>
    20e4:	11002034 	add	w20, w1, #0x8
    20e8:	7100029f 	cmp	w20, #0x0
    20ec:	5400008d 	b.le	20fc <__vsnprintf+0xa78>
    20f0:	91002c13 	add	x19, x0, #0xb
    20f4:	927df273 	and	x19, x19, #0xfffffffffffffff8
    20f8:	17fffff0 	b	20b8 <__vsnprintf+0xa34>
    20fc:	aa0003f3 	mov	x19, x0
    2100:	8b21c380 	add	x0, x28, w1, sxtw
    2104:	17ffffed 	b	20b8 <__vsnprintf+0xa34>
    2108:	37f800c1 	tbnz	w1, #31, 2120 <__vsnprintf+0xa9c>
    210c:	91002c13 	add	x19, x0, #0xb
    2110:	2a0103f4 	mov	w20, w1
    2114:	927df273 	and	x19, x19, #0xfffffffffffffff8
    2118:	b9400000 	ldr	w0, [x0]
    211c:	17ffffd5 	b	2070 <__vsnprintf+0x9ec>
    2120:	11002034 	add	w20, w1, #0x8
    2124:	7100029f 	cmp	w20, #0x0
    2128:	5400008d 	b.le	2138 <__vsnprintf+0xab4>
    212c:	91002c13 	add	x19, x0, #0xb
    2130:	927df273 	and	x19, x19, #0xfffffffffffffff8
    2134:	17fffff9 	b	2118 <__vsnprintf+0xa94>
    2138:	aa0003f3 	mov	x19, x0
    213c:	8b21c380 	add	x0, x28, w1, sxtw
    2140:	17fffff6 	b	2118 <__vsnprintf+0xa94>
/home/hei/Desktop/optee-qemu/optee_os/lib/libutils/ext/snprintk.c:488
    2144:	52800041 	mov	w1, #0x2                   	// #2
/home/hei/Desktop/optee-qemu/optee_os/lib/libutils/ext/snprintk.c:497
    2148:	f100001f 	cmp	x0, #0x0
/home/hei/Desktop/optee-qemu/optee_os/lib/libutils/ext/snprintk.c:489
    214c:	12157ab5 	and	w21, w21, #0xfffffbff
/home/hei/Desktop/optee-qemu/optee_os/lib/libutils/ext/snprintk.c:497
    2150:	7a400860 	ccmp	w3, #0x0, #0x0, eq  // eq = none
    2154:	54ffcc01 	b.ne	1ad4 <__vsnprintf+0x450>  // b.any
    2158:	52800003 	mov	w3, #0x0                   	// #0
/home/hei/Desktop/optee-qemu/optee_os/lib/libutils/ext/snprintk.c:496
    215c:	910095a4 	add	x4, x13, #0x25
    2160:	17fffe6e 	b	1b18 <__vsnprintf+0x494>
/home/hei/Desktop/optee-qemu/optee_os/lib/libutils/ext/snprintk.c:488
    2164:	52800021 	mov	w1, #0x1                   	// #1
    2168:	17fffff8 	b	2148 <__vsnprintf+0xac4>
/home/hei/Desktop/optee-qemu/optee_os/lib/libutils/ext/snprintk.c:508
    216c:	aa0403e1 	mov	x1, x4
    2170:	17fffe5e 	b	1ae8 <__vsnprintf+0x464>
/home/hei/Desktop/optee-qemu/optee_os/lib/libutils/ext/snprintk.c:517
    2174:	9ac50806 	udiv	x6, x0, x5
    2178:	9b0580c0 	msub	x0, x6, x5, x0
    217c:	1100c000 	add	w0, w0, #0x30
    2180:	381ff020 	sturb	w0, [x1, #-1]
/home/hei/Desktop/optee-qemu/optee_os/lib/libutils/ext/snprintk.c:518
    2184:	aa0603e0 	mov	x0, x6
    2188:	aa0403e1 	mov	x1, x4
    218c:	d1000424 	sub	x4, x1, #0x1
/home/hei/Desktop/optee-qemu/optee_os/lib/libutils/ext/snprintk.c:516
    2190:	f100241f 	cmp	x0, #0x9
    2194:	54ffff08 	b.hi	2174 <__vsnprintf+0xaf0>  // b.pmore
/home/hei/Desktop/optee-qemu/optee_os/lib/libutils/ext/snprintk.c:520
    2198:	1100c000 	add	w0, w0, #0x30
    219c:	381ff020 	sturb	w0, [x1, #-1]
/home/hei/Desktop/optee-qemu/optee_os/lib/libutils/ext/snprintk.c:521
    21a0:	17fffe5e 	b	1b18 <__vsnprintf+0x494>
/home/hei/Desktop/optee-qemu/optee_os/lib/libutils/ext/snprintk.c:568
    21a4:	360fe3d5 	tbz	w21, #1, 1e1c <__vsnprintf+0x798>
/home/hei/Desktop/optee-qemu/optee_os/lib/libutils/ext/snprintk.c:569
    21a8:	11000800 	add	w0, w0, #0x2
    21ac:	17ffff1c 	b	1e1c <__vsnprintf+0x798>
/home/hei/Desktop/optee-qemu/optee_os/lib/libutils/ext/snprintk.c:578
    21b0:	b400009b 	cbz	x27, 21c0 <__vsnprintf+0xb3c>
    21b4:	eb1b033f 	cmp	x25, x27
    21b8:	54000049 	b.ls	21c0 <__vsnprintf+0xb3c>  // b.plast
    21bc:	38001767 	strb	w7, [x27], #1
    21c0:	510004c6 	sub	w6, w6, #0x1
    21c4:	17ffff1e 	b	1e3c <__vsnprintf+0x7b8>
/home/hei/Desktop/optee-qemu/optee_os/lib/libutils/ext/snprintk.c:583
    21c8:	eb1b033f 	cmp	x25, x27
    21cc:	54ffe429 	b.ls	1e50 <__vsnprintf+0x7cc>  // b.plast
    21d0:	38001762 	strb	w2, [x27], #1
    21d4:	17ffff1f 	b	1e50 <__vsnprintf+0x7cc>
/home/hei/Desktop/optee-qemu/optee_os/lib/libutils/ext/snprintk.c:584
    21d8:	360fe3d5 	tbz	w21, #1, 1e50 <__vsnprintf+0x7cc>
/home/hei/Desktop/optee-qemu/optee_os/lib/libutils/ext/snprintk.c:585
    21dc:	b4ffe39b 	cbz	x27, 1e4c <__vsnprintf+0x7c8>
    21e0:	eb1b033f 	cmp	x25, x27
    21e4:	54ffe369 	b.ls	1e50 <__vsnprintf+0x7cc>  // b.plast
    21e8:	aa1b03e2 	mov	x2, x27
    21ec:	52800606 	mov	w6, #0x30                  	// #48
    21f0:	38001446 	strb	w6, [x2], #1
/home/hei/Desktop/optee-qemu/optee_os/lib/libutils/ext/snprintk.c:586
    21f4:	b4ffe2c2 	cbz	x2, 1e4c <__vsnprintf+0x7c8>
    21f8:	eb02033f 	cmp	x25, x2
    21fc:	54000089 	b.ls	220c <__vsnprintf+0xb88>  // b.plast
    2200:	91000b7b 	add	x27, x27, #0x2
    2204:	381ff378 	sturb	w24, [x27, #-1]
    2208:	17ffff12 	b	1e50 <__vsnprintf+0x7cc>
    220c:	aa0203fb 	mov	x27, x2
    2210:	17ffff10 	b	1e50 <__vsnprintf+0x7cc>
/home/hei/Desktop/optee-qemu/optee_os/lib/libutils/ext/snprintk.c:593
    2214:	b400009b 	cbz	x27, 2224 <__vsnprintf+0xba0>
    2218:	eb1b033f 	cmp	x25, x27
    221c:	54000049 	b.ls	2224 <__vsnprintf+0xba0>  // b.plast
    2220:	38001765 	strb	w5, [x27], #1
    2224:	51000442 	sub	w2, w2, #0x1
    2228:	17ffff0e 	b	1e60 <__vsnprintf+0x7dc>
/home/hei/Desktop/optee-qemu/optee_os/lib/libutils/ext/snprintk.c:599
    222c:	b400009b 	cbz	x27, 223c <__vsnprintf+0xbb8>
    2230:	eb1b033f 	cmp	x25, x27
    2234:	54000049 	b.ls	223c <__vsnprintf+0xbb8>  // b.plast
    2238:	38001762 	strb	w2, [x27], #1
    223c:	51000421 	sub	w1, w1, #0x1
    2240:	17ffff0c 	b	1e70 <__vsnprintf+0x7ec>
/home/hei/Desktop/optee-qemu/optee_os/lib/libutils/ext/snprintk.c:603
    2244:	b40000bb 	cbz	x27, 2258 <__vsnprintf+0xbd4>
    2248:	eb1b033f 	cmp	x25, x27
    224c:	54000069 	b.ls	2258 <__vsnprintf+0xbd4>  // b.plast
    2250:	38616882 	ldrb	w2, [x4, x1]
    2254:	38001762 	strb	w2, [x27], #1
    2258:	91000421 	add	x1, x1, #0x1
    225c:	17ffff09 	b	1e80 <__vsnprintf+0x7fc>
__vsnprintf():
/home/hei/Desktop/optee-qemu/optee_os/lib/libutils/ext/snprintk.c:143
    2260:	f9404fe0 	ldr	x0, [sp, #152]
    2264:	f100001f 	cmp	x0, #0x0
    2268:	f94053e0 	ldr	x0, [sp, #160]
    226c:	fa401804 	ccmp	x0, #0x0, #0x4, ne  // ne = any
    2270:	540000c0 	b.eq	2288 <__vsnprintf+0xc04>  // b.none
/home/hei/Desktop/optee-qemu/optee_os/lib/libutils/ext/snprintk.c:145
    2274:	f94053e1 	ldr	x1, [sp, #160]
    2278:	93407f40 	sxtw	x0, w26
    227c:	eb01001f 	cmp	x0, x1
    2280:	54000163 	b.cc	22ac <__vsnprintf+0xc28>  // b.lo, b.ul, b.last
/home/hei/Desktop/optee-qemu/optee_os/lib/libutils/ext/snprintk.c:146
    2284:	381ff33f 	sturb	wzr, [x25, #-1]
/home/hei/Desktop/optee-qemu/optee_os/lib/libutils/ext/snprintk.c:151
    2288:	2a1a03e0 	mov	w0, w26
    228c:	a9437bfd 	ldp	x29, x30, [sp, #48]
    2290:	a94453f3 	ldp	x19, x20, [sp, #64]
    2294:	a9455bf5 	ldp	x21, x22, [sp, #80]
    2298:	a94663f7 	ldp	x23, x24, [sp, #96]
    229c:	a9476bf9 	ldp	x25, x26, [sp, #112]
    22a0:	a94873fb 	ldp	x27, x28, [sp, #128]
    22a4:	910403ff 	add	sp, sp, #0x100
    22a8:	d65f03c0 	ret
/home/hei/Desktop/optee-qemu/optee_os/lib/libutils/ext/snprintk.c:148
    22ac:	f9404fe1 	ldr	x1, [sp, #152]
    22b0:	3820683f 	strb	wzr, [x1, x0]
/home/hei/Desktop/optee-qemu/optee_os/lib/libutils/ext/snprintk.c:150
    22b4:	17fffff5 	b	2288 <__vsnprintf+0xc04>

00000000000022b8 <vsnprintk>:
vsnprintk():
/home/hei/Desktop/optee-qemu/optee_os/lib/libutils/ext/snprintk.c:129
    22b8:	a9bb7bfd 	stp	x29, x30, [sp, #-80]!
    22bc:	910003fd 	mov	x29, sp
    22c0:	a90153f3 	stp	x19, x20, [sp, #16]
    22c4:	aa0003f3 	mov	x19, x0
    22c8:	aa0103f4 	mov	x20, x1
/home/hei/Desktop/optee-qemu/optee_os/lib/libutils/ext/snprintk.c:130
    22cc:	9100c3e0 	add	x0, sp, #0x30
    22d0:	aa0303e1 	mov	x1, x3
/home/hei/Desktop/optee-qemu/optee_os/lib/libutils/ext/snprintk.c:129
    22d4:	f90013f5 	str	x21, [sp, #32]
    22d8:	aa0203f5 	mov	x21, x2
/home/hei/Desktop/optee-qemu/optee_os/lib/libutils/ext/snprintk.c:130
    22dc:	d2800402 	mov	x2, #0x20                  	// #32
    22e0:	97fff88d 	bl	514 <memcpy>
    22e4:	aa1503e2 	mov	x2, x21
    22e8:	aa0003e3 	mov	x3, x0
    22ec:	aa1403e1 	mov	x1, x20
    22f0:	52800024 	mov	w4, #0x1                   	// #1
    22f4:	aa1303e0 	mov	x0, x19
    22f8:	97fffce3 	bl	1684 <__vsnprintf>
/home/hei/Desktop/optee-qemu/optee_os/lib/libutils/ext/snprintk.c:131
    22fc:	a94153f3 	ldp	x19, x20, [sp, #16]
    2300:	f94013f5 	ldr	x21, [sp, #32]
    2304:	a8c57bfd 	ldp	x29, x30, [sp], #80
    2308:	d65f03c0 	ret

000000000000230c <snprintk>:
snprintk():
/home/hei/Desktop/optee-qemu/optee_os/lib/libutils/ext/snprintk.c:112
    230c:	a9b07bfd 	stp	x29, x30, [sp, #-256]!
    2310:	910003fd 	mov	x29, sp
    2314:	a90d93e3 	stp	x3, x4, [sp, #216]
/home/hei/Desktop/optee-qemu/optee_os/lib/libutils/ext/snprintk.c:116
    2318:	910403e3 	add	x3, sp, #0x100
    231c:	a9030fe3 	stp	x3, x3, [sp, #48]
    2320:	910343e3 	add	x3, sp, #0xd0
    2324:	f90023e3 	str	x3, [sp, #64]
    2328:	128004e3 	mov	w3, #0xffffffd8            	// #-40
    232c:	b9004be3 	str	w3, [sp, #72]
    2330:	12800fe3 	mov	w3, #0xffffff80            	// #-128
    2334:	b9004fe3 	str	w3, [sp, #76]
/home/hei/Desktop/optee-qemu/optee_os/lib/libutils/ext/snprintk.c:117
    2338:	910043e3 	add	x3, sp, #0x10
/home/hei/Desktop/optee-qemu/optee_os/lib/libutils/ext/snprintk.c:112
    233c:	a90e9be5 	stp	x5, x6, [sp, #232]
/home/hei/Desktop/optee-qemu/optee_os/lib/libutils/ext/snprintk.c:117
    2340:	a94317e4 	ldp	x4, x5, [sp, #48]
    2344:	a90117e4 	stp	x4, x5, [sp, #16]
    2348:	a94417e4 	ldp	x4, x5, [sp, #64]
    234c:	a90217e4 	stp	x4, x5, [sp, #32]
/home/hei/Desktop/optee-qemu/optee_os/lib/libutils/ext/snprintk.c:112
    2350:	3d8017e0 	str	q0, [sp, #80]
    2354:	3d801be1 	str	q1, [sp, #96]
    2358:	3d801fe2 	str	q2, [sp, #112]
    235c:	3d8023e3 	str	q3, [sp, #128]
    2360:	3d8027e4 	str	q4, [sp, #144]
    2364:	3d802be5 	str	q5, [sp, #160]
    2368:	3d802fe6 	str	q6, [sp, #176]
    236c:	3d8033e7 	str	q7, [sp, #192]
    2370:	f9007fe7 	str	x7, [sp, #248]
/home/hei/Desktop/optee-qemu/optee_os/lib/libutils/ext/snprintk.c:117
    2374:	97ffffd1 	bl	22b8 <vsnprintk>
/home/hei/Desktop/optee-qemu/optee_os/lib/libutils/ext/snprintk.c:121
    2378:	a8d07bfd 	ldp	x29, x30, [sp], #256
    237c:	d65f03c0 	ret

0000000000002380 <memchr>:
memchr():
/home/hei/Desktop/optee-qemu/optee_os/lib/libutils/isoc/newlib/memchr.c:109
    2380:	12001c21 	and	w1, w1, #0xff
/home/hei/Desktop/optee-qemu/optee_os/lib/libutils/isoc/newlib/memchr.c:153
    2384:	8b020002 	add	x2, x0, x2
    2388:	eb02001f 	cmp	x0, x2
    238c:	54000061 	b.ne	2398 <memchr+0x18>  // b.any
/home/hei/Desktop/optee-qemu/optee_os/lib/libutils/isoc/newlib/memchr.c:159
    2390:	d2800000 	mov	x0, #0x0                   	// #0
/home/hei/Desktop/optee-qemu/optee_os/lib/libutils/isoc/newlib/memchr.c:160
    2394:	d65f03c0 	ret
/home/hei/Desktop/optee-qemu/optee_os/lib/libutils/isoc/newlib/memchr.c:154
    2398:	39400003 	ldrb	w3, [x0]
    239c:	6b01007f 	cmp	w3, w1
    23a0:	54ffffa0 	b.eq	2394 <memchr+0x14>  // b.none
/home/hei/Desktop/optee-qemu/optee_os/lib/libutils/isoc/newlib/memchr.c:156
    23a4:	91000400 	add	x0, x0, #0x1
    23a8:	17fffff8 	b	2388 <memchr+0x8>

00000000000023ac <trace_ext_puts>:
trace_ext_puts():
/home/hei/Desktop/optee-qemu/optee_os/lib/libutee/trace_ext.c:17
    23ac:	a9be7bfd 	stp	x29, x30, [sp, #-32]!
    23b0:	910003fd 	mov	x29, sp
    23b4:	f9000bf3 	str	x19, [sp, #16]
    23b8:	aa0003f3 	mov	x19, x0
/home/hei/Desktop/optee-qemu/optee_os/lib/libutee/trace_ext.c:18
    23bc:	97fff864 	bl	54c <strlen>
    23c0:	aa0003e1 	mov	x1, x0
    23c4:	aa1303e0 	mov	x0, x19
/home/hei/Desktop/optee-qemu/optee_os/lib/libutee/trace_ext.c:19
    23c8:	f9400bf3 	ldr	x19, [sp, #16]
    23cc:	a8c27bfd 	ldp	x29, x30, [sp], #32
/home/hei/Desktop/optee-qemu/optee_os/lib/libutee/trace_ext.c:18
    23d0:	1400029b 	b	2e3c <utee_log>

00000000000023d4 <trace_ext_get_thread_id>:
trace_ext_get_thread_id():
/home/hei/Desktop/optee-qemu/optee_os/lib/libutee/trace_ext.c:24
    23d4:	12800000 	mov	w0, #0xffffffff            	// #-1
    23d8:	d65f03c0 	ret

00000000000023dc <printf>:
printf():
/home/hei/Desktop/optee-qemu/optee_os/lib/libutee/trace_ext.c:32
    23dc:	d10883ff 	sub	sp, sp, #0x220
    23e0:	a9007bfd 	stp	x29, x30, [sp]
    23e4:	910003fd 	mov	x29, sp
    23e8:	a90153f3 	stp	x19, x20, [sp, #16]
    23ec:	aa0003f3 	mov	x19, x0
    23f0:	3d805be0 	str	q0, [sp, #352]
    23f4:	3d805fe1 	str	q1, [sp, #368]
    23f8:	3d8063e2 	str	q2, [sp, #384]
    23fc:	3d8067e3 	str	q3, [sp, #400]
    2400:	3d806be4 	str	q4, [sp, #416]
    2404:	3d806fe5 	str	q5, [sp, #432]
    2408:	3d8073e6 	str	q6, [sp, #448]
    240c:	3d8077e7 	str	q7, [sp, #464]
    2410:	a91e8be1 	stp	x1, x2, [sp, #488]
    2414:	a91f93e3 	stp	x3, x4, [sp, #504]
    2418:	f90107e5 	str	x5, [sp, #520]
    241c:	f9010be6 	str	x6, [sp, #528]
    2420:	f9010fe7 	str	x7, [sp, #536]
/home/hei/Desktop/optee-qemu/optee_os/lib/libutee/trace_ext.c:37
    2424:	97fff889 	bl	648 <trace_get_level>
    2428:	7100001f 	cmp	w0, #0x0
    242c:	5400038d 	b.le	249c <printf+0xc0>
/home/hei/Desktop/optee-qemu/optee_os/lib/libutee/trace_ext.c:40
    2430:	910883e0 	add	x0, sp, #0x220
    2434:	a90403e0 	stp	x0, x0, [sp, #64]
    2438:	910783e0 	add	x0, sp, #0x1e0
    243c:	f9002be0 	str	x0, [sp, #80]
    2440:	128006e0 	mov	w0, #0xffffffc8            	// #-56
    2444:	b9005be0 	str	w0, [sp, #88]
    2448:	12800fe0 	mov	w0, #0xffffff80            	// #-128
    244c:	b9005fe0 	str	w0, [sp, #92]
/home/hei/Desktop/optee-qemu/optee_os/lib/libutee/trace_ext.c:41
    2450:	910183f4 	add	x20, sp, #0x60
    2454:	a94407e0 	ldp	x0, x1, [sp, #64]
    2458:	a90207e0 	stp	x0, x1, [sp, #32]
    245c:	aa1303e2 	mov	x2, x19
    2460:	a94507e0 	ldp	x0, x1, [sp, #80]
    2464:	910083e3 	add	x3, sp, #0x20
    2468:	a90307e0 	stp	x0, x1, [sp, #48]
    246c:	aa1403e0 	mov	x0, x20
    2470:	d2802001 	mov	x1, #0x100                 	// #256
    2474:	94001968 	bl	8a14 <vsnprintf>
    2478:	2a0003f3 	mov	w19, w0
/home/hei/Desktop/optee-qemu/optee_os/lib/libutee/trace_ext.c:44
    247c:	37f80060 	tbnz	w0, #31, 2488 <printf+0xac>
/home/hei/Desktop/optee-qemu/optee_os/lib/libutee/trace_ext.c:47
    2480:	aa1403e0 	mov	x0, x20
    2484:	97ffffca 	bl	23ac <trace_ext_puts>
/home/hei/Desktop/optee-qemu/optee_os/lib/libutee/trace_ext.c:50
    2488:	2a1303e0 	mov	w0, w19
    248c:	a9407bfd 	ldp	x29, x30, [sp]
    2490:	a94153f3 	ldp	x19, x20, [sp, #16]
    2494:	910883ff 	add	sp, sp, #0x220
    2498:	d65f03c0 	ret
/home/hei/Desktop/optee-qemu/optee_os/lib/libutee/trace_ext.c:38
    249c:	52800013 	mov	w19, #0x0                   	// #0
    24a0:	17fffffa 	b	2488 <printf+0xac>

00000000000024a4 <puts>:
puts():
/home/hei/Desktop/optee-qemu/optee_os/lib/libutee/trace_ext.c:53
    24a4:	a9be7bfd 	stp	x29, x30, [sp, #-32]!
    24a8:	910003fd 	mov	x29, sp
    24ac:	f9000bf3 	str	x19, [sp, #16]
    24b0:	aa0003f3 	mov	x19, x0
/home/hei/Desktop/optee-qemu/optee_os/lib/libutee/trace_ext.c:54
    24b4:	97fff865 	bl	648 <trace_get_level>
    24b8:	7100001f 	cmp	w0, #0x0
    24bc:	540000cd 	b.le	24d4 <puts+0x30>
/home/hei/Desktop/optee-qemu/optee_os/lib/libutee/trace_ext.c:55
    24c0:	aa1303e0 	mov	x0, x19
    24c4:	97ffffba 	bl	23ac <trace_ext_puts>
/home/hei/Desktop/optee-qemu/optee_os/lib/libutee/trace_ext.c:56
    24c8:	90000040 	adrp	x0, a000 <__text_end+0x1324>
    24cc:	91320000 	add	x0, x0, #0xc80
    24d0:	97ffffb7 	bl	23ac <trace_ext_puts>
/home/hei/Desktop/optee-qemu/optee_os/lib/libutee/trace_ext.c:59
    24d4:	52800020 	mov	w0, #0x1                   	// #1
    24d8:	f9400bf3 	ldr	x19, [sp, #16]
    24dc:	a8c27bfd 	ldp	x29, x30, [sp], #32
    24e0:	d65f03c0 	ret

00000000000024e4 <putchar>:
putchar():
/home/hei/Desktop/optee-qemu/optee_os/lib/libutee/trace_ext.c:62
    24e4:	a9bd7bfd 	stp	x29, x30, [sp, #-48]!
    24e8:	910003fd 	mov	x29, sp
    24ec:	f9000bf3 	str	x19, [sp, #16]
    24f0:	2a0003f3 	mov	w19, w0
/home/hei/Desktop/optee-qemu/optee_os/lib/libutee/trace_ext.c:63
    24f4:	3900a3e0 	strb	w0, [sp, #40]
    24f8:	3900a7ff 	strb	wzr, [sp, #41]
/home/hei/Desktop/optee-qemu/optee_os/lib/libutee/trace_ext.c:65
    24fc:	97fff853 	bl	648 <trace_get_level>
    2500:	7100001f 	cmp	w0, #0x0
    2504:	5400006d 	b.le	2510 <putchar+0x2c>
/home/hei/Desktop/optee-qemu/optee_os/lib/libutee/trace_ext.c:66
    2508:	9100a3e0 	add	x0, sp, #0x28
    250c:	97ffffa8 	bl	23ac <trace_ext_puts>
/home/hei/Desktop/optee-qemu/optee_os/lib/libutee/trace_ext.c:73
    2510:	12001e60 	and	w0, w19, #0xff
    2514:	f9400bf3 	ldr	x19, [sp, #16]
    2518:	a8c37bfd 	ldp	x29, x30, [sp], #48
    251c:	d65f03c0 	ret

0000000000002520 <_assert_log>:
_assert_log():
/home/hei/Desktop/optee-qemu/optee_os/lib/libutee/assert.c:17
    2520:	d10083ff 	sub	sp, sp, #0x20
/home/hei/Desktop/optee-qemu/optee_os/lib/libutee/assert.c:18
    2524:	2a0203e7 	mov	w7, w2
    2528:	aa0103e6 	mov	x6, x1
    252c:	aa0003e5 	mov	x5, x0
    2530:	52800022 	mov	w2, #0x1                   	// #1
    2534:	52800001 	mov	w1, #0x0                   	// #0
/home/hei/Desktop/optee-qemu/optee_os/lib/libutee/assert.c:17
    2538:	a9017bfd 	stp	x29, x30, [sp, #16]
    253c:	910043fd 	add	x29, sp, #0x10
/home/hei/Desktop/optee-qemu/optee_os/lib/libutee/assert.c:18
    2540:	d2800000 	mov	x0, #0x0                   	// #0
    2544:	b0000044 	adrp	x4, b000 <__func__.3755+0xec>
    2548:	f90003e3 	str	x3, [sp]
    254c:	9108ec84 	add	x4, x4, #0x23b
    2550:	52800023 	mov	w3, #0x1                   	// #1
    2554:	97fff8bd 	bl	848 <trace_printf>
/home/hei/Desktop/optee-qemu/optee_os/lib/libutee/assert.c:20
    2558:	a9417bfd 	ldp	x29, x30, [sp, #16]
    255c:	910083ff 	add	sp, sp, #0x20
    2560:	d65f03c0 	ret

0000000000002564 <_assert_break>:
_assert_break():
/home/hei/Desktop/optee-qemu/optee_os/lib/libutee/assert.c:23
    2564:	a9bf7bfd 	stp	x29, x30, [sp, #-16]!
/home/hei/Desktop/optee-qemu/optee_os/lib/libutee/assert.c:24
    2568:	d2bfffe0 	mov	x0, #0xffff0000            	// #4294901760
/home/hei/Desktop/optee-qemu/optee_os/lib/libutee/assert.c:23
    256c:	910003fd 	mov	x29, sp
/home/hei/Desktop/optee-qemu/optee_os/lib/libutee/assert.c:24
    2570:	9400022d 	bl	2e24 <utee_panic>
/home/hei/Desktop/optee-qemu/optee_os/lib/libutee/assert.c:27 (discriminator 1)
    2574:	14000000 	b	2574 <_assert_break+0x10>

0000000000002578 <update_out_param>:
update_out_param():
/home/hei/Desktop/optee-qemu/optee_os/lib/libutee/tee_api.c:115
    2578:	a9bb7bfd 	stp	x29, x30, [sp, #-80]!
    257c:	910003fd 	mov	x29, sp
    2580:	a90153f3 	stp	x19, x20, [sp, #16]
/home/hei/Desktop/optee-qemu/optee_os/lib/libutee/tee_api.c:117
    2584:	aa0203f4 	mov	x20, x2
    2588:	aa0003f3 	mov	x19, x0
/home/hei/Desktop/optee-qemu/optee_os/lib/libutee/tee_api.c:115
    258c:	a90363f7 	stp	x23, x24, [sp, #48]
/home/hei/Desktop/optee-qemu/optee_os/lib/libutee/tee_api.c:123
    2590:	90000058 	adrp	x24, a000 <__text_end+0x1324>
    2594:	9120d318 	add	x24, x24, #0x834
/home/hei/Desktop/optee-qemu/optee_os/lib/libutee/tee_api.c:117
    2598:	f8408697 	ldr	x23, [x20], #8
/home/hei/Desktop/optee-qemu/optee_os/lib/libutee/tee_api.c:115
    259c:	f90023f9 	str	x25, [sp, #64]
    25a0:	aa0103f9 	mov	x25, x1
    25a4:	a9025bf5 	stp	x21, x22, [sp, #32]
/home/hei/Desktop/optee-qemu/optee_os/lib/libutee/tee_api.c:119
    25a8:	d2800015 	mov	x21, #0x0                   	// #0
/home/hei/Desktop/optee-qemu/optee_os/lib/libutee/tee_api.c:123
    25ac:	531e76a0 	lsl	w0, w21, #2
/home/hei/Desktop/optee-qemu/optee_os/lib/libutee/tee_api.c:121
    25b0:	f9400696 	ldr	x22, [x20, #8]
/home/hei/Desktop/optee-qemu/optee_os/lib/libutee/tee_api.c:123
    25b4:	1ac026e0 	lsr	w0, w23, w0
    25b8:	12000c00 	and	w0, w0, #0xf
    25bc:	51000800 	sub	w0, w0, #0x2
    25c0:	7100141f 	cmp	w0, #0x5
    25c4:	540000e8 	b.hi	25e0 <update_out_param+0x68>  // b.pmore
    25c8:	38604b00 	ldrb	w0, [x24, w0, uxtw]
    25cc:	10000061 	adr	x1, 25d8 <update_out_param+0x60>
    25d0:	8b208820 	add	x0, x1, w0, sxtb #2
    25d4:	d61f0000 	br	x0
/home/hei/Desktop/optee-qemu/optee_os/lib/libutee/tee_api.c:126
    25d8:	f9400280 	ldr	x0, [x20]
/home/hei/Desktop/optee-qemu/optee_os/lib/libutee/tee_api.c:127
    25dc:	29005a60 	stp	w0, w22, [x19]
/home/hei/Desktop/optee-qemu/optee_os/lib/libutee/tee_api.c:119 (discriminator 2)
    25e0:	910006b5 	add	x21, x21, #0x1
    25e4:	91004294 	add	x20, x20, #0x10
    25e8:	91004273 	add	x19, x19, #0x10
    25ec:	f10012bf 	cmp	x21, #0x4
    25f0:	54fffde1 	b.ne	25ac <update_out_param+0x34>  // b.any
/home/hei/Desktop/optee-qemu/optee_os/lib/libutee/tee_api.c:140
    25f4:	a94153f3 	ldp	x19, x20, [sp, #16]
    25f8:	a9425bf5 	ldp	x21, x22, [sp, #32]
    25fc:	a94363f7 	ldp	x23, x24, [sp, #48]
    2600:	f94023f9 	ldr	x25, [sp, #64]
    2604:	a8c57bfd 	ldp	x29, x30, [sp], #80
    2608:	d65f03c0 	ret
/home/hei/Desktop/optee-qemu/optee_os/lib/libutee/tee_api.c:131
    260c:	f8757b21 	ldr	x1, [x25, x21, lsl #3]
    2610:	b40000c1 	cbz	x1, 2628 <update_out_param+0xb0>
/home/hei/Desktop/optee-qemu/optee_os/lib/libutee/tee_api.c:133
    2614:	b9400a62 	ldr	w2, [x19, #8]
/home/hei/Desktop/optee-qemu/optee_os/lib/libutee/tee_api.c:132
    2618:	f9400260 	ldr	x0, [x19]
/home/hei/Desktop/optee-qemu/optee_os/lib/libutee/tee_api.c:133
    261c:	eb16005f 	cmp	x2, x22
/home/hei/Desktop/optee-qemu/optee_os/lib/libutee/tee_api.c:132
    2620:	9a969042 	csel	x2, x2, x22, ls  // ls = plast
    2624:	97fff7bc 	bl	514 <memcpy>
/home/hei/Desktop/optee-qemu/optee_os/lib/libutee/tee_api.c:134
    2628:	b9000a76 	str	w22, [x19, #8]
/home/hei/Desktop/optee-qemu/optee_os/lib/libutee/tee_api.c:135
    262c:	17ffffed 	b	25e0 <update_out_param+0x68>

0000000000002630 <TEE_CloseTASession>:
TEE_CloseTASession():
/home/hei/Desktop/optee-qemu/optee_os/lib/libutee/tee_api.c:184
    2630:	b4000120 	cbz	x0, 2654 <TEE_CloseTASession+0x24>
/home/hei/Desktop/optee-qemu/optee_os/lib/libutee/tee_api.c:183
    2634:	a9bf7bfd 	stp	x29, x30, [sp, #-16]!
    2638:	910003fd 	mov	x29, sp
/home/hei/Desktop/optee-qemu/optee_os/lib/libutee/tee_api.c:185
    263c:	9400020f 	bl	2e78 <utee_close_ta_session>
/home/hei/Desktop/optee-qemu/optee_os/lib/libutee/tee_api.c:187
    2640:	34000060 	cbz	w0, 264c <TEE_CloseTASession+0x1c>
/home/hei/Desktop/optee-qemu/optee_os/lib/libutee/tee_api.c:190
    2644:	a8c17bfd 	ldp	x29, x30, [sp], #16
/home/hei/Desktop/optee-qemu/optee_os/lib/libutee/tee_api.c:188
    2648:	14000193 	b	2c94 <TEE_Panic>
/home/hei/Desktop/optee-qemu/optee_os/lib/libutee/tee_api.c:190
    264c:	a8c17bfd 	ldp	x29, x30, [sp], #16
    2650:	d65f03c0 	ret
    2654:	d65f03c0 	ret

0000000000002658 <TEE_GetCancellationFlag>:
TEE_GetCancellationFlag():
/home/hei/Desktop/optee-qemu/optee_os/lib/libutee/tee_api.c:237
    2658:	a9be7bfd 	stp	x29, x30, [sp, #-32]!
    265c:	910003fd 	mov	x29, sp
/home/hei/Desktop/optee-qemu/optee_os/lib/libutee/tee_api.c:239
    2660:	910073e0 	add	x0, sp, #0x1c
    2664:	9400020b 	bl	2e90 <utee_get_cancellation_flag>
/home/hei/Desktop/optee-qemu/optee_os/lib/libutee/tee_api.c:241
    2668:	34000040 	cbz	w0, 2670 <TEE_GetCancellationFlag+0x18>
/home/hei/Desktop/optee-qemu/optee_os/lib/libutee/tee_api.c:242
    266c:	b9001fff 	str	wzr, [sp, #28]
/home/hei/Desktop/optee-qemu/optee_os/lib/libutee/tee_api.c:243
    2670:	b9401fe0 	ldr	w0, [sp, #28]
/home/hei/Desktop/optee-qemu/optee_os/lib/libutee/tee_api.c:244
    2674:	a8c27bfd 	ldp	x29, x30, [sp], #32
/home/hei/Desktop/optee-qemu/optee_os/lib/libutee/tee_api.c:243
    2678:	7100001f 	cmp	w0, #0x0
/home/hei/Desktop/optee-qemu/optee_os/lib/libutee/tee_api.c:244
    267c:	1a9f07e0 	cset	w0, ne  // ne = any
    2680:	d65f03c0 	ret

0000000000002684 <TEE_UnmaskCancellation>:
TEE_UnmaskCancellation():
/home/hei/Desktop/optee-qemu/optee_os/lib/libutee/tee_api.c:247
    2684:	a9be7bfd 	stp	x29, x30, [sp, #-32]!
    2688:	910003fd 	mov	x29, sp
/home/hei/Desktop/optee-qemu/optee_os/lib/libutee/tee_api.c:249
    268c:	910073e0 	add	x0, sp, #0x1c
    2690:	94000206 	bl	2ea8 <utee_unmask_cancellation>
/home/hei/Desktop/optee-qemu/optee_os/lib/libutee/tee_api.c:251
    2694:	34000040 	cbz	w0, 269c <TEE_UnmaskCancellation+0x18>
/home/hei/Desktop/optee-qemu/optee_os/lib/libutee/tee_api.c:252
    2698:	9400017f 	bl	2c94 <TEE_Panic>
/home/hei/Desktop/optee-qemu/optee_os/lib/libutee/tee_api.c:253
    269c:	b9401fe0 	ldr	w0, [sp, #28]
/home/hei/Desktop/optee-qemu/optee_os/lib/libutee/tee_api.c:254
    26a0:	a8c27bfd 	ldp	x29, x30, [sp], #32
/home/hei/Desktop/optee-qemu/optee_os/lib/libutee/tee_api.c:253
    26a4:	7100001f 	cmp	w0, #0x0
/home/hei/Desktop/optee-qemu/optee_os/lib/libutee/tee_api.c:254
    26a8:	1a9f07e0 	cset	w0, ne  // ne = any
    26ac:	d65f03c0 	ret

00000000000026b0 <TEE_MaskCancellation>:
TEE_MaskCancellation():
/home/hei/Desktop/optee-qemu/optee_os/lib/libutee/tee_api.c:257
    26b0:	a9be7bfd 	stp	x29, x30, [sp, #-32]!
    26b4:	910003fd 	mov	x29, sp
/home/hei/Desktop/optee-qemu/optee_os/lib/libutee/tee_api.c:259
    26b8:	910073e0 	add	x0, sp, #0x1c
    26bc:	940001fe 	bl	2eb4 <utee_mask_cancellation>
/home/hei/Desktop/optee-qemu/optee_os/lib/libutee/tee_api.c:261
    26c0:	34000040 	cbz	w0, 26c8 <TEE_MaskCancellation+0x18>
/home/hei/Desktop/optee-qemu/optee_os/lib/libutee/tee_api.c:262
    26c4:	94000174 	bl	2c94 <TEE_Panic>
/home/hei/Desktop/optee-qemu/optee_os/lib/libutee/tee_api.c:263
    26c8:	b9401fe0 	ldr	w0, [sp, #28]
/home/hei/Desktop/optee-qemu/optee_os/lib/libutee/tee_api.c:264
    26cc:	a8c27bfd 	ldp	x29, x30, [sp], #32
/home/hei/Desktop/optee-qemu/optee_os/lib/libutee/tee_api.c:263
    26d0:	7100001f 	cmp	w0, #0x0
/home/hei/Desktop/optee-qemu/optee_os/lib/libutee/tee_api.c:264
    26d4:	1a9f07e0 	cset	w0, ne  // ne = any
    26d8:	d65f03c0 	ret

00000000000026dc <TEE_CheckMemoryAccessRights>:
TEE_CheckMemoryAccessRights():
/home/hei/Desktop/optee-qemu/optee_os/lib/libutee/tee_api.c:273
    26dc:	34000062 	cbz	w2, 26e8 <TEE_CheckMemoryAccessRights+0xc>
/home/hei/Desktop/optee-qemu/optee_os/lib/libutee/tee_api.c:277
    26e0:	2a0203e2 	mov	w2, w2
    26e4:	140001ee 	b	2e9c <utee_check_access_rights>
/home/hei/Desktop/optee-qemu/optee_os/lib/libutee/tee_api.c:289
    26e8:	52800000 	mov	w0, #0x0                   	// #0
    26ec:	d65f03c0 	ret

00000000000026f0 <copy_param.constprop.1>:
copy_param():
/home/hei/Desktop/optee-qemu/optee_os/lib/libutee/tee_api.c:19
    26f0:	a9b87bfd 	stp	x29, x30, [sp, #-128]!
    26f4:	910003fd 	mov	x29, sp
    26f8:	a9046bf9 	stp	x25, x26, [sp, #64]
    26fc:	aa0303f9 	mov	x25, x3
/home/hei/Desktop/optee-qemu/optee_os/lib/libutee/tee_api.c:60
    2700:	9101e3e3 	add	x3, sp, #0x78
/home/hei/Desktop/optee-qemu/optee_os/lib/libutee/tee_api.c:19
    2704:	a90363f7 	stp	x23, x24, [sp, #48]
    2708:	aa0403f8 	mov	x24, x4
    270c:	aa0503f7 	mov	x23, x5
    2710:	a90153f3 	stp	x19, x20, [sp, #16]
    2714:	aa0003f3 	mov	x19, x0
    2718:	aa0203f4 	mov	x20, x2
    271c:	a9025bf5 	stp	x21, x22, [sp, #32]
    2720:	2a0103f6 	mov	w22, w1
/home/hei/Desktop/optee-qemu/optee_os/lib/libutee/tee_api.c:41
    2724:	d2800015 	mov	x21, #0x0                   	// #0
/home/hei/Desktop/optee-qemu/optee_os/lib/libutee/tee_api.c:19
    2728:	a90573fb 	stp	x27, x28, [sp, #80]
/home/hei/Desktop/optee-qemu/optee_os/lib/libutee/tee_api.c:48
    272c:	9100205c 	add	x28, x2, #0x8
/home/hei/Desktop/optee-qemu/optee_os/lib/libutee/tee_api.c:26
    2730:	d280001b 	mov	x27, #0x0                   	// #0
/home/hei/Desktop/optee-qemu/optee_os/lib/libutee/tee_api.c:39
    2734:	f900033f 	str	xzr, [x25]
/home/hei/Desktop/optee-qemu/optee_os/lib/libutee/tee_api.c:60
    2738:	52800024 	mov	w4, #0x1                   	// #1
/home/hei/Desktop/optee-qemu/optee_os/lib/libutee/tee_api.c:40
    273c:	f900031f 	str	xzr, [x24]
/home/hei/Desktop/optee-qemu/optee_os/lib/libutee/tee_api.c:28
    2740:	b9007bff 	str	wzr, [sp, #120]
/home/hei/Desktop/optee-qemu/optee_os/lib/libutee/tee_api.c:43
    2744:	531e76a0 	lsl	w0, w21, #2
/home/hei/Desktop/optee-qemu/optee_os/lib/libutee/tee_api.c:42
    2748:	f8357aff 	str	xzr, [x23, x21, lsl #3]
/home/hei/Desktop/optee-qemu/optee_os/lib/libutee/tee_api.c:43
    274c:	1ac026c0 	lsr	w0, w22, w0
    2750:	12000c00 	and	w0, w0, #0xf
    2754:	51001400 	sub	w0, w0, #0x5
    2758:	7100081f 	cmp	w0, #0x2
    275c:	54000268 	b.hi	27a8 <copy_param.constprop.1+0xb8>  // b.pmore
/home/hei/Desktop/optee-qemu/optee_os/lib/libutee/tee_api.c:47
    2760:	d37ceea0 	lsl	x0, x21, #4
/home/hei/Desktop/optee-qemu/optee_os/lib/libutee/tee_api.c:48
    2764:	b8606b82 	ldr	w2, [x28, x0]
/home/hei/Desktop/optee-qemu/optee_os/lib/libutee/tee_api.c:47
    2768:	f8606a81 	ldr	x1, [x20, x0]
/home/hei/Desktop/optee-qemu/optee_os/lib/libutee/tee_api.c:48
    276c:	2a0203fa 	mov	w26, w2
/home/hei/Desktop/optee-qemu/optee_os/lib/libutee/tee_api.c:58
    2770:	f100003f 	cmp	x1, #0x0
    2774:	fa401b44 	ccmp	x26, #0x0, #0x4, ne  // ne = any
    2778:	54000180 	b.eq	27a8 <copy_param.constprop.1+0xb8>  // b.none
/home/hei/Desktop/optee-qemu/optee_os/lib/libutee/tee_api.c:59
    277c:	52800020 	mov	w0, #0x1                   	// #1
    2780:	f90033e3 	str	x3, [sp, #96]
    2784:	b9006fe4 	str	w4, [sp, #108]
    2788:	97ffffd5 	bl	26dc <TEE_CheckMemoryAccessRights>
/home/hei/Desktop/optee-qemu/optee_os/lib/libutee/tee_api.c:58
    278c:	b9406fe4 	ldr	w4, [sp, #108]
    2790:	f94033e3 	ldr	x3, [sp, #96]
    2794:	350000a0 	cbnz	w0, 27a8 <copy_param.constprop.1+0xb8>
/home/hei/Desktop/optee-qemu/optee_os/lib/libutee/tee_api.c:61
    2798:	91003f5a 	add	x26, x26, #0xf
/home/hei/Desktop/optee-qemu/optee_os/lib/libutee/tee_api.c:60
    279c:	38236aa4 	strb	w4, [x21, x3]
/home/hei/Desktop/optee-qemu/optee_os/lib/libutee/tee_api.c:61
    27a0:	927cef5a 	and	x26, x26, #0xfffffffffffffff0
    27a4:	8b1a037b 	add	x27, x27, x26
/home/hei/Desktop/optee-qemu/optee_os/lib/libutee/tee_api.c:41
    27a8:	910006b5 	add	x21, x21, #0x1
    27ac:	f10012bf 	cmp	x21, #0x4
    27b0:	54fffca1 	b.ne	2744 <copy_param.constprop.1+0x54>  // b.any
/home/hei/Desktop/optee-qemu/optee_os/lib/libutee/tee_api.c:69
    27b4:	b400031b 	cbz	x27, 2814 <copy_param.constprop.1+0x124>
/home/hei/Desktop/optee-qemu/optee_os/lib/libutee/tee_api.c:70
    27b8:	2a1503e1 	mov	w1, w21
    27bc:	aa1b03e0 	mov	x0, x27
    27c0:	94000159 	bl	2d24 <tee_map_zi>
    27c4:	aa0003e3 	mov	x3, x0
/home/hei/Desktop/optee-qemu/optee_os/lib/libutee/tee_api.c:71
    27c8:	b4000780 	cbz	x0, 28b8 <copy_param.constprop.1+0x1c8>
/home/hei/Desktop/optee-qemu/optee_os/lib/libutee/tee_api.c:73
    27cc:	f9000320 	str	x0, [x25]
/home/hei/Desktop/optee-qemu/optee_os/lib/libutee/tee_api.c:74
    27d0:	f900031b 	str	x27, [x24]
/home/hei/Desktop/optee-qemu/optee_os/lib/libutee/tee_api.c:79
    27d4:	90000059 	adrp	x25, a000 <__text_end+0x1324>
/home/hei/Desktop/optee-qemu/optee_os/lib/libutee/tee_api.c:89
    27d8:	9101e3fb 	add	x27, sp, #0x78
/home/hei/Desktop/optee-qemu/optee_os/lib/libutee/tee_api.c:79
    27dc:	9120f339 	add	x25, x25, #0x83c
/home/hei/Desktop/optee-qemu/optee_os/lib/libutee/tee_api.c:77
    27e0:	2a1603e0 	mov	w0, w22
/home/hei/Desktop/optee-qemu/optee_os/lib/libutee/tee_api.c:78
    27e4:	d2800015 	mov	x21, #0x0                   	// #0
/home/hei/Desktop/optee-qemu/optee_os/lib/libutee/tee_api.c:77
    27e8:	f8008660 	str	x0, [x19], #8
/home/hei/Desktop/optee-qemu/optee_os/lib/libutee/tee_api.c:79
    27ec:	531e76a0 	lsl	w0, w21, #2
    27f0:	1ac026c0 	lsr	w0, w22, w0
    27f4:	12000c00 	and	w0, w0, #0xf
    27f8:	51000401 	sub	w1, w0, #0x1
    27fc:	7100183f 	cmp	w1, #0x6
    2800:	54000588 	b.hi	28b0 <copy_param.constprop.1+0x1c0>  // b.pmore
    2804:	38614b21 	ldrb	w1, [x25, w1, uxtw]
    2808:	10000062 	adr	x2, 2814 <copy_param.constprop.1+0x124>
    280c:	8b218841 	add	x1, x2, w1, sxtb #2
    2810:	d61f0020 	br	x1
/home/hei/Desktop/optee-qemu/optee_os/lib/libutee/tee_api.c:25
    2814:	d2800003 	mov	x3, #0x0                   	// #0
    2818:	17ffffef 	b	27d4 <copy_param.constprop.1+0xe4>
/home/hei/Desktop/optee-qemu/optee_os/lib/libutee/tee_api.c:82
    281c:	b9400280 	ldr	w0, [x20]
    2820:	f9000260 	str	x0, [x19]
/home/hei/Desktop/optee-qemu/optee_os/lib/libutee/tee_api.c:83
    2824:	b9400680 	ldr	w0, [x20, #4]
    2828:	f9000660 	str	x0, [x19, #8]
/home/hei/Desktop/optee-qemu/optee_os/lib/libutee/tee_api.c:78
    282c:	910006b5 	add	x21, x21, #0x1
    2830:	91004294 	add	x20, x20, #0x10
    2834:	91004273 	add	x19, x19, #0x10
    2838:	f10012bf 	cmp	x21, #0x4
    283c:	54fffd81 	b.ne	27ec <copy_param.constprop.1+0xfc>  // b.any
/home/hei/Desktop/optee-qemu/optee_os/lib/libutee/tee_api.c:109
    2840:	52800000 	mov	w0, #0x0                   	// #0
/home/hei/Desktop/optee-qemu/optee_os/lib/libutee/tee_api.c:110
    2844:	a94153f3 	ldp	x19, x20, [sp, #16]
    2848:	a9425bf5 	ldp	x21, x22, [sp, #32]
    284c:	a94363f7 	ldp	x23, x24, [sp, #48]
    2850:	a9446bf9 	ldp	x25, x26, [sp, #64]
    2854:	a94573fb 	ldp	x27, x28, [sp, #80]
    2858:	a8c87bfd 	ldp	x29, x30, [sp], #128
    285c:	d65f03c0 	ret
/home/hei/Desktop/optee-qemu/optee_os/lib/libutee/tee_api.c:89
    2860:	387b6aa1 	ldrb	w1, [x21, x27]
/home/hei/Desktop/optee-qemu/optee_os/lib/libutee/tee_api.c:88
    2864:	b9400a9a 	ldr	w26, [x20, #8]
/home/hei/Desktop/optee-qemu/optee_os/lib/libutee/tee_api.c:89
    2868:	340001e1 	cbz	w1, 28a4 <copy_param.constprop.1+0x1b4>
/home/hei/Desktop/optee-qemu/optee_os/lib/libutee/tee_api.c:92
    286c:	91003f58 	add	x24, x26, #0xf
/home/hei/Desktop/optee-qemu/optee_os/lib/libutee/tee_api.c:91
    2870:	f8357ae3 	str	x3, [x23, x21, lsl #3]
/home/hei/Desktop/optee-qemu/optee_os/lib/libutee/tee_api.c:92
    2874:	927cef18 	and	x24, x24, #0xfffffffffffffff0
/home/hei/Desktop/optee-qemu/optee_os/lib/libutee/tee_api.c:93
    2878:	7100181f 	cmp	w0, #0x6
/home/hei/Desktop/optee-qemu/optee_os/lib/libutee/tee_api.c:92
    287c:	8b180078 	add	x24, x3, x24
/home/hei/Desktop/optee-qemu/optee_os/lib/libutee/tee_api.c:93
    2880:	540000c0 	b.eq	2898 <copy_param.constprop.1+0x1a8>  // b.none
/home/hei/Desktop/optee-qemu/optee_os/lib/libutee/tee_api.c:95
    2884:	f9400281 	ldr	x1, [x20]
    2888:	aa0303e0 	mov	x0, x3
    288c:	aa1a03e2 	mov	x2, x26
    2890:	97fff721 	bl	514 <memcpy>
    2894:	aa0003e3 	mov	x3, x0
/home/hei/Desktop/optee-qemu/optee_os/lib/libutee/tee_api.c:100
    2898:	a9006a63 	stp	x3, x26, [x19]
    289c:	aa1803e3 	mov	x3, x24
    28a0:	17ffffe3 	b	282c <copy_param.constprop.1+0x13c>
/home/hei/Desktop/optee-qemu/optee_os/lib/libutee/tee_api.c:97
    28a4:	aa0303f8 	mov	x24, x3
    28a8:	f9400283 	ldr	x3, [x20]
    28ac:	17fffffb 	b	2898 <copy_param.constprop.1+0x1a8>
/home/hei/Desktop/optee-qemu/optee_os/lib/libutee/tee_api.c:104
    28b0:	a9007e7f 	stp	xzr, xzr, [x19]
/home/hei/Desktop/optee-qemu/optee_os/lib/libutee/tee_api.c:105
    28b4:	17ffffde 	b	282c <copy_param.constprop.1+0x13c>
/home/hei/Desktop/optee-qemu/optee_os/lib/libutee/tee_api.c:72
    28b8:	129ffe60 	mov	w0, #0xffff000c            	// #-65524
    28bc:	17ffffe2 	b	2844 <copy_param.constprop.1+0x154>

00000000000028c0 <TEE_InvokeTACommand>:
TEE_InvokeTACommand():
/home/hei/Desktop/optee-qemu/optee_os/lib/libutee/tee_api.c:197
    28c0:	a9b37bfd 	stp	x29, x30, [sp, #-208]!
    28c4:	910003fd 	mov	x29, sp
    28c8:	a90153f3 	stp	x19, x20, [sp, #16]
/home/hei/Desktop/optee-qemu/optee_os/lib/libutee/tee_api.c:205
    28cc:	910223f4 	add	x20, sp, #0x88
/home/hei/Desktop/optee-qemu/optee_os/lib/libutee/tee_api.c:197
    28d0:	a9025bf5 	stp	x21, x22, [sp, #32]
    28d4:	aa0403f6 	mov	x22, x4
    28d8:	aa0503f5 	mov	x21, x5
    28dc:	a90363f7 	stp	x23, x24, [sp, #48]
    28e0:	aa0003f8 	mov	x24, x0
/home/hei/Desktop/optee-qemu/optee_os/lib/libutee/tee_api.c:205
    28e4:	9101a3f7 	add	x23, sp, #0x68
/home/hei/Desktop/optee-qemu/optee_os/lib/libutee/tee_api.c:199
    28e8:	52800060 	mov	w0, #0x3                   	// #3
/home/hei/Desktop/optee-qemu/optee_os/lib/libutee/tee_api.c:205
    28ec:	aa1703e5 	mov	x5, x23
    28f0:	910183e4 	add	x4, sp, #0x60
/home/hei/Desktop/optee-qemu/optee_os/lib/libutee/tee_api.c:197
    28f4:	a9046bf9 	stp	x25, x26, [sp, #64]
    28f8:	2a0103f9 	mov	w25, w1
    28fc:	2a0203fa 	mov	w26, w2
    2900:	2a0303e1 	mov	w1, w3
/home/hei/Desktop/optee-qemu/optee_os/lib/libutee/tee_api.c:205
    2904:	aa1603e2 	mov	x2, x22
    2908:	910163e3 	add	x3, sp, #0x58
/home/hei/Desktop/optee-qemu/optee_os/lib/libutee/tee_api.c:199
    290c:	b90057e0 	str	w0, [sp, #84]
/home/hei/Desktop/optee-qemu/optee_os/lib/libutee/tee_api.c:205
    2910:	aa1403e0 	mov	x0, x20
/home/hei/Desktop/optee-qemu/optee_os/lib/libutee/tee_api.c:202
    2914:	a905ffff 	stp	xzr, xzr, [sp, #88]
/home/hei/Desktop/optee-qemu/optee_os/lib/libutee/tee_api.c:203
    2918:	a906ffff 	stp	xzr, xzr, [sp, #104]
    291c:	a907ffff 	stp	xzr, xzr, [sp, #120]
/home/hei/Desktop/optee-qemu/optee_os/lib/libutee/tee_api.c:205
    2920:	97ffff74 	bl	26f0 <copy_param.constprop.1>
    2924:	2a0003f3 	mov	w19, w0
/home/hei/Desktop/optee-qemu/optee_os/lib/libutee/tee_api.c:206
    2928:	35000240 	cbnz	w0, 2970 <TEE_InvokeTACommand+0xb0>
/home/hei/Desktop/optee-qemu/optee_os/lib/libutee/tee_api.c:208
    292c:	910153e4 	add	x4, sp, #0x54
    2930:	aa1403e3 	mov	x3, x20
    2934:	2a1a03e2 	mov	w2, w26
    2938:	2a1903e1 	mov	w1, w25
    293c:	aa1803e0 	mov	x0, x24
    2940:	94000151 	bl	2e84 <utee_invoke_ta_command>
/home/hei/Desktop/optee-qemu/optee_os/lib/libutee/tee_api.c:211
    2944:	aa1403e2 	mov	x2, x20
/home/hei/Desktop/optee-qemu/optee_os/lib/libutee/tee_api.c:208
    2948:	2a0003f3 	mov	w19, w0
/home/hei/Desktop/optee-qemu/optee_os/lib/libutee/tee_api.c:211
    294c:	aa1703e1 	mov	x1, x23
    2950:	aa1603e0 	mov	x0, x22
    2954:	97ffff09 	bl	2578 <update_out_param>
/home/hei/Desktop/optee-qemu/optee_os/lib/libutee/tee_api.c:212
    2958:	f9402fe0 	ldr	x0, [sp, #88]
    295c:	b40000a0 	cbz	x0, 2970 <TEE_InvokeTACommand+0xb0>
/home/hei/Desktop/optee-qemu/optee_os/lib/libutee/tee_api.c:213
    2960:	f94033e1 	ldr	x1, [sp, #96]
    2964:	9400010d 	bl	2d98 <tee_unmap>
/home/hei/Desktop/optee-qemu/optee_os/lib/libutee/tee_api.c:215
    2968:	34000040 	cbz	w0, 2970 <TEE_InvokeTACommand+0xb0>
/home/hei/Desktop/optee-qemu/optee_os/lib/libutee/tee_api.c:216
    296c:	940000ca 	bl	2c94 <TEE_Panic>
/home/hei/Desktop/optee-qemu/optee_os/lib/libutee/tee_api.c:220
    2970:	b94057e0 	ldr	w0, [sp, #84]
    2974:	b4000055 	cbz	x21, 297c <TEE_InvokeTACommand+0xbc>
/home/hei/Desktop/optee-qemu/optee_os/lib/libutee/tee_api.c:221
    2978:	b90002a0 	str	w0, [x21]
/home/hei/Desktop/optee-qemu/optee_os/lib/libutee/tee_api.c:223
    297c:	7100101f 	cmp	w0, #0x4
    2980:	54000140 	b.eq	29a8 <TEE_InvokeTACommand+0xe8>  // b.none
/home/hei/Desktop/optee-qemu/optee_os/lib/libutee/tee_api.c:226
    2984:	7100027f 	cmp	w19, #0x0
    2988:	129ffe60 	mov	w0, #0xffff000c            	// #-65524
    298c:	7a401264 	ccmp	w19, w0, #0x4, ne  // ne = any
    2990:	540000c0 	b.eq	29a8 <TEE_InvokeTACommand+0xe8>  // b.none
/home/hei/Desktop/optee-qemu/optee_os/lib/libutee/tee_api.c:227
    2994:	1299fb60 	mov	w0, #0xffff3024            	// #-53212
    2998:	6b00027f 	cmp	w19, w0
    299c:	54000060 	b.eq	29a8 <TEE_InvokeTACommand+0xe8>  // b.none
/home/hei/Desktop/optee-qemu/optee_os/lib/libutee/tee_api.c:229
    29a0:	2a1303e0 	mov	w0, w19
    29a4:	940000bc 	bl	2c94 <TEE_Panic>
/home/hei/Desktop/optee-qemu/optee_os/lib/libutee/tee_api.c:232
    29a8:	2a1303e0 	mov	w0, w19
    29ac:	a94153f3 	ldp	x19, x20, [sp, #16]
    29b0:	a9425bf5 	ldp	x21, x22, [sp, #32]
    29b4:	a94363f7 	ldp	x23, x24, [sp, #48]
    29b8:	a9446bf9 	ldp	x25, x26, [sp, #64]
    29bc:	a8cd7bfd 	ldp	x29, x30, [sp], #208
    29c0:	d65f03c0 	ret

00000000000029c4 <TEE_OpenTASession>:
TEE_OpenTASession():
/home/hei/Desktop/optee-qemu/optee_os/lib/libutee/tee_api.c:148
    29c4:	a9b37bfd 	stp	x29, x30, [sp, #-208]!
    29c8:	910003fd 	mov	x29, sp
    29cc:	a90153f3 	stp	x19, x20, [sp, #16]
/home/hei/Desktop/optee-qemu/optee_os/lib/libutee/tee_api.c:156
    29d0:	910223f4 	add	x20, sp, #0x88
/home/hei/Desktop/optee-qemu/optee_os/lib/libutee/tee_api.c:148
    29d4:	a9025bf5 	stp	x21, x22, [sp, #32]
    29d8:	aa0303f5 	mov	x21, x3
/home/hei/Desktop/optee-qemu/optee_os/lib/libutee/tee_api.c:156
    29dc:	9101a3f6 	add	x22, sp, #0x68
    29e0:	910163e3 	add	x3, sp, #0x58
/home/hei/Desktop/optee-qemu/optee_os/lib/libutee/tee_api.c:148
    29e4:	a90363f7 	stp	x23, x24, [sp, #48]
    29e8:	aa0003f8 	mov	x24, x0
    29ec:	aa0403f7 	mov	x23, x4
/home/hei/Desktop/optee-qemu/optee_os/lib/libutee/tee_api.c:156
    29f0:	aa1403e0 	mov	x0, x20
    29f4:	910183e4 	add	x4, sp, #0x60
/home/hei/Desktop/optee-qemu/optee_os/lib/libutee/tee_api.c:148
    29f8:	a9046bf9 	stp	x25, x26, [sp, #64]
    29fc:	2a0103f9 	mov	w25, w1
    2a00:	aa0503fa 	mov	x26, x5
    2a04:	2a0203e1 	mov	w1, w2
/home/hei/Desktop/optee-qemu/optee_os/lib/libutee/tee_api.c:156
    2a08:	aa1603e5 	mov	x5, x22
    2a0c:	aa1503e2 	mov	x2, x21
/home/hei/Desktop/optee-qemu/optee_os/lib/libutee/tee_api.c:151
    2a10:	b90057ff 	str	wzr, [sp, #84]
/home/hei/Desktop/optee-qemu/optee_os/lib/libutee/tee_api.c:153
    2a14:	a905ffff 	stp	xzr, xzr, [sp, #88]
/home/hei/Desktop/optee-qemu/optee_os/lib/libutee/tee_api.c:154
    2a18:	a906ffff 	stp	xzr, xzr, [sp, #104]
    2a1c:	a907ffff 	stp	xzr, xzr, [sp, #120]
/home/hei/Desktop/optee-qemu/optee_os/lib/libutee/tee_api.c:156
    2a20:	97ffff34 	bl	26f0 <copy_param.constprop.1>
/home/hei/Desktop/optee-qemu/optee_os/lib/libutee/tee_api.c:157
    2a24:	350003a0 	cbnz	w0, 2a98 <TEE_OpenTASession+0xd4>
/home/hei/Desktop/optee-qemu/optee_os/lib/libutee/tee_api.c:159
    2a28:	aa1a03e4 	mov	x4, x26
    2a2c:	910153e3 	add	x3, sp, #0x54
    2a30:	aa1403e2 	mov	x2, x20
    2a34:	2a1903e1 	mov	w1, w25
    2a38:	aa1803e0 	mov	x0, x24
    2a3c:	9400010c 	bl	2e6c <utee_open_ta_session>
/home/hei/Desktop/optee-qemu/optee_os/lib/libutee/tee_api.c:161
    2a40:	aa1403e2 	mov	x2, x20
/home/hei/Desktop/optee-qemu/optee_os/lib/libutee/tee_api.c:159
    2a44:	2a0003f3 	mov	w19, w0
/home/hei/Desktop/optee-qemu/optee_os/lib/libutee/tee_api.c:161
    2a48:	aa1603e1 	mov	x1, x22
    2a4c:	aa1503e0 	mov	x0, x21
    2a50:	97fffeca 	bl	2578 <update_out_param>
/home/hei/Desktop/optee-qemu/optee_os/lib/libutee/tee_api.c:162
    2a54:	f9402fe0 	ldr	x0, [sp, #88]
    2a58:	b40000a0 	cbz	x0, 2a6c <TEE_OpenTASession+0xa8>
/home/hei/Desktop/optee-qemu/optee_os/lib/libutee/tee_api.c:163
    2a5c:	f94033e1 	ldr	x1, [sp, #96]
    2a60:	940000ce 	bl	2d98 <tee_unmap>
/home/hei/Desktop/optee-qemu/optee_os/lib/libutee/tee_api.c:165
    2a64:	34000040 	cbz	w0, 2a6c <TEE_OpenTASession+0xa8>
/home/hei/Desktop/optee-qemu/optee_os/lib/libutee/tee_api.c:166
    2a68:	9400008b 	bl	2c94 <TEE_Panic>
/home/hei/Desktop/optee-qemu/optee_os/lib/libutee/tee_api.c:175
    2a6c:	34000053 	cbz	w19, 2a74 <TEE_OpenTASession+0xb0>
/home/hei/Desktop/optee-qemu/optee_os/lib/libutee/tee_api.c:176
    2a70:	b90057ff 	str	wzr, [sp, #84]
/home/hei/Desktop/optee-qemu/optee_os/lib/libutee/tee_api.c:178
    2a74:	b94057e0 	ldr	w0, [sp, #84]
/home/hei/Desktop/optee-qemu/optee_os/lib/libutee/tee_api.c:180
    2a78:	a9425bf5 	ldp	x21, x22, [sp, #32]
    2a7c:	a9446bf9 	ldp	x25, x26, [sp, #64]
/home/hei/Desktop/optee-qemu/optee_os/lib/libutee/tee_api.c:178
    2a80:	f90002e0 	str	x0, [x23]
/home/hei/Desktop/optee-qemu/optee_os/lib/libutee/tee_api.c:180
    2a84:	2a1303e0 	mov	w0, w19
    2a88:	a94153f3 	ldp	x19, x20, [sp, #16]
    2a8c:	a94363f7 	ldp	x23, x24, [sp, #48]
    2a90:	a8cd7bfd 	ldp	x29, x30, [sp], #208
    2a94:	d65f03c0 	ret
    2a98:	2a0003f3 	mov	w19, w0
    2a9c:	17fffff5 	b	2a70 <TEE_OpenTASession+0xac>

0000000000002aa0 <TEE_SetInstanceData>:
TEE_SetInstanceData():
/home/hei/Desktop/optee-qemu/optee_os/lib/libutee/tee_api.c:293
    2aa0:	d0000041 	adrp	x1, c000 <_DYNAMIC>
    2aa4:	f9023820 	str	x0, [x1, #1136]
/home/hei/Desktop/optee-qemu/optee_os/lib/libutee/tee_api.c:294
    2aa8:	d65f03c0 	ret

0000000000002aac <TEE_GetInstanceData>:
TEE_GetInstanceData():
/home/hei/Desktop/optee-qemu/optee_os/lib/libutee/tee_api.c:299
    2aac:	d0000040 	adrp	x0, c000 <_DYNAMIC>
    2ab0:	f9423800 	ldr	x0, [x0, #1136]
    2ab4:	d65f03c0 	ret

0000000000002ab8 <TEE_MemMove>:
TEE_MemMove():
/home/hei/Desktop/optee-qemu/optee_os/lib/libutee/tee_api.c:303
    2ab8:	2a0203e2 	mov	w2, w2
    2abc:	140017eb 	b	8a68 <memmove>

0000000000002ac0 <TEE_MemCompare>:
TEE_MemCompare():
/home/hei/Desktop/optee-qemu/optee_os/lib/libutee/tee_api.c:308
    2ac0:	2a0203e2 	mov	w2, w2
    2ac4:	1400186a 	b	8c6c <consttime_memcmp>

0000000000002ac8 <TEE_MemFill>:
TEE_MemFill():
/home/hei/Desktop/optee-qemu/optee_os/lib/libutee/tee_api.c:313
    2ac8:	2a0203e2 	mov	w2, w2
    2acc:	17fffae7 	b	1668 <memset>

0000000000002ad0 <TEE_GetSystemTime>:
TEE_GetSystemTime():
/home/hei/Desktop/optee-qemu/optee_os/lib/libutee/tee_api.c:319
    2ad0:	a9bf7bfd 	stp	x29, x30, [sp, #-16]!
/home/hei/Desktop/optee-qemu/optee_os/lib/libutee/tee_api.c:320
    2ad4:	aa0003e1 	mov	x1, x0
    2ad8:	d2800000 	mov	x0, #0x0                   	// #0
/home/hei/Desktop/optee-qemu/optee_os/lib/libutee/tee_api.c:319
    2adc:	910003fd 	mov	x29, sp
/home/hei/Desktop/optee-qemu/optee_os/lib/libutee/tee_api.c:320
    2ae0:	940000fb 	bl	2ecc <utee_get_time>
/home/hei/Desktop/optee-qemu/optee_os/lib/libutee/tee_api.c:322
    2ae4:	34000060 	cbz	w0, 2af0 <TEE_GetSystemTime+0x20>
/home/hei/Desktop/optee-qemu/optee_os/lib/libutee/tee_api.c:324
    2ae8:	a8c17bfd 	ldp	x29, x30, [sp], #16
/home/hei/Desktop/optee-qemu/optee_os/lib/libutee/tee_api.c:323
    2aec:	1400006a 	b	2c94 <TEE_Panic>
/home/hei/Desktop/optee-qemu/optee_os/lib/libutee/tee_api.c:324
    2af0:	a8c17bfd 	ldp	x29, x30, [sp], #16
    2af4:	d65f03c0 	ret

0000000000002af8 <TEE_Wait>:
TEE_Wait():
/home/hei/Desktop/optee-qemu/optee_os/lib/libutee/tee_api.c:327
    2af8:	a9be7bfd 	stp	x29, x30, [sp, #-32]!
/home/hei/Desktop/optee-qemu/optee_os/lib/libutee/tee_api.c:328
    2afc:	2a0003e0 	mov	w0, w0
/home/hei/Desktop/optee-qemu/optee_os/lib/libutee/tee_api.c:327
    2b00:	910003fd 	mov	x29, sp
    2b04:	f9000bf3 	str	x19, [sp, #16]
/home/hei/Desktop/optee-qemu/optee_os/lib/libutee/tee_api.c:328
    2b08:	940000ee 	bl	2ec0 <utee_wait>
/home/hei/Desktop/optee-qemu/optee_os/lib/libutee/tee_api.c:330
    2b0c:	7100001f 	cmp	w0, #0x0
    2b10:	129fffa1 	mov	w1, #0xffff0002            	// #-65534
/home/hei/Desktop/optee-qemu/optee_os/lib/libutee/tee_api.c:328
    2b14:	2a0003f3 	mov	w19, w0
/home/hei/Desktop/optee-qemu/optee_os/lib/libutee/tee_api.c:330
    2b18:	7a411004 	ccmp	w0, w1, #0x4, ne  // ne = any
    2b1c:	54000040 	b.eq	2b24 <TEE_Wait+0x2c>  // b.none
/home/hei/Desktop/optee-qemu/optee_os/lib/libutee/tee_api.c:331
    2b20:	9400005d 	bl	2c94 <TEE_Panic>
/home/hei/Desktop/optee-qemu/optee_os/lib/libutee/tee_api.c:334
    2b24:	2a1303e0 	mov	w0, w19
    2b28:	f9400bf3 	ldr	x19, [sp, #16]
    2b2c:	a8c27bfd 	ldp	x29, x30, [sp], #32
    2b30:	d65f03c0 	ret

0000000000002b34 <TEE_GetTAPersistentTime>:
TEE_GetTAPersistentTime():
/home/hei/Desktop/optee-qemu/optee_os/lib/libutee/tee_api.c:337
    2b34:	a9be7bfd 	stp	x29, x30, [sp, #-32]!
/home/hei/Desktop/optee-qemu/optee_os/lib/libutee/tee_api.c:340
    2b38:	aa0003e1 	mov	x1, x0
/home/hei/Desktop/optee-qemu/optee_os/lib/libutee/tee_api.c:337
    2b3c:	910003fd 	mov	x29, sp
    2b40:	a90153f3 	stp	x19, x20, [sp, #16]
    2b44:	aa0003f4 	mov	x20, x0
/home/hei/Desktop/optee-qemu/optee_os/lib/libutee/tee_api.c:340
    2b48:	d2800020 	mov	x0, #0x1                   	// #1
    2b4c:	940000e0 	bl	2ecc <utee_get_time>
/home/hei/Desktop/optee-qemu/optee_os/lib/libutee/tee_api.c:342
    2b50:	7100001f 	cmp	w0, #0x0
/home/hei/Desktop/optee-qemu/optee_os/lib/libutee/tee_api.c:340
    2b54:	2a0003f3 	mov	w19, w0
/home/hei/Desktop/optee-qemu/optee_os/lib/libutee/tee_api.c:342
    2b58:	1a9f07e2 	cset	w2, ne  // ne = any
    2b5c:	1299fe00 	mov	w0, #0xffff300f            	// #-53233
    2b60:	6b00027f 	cmp	w19, w0
    2b64:	1a9f1041 	csel	w1, w2, wzr, ne  // ne = any
    2b68:	34000041 	cbz	w1, 2b70 <TEE_GetTAPersistentTime+0x3c>
/home/hei/Desktop/optee-qemu/optee_os/lib/libutee/tee_api.c:344
    2b6c:	29007e9f 	stp	wzr, wzr, [x20]
/home/hei/Desktop/optee-qemu/optee_os/lib/libutee/tee_api.c:348
    2b70:	11402e60 	add	w0, w19, #0xb, lsl #12
/home/hei/Desktop/optee-qemu/optee_os/lib/libutee/tee_api.c:347
    2b74:	7100005f 	cmp	w2, #0x0
    2b78:	7a411800 	ccmp	w0, #0x1, #0x0, ne  // ne = any
    2b7c:	540000e9 	b.ls	2b98 <TEE_GetTAPersistentTime+0x64>  // b.plast
/home/hei/Desktop/optee-qemu/optee_os/lib/libutee/tee_api.c:349
    2b80:	340000c1 	cbz	w1, 2b98 <TEE_GetTAPersistentTime+0x64>
/home/hei/Desktop/optee-qemu/optee_os/lib/libutee/tee_api.c:350
    2b84:	129ffe60 	mov	w0, #0xffff000c            	// #-65524
    2b88:	6b00027f 	cmp	w19, w0
    2b8c:	54000060 	b.eq	2b98 <TEE_GetTAPersistentTime+0x64>  // b.none
/home/hei/Desktop/optee-qemu/optee_os/lib/libutee/tee_api.c:352
    2b90:	2a1303e0 	mov	w0, w19
    2b94:	94000040 	bl	2c94 <TEE_Panic>
/home/hei/Desktop/optee-qemu/optee_os/lib/libutee/tee_api.c:355
    2b98:	2a1303e0 	mov	w0, w19
    2b9c:	a94153f3 	ldp	x19, x20, [sp, #16]
    2ba0:	a8c27bfd 	ldp	x29, x30, [sp], #32
    2ba4:	d65f03c0 	ret

0000000000002ba8 <TEE_SetTAPersistentTime>:
TEE_SetTAPersistentTime():
/home/hei/Desktop/optee-qemu/optee_os/lib/libutee/tee_api.c:358
    2ba8:	a9be7bfd 	stp	x29, x30, [sp, #-32]!
    2bac:	910003fd 	mov	x29, sp
    2bb0:	f9000bf3 	str	x19, [sp, #16]
/home/hei/Desktop/optee-qemu/optee_os/lib/libutee/tee_api.c:361
    2bb4:	940000c9 	bl	2ed8 <utee_set_ta_time>
/home/hei/Desktop/optee-qemu/optee_os/lib/libutee/tee_api.c:363
    2bb8:	7100001f 	cmp	w0, #0x0
    2bbc:	129ffe61 	mov	w1, #0xffff000c            	// #-65524
/home/hei/Desktop/optee-qemu/optee_os/lib/libutee/tee_api.c:361
    2bc0:	2a0003f3 	mov	w19, w0
/home/hei/Desktop/optee-qemu/optee_os/lib/libutee/tee_api.c:363
    2bc4:	7a411004 	ccmp	w0, w1, #0x4, ne  // ne = any
    2bc8:	540000a0 	b.eq	2bdc <TEE_SetTAPersistentTime+0x34>  // b.none
/home/hei/Desktop/optee-qemu/optee_os/lib/libutee/tee_api.c:364
    2bcc:	1299f7c1 	mov	w1, #0xffff3041            	// #-53183
    2bd0:	6b01001f 	cmp	w0, w1
    2bd4:	54000040 	b.eq	2bdc <TEE_SetTAPersistentTime+0x34>  // b.none
/home/hei/Desktop/optee-qemu/optee_os/lib/libutee/tee_api.c:366
    2bd8:	9400002f 	bl	2c94 <TEE_Panic>
/home/hei/Desktop/optee-qemu/optee_os/lib/libutee/tee_api.c:369
    2bdc:	2a1303e0 	mov	w0, w19
    2be0:	f9400bf3 	ldr	x19, [sp, #16]
    2be4:	a8c27bfd 	ldp	x29, x30, [sp], #32
    2be8:	d65f03c0 	ret

0000000000002bec <TEE_GetREETime>:
TEE_GetREETime():
/home/hei/Desktop/optee-qemu/optee_os/lib/libutee/tee_api.c:372
    2bec:	a9bf7bfd 	stp	x29, x30, [sp, #-16]!
/home/hei/Desktop/optee-qemu/optee_os/lib/libutee/tee_api.c:373
    2bf0:	aa0003e1 	mov	x1, x0
    2bf4:	d2800040 	mov	x0, #0x2                   	// #2
/home/hei/Desktop/optee-qemu/optee_os/lib/libutee/tee_api.c:372
    2bf8:	910003fd 	mov	x29, sp
/home/hei/Desktop/optee-qemu/optee_os/lib/libutee/tee_api.c:373
    2bfc:	940000b4 	bl	2ecc <utee_get_time>
/home/hei/Desktop/optee-qemu/optee_os/lib/libutee/tee_api.c:375
    2c00:	34000060 	cbz	w0, 2c0c <TEE_GetREETime+0x20>
/home/hei/Desktop/optee-qemu/optee_os/lib/libutee/tee_api.c:377
    2c04:	a8c17bfd 	ldp	x29, x30, [sp], #16
/home/hei/Desktop/optee-qemu/optee_os/lib/libutee/tee_api.c:376
    2c08:	14000023 	b	2c94 <TEE_Panic>
/home/hei/Desktop/optee-qemu/optee_os/lib/libutee/tee_api.c:377
    2c0c:	a8c17bfd 	ldp	x29, x30, [sp], #16
    2c10:	d65f03c0 	ret

0000000000002c14 <TEE_Malloc>:
TEE_Malloc():
/home/hei/Desktop/optee-qemu/optee_os/lib/libutee/tee_api.c:381
    2c14:	35000081 	cbnz	w1, 2c24 <TEE_Malloc+0x10>
/home/hei/Desktop/optee-qemu/optee_os/lib/libutee/tee_api.c:382
    2c18:	2a0003e1 	mov	w1, w0
    2c1c:	d2800020 	mov	x0, #0x1                   	// #1
    2c20:	17fff98a 	b	1248 <calloc>
/home/hei/Desktop/optee-qemu/optee_os/lib/libutee/tee_api.c:383
    2c24:	52b00002 	mov	w2, #0x80000000            	// #-2147483648
    2c28:	6b02003f 	cmp	w1, w2
    2c2c:	54000061 	b.ne	2c38 <TEE_Malloc+0x24>  // b.any
/home/hei/Desktop/optee-qemu/optee_os/lib/libutee/tee_api.c:384
    2c30:	2a0003e0 	mov	w0, w0
    2c34:	17fff971 	b	11f8 <malloc>
/home/hei/Desktop/optee-qemu/optee_os/lib/libutee/tee_api.c:380
    2c38:	a9bf7bfd 	stp	x29, x30, [sp, #-16]!
    2c3c:	2a0103e5 	mov	w5, w1
/home/hei/Desktop/optee-qemu/optee_os/lib/libutee/tee_api.c:386
    2c40:	52800023 	mov	w3, #0x1                   	// #1
/home/hei/Desktop/optee-qemu/optee_os/lib/libutee/tee_api.c:380
    2c44:	910003fd 	mov	x29, sp
/home/hei/Desktop/optee-qemu/optee_os/lib/libutee/tee_api.c:386
    2c48:	52800022 	mov	w2, #0x1                   	// #1
    2c4c:	52803041 	mov	w1, #0x182                 	// #386
    2c50:	b0000044 	adrp	x4, b000 <__func__.3755+0xec>
    2c54:	90000040 	adrp	x0, a000 <__text_end+0x1324>
    2c58:	91098884 	add	x4, x4, #0x262
    2c5c:	91210c00 	add	x0, x0, #0x843
    2c60:	97fff6fa 	bl	848 <trace_printf>
/home/hei/Desktop/optee-qemu/optee_os/lib/libutee/tee_api.c:389
    2c64:	d2800000 	mov	x0, #0x0                   	// #0
    2c68:	a8c17bfd 	ldp	x29, x30, [sp], #16
    2c6c:	d65f03c0 	ret

0000000000002c70 <TEE_Realloc>:
TEE_Realloc():
/home/hei/Desktop/optee-qemu/optee_os/lib/libutee/tee_api.c:393
    2c70:	2a0103e1 	mov	w1, w1
    2c74:	17fff98e 	b	12ac <realloc>

0000000000002c78 <TEE_Free>:
TEE_Free():
/home/hei/Desktop/optee-qemu/optee_os/lib/libutee/tee_api.c:398
    2c78:	17fff9a1 	b	12fc <free>

0000000000002c7c <TEE_CacheClean>:
TEE_CacheClean():
/home/hei/Desktop/optee-qemu/optee_os/lib/libutee/tee_api.c:404
    2c7c:	d2800002 	mov	x2, #0x0                   	// #0
    2c80:	14000111 	b	30c4 <utee_cache_operation>

0000000000002c84 <TEE_CacheFlush>:
TEE_CacheFlush():
/home/hei/Desktop/optee-qemu/optee_os/lib/libutee/tee_api.c:408
    2c84:	d2800022 	mov	x2, #0x1                   	// #1
    2c88:	1400010f 	b	30c4 <utee_cache_operation>

0000000000002c8c <TEE_CacheInvalidate>:
TEE_CacheInvalidate():
/home/hei/Desktop/optee-qemu/optee_os/lib/libutee/tee_api.c:413
    2c8c:	d2800042 	mov	x2, #0x2                   	// #2
    2c90:	1400010d 	b	30c4 <utee_cache_operation>

0000000000002c94 <TEE_Panic>:
TEE_Panic():
/home/hei/Desktop/optee-qemu/optee_os/lib/libutee/tee_api_panic.c:12
    2c94:	2a0003e0 	mov	w0, w0
    2c98:	14000063 	b	2e24 <utee_panic>

0000000000002c9c <invoke_system_pta>:
invoke_system_pta():
/home/hei/Desktop/optee-qemu/optee_os/lib/libutee/tee_system_pta.c:15
    2c9c:	a9bd7bfd 	stp	x29, x30, [sp, #-48]!
    2ca0:	910003fd 	mov	x29, sp
    2ca4:	a90153f3 	stp	x19, x20, [sp, #16]
    2ca8:	2a0003f4 	mov	w20, w0
/home/hei/Desktop/optee-qemu/optee_os/lib/libutee/tee_system_pta.c:19
    2cac:	d0000040 	adrp	x0, c000 <_DYNAMIC>
/home/hei/Desktop/optee-qemu/optee_os/lib/libutee/tee_system_pta.c:15
    2cb0:	a9025bf5 	stp	x21, x22, [sp, #32]
    2cb4:	2a0103f5 	mov	w21, w1
    2cb8:	aa0203f6 	mov	x22, x2
/home/hei/Desktop/optee-qemu/optee_os/lib/libutee/tee_system_pta.c:19
    2cbc:	f9423c01 	ldr	x1, [x0, #1144]
    2cc0:	aa0003f3 	mov	x19, x0
    2cc4:	b4000161 	cbz	x1, 2cf0 <invoke_system_pta+0x54>
/home/hei/Desktop/optee-qemu/optee_os/lib/libutee/tee_system_pta.c:27
    2cc8:	aa1603e4 	mov	x4, x22
    2ccc:	2a1503e3 	mov	w3, w21
    2cd0:	2a1403e2 	mov	w2, w20
    2cd4:	d2800005 	mov	x5, #0x0                   	// #0
    2cd8:	f9423e60 	ldr	x0, [x19, #1144]
    2cdc:	12800001 	mov	w1, #0xffffffff            	// #-1
/home/hei/Desktop/optee-qemu/optee_os/lib/libutee/tee_system_pta.c:29
    2ce0:	a94153f3 	ldp	x19, x20, [sp, #16]
    2ce4:	a9425bf5 	ldp	x21, x22, [sp, #32]
    2ce8:	a8c37bfd 	ldp	x29, x30, [sp], #48
/home/hei/Desktop/optee-qemu/optee_os/lib/libutee/tee_system_pta.c:27
    2cec:	17fffef5 	b	28c0 <TEE_InvokeTACommand>
    2cf0:	9111e004 	add	x4, x0, #0x478
/home/hei/Desktop/optee-qemu/optee_os/lib/libutee/tee_system_pta.c:20
    2cf4:	d2800005 	mov	x5, #0x0                   	// #0
    2cf8:	90000040 	adrp	x0, a000 <__text_end+0x1324>
    2cfc:	d2800003 	mov	x3, #0x0                   	// #0
    2d00:	52800002 	mov	w2, #0x0                   	// #0
    2d04:	12800001 	mov	w1, #0xffffffff            	// #-1
    2d08:	91214000 	add	x0, x0, #0x850
    2d0c:	97ffff2e 	bl	29c4 <TEE_OpenTASession>
/home/hei/Desktop/optee-qemu/optee_os/lib/libutee/tee_system_pta.c:23
    2d10:	34fffdc0 	cbz	w0, 2cc8 <invoke_system_pta+0x2c>
/home/hei/Desktop/optee-qemu/optee_os/lib/libutee/tee_system_pta.c:29
    2d14:	a94153f3 	ldp	x19, x20, [sp, #16]
    2d18:	a9425bf5 	ldp	x21, x22, [sp, #32]
    2d1c:	a8c37bfd 	ldp	x29, x30, [sp], #48
    2d20:	d65f03c0 	ret

0000000000002d24 <tee_map_zi>:
tee_map_zi():
/home/hei/Desktop/optee-qemu/optee_os/lib/libutee/tee_system_pta.c:32
    2d24:	a9ba7bfd 	stp	x29, x30, [sp, #-96]!
/home/hei/Desktop/optee-qemu/optee_os/lib/libutee/tee_system_pta.c:37
    2d28:	d2800782 	mov	x2, #0x3c                  	// #60
/home/hei/Desktop/optee-qemu/optee_os/lib/libutee/tee_system_pta.c:32
    2d2c:	910003fd 	mov	x29, sp
    2d30:	a90153f3 	stp	x19, x20, [sp, #16]
    2d34:	aa0003f4 	mov	x20, x0
    2d38:	2a0103f3 	mov	w19, w1
/home/hei/Desktop/optee-qemu/optee_os/lib/libutee/tee_system_pta.c:37
    2d3c:	910093e0 	add	x0, sp, #0x24
    2d40:	52800001 	mov	w1, #0x0                   	// #0
    2d44:	97fffa49 	bl	1668 <memset>
/home/hei/Desktop/optee-qemu/optee_os/lib/libutee/tee_system_pta.c:40
    2d48:	b90023f4 	str	w20, [sp, #32]
/home/hei/Desktop/optee-qemu/optee_os/lib/libutee/tee_system_pta.c:41
    2d4c:	f2607e9f 	tst	x20, #0xffffffff00000000
    2d50:	54000060 	b.eq	2d5c <tee_map_zi+0x38>  // b.none
/home/hei/Desktop/optee-qemu/optee_os/lib/libutee/tee_system_pta.c:50
    2d54:	d2800000 	mov	x0, #0x0                   	// #0
    2d58:	1400000d 	b	2d8c <tee_map_zi+0x68>
/home/hei/Desktop/optee-qemu/optee_os/lib/libutee/tee_system_pta.c:43
    2d5c:	340000b3 	cbz	w19, 2d70 <tee_map_zi+0x4c>
    2d60:	7100127f 	cmp	w19, #0x4
    2d64:	54ffff81 	b.ne	2d54 <tee_map_zi+0x30>  // b.any
/home/hei/Desktop/optee-qemu/optee_os/lib/libutee/tee_system_pta.c:47
    2d68:	52800020 	mov	w0, #0x1                   	// #1
    2d6c:	b90027e0 	str	w0, [sp, #36]
/home/hei/Desktop/optee-qemu/optee_os/lib/libutee/tee_system_pta.c:53
    2d70:	910083e2 	add	x2, sp, #0x20
    2d74:	52802621 	mov	w1, #0x131                 	// #305
    2d78:	52800040 	mov	w0, #0x2                   	// #2
    2d7c:	97ffffc8 	bl	2c9c <invoke_system_pta>
/home/hei/Desktop/optee-qemu/optee_os/lib/libutee/tee_system_pta.c:54
    2d80:	35fffea0 	cbnz	w0, 2d54 <tee_map_zi+0x30>
reg_pair_to_64():
/home/hei/Desktop/optee-qemu/optee_os/lib/libutils/ext/include/util.h:139
    2d84:	294607e0 	ldp	w0, w1, [sp, #48]
    2d88:	aa008020 	orr	x0, x1, x0, lsl #32
tee_map_zi():
/home/hei/Desktop/optee-qemu/optee_os/lib/libutee/tee_system_pta.c:59
    2d8c:	a94153f3 	ldp	x19, x20, [sp, #16]
    2d90:	a8c67bfd 	ldp	x29, x30, [sp], #96
    2d94:	d65f03c0 	ret

0000000000002d98 <tee_unmap>:
tee_unmap():
/home/hei/Desktop/optee-qemu/optee_os/lib/libutee/tee_system_pta.c:62
    2d98:	a9b97bfd 	stp	x29, x30, [sp, #-112]!
/home/hei/Desktop/optee-qemu/optee_os/lib/libutee/tee_system_pta.c:68
    2d9c:	d2800782 	mov	x2, #0x3c                  	// #60
/home/hei/Desktop/optee-qemu/optee_os/lib/libutee/tee_system_pta.c:62
    2da0:	910003fd 	mov	x29, sp
    2da4:	a90153f3 	stp	x19, x20, [sp, #16]
    2da8:	aa0003f3 	mov	x19, x0
/home/hei/Desktop/optee-qemu/optee_os/lib/libutee/tee_system_pta.c:68
    2dac:	9100d3e0 	add	x0, sp, #0x34
/home/hei/Desktop/optee-qemu/optee_os/lib/libutee/tee_system_pta.c:62
    2db0:	f90013f5 	str	x21, [sp, #32]
    2db4:	aa0103f5 	mov	x21, x1
/home/hei/Desktop/optee-qemu/optee_os/lib/libutee/tee_system_pta.c:68
    2db8:	52800001 	mov	w1, #0x0                   	// #0
    2dbc:	97fffa2b 	bl	1668 <memset>
reg_pair_from_64():
/home/hei/Desktop/optee-qemu/optee_os/lib/libutils/ext/include/util.h:145
    2dc0:	d360fe60 	lsr	x0, x19, #32
tee_unmap():
/home/hei/Desktop/optee-qemu/optee_os/lib/libutee/tee_system_pta.c:73
    2dc4:	9100c3e2 	add	x2, sp, #0x30
    2dc8:	52800221 	mov	w1, #0x11                  	// #17
/home/hei/Desktop/optee-qemu/optee_os/lib/libutee/tee_system_pta.c:70
    2dcc:	b90033f5 	str	w21, [sp, #48]
reg_pair_from_64():
/home/hei/Desktop/optee-qemu/optee_os/lib/libutils/ext/include/util.h:146
    2dd0:	29084fe0 	stp	w0, w19, [sp, #64]
tee_unmap():
/home/hei/Desktop/optee-qemu/optee_os/lib/libutee/tee_system_pta.c:73
    2dd4:	52800060 	mov	w0, #0x3                   	// #3
    2dd8:	97ffffb1 	bl	2c9c <invoke_system_pta>
    2ddc:	2a0003f4 	mov	w20, w0
/home/hei/Desktop/optee-qemu/optee_os/lib/libutee/tee_system_pta.c:74
    2de0:	34000180 	cbz	w0, 2e10 <tee_unmap+0x78>
/home/hei/Desktop/optee-qemu/optee_os/lib/libutee/tee_system_pta.c:75
    2de4:	90000040 	adrp	x0, a000 <__text_end+0x1324>
    2de8:	91214000 	add	x0, x0, #0x850
    2dec:	b0000044 	adrp	x4, b000 <__func__.3755+0xec>
    2df0:	aa1503e6 	mov	x6, x21
    2df4:	aa1303e5 	mov	x5, x19
    2df8:	9109cc84 	add	x4, x4, #0x273
    2dfc:	52800023 	mov	w3, #0x1                   	// #1
    2e00:	52800022 	mov	w2, #0x1                   	// #1
    2e04:	52800961 	mov	w1, #0x4b                  	// #75
    2e08:	91004000 	add	x0, x0, #0x10
    2e0c:	97fff68f 	bl	848 <trace_printf>
/home/hei/Desktop/optee-qemu/optee_os/lib/libutee/tee_system_pta.c:78
    2e10:	2a1403e0 	mov	w0, w20
    2e14:	a94153f3 	ldp	x19, x20, [sp, #16]
    2e18:	f94013f5 	ldr	x21, [sp, #32]
    2e1c:	a8c77bfd 	ldp	x29, x30, [sp], #112
    2e20:	d65f03c0 	ret

0000000000002e24 <utee_panic>:
utee_panic():
/home/hei/Desktop/optee-qemu/optee_os/lib/libutee/arch/arm/utee_syscalls_a64.S:41
    2e24:	a9bf7bfd 	stp	x29, x30, [sp, #-16]!
/home/hei/Desktop/optee-qemu/optee_os/lib/libutee/arch/arm/utee_syscalls_a64.S:42
    2e28:	910003e1 	mov	x1, sp
/home/hei/Desktop/optee-qemu/optee_os/lib/libutee/arch/arm/utee_syscalls_a64.S:43
    2e2c:	94000007 	bl	2e48 <__utee_panic>

0000000000002e30 <utee_return>:
utee_return():
/home/hei/Desktop/optee-qemu/optee_os/lib/libutee/arch/arm/utee_syscalls_asm.S:8
    2e30:	d2800008 	mov	x8, #0x0                   	// #0
    2e34:	d4000001 	svc	#0x0
    2e38:	d65f03c0 	ret

0000000000002e3c <utee_log>:
utee_log():
/home/hei/Desktop/optee-qemu/optee_os/lib/libutee/arch/arm/utee_syscalls_asm.S:10
    2e3c:	d2800028 	mov	x8, #0x1                   	// #1
    2e40:	d4000001 	svc	#0x0
    2e44:	d65f03c0 	ret

0000000000002e48 <__utee_panic>:
__utee_panic():
/home/hei/Desktop/optee-qemu/optee_os/lib/libutee/arch/arm/utee_syscalls_asm.S:12
    2e48:	d2800048 	mov	x8, #0x2                   	// #2
    2e4c:	d4000001 	svc	#0x0
    2e50:	d65f03c0 	ret

0000000000002e54 <utee_get_property>:
utee_get_property():
/home/hei/Desktop/optee-qemu/optee_os/lib/libutee/arch/arm/utee_syscalls_asm.S:14
    2e54:	d2800068 	mov	x8, #0x3                   	// #3
    2e58:	d4000001 	svc	#0x0
    2e5c:	d65f03c0 	ret

0000000000002e60 <utee_get_property_name_to_index>:
utee_get_property_name_to_index():
/home/hei/Desktop/optee-qemu/optee_os/lib/libutee/arch/arm/utee_syscalls_asm.S:16
    2e60:	d2800088 	mov	x8, #0x4                   	// #4
    2e64:	d4000001 	svc	#0x0
    2e68:	d65f03c0 	ret

0000000000002e6c <utee_open_ta_session>:
utee_open_ta_session():
/home/hei/Desktop/optee-qemu/optee_os/lib/libutee/arch/arm/utee_syscalls_asm.S:19
    2e6c:	d28000a8 	mov	x8, #0x5                   	// #5
    2e70:	d4000001 	svc	#0x0
    2e74:	d65f03c0 	ret

0000000000002e78 <utee_close_ta_session>:
utee_close_ta_session():
/home/hei/Desktop/optee-qemu/optee_os/lib/libutee/arch/arm/utee_syscalls_asm.S:21
    2e78:	d28000c8 	mov	x8, #0x6                   	// #6
    2e7c:	d4000001 	svc	#0x0
    2e80:	d65f03c0 	ret

0000000000002e84 <utee_invoke_ta_command>:
utee_invoke_ta_command():
/home/hei/Desktop/optee-qemu/optee_os/lib/libutee/arch/arm/utee_syscalls_asm.S:23
    2e84:	d28000e8 	mov	x8, #0x7                   	// #7
    2e88:	d4000001 	svc	#0x0
    2e8c:	d65f03c0 	ret

0000000000002e90 <utee_get_cancellation_flag>:
utee_get_cancellation_flag():
/home/hei/Desktop/optee-qemu/optee_os/lib/libutee/arch/arm/utee_syscalls_asm.S:25
    2e90:	d2800128 	mov	x8, #0x9                   	// #9
    2e94:	d4000001 	svc	#0x0
    2e98:	d65f03c0 	ret

0000000000002e9c <utee_check_access_rights>:
utee_check_access_rights():
/home/hei/Desktop/optee-qemu/optee_os/lib/libutee/arch/arm/utee_syscalls_asm.S:28
    2e9c:	d2800108 	mov	x8, #0x8                   	// #8
    2ea0:	d4000001 	svc	#0x0
    2ea4:	d65f03c0 	ret

0000000000002ea8 <utee_unmask_cancellation>:
utee_unmask_cancellation():
/home/hei/Desktop/optee-qemu/optee_os/lib/libutee/arch/arm/utee_syscalls_asm.S:30
    2ea8:	d2800148 	mov	x8, #0xa                   	// #10
    2eac:	d4000001 	svc	#0x0
    2eb0:	d65f03c0 	ret

0000000000002eb4 <utee_mask_cancellation>:
utee_mask_cancellation():
/home/hei/Desktop/optee-qemu/optee_os/lib/libutee/arch/arm/utee_syscalls_asm.S:32
    2eb4:	d2800168 	mov	x8, #0xb                   	// #11
    2eb8:	d4000001 	svc	#0x0
    2ebc:	d65f03c0 	ret

0000000000002ec0 <utee_wait>:
utee_wait():
/home/hei/Desktop/optee-qemu/optee_os/lib/libutee/arch/arm/utee_syscalls_asm.S:34
    2ec0:	d2800188 	mov	x8, #0xc                   	// #12
    2ec4:	d4000001 	svc	#0x0
    2ec8:	d65f03c0 	ret

0000000000002ecc <utee_get_time>:
utee_get_time():
/home/hei/Desktop/optee-qemu/optee_os/lib/libutee/arch/arm/utee_syscalls_asm.S:36
    2ecc:	d28001a8 	mov	x8, #0xd                   	// #13
    2ed0:	d4000001 	svc	#0x0
    2ed4:	d65f03c0 	ret

0000000000002ed8 <utee_set_ta_time>:
utee_set_ta_time():
/home/hei/Desktop/optee-qemu/optee_os/lib/libutee/arch/arm/utee_syscalls_asm.S:38
    2ed8:	d28001c8 	mov	x8, #0xe                   	// #14
    2edc:	d4000001 	svc	#0x0
    2ee0:	d65f03c0 	ret

0000000000002ee4 <utee_cryp_state_alloc>:
utee_cryp_state_alloc():
/home/hei/Desktop/optee-qemu/optee_os/lib/libutee/arch/arm/utee_syscalls_asm.S:40
    2ee4:	d28001e8 	mov	x8, #0xf                   	// #15
    2ee8:	d4000001 	svc	#0x0
    2eec:	d65f03c0 	ret

0000000000002ef0 <utee_cryp_state_copy>:
utee_cryp_state_copy():
/home/hei/Desktop/optee-qemu/optee_os/lib/libutee/arch/arm/utee_syscalls_asm.S:42
    2ef0:	d2800208 	mov	x8, #0x10                  	// #16
    2ef4:	d4000001 	svc	#0x0
    2ef8:	d65f03c0 	ret

0000000000002efc <utee_cryp_state_free>:
utee_cryp_state_free():
/home/hei/Desktop/optee-qemu/optee_os/lib/libutee/arch/arm/utee_syscalls_asm.S:44
    2efc:	d2800228 	mov	x8, #0x11                  	// #17
    2f00:	d4000001 	svc	#0x0
    2f04:	d65f03c0 	ret

0000000000002f08 <utee_hash_init>:
utee_hash_init():
/home/hei/Desktop/optee-qemu/optee_os/lib/libutee/arch/arm/utee_syscalls_asm.S:46
    2f08:	d2800248 	mov	x8, #0x12                  	// #18
    2f0c:	d4000001 	svc	#0x0
    2f10:	d65f03c0 	ret

0000000000002f14 <utee_hash_update>:
utee_hash_update():
/home/hei/Desktop/optee-qemu/optee_os/lib/libutee/arch/arm/utee_syscalls_asm.S:48
    2f14:	d2800268 	mov	x8, #0x13                  	// #19
    2f18:	d4000001 	svc	#0x0
    2f1c:	d65f03c0 	ret

0000000000002f20 <utee_hash_final>:
utee_hash_final():
/home/hei/Desktop/optee-qemu/optee_os/lib/libutee/arch/arm/utee_syscalls_asm.S:50
    2f20:	d2800288 	mov	x8, #0x14                  	// #20
    2f24:	d4000001 	svc	#0x0
    2f28:	d65f03c0 	ret

0000000000002f2c <utee_cipher_init>:
utee_cipher_init():
/home/hei/Desktop/optee-qemu/optee_os/lib/libutee/arch/arm/utee_syscalls_asm.S:52
    2f2c:	d28002a8 	mov	x8, #0x15                  	// #21
    2f30:	d4000001 	svc	#0x0
    2f34:	d65f03c0 	ret

0000000000002f38 <utee_cipher_update>:
utee_cipher_update():
/home/hei/Desktop/optee-qemu/optee_os/lib/libutee/arch/arm/utee_syscalls_asm.S:54
    2f38:	d28002c8 	mov	x8, #0x16                  	// #22
    2f3c:	d4000001 	svc	#0x0
    2f40:	d65f03c0 	ret

0000000000002f44 <utee_cipher_final>:
utee_cipher_final():
/home/hei/Desktop/optee-qemu/optee_os/lib/libutee/arch/arm/utee_syscalls_asm.S:56
    2f44:	d28002e8 	mov	x8, #0x17                  	// #23
    2f48:	d4000001 	svc	#0x0
    2f4c:	d65f03c0 	ret

0000000000002f50 <utee_cryp_obj_get_info>:
utee_cryp_obj_get_info():
/home/hei/Desktop/optee-qemu/optee_os/lib/libutee/arch/arm/utee_syscalls_asm.S:58
    2f50:	d2800308 	mov	x8, #0x18                  	// #24
    2f54:	d4000001 	svc	#0x0
    2f58:	d65f03c0 	ret

0000000000002f5c <utee_cryp_obj_restrict_usage>:
utee_cryp_obj_restrict_usage():
/home/hei/Desktop/optee-qemu/optee_os/lib/libutee/arch/arm/utee_syscalls_asm.S:60
    2f5c:	d2800328 	mov	x8, #0x19                  	// #25
    2f60:	d4000001 	svc	#0x0
    2f64:	d65f03c0 	ret

0000000000002f68 <utee_cryp_obj_get_attr>:
utee_cryp_obj_get_attr():
/home/hei/Desktop/optee-qemu/optee_os/lib/libutee/arch/arm/utee_syscalls_asm.S:63
    2f68:	d2800348 	mov	x8, #0x1a                  	// #26
    2f6c:	d4000001 	svc	#0x0
    2f70:	d65f03c0 	ret

0000000000002f74 <utee_cryp_obj_alloc>:
utee_cryp_obj_alloc():
/home/hei/Desktop/optee-qemu/optee_os/lib/libutee/arch/arm/utee_syscalls_asm.S:65
    2f74:	d2800368 	mov	x8, #0x1b                  	// #27
    2f78:	d4000001 	svc	#0x0
    2f7c:	d65f03c0 	ret

0000000000002f80 <utee_cryp_obj_close>:
utee_cryp_obj_close():
/home/hei/Desktop/optee-qemu/optee_os/lib/libutee/arch/arm/utee_syscalls_asm.S:67
    2f80:	d2800388 	mov	x8, #0x1c                  	// #28
    2f84:	d4000001 	svc	#0x0
    2f88:	d65f03c0 	ret

0000000000002f8c <utee_cryp_obj_reset>:
utee_cryp_obj_reset():
/home/hei/Desktop/optee-qemu/optee_os/lib/libutee/arch/arm/utee_syscalls_asm.S:69
    2f8c:	d28003a8 	mov	x8, #0x1d                  	// #29
    2f90:	d4000001 	svc	#0x0
    2f94:	d65f03c0 	ret

0000000000002f98 <utee_cryp_obj_populate>:
utee_cryp_obj_populate():
/home/hei/Desktop/optee-qemu/optee_os/lib/libutee/arch/arm/utee_syscalls_asm.S:71
    2f98:	d28003c8 	mov	x8, #0x1e                  	// #30
    2f9c:	d4000001 	svc	#0x0
    2fa0:	d65f03c0 	ret

0000000000002fa4 <utee_cryp_obj_copy>:
utee_cryp_obj_copy():
/home/hei/Desktop/optee-qemu/optee_os/lib/libutee/arch/arm/utee_syscalls_asm.S:73
    2fa4:	d28003e8 	mov	x8, #0x1f                  	// #31
    2fa8:	d4000001 	svc	#0x0
    2fac:	d65f03c0 	ret

0000000000002fb0 <utee_cryp_derive_key>:
utee_cryp_derive_key():
/home/hei/Desktop/optee-qemu/optee_os/lib/libutee/arch/arm/utee_syscalls_asm.S:75
    2fb0:	d2800408 	mov	x8, #0x20                  	// #32
    2fb4:	d4000001 	svc	#0x0
    2fb8:	d65f03c0 	ret

0000000000002fbc <utee_cryp_random_number_generate>:
utee_cryp_random_number_generate():
/home/hei/Desktop/optee-qemu/optee_os/lib/libutee/arch/arm/utee_syscalls_asm.S:77
    2fbc:	d2800428 	mov	x8, #0x21                  	// #33
    2fc0:	d4000001 	svc	#0x0
    2fc4:	d65f03c0 	ret

0000000000002fc8 <utee_authenc_init>:
utee_authenc_init():
/home/hei/Desktop/optee-qemu/optee_os/lib/libutee/arch/arm/utee_syscalls_asm.S:80
    2fc8:	d2800448 	mov	x8, #0x22                  	// #34
    2fcc:	d4000001 	svc	#0x0
    2fd0:	d65f03c0 	ret

0000000000002fd4 <utee_authenc_update_aad>:
utee_authenc_update_aad():
/home/hei/Desktop/optee-qemu/optee_os/lib/libutee/arch/arm/utee_syscalls_asm.S:82
    2fd4:	d2800468 	mov	x8, #0x23                  	// #35
    2fd8:	d4000001 	svc	#0x0
    2fdc:	d65f03c0 	ret

0000000000002fe0 <utee_authenc_update_payload>:
utee_authenc_update_payload():
/home/hei/Desktop/optee-qemu/optee_os/lib/libutee/arch/arm/utee_syscalls_asm.S:84
    2fe0:	d2800488 	mov	x8, #0x24                  	// #36
    2fe4:	d4000001 	svc	#0x0
    2fe8:	d65f03c0 	ret

0000000000002fec <utee_authenc_enc_final>:
utee_authenc_enc_final():
/home/hei/Desktop/optee-qemu/optee_os/lib/libutee/arch/arm/utee_syscalls_asm.S:87
    2fec:	d28004a8 	mov	x8, #0x25                  	// #37
    2ff0:	d4000001 	svc	#0x0
    2ff4:	d65f03c0 	ret

0000000000002ff8 <utee_authenc_dec_final>:
utee_authenc_dec_final():
/home/hei/Desktop/optee-qemu/optee_os/lib/libutee/arch/arm/utee_syscalls_asm.S:89
    2ff8:	d28004c8 	mov	x8, #0x26                  	// #38
    2ffc:	d4000001 	svc	#0x0
    3000:	d65f03c0 	ret

0000000000003004 <utee_asymm_operate>:
utee_asymm_operate():
/home/hei/Desktop/optee-qemu/optee_os/lib/libutee/arch/arm/utee_syscalls_asm.S:91
    3004:	d28004e8 	mov	x8, #0x27                  	// #39
    3008:	d4000001 	svc	#0x0
    300c:	d65f03c0 	ret

0000000000003010 <utee_asymm_verify>:
utee_asymm_verify():
/home/hei/Desktop/optee-qemu/optee_os/lib/libutee/arch/arm/utee_syscalls_asm.S:93
    3010:	d2800508 	mov	x8, #0x28                  	// #40
    3014:	d4000001 	svc	#0x0
    3018:	d65f03c0 	ret

000000000000301c <utee_storage_obj_open>:
utee_storage_obj_open():
/home/hei/Desktop/optee-qemu/optee_os/lib/libutee/arch/arm/utee_syscalls_asm.S:95
    301c:	d2800528 	mov	x8, #0x29                  	// #41
    3020:	d4000001 	svc	#0x0
    3024:	d65f03c0 	ret

0000000000003028 <utee_storage_obj_create>:
utee_storage_obj_create():
/home/hei/Desktop/optee-qemu/optee_os/lib/libutee/arch/arm/utee_syscalls_asm.S:97
    3028:	d2800548 	mov	x8, #0x2a                  	// #42
    302c:	d4000001 	svc	#0x0
    3030:	d65f03c0 	ret

0000000000003034 <utee_storage_obj_del>:
utee_storage_obj_del():
/home/hei/Desktop/optee-qemu/optee_os/lib/libutee/arch/arm/utee_syscalls_asm.S:99
    3034:	d2800568 	mov	x8, #0x2b                  	// #43
    3038:	d4000001 	svc	#0x0
    303c:	d65f03c0 	ret

0000000000003040 <utee_storage_obj_rename>:
utee_storage_obj_rename():
/home/hei/Desktop/optee-qemu/optee_os/lib/libutee/arch/arm/utee_syscalls_asm.S:101
    3040:	d2800588 	mov	x8, #0x2c                  	// #44
    3044:	d4000001 	svc	#0x0
    3048:	d65f03c0 	ret

000000000000304c <utee_storage_alloc_enum>:
utee_storage_alloc_enum():
/home/hei/Desktop/optee-qemu/optee_os/lib/libutee/arch/arm/utee_syscalls_asm.S:103
    304c:	d28005a8 	mov	x8, #0x2d                  	// #45
    3050:	d4000001 	svc	#0x0
    3054:	d65f03c0 	ret

0000000000003058 <utee_storage_free_enum>:
utee_storage_free_enum():
/home/hei/Desktop/optee-qemu/optee_os/lib/libutee/arch/arm/utee_syscalls_asm.S:105
    3058:	d28005c8 	mov	x8, #0x2e                  	// #46
    305c:	d4000001 	svc	#0x0
    3060:	d65f03c0 	ret

0000000000003064 <utee_storage_reset_enum>:
utee_storage_reset_enum():
/home/hei/Desktop/optee-qemu/optee_os/lib/libutee/arch/arm/utee_syscalls_asm.S:107
    3064:	d28005e8 	mov	x8, #0x2f                  	// #47
    3068:	d4000001 	svc	#0x0
    306c:	d65f03c0 	ret

0000000000003070 <utee_storage_start_enum>:
utee_storage_start_enum():
/home/hei/Desktop/optee-qemu/optee_os/lib/libutee/arch/arm/utee_syscalls_asm.S:109
    3070:	d2800608 	mov	x8, #0x30                  	// #48
    3074:	d4000001 	svc	#0x0
    3078:	d65f03c0 	ret

000000000000307c <utee_storage_next_enum>:
utee_storage_next_enum():
/home/hei/Desktop/optee-qemu/optee_os/lib/libutee/arch/arm/utee_syscalls_asm.S:111
    307c:	d2800628 	mov	x8, #0x31                  	// #49
    3080:	d4000001 	svc	#0x0
    3084:	d65f03c0 	ret

0000000000003088 <utee_storage_obj_read>:
utee_storage_obj_read():
/home/hei/Desktop/optee-qemu/optee_os/lib/libutee/arch/arm/utee_syscalls_asm.S:113
    3088:	d2800648 	mov	x8, #0x32                  	// #50
    308c:	d4000001 	svc	#0x0
    3090:	d65f03c0 	ret

0000000000003094 <utee_storage_obj_write>:
utee_storage_obj_write():
/home/hei/Desktop/optee-qemu/optee_os/lib/libutee/arch/arm/utee_syscalls_asm.S:115
    3094:	d2800668 	mov	x8, #0x33                  	// #51
    3098:	d4000001 	svc	#0x0
    309c:	d65f03c0 	ret

00000000000030a0 <utee_storage_obj_trunc>:
utee_storage_obj_trunc():
/home/hei/Desktop/optee-qemu/optee_os/lib/libutee/arch/arm/utee_syscalls_asm.S:117
    30a0:	d2800688 	mov	x8, #0x34                  	// #52
    30a4:	d4000001 	svc	#0x0
    30a8:	d65f03c0 	ret

00000000000030ac <utee_storage_obj_seek>:
utee_storage_obj_seek():
/home/hei/Desktop/optee-qemu/optee_os/lib/libutee/arch/arm/utee_syscalls_asm.S:119
    30ac:	d28006a8 	mov	x8, #0x35                  	// #53
    30b0:	d4000001 	svc	#0x0
    30b4:	d65f03c0 	ret

00000000000030b8 <utee_cryp_obj_generate_key>:
utee_cryp_obj_generate_key():
/home/hei/Desktop/optee-qemu/optee_os/lib/libutee/arch/arm/utee_syscalls_asm.S:121
    30b8:	d28006c8 	mov	x8, #0x36                  	// #54
    30bc:	d4000001 	svc	#0x0
    30c0:	d65f03c0 	ret

00000000000030c4 <utee_cache_operation>:
utee_cache_operation():
/home/hei/Desktop/optee-qemu/optee_os/lib/libutee/arch/arm/utee_syscalls_asm.S:124
    30c4:	d28008c8 	mov	x8, #0x46                  	// #70
    30c8:	d4000001 	svc	#0x0
    30cc:	d65f03c0 	ret

00000000000030d0 <ta_header_get_session>:
ta_header_get_session():
/home/hei/Desktop/optee-qemu/optee_os/lib/libutee/arch/arm/user_ta_entry.c:65
    30d0:	2a0003e1 	mov	w1, w0
/home/hei/Desktop/optee-qemu/optee_os/lib/libutee/arch/arm/user_ta_entry.c:68
    30d4:	b0000040 	adrp	x0, c000 <_DYNAMIC>
    30d8:	f9422800 	ldr	x0, [x0, #1104]
/home/hei/Desktop/optee-qemu/optee_os/lib/libutee/arch/arm/user_ta_entry.c:68 (discriminator 1)
    30dc:	b5000040 	cbnz	x0, 30e4 <ta_header_get_session+0x14>
/home/hei/Desktop/optee-qemu/optee_os/lib/libutee/arch/arm/user_ta_entry.c:73
    30e0:	d65f03c0 	ret
/home/hei/Desktop/optee-qemu/optee_os/lib/libutee/arch/arm/user_ta_entry.c:69
    30e4:	b9400002 	ldr	w2, [x0]
    30e8:	6b01005f 	cmp	w2, w1
    30ec:	54ffffa0 	b.eq	30e0 <ta_header_get_session+0x10>  // b.none
/home/hei/Desktop/optee-qemu/optee_os/lib/libutee/arch/arm/user_ta_entry.c:68 (discriminator 2)
    30f0:	f9400800 	ldr	x0, [x0, #16]
    30f4:	17fffffa 	b	30dc <ta_header_get_session+0xc>

00000000000030f8 <to_utee_params>:
to_utee_params():
/home/hei/Desktop/optee-qemu/optee_os/lib/libutee/arch/arm/user_ta_entry.c:129
    30f8:	f0000025 	adrp	x5, a000 <__text_end+0x1324>
    30fc:	9121b0a5 	add	x5, x5, #0x86c
/home/hei/Desktop/optee-qemu/optee_os/lib/libutee/arch/arm/user_ta_entry.c:127
    3100:	2a0103e3 	mov	w3, w1
    3104:	52800004 	mov	w4, #0x0                   	// #0
    3108:	f8008403 	str	x3, [x0], #8
/home/hei/Desktop/optee-qemu/optee_os/lib/libutee/arch/arm/user_ta_entry.c:129
    310c:	1ac42423 	lsr	w3, w1, w4
    3110:	12000c63 	and	w3, w3, #0xf
    3114:	51000463 	sub	w3, w3, #0x1
    3118:	7100187f 	cmp	w3, #0x6
    311c:	54000268 	b.hi	3168 <to_utee_params+0x70>  // b.pmore
    3120:	386348a3 	ldrb	w3, [x5, w3, uxtw]
    3124:	10000066 	adr	x6, 3130 <to_utee_params+0x38>
    3128:	8b2388c3 	add	x3, x6, w3, sxtb #2
    312c:	d61f0060 	br	x3
/home/hei/Desktop/optee-qemu/optee_os/lib/libutee/arch/arm/user_ta_entry.c:133
    3130:	b9400043 	ldr	w3, [x2]
    3134:	f9000003 	str	x3, [x0]
/home/hei/Desktop/optee-qemu/optee_os/lib/libutee/arch/arm/user_ta_entry.c:134
    3138:	b9400443 	ldr	w3, [x2, #4]
/home/hei/Desktop/optee-qemu/optee_os/lib/libutee/arch/arm/user_ta_entry.c:140
    313c:	f9000403 	str	x3, [x0, #8]
/home/hei/Desktop/optee-qemu/optee_os/lib/libutee/arch/arm/user_ta_entry.c:141
    3140:	11001084 	add	w4, w4, #0x4
    3144:	91004042 	add	x2, x2, #0x10
    3148:	91004000 	add	x0, x0, #0x10
/home/hei/Desktop/optee-qemu/optee_os/lib/libutee/arch/arm/user_ta_entry.c:128 (discriminator 2)
    314c:	7100409f 	cmp	w4, #0x10
    3150:	54fffde1 	b.ne	310c <to_utee_params+0x14>  // b.any
/home/hei/Desktop/optee-qemu/optee_os/lib/libutee/arch/arm/user_ta_entry.c:148
    3154:	d65f03c0 	ret
/home/hei/Desktop/optee-qemu/optee_os/lib/libutee/arch/arm/user_ta_entry.c:139
    3158:	f9400043 	ldr	x3, [x2]
    315c:	f9000003 	str	x3, [x0]
/home/hei/Desktop/optee-qemu/optee_os/lib/libutee/arch/arm/user_ta_entry.c:140
    3160:	b9400843 	ldr	w3, [x2, #8]
    3164:	17fffff6 	b	313c <to_utee_params+0x44>
/home/hei/Desktop/optee-qemu/optee_os/lib/libutee/arch/arm/user_ta_entry.c:144
    3168:	a9007c1f 	stp	xzr, xzr, [x0]
/home/hei/Desktop/optee-qemu/optee_os/lib/libutee/arch/arm/user_ta_entry.c:145
    316c:	17fffff5 	b	3140 <to_utee_params+0x48>

0000000000003170 <from_utee_params>:
from_utee_params():
/home/hei/Desktop/optee-qemu/optee_os/lib/libutee/arch/arm/user_ta_entry.c:155
    3170:	f8408446 	ldr	x6, [x2], #8
/home/hei/Desktop/optee-qemu/optee_os/lib/libutee/arch/arm/user_ta_entry.c:161
    3174:	f0000025 	adrp	x5, a000 <__text_end+0x1324>
    3178:	9121d0a5 	add	x5, x5, #0x874
/home/hei/Desktop/optee-qemu/optee_os/lib/libutee/arch/arm/user_ta_entry.c:155
    317c:	52800004 	mov	w4, #0x0                   	// #0
    3180:	2a0603e9 	mov	w9, w6
/home/hei/Desktop/optee-qemu/optee_os/lib/libutee/arch/arm/user_ta_entry.c:161
    3184:	1ac42523 	lsr	w3, w9, w4
    3188:	12000c63 	and	w3, w3, #0xf
    318c:	51000463 	sub	w3, w3, #0x1
    3190:	7100187f 	cmp	w3, #0x6
/home/hei/Desktop/optee-qemu/optee_os/lib/libutee/arch/arm/user_ta_entry.c:159
    3194:	a9401c48 	ldp	x8, x7, [x2]
/home/hei/Desktop/optee-qemu/optee_os/lib/libutee/arch/arm/user_ta_entry.c:161
    3198:	540000c8 	b.hi	31b0 <from_utee_params+0x40>  // b.pmore
    319c:	386348a3 	ldrb	w3, [x5, w3, uxtw]
    31a0:	1000006a 	adr	x10, 31ac <from_utee_params+0x3c>
    31a4:	8b238943 	add	x3, x10, w3, sxtb #2
    31a8:	d61f0060 	br	x3
/home/hei/Desktop/optee-qemu/optee_os/lib/libutee/arch/arm/user_ta_entry.c:166
    31ac:	29001c08 	stp	w8, w7, [x0]
/home/hei/Desktop/optee-qemu/optee_os/lib/libutee/arch/arm/user_ta_entry.c:167
    31b0:	11001084 	add	w4, w4, #0x4
    31b4:	91004042 	add	x2, x2, #0x10
    31b8:	91004000 	add	x0, x0, #0x10
/home/hei/Desktop/optee-qemu/optee_os/lib/libutee/arch/arm/user_ta_entry.c:157 (discriminator 2)
    31bc:	7100409f 	cmp	w4, #0x10
    31c0:	54fffe21 	b.ne	3184 <from_utee_params+0x14>  // b.any
/home/hei/Desktop/optee-qemu/optee_os/lib/libutee/arch/arm/user_ta_entry.c:180
    31c4:	b9000026 	str	w6, [x1]
/home/hei/Desktop/optee-qemu/optee_os/lib/libutee/arch/arm/user_ta_entry.c:181
    31c8:	d65f03c0 	ret
/home/hei/Desktop/optee-qemu/optee_os/lib/libutee/arch/arm/user_ta_entry.c:171
    31cc:	f9000008 	str	x8, [x0]
/home/hei/Desktop/optee-qemu/optee_os/lib/libutee/arch/arm/user_ta_entry.c:172
    31d0:	b9000807 	str	w7, [x0, #8]
/home/hei/Desktop/optee-qemu/optee_os/lib/libutee/arch/arm/user_ta_entry.c:173
    31d4:	17fffff7 	b	31b0 <from_utee_params+0x40>

00000000000031d8 <ta_header_remove_session>:
ta_header_remove_session():
/home/hei/Desktop/optee-qemu/optee_os/lib/libutee/arch/arm/user_ta_entry.c:102
    31d8:	a9be7bfd 	stp	x29, x30, [sp, #-32]!
    31dc:	2a0003e2 	mov	w2, w0
    31e0:	910003fd 	mov	x29, sp
    31e4:	f9000bf3 	str	x19, [sp, #16]
/home/hei/Desktop/optee-qemu/optee_os/lib/libutee/arch/arm/user_ta_entry.c:106
    31e8:	b0000053 	adrp	x19, c000 <_DYNAMIC>
    31ec:	f9422a60 	ldr	x0, [x19, #1104]
/home/hei/Desktop/optee-qemu/optee_os/lib/libutee/arch/arm/user_ta_entry.c:106 (discriminator 1)
    31f0:	b5000080 	cbnz	x0, 3200 <ta_header_remove_session+0x28>
/home/hei/Desktop/optee-qemu/optee_os/lib/libutee/arch/arm/user_ta_entry.c:120
    31f4:	f9400bf3 	ldr	x19, [sp, #16]
    31f8:	a8c27bfd 	ldp	x29, x30, [sp], #32
    31fc:	d65f03c0 	ret
/home/hei/Desktop/optee-qemu/optee_os/lib/libutee/arch/arm/user_ta_entry.c:107
    3200:	b9400003 	ldr	w3, [x0]
    3204:	f9400801 	ldr	x1, [x0, #16]
    3208:	6b02007f 	cmp	w3, w2
    320c:	540002c1 	b.ne	3264 <ta_header_remove_session+0x8c>  // b.any
/home/hei/Desktop/optee-qemu/optee_os/lib/libutee/arch/arm/user_ta_entry.c:108
    3210:	f9400c02 	ldr	x2, [x0, #24]
    3214:	b4000221 	cbz	x1, 3258 <ta_header_remove_session+0x80>
/home/hei/Desktop/optee-qemu/optee_os/lib/libutee/arch/arm/user_ta_entry.c:108 (discriminator 1)
    3218:	f9000c22 	str	x2, [x1, #24]
/home/hei/Desktop/optee-qemu/optee_os/lib/libutee/arch/arm/user_ta_entry.c:108 (discriminator 4)
    321c:	f9400c02 	ldr	x2, [x0, #24]
    3220:	f9000041 	str	x1, [x2]
/home/hei/Desktop/optee-qemu/optee_os/lib/libutee/arch/arm/user_ta_entry.c:109 (discriminator 4)
    3224:	97fffe95 	bl	2c78 <TEE_Free>
/home/hei/Desktop/optee-qemu/optee_os/lib/libutee/arch/arm/user_ta_entry.c:114 (discriminator 4)
    3228:	f9422a60 	ldr	x0, [x19, #1104]
    322c:	b5fffe40 	cbnz	x0, 31f4 <ta_header_remove_session+0x1c>
/home/hei/Desktop/optee-qemu/optee_os/lib/libutee/arch/arm/user_ta_entry.c:112 (discriminator 1)
    3230:	b0000040 	adrp	x0, c000 <_DYNAMIC>
    3234:	52800281 	mov	w1, #0x14                  	// #20
    3238:	f940c800 	ldr	x0, [x0, #400]
    323c:	b9401400 	ldr	w0, [x0, #20]
    3240:	0a010000 	and	w0, w0, w1
/home/hei/Desktop/optee-qemu/optee_os/lib/libutee/arch/arm/user_ta_entry.c:114 (discriminator 1)
    3244:	6b01001f 	cmp	w0, w1
    3248:	54fffd60 	b.eq	31f4 <ta_header_remove_session+0x1c>  // b.none
/home/hei/Desktop/optee-qemu/optee_os/lib/libutee/arch/arm/user_ta_entry.c:120
    324c:	f9400bf3 	ldr	x19, [sp, #16]
    3250:	a8c27bfd 	ldp	x29, x30, [sp], #32
uninit_instance():
/home/hei/Desktop/optee-qemu/optee_os/lib/libutee/arch/arm/user_ta_entry.c:50
    3254:	17fff38e 	b	8c <TA_DestroyEntryPoint>
ta_header_remove_session():
/home/hei/Desktop/optee-qemu/optee_os/lib/libutee/arch/arm/user_ta_entry.c:108 (discriminator 2)
    3258:	91114263 	add	x3, x19, #0x450
    325c:	f9000462 	str	x2, [x3, #8]
    3260:	17ffffef 	b	321c <ta_header_remove_session+0x44>
    3264:	aa0103e0 	mov	x0, x1
    3268:	17ffffe2 	b	31f0 <ta_header_remove_session+0x18>

000000000000326c <ta_header_save_params.part.0>:
ta_header_save_params():
/home/hei/Desktop/optee-qemu/optee_os/lib/libutee/arch/arm/user_ta_entry.c:61
    326c:	b0000040 	adrp	x0, c000 <_DYNAMIC>
    3270:	d2800802 	mov	x2, #0x40                  	// #64
    3274:	52800001 	mov	w1, #0x0                   	// #0
    3278:	f940c400 	ldr	x0, [x0, #392]
    327c:	17fff8fb 	b	1668 <memset>

0000000000003280 <__utee_entry>:
__utee_entry():
/home/hei/Desktop/optee-qemu/optee_os/lib/libutee/arch/arm/user_ta_entry.c:248
    3280:	a9b77bfd 	stp	x29, x30, [sp, #-144]!
/home/hei/Desktop/optee-qemu/optee_os/lib/libutee/arch/arm/user_ta_entry.c:251
    3284:	f100041f 	cmp	x0, #0x1
/home/hei/Desktop/optee-qemu/optee_os/lib/libutee/arch/arm/user_ta_entry.c:248
    3288:	910003fd 	mov	x29, sp
    328c:	a90153f3 	stp	x19, x20, [sp, #16]
    3290:	b0000054 	adrp	x20, c000 <_DYNAMIC>
    3294:	a9025bf5 	stp	x21, x22, [sp, #32]
    3298:	aa0103f5 	mov	x21, x1
    329c:	a90363f7 	stp	x23, x24, [sp, #48]
/home/hei/Desktop/optee-qemu/optee_os/lib/libutee/arch/arm/user_ta_entry.c:251
    32a0:	54000a00 	b.eq	33e0 <__utee_entry+0x160>  // b.none
    32a4:	aa0203f7 	mov	x23, x2
    32a8:	b40000e0 	cbz	x0, 32c4 <__utee_entry+0x44>
    32ac:	f100081f 	cmp	x0, #0x2
    32b0:	54000aa0 	b.eq	3404 <__utee_entry+0x184>  // b.none
/home/hei/Desktop/optee-qemu/optee_os/lib/libutee/arch/arm/user_ta_entry.c:263
    32b4:	52800000 	mov	w0, #0x0                   	// #0
/home/hei/Desktop/optee-qemu/optee_os/lib/libutee/arch/arm/user_ta_entry.c:262
    32b8:	12800013 	mov	w19, #0xffffffff            	// #-1
/home/hei/Desktop/optee-qemu/optee_os/lib/libutee/arch/arm/user_ta_entry.c:263
    32bc:	97fffe76 	bl	2c94 <TEE_Panic>
/home/hei/Desktop/optee-qemu/optee_os/lib/libutee/arch/arm/user_ta_entry.c:264
    32c0:	14000019 	b	3324 <__utee_entry+0xa4>
ta_header_add_session():
/home/hei/Desktop/optee-qemu/optee_os/lib/libutee/arch/arm/user_ta_entry.c:77
    32c4:	2a0103e0 	mov	w0, w1
    32c8:	97ffff82 	bl	30d0 <ta_header_get_session>
/home/hei/Desktop/optee-qemu/optee_os/lib/libutee/arch/arm/user_ta_entry.c:80
    32cc:	b5000500 	cbnz	x0, 336c <__utee_entry+0xec>
/home/hei/Desktop/optee-qemu/optee_os/lib/libutee/arch/arm/user_ta_entry.c:83
    32d0:	900000a0 	adrp	x0, 17000 <ta_heap+0x7b2f>
    32d4:	39534401 	ldrb	w1, [x0, #1233]
    32d8:	340000e1 	cbz	w1, 32f4 <__utee_entry+0x74>
/home/hei/Desktop/optee-qemu/optee_os/lib/libutee/arch/arm/user_ta_entry.c:90
    32dc:	52b00001 	mov	w1, #0x80000000            	// #-2147483648
    32e0:	52800400 	mov	w0, #0x20                  	// #32
    32e4:	97fffe4c 	bl	2c14 <TEE_Malloc>
/home/hei/Desktop/optee-qemu/optee_os/lib/libutee/arch/arm/user_ta_entry.c:92
    32e8:	b5000300 	cbnz	x0, 3348 <__utee_entry+0xc8>
/home/hei/Desktop/optee-qemu/optee_os/lib/libutee/arch/arm/user_ta_entry.c:93
    32ec:	129ffe73 	mov	w19, #0xffff000c            	// #-65524
    32f0:	1400000d 	b	3324 <__utee_entry+0xa4>
/home/hei/Desktop/optee-qemu/optee_os/lib/libutee/arch/arm/user_ta_entry.c:84
    32f4:	52800021 	mov	w1, #0x1                   	// #1
    32f8:	39134401 	strb	w1, [x0, #1233]
init_instance():
/home/hei/Desktop/optee-qemu/optee_os/lib/libutee/arch/arm/user_ta_entry.c:40
    32fc:	97fff473 	bl	4c8 <tahead_get_trace_level>
    3300:	97fff4cb 	bl	62c <trace_set_level>
/home/hei/Desktop/optee-qemu/optee_os/lib/libutee/arch/arm/user_ta_entry.c:42
    3304:	f9409a80 	ldr	x0, [x20, #304]
    3308:	f9400001 	ldr	x1, [x0]
    330c:	f940b280 	ldr	x0, [x20, #352]
    3310:	97fff807 	bl	132c <malloc_add_pool>
/home/hei/Desktop/optee-qemu/optee_os/lib/libutee/arch/arm/user_ta_entry.c:43
    3314:	9400025c 	bl	3c84 <_TEE_MathAPI_Init>
/home/hei/Desktop/optee-qemu/optee_os/lib/libutee/arch/arm/user_ta_entry.c:44
    3318:	97fff342 	bl	20 <TA_CreateEntryPoint>
    331c:	2a0003f3 	mov	w19, w0
ta_header_add_session():
/home/hei/Desktop/optee-qemu/optee_os/lib/libutee/arch/arm/user_ta_entry.c:86
    3320:	34fffde0 	cbz	w0, 32dc <__utee_entry+0x5c>
ta_header_save_params():
/home/hei/Desktop/optee-qemu/optee_os/lib/libutee/arch/arm/user_ta_entry.c:56
    3324:	f940ba94 	ldr	x20, [x20, #368]
    3328:	b900029f 	str	wzr, [x20]
/home/hei/Desktop/optee-qemu/optee_os/lib/libutee/arch/arm/user_ta_entry.c:58
    332c:	97ffffd0 	bl	326c <ta_header_save_params.part.0>
__utee_entry():
/home/hei/Desktop/optee-qemu/optee_os/lib/libutee/arch/arm/user_ta_entry.c:269
    3330:	2a1303e0 	mov	w0, w19
    3334:	a94153f3 	ldp	x19, x20, [sp, #16]
    3338:	a9425bf5 	ldp	x21, x22, [sp, #32]
    333c:	a94363f7 	ldp	x23, x24, [sp, #48]
    3340:	a8c97bfd 	ldp	x29, x30, [sp], #144
    3344:	d65f03c0 	ret
ta_header_add_session():
/home/hei/Desktop/optee-qemu/optee_os/lib/libutee/arch/arm/user_ta_entry.c:96
    3348:	b0000041 	adrp	x1, c000 <_DYNAMIC>
    334c:	91114021 	add	x1, x1, #0x450
    3350:	f9400422 	ldr	x2, [x1, #8]
/home/hei/Desktop/optee-qemu/optee_os/lib/libutee/arch/arm/user_ta_entry.c:94
    3354:	b9000015 	str	w21, [x0]
/home/hei/Desktop/optee-qemu/optee_os/lib/libutee/arch/arm/user_ta_entry.c:96
    3358:	a900fc1f 	stp	xzr, xzr, [x0, #8]
    335c:	f9000c02 	str	x2, [x0, #24]
    3360:	f9000040 	str	x0, [x2]
    3364:	91004000 	add	x0, x0, #0x10
    3368:	f9000420 	str	x0, [x1, #8]
entry_open_session():
/home/hei/Desktop/optee-qemu/optee_os/lib/libutee/arch/arm/user_ta_entry.c:195
    336c:	2a1503e0 	mov	w0, w21
    3370:	97ffff58 	bl	30d0 <ta_header_get_session>
    3374:	aa0003f8 	mov	x24, x0
/home/hei/Desktop/optee-qemu/optee_os/lib/libutee/arch/arm/user_ta_entry.c:196
    3378:	b40007e0 	cbz	x0, 3474 <__utee_entry+0x1f4>
/home/hei/Desktop/optee-qemu/optee_os/lib/libutee/arch/arm/user_ta_entry.c:199
    337c:	910143f6 	add	x22, sp, #0x50
    3380:	aa1703e2 	mov	x2, x23
    3384:	910133e1 	add	x1, sp, #0x4c
    3388:	aa1603e0 	mov	x0, x22
    338c:	97ffff79 	bl	3170 <from_utee_params>
/home/hei/Desktop/optee-qemu/optee_os/lib/libutee/arch/arm/user_ta_entry.c:200
    3390:	b9404ff3 	ldr	w19, [sp, #76]
ta_header_save_params():
/home/hei/Desktop/optee-qemu/optee_os/lib/libutee/arch/arm/user_ta_entry.c:56
    3394:	f940ba80 	ldr	x0, [x20, #368]
/home/hei/Desktop/optee-qemu/optee_os/lib/libutee/arch/arm/user_ta_entry.c:59
    3398:	d2800802 	mov	x2, #0x40                  	// #64
    339c:	aa1603e1 	mov	x1, x22
/home/hei/Desktop/optee-qemu/optee_os/lib/libutee/arch/arm/user_ta_entry.c:56
    33a0:	b9000013 	str	w19, [x0]
/home/hei/Desktop/optee-qemu/optee_os/lib/libutee/arch/arm/user_ta_entry.c:59
    33a4:	f940c680 	ldr	x0, [x20, #392]
    33a8:	97fff45b 	bl	514 <memcpy>
entry_open_session():
/home/hei/Desktop/optee-qemu/optee_os/lib/libutee/arch/arm/user_ta_entry.c:202
    33ac:	91002302 	add	x2, x24, #0x8
    33b0:	aa1603e1 	mov	x1, x22
    33b4:	2a1303e0 	mov	w0, w19
    33b8:	97fff33e 	bl	b0 <TA_OpenSessionEntryPoint>
/home/hei/Desktop/optee-qemu/optee_os/lib/libutee/arch/arm/user_ta_entry.c:205
    33bc:	b9404fe1 	ldr	w1, [sp, #76]
/home/hei/Desktop/optee-qemu/optee_os/lib/libutee/arch/arm/user_ta_entry.c:202
    33c0:	2a0003f3 	mov	w19, w0
/home/hei/Desktop/optee-qemu/optee_os/lib/libutee/arch/arm/user_ta_entry.c:205
    33c4:	aa1603e2 	mov	x2, x22
    33c8:	aa1703e0 	mov	x0, x23
    33cc:	97ffff4b 	bl	30f8 <to_utee_params>
/home/hei/Desktop/optee-qemu/optee_os/lib/libutee/arch/arm/user_ta_entry.c:207
    33d0:	34fffab3 	cbz	w19, 3324 <__utee_entry+0xa4>
/home/hei/Desktop/optee-qemu/optee_os/lib/libutee/arch/arm/user_ta_entry.c:208
    33d4:	2a1503e0 	mov	w0, w21
    33d8:	97ffff80 	bl	31d8 <ta_header_remove_session>
    33dc:	17ffffd2 	b	3324 <__utee_entry+0xa4>
entry_close_session():
/home/hei/Desktop/optee-qemu/optee_os/lib/libutee/arch/arm/user_ta_entry.c:214
    33e0:	2a0103e0 	mov	w0, w1
    33e4:	97ffff3b 	bl	30d0 <ta_header_get_session>
/home/hei/Desktop/optee-qemu/optee_os/lib/libutee/arch/arm/user_ta_entry.c:216
    33e8:	b4000460 	cbz	x0, 3474 <__utee_entry+0x1f4>
/home/hei/Desktop/optee-qemu/optee_os/lib/libutee/arch/arm/user_ta_entry.c:219
    33ec:	f9400400 	ldr	x0, [x0, #8]
/home/hei/Desktop/optee-qemu/optee_os/lib/libutee/arch/arm/user_ta_entry.c:222
    33f0:	52800013 	mov	w19, #0x0                   	// #0
/home/hei/Desktop/optee-qemu/optee_os/lib/libutee/arch/arm/user_ta_entry.c:219
    33f4:	97fff34b 	bl	120 <TA_CloseSessionEntryPoint>
/home/hei/Desktop/optee-qemu/optee_os/lib/libutee/arch/arm/user_ta_entry.c:221
    33f8:	2a1503e0 	mov	w0, w21
    33fc:	97ffff77 	bl	31d8 <ta_header_remove_session>
/home/hei/Desktop/optee-qemu/optee_os/lib/libutee/arch/arm/user_ta_entry.c:222
    3400:	17ffffc9 	b	3324 <__utee_entry+0xa4>
entry_invoke_command():
/home/hei/Desktop/optee-qemu/optee_os/lib/libutee/arch/arm/user_ta_entry.c:231
    3404:	2a0103e0 	mov	w0, w1
    3408:	97ffff32 	bl	30d0 <ta_header_get_session>
    340c:	aa0003f3 	mov	x19, x0
/home/hei/Desktop/optee-qemu/optee_os/lib/libutee/arch/arm/user_ta_entry.c:233
    3410:	b4000320 	cbz	x0, 3474 <__utee_entry+0x1f4>
/home/hei/Desktop/optee-qemu/optee_os/lib/libutee/arch/arm/user_ta_entry.c:236
    3414:	910143f5 	add	x21, sp, #0x50
    3418:	aa0303f8 	mov	x24, x3
    341c:	aa1703e2 	mov	x2, x23
    3420:	910133e1 	add	x1, sp, #0x4c
    3424:	aa1503e0 	mov	x0, x21
    3428:	97ffff52 	bl	3170 <from_utee_params>
ta_header_save_params():
/home/hei/Desktop/optee-qemu/optee_os/lib/libutee/arch/arm/user_ta_entry.c:56
    342c:	f940ba80 	ldr	x0, [x20, #368]
/home/hei/Desktop/optee-qemu/optee_os/lib/libutee/arch/arm/user_ta_entry.c:59
    3430:	aa1503e1 	mov	x1, x21
entry_invoke_command():
/home/hei/Desktop/optee-qemu/optee_os/lib/libutee/arch/arm/user_ta_entry.c:237
    3434:	b9404ff6 	ldr	w22, [sp, #76]
ta_header_save_params():
/home/hei/Desktop/optee-qemu/optee_os/lib/libutee/arch/arm/user_ta_entry.c:59
    3438:	d2800802 	mov	x2, #0x40                  	// #64
/home/hei/Desktop/optee-qemu/optee_os/lib/libutee/arch/arm/user_ta_entry.c:56
    343c:	b9000016 	str	w22, [x0]
/home/hei/Desktop/optee-qemu/optee_os/lib/libutee/arch/arm/user_ta_entry.c:59
    3440:	f940c680 	ldr	x0, [x20, #392]
    3444:	97fff434 	bl	514 <memcpy>
entry_invoke_command():
/home/hei/Desktop/optee-qemu/optee_os/lib/libutee/arch/arm/user_ta_entry.c:239
    3448:	f9400660 	ldr	x0, [x19, #8]
    344c:	2a1603e2 	mov	w2, w22
    3450:	2a1803e1 	mov	w1, w24
    3454:	aa1503e3 	mov	x3, x21
    3458:	97fff35b 	bl	1c4 <TA_InvokeCommandEntryPoint>
    345c:	2a0003f3 	mov	w19, w0
/home/hei/Desktop/optee-qemu/optee_os/lib/libutee/arch/arm/user_ta_entry.c:242
    3460:	b9404fe1 	ldr	w1, [sp, #76]
    3464:	aa1503e2 	mov	x2, x21
    3468:	aa1703e0 	mov	x0, x23
    346c:	97ffff23 	bl	30f8 <to_utee_params>
/home/hei/Desktop/optee-qemu/optee_os/lib/libutee/arch/arm/user_ta_entry.c:243
    3470:	17ffffad 	b	3324 <__utee_entry+0xa4>
entry_close_session():
/home/hei/Desktop/optee-qemu/optee_os/lib/libutee/arch/arm/user_ta_entry.c:217
    3474:	129fff13 	mov	w19, #0xffff0007            	// #-65529
    3478:	17ffffab 	b	3324 <__utee_entry+0xa4>

000000000000347c <api_panic>:
api_panic():
/home/hei/Desktop/optee-qemu/optee_os/lib/libutee/tee_api_arith_mpi.c:19
    347c:	a9bf7bfd 	stp	x29, x30, [sp, #-16]!
/home/hei/Desktop/optee-qemu/optee_os/lib/libutee/tee_api_arith_mpi.c:20
    3480:	aa0203e3 	mov	x3, x2
    3484:	2a0103e2 	mov	w2, w1
    3488:	aa0003e1 	mov	x1, x0
/home/hei/Desktop/optee-qemu/optee_os/lib/libutee/tee_api_arith_mpi.c:19
    348c:	910003fd 	mov	x29, sp
/home/hei/Desktop/optee-qemu/optee_os/lib/libutee/tee_api_arith_mpi.c:20
    3490:	90000040 	adrp	x0, b000 <__func__.3755+0xec>
    3494:	910f6800 	add	x0, x0, #0x3da
    3498:	97fffbd1 	bl	23dc <printf>
/home/hei/Desktop/optee-qemu/optee_os/lib/libutee/tee_api_arith_mpi.c:21
    349c:	528c24e0 	mov	w0, #0x6127                	// #24871
    34a0:	72a01620 	movk	w0, #0xb1, lsl #16
    34a4:	97fffdfc 	bl	2c94 <TEE_Panic>
/home/hei/Desktop/optee-qemu/optee_os/lib/libutee/tee_api_arith_mpi.c:23 (discriminator 1)
    34a8:	14000000 	b	34a8 <api_panic+0x2c>

00000000000034ac <mpi_panic>:
mpi_panic():
/home/hei/Desktop/optee-qemu/optee_os/lib/libutee/tee_api_arith_mpi.c:29
    34ac:	a9bf7bfd 	stp	x29, x30, [sp, #-16]!
/home/hei/Desktop/optee-qemu/optee_os/lib/libutee/tee_api_arith_mpi.c:30
    34b0:	2a0203e3 	mov	w3, w2
    34b4:	2a0103e2 	mov	w2, w1
    34b8:	aa0003e1 	mov	x1, x0
/home/hei/Desktop/optee-qemu/optee_os/lib/libutee/tee_api_arith_mpi.c:29
    34bc:	910003fd 	mov	x29, sp
/home/hei/Desktop/optee-qemu/optee_os/lib/libutee/tee_api_arith_mpi.c:30
    34c0:	90000040 	adrp	x0, b000 <__func__.3755+0xec>
    34c4:	910fe800 	add	x0, x0, #0x3fa
    34c8:	97fffbc5 	bl	23dc <printf>
/home/hei/Desktop/optee-qemu/optee_os/lib/libutee/tee_api_arith_mpi.c:31
    34cc:	528c24e0 	mov	w0, #0x6127                	// #24871
    34d0:	72a01620 	movk	w0, #0xb1, lsl #16
    34d4:	97fffdf0 	bl	2c94 <TEE_Panic>
/home/hei/Desktop/optee-qemu/optee_os/lib/libutee/tee_api_arith_mpi.c:33 (discriminator 1)
    34d8:	14000000 	b	34d8 <mpi_panic+0x2c>

00000000000034dc <get_mpi>:
get_mpi():
/home/hei/Desktop/optee-qemu/optee_os/lib/libutee/tee_api_arith_mpi.c:86
    34dc:	a9bd7bfd 	stp	x29, x30, [sp, #-48]!
    34e0:	910003fd 	mov	x29, sp
    34e4:	a90153f3 	stp	x19, x20, [sp, #16]
    34e8:	aa0103f4 	mov	x20, x1
    34ec:	a9025bf5 	stp	x21, x22, [sp, #32]
    34f0:	aa0003f5 	mov	x21, x0
/home/hei/Desktop/optee-qemu/optee_os/lib/libutee/tee_api_arith_mpi.c:101
    34f4:	9400079d 	bl	5368 <mbedtls_mpi_init_mempool>
/home/hei/Desktop/optee-qemu/optee_os/lib/libutee/tee_api_arith_mpi.c:103
    34f8:	b4000374 	cbz	x20, 3564 <get_mpi+0x88>
/home/hei/Desktop/optee-qemu/optee_os/lib/libutee/tee_api_arith_mpi.c:106
    34fc:	79400e93 	ldrh	w19, [x20, #6]
/home/hei/Desktop/optee-qemu/optee_os/lib/libutee/tee_api_arith_mpi.c:105
    3500:	91002296 	add	x22, x20, #0x8
/home/hei/Desktop/optee-qemu/optee_os/lib/libutee/tee_api_arith_mpi.c:109
    3504:	91001281 	add	x1, x20, #0x4
    3508:	b4000073 	cbz	x19, 3514 <get_mpi+0x38>
/home/hei/Desktop/optee-qemu/optee_os/lib/libutee/tee_api_arith_mpi.c:109 (discriminator 1)
    350c:	b8737820 	ldr	w0, [x1, x19, lsl #2]
    3510:	34000140 	cbz	w0, 3538 <get_mpi+0x5c>
/home/hei/Desktop/optee-qemu/optee_os/lib/libutee/tee_api_arith_mpi.c:112
    3514:	aa1303e1 	mov	x1, x19
    3518:	aa1503e0 	mov	x0, x21
    351c:	940007b8 	bl	53fc <mbedtls_mpi_grow>
    3520:	34000100 	cbz	w0, 3540 <get_mpi+0x64>
/home/hei/Desktop/optee-qemu/optee_os/lib/libutee/tee_api_arith_mpi.c:112 (discriminator 1)
    3524:	2a0003e2 	mov	w2, w0
    3528:	52800e01 	mov	w1, #0x70                  	// #112
    352c:	90000040 	adrp	x0, b000 <__func__.3755+0xec>
    3530:	910a7400 	add	x0, x0, #0x29d
    3534:	97ffffde 	bl	34ac <mpi_panic>
/home/hei/Desktop/optee-qemu/optee_os/lib/libutee/tee_api_arith_mpi.c:110
    3538:	d1000673 	sub	x19, x19, #0x1
    353c:	17fffff3 	b	3508 <get_mpi+0x2c>
/home/hei/Desktop/optee-qemu/optee_os/lib/libutee/tee_api_arith_mpi.c:113
    3540:	b9400280 	ldr	w0, [x20]
/home/hei/Desktop/optee-qemu/optee_os/lib/libutee/tee_api_arith_mpi.c:114
    3544:	d37ef662 	lsl	x2, x19, #2
/home/hei/Desktop/optee-qemu/optee_os/lib/libutee/tee_api_arith_mpi.c:113
    3548:	790002a0 	strh	w0, [x21]
/home/hei/Desktop/optee-qemu/optee_os/lib/libutee/tee_api_arith_mpi.c:114
    354c:	aa1603e1 	mov	x1, x22
/home/hei/Desktop/optee-qemu/optee_os/lib/libutee/tee_api_arith_mpi.c:116
    3550:	a94153f3 	ldp	x19, x20, [sp, #16]
/home/hei/Desktop/optee-qemu/optee_os/lib/libutee/tee_api_arith_mpi.c:114
    3554:	f9400aa0 	ldr	x0, [x21, #16]
/home/hei/Desktop/optee-qemu/optee_os/lib/libutee/tee_api_arith_mpi.c:116
    3558:	a9425bf5 	ldp	x21, x22, [sp, #32]
    355c:	a8c37bfd 	ldp	x29, x30, [sp], #48
/home/hei/Desktop/optee-qemu/optee_os/lib/libutee/tee_api_arith_mpi.c:114
    3560:	17fff3ed 	b	514 <memcpy>
/home/hei/Desktop/optee-qemu/optee_os/lib/libutee/tee_api_arith_mpi.c:116
    3564:	a94153f3 	ldp	x19, x20, [sp, #16]
    3568:	a9425bf5 	ldp	x21, x22, [sp, #32]
    356c:	a8c37bfd 	ldp	x29, x30, [sp], #48
    3570:	d65f03c0 	ret

0000000000003574 <copy_mpi_to_bigint>:
copy_mpi_to_bigint():
/home/hei/Desktop/optee-qemu/optee_os/lib/libutee/tee_api_arith_mpi.c:61
    3574:	aa0103e3 	mov	x3, x1
/home/hei/Desktop/optee-qemu/optee_os/lib/libutee/tee_api_arith_mpi.c:63
    3578:	a9408402 	ldp	x2, x1, [x0, #8]
    357c:	aa0203e4 	mov	x4, x2
/home/hei/Desktop/optee-qemu/optee_os/lib/libutee/tee_api_arith_mpi.c:66
    3580:	b40000e4 	cbz	x4, 359c <copy_mpi_to_bigint+0x28>
/home/hei/Desktop/optee-qemu/optee_os/lib/libutee/tee_api_arith_mpi.c:66 (discriminator 1)
    3584:	8b040825 	add	x5, x1, x4, lsl #2
    3588:	b85fc0a5 	ldur	w5, [x5, #-4]
    358c:	340001e5 	cbz	w5, 35c8 <copy_mpi_to_bigint+0x54>
/home/hei/Desktop/optee-qemu/optee_os/lib/libutee/tee_api_arith_mpi.c:69
    3590:	79400865 	ldrh	w5, [x3, #4]
    3594:	eb0400bf 	cmp	x5, x4
    3598:	540001c3 	b.cc	35d0 <copy_mpi_to_bigint+0x5c>  // b.lo, b.ul, b.last
/home/hei/Desktop/optee-qemu/optee_os/lib/libutee/tee_api_arith_mpi.c:61
    359c:	a9bf7bfd 	stp	x29, x30, [sp, #-16]!
/home/hei/Desktop/optee-qemu/optee_os/lib/libutee/tee_api_arith_mpi.c:74
    35a0:	d37ef442 	lsl	x2, x2, #2
/home/hei/Desktop/optee-qemu/optee_os/lib/libutee/tee_api_arith_mpi.c:61
    35a4:	910003fd 	mov	x29, sp
/home/hei/Desktop/optee-qemu/optee_os/lib/libutee/tee_api_arith_mpi.c:72
    35a8:	79000c64 	strh	w4, [x3, #6]
/home/hei/Desktop/optee-qemu/optee_os/lib/libutee/tee_api_arith_mpi.c:73
    35ac:	79c00004 	ldrsh	w4, [x0]
    35b0:	aa0303e0 	mov	x0, x3
    35b4:	b8008404 	str	w4, [x0], #8
/home/hei/Desktop/optee-qemu/optee_os/lib/libutee/tee_api_arith_mpi.c:74
    35b8:	97fff3d7 	bl	514 <memcpy>
/home/hei/Desktop/optee-qemu/optee_os/lib/libutee/tee_api_arith_mpi.c:76
    35bc:	52800000 	mov	w0, #0x0                   	// #0
/home/hei/Desktop/optee-qemu/optee_os/lib/libutee/tee_api_arith_mpi.c:77
    35c0:	a8c17bfd 	ldp	x29, x30, [sp], #16
    35c4:	d65f03c0 	ret
/home/hei/Desktop/optee-qemu/optee_os/lib/libutee/tee_api_arith_mpi.c:67
    35c8:	d1000484 	sub	x4, x4, #0x1
    35cc:	17ffffed 	b	3580 <copy_mpi_to_bigint+0xc>
/home/hei/Desktop/optee-qemu/optee_os/lib/libutee/tee_api_arith_mpi.c:70
    35d0:	1299fe00 	mov	w0, #0xffff300f            	// #-53233
/home/hei/Desktop/optee-qemu/optee_os/lib/libutee/tee_api_arith_mpi.c:77
    35d4:	d65f03c0 	ret

00000000000035d8 <bigint_binary>:
bigint_binary():
/home/hei/Desktop/optee-qemu/optee_os/lib/libutee/tee_api_arith_mpi.c:321
    35d8:	a9b67bfd 	stp	x29, x30, [sp, #-160]!
    35dc:	910003fd 	mov	x29, sp
    35e0:	a90153f3 	stp	x19, x20, [sp, #16]
/home/hei/Desktop/optee-qemu/optee_os/lib/libutee/tee_api_arith_mpi.c:328
    35e4:	910163f3 	add	x19, sp, #0x58
/home/hei/Desktop/optee-qemu/optee_os/lib/libutee/tee_api_arith_mpi.c:321
    35e8:	aa0203f4 	mov	x20, x2
    35ec:	a9025bf5 	stp	x21, x22, [sp, #32]
    35f0:	aa0003f6 	mov	x22, x0
    35f4:	a90363f7 	stp	x23, x24, [sp, #48]
    35f8:	9101c3f8 	add	x24, sp, #0x70
    35fc:	a9046bf9 	stp	x25, x26, [sp, #64]
    3600:	aa0103f9 	mov	x25, x1
    3604:	aa0303fa 	mov	x26, x3
/home/hei/Desktop/optee-qemu/optee_os/lib/libutee/tee_api_arith_mpi.c:328
    3608:	aa0003e1 	mov	x1, x0
    360c:	aa1303e0 	mov	x0, x19
    3610:	97ffffb3 	bl	34dc <get_mpi>
/home/hei/Desktop/optee-qemu/optee_os/lib/libutee/tee_api_arith_mpi.c:330
    3614:	eb1902df 	cmp	x22, x25
    3618:	54000320 	b.eq	367c <bigint_binary+0xa4>  // b.none
/home/hei/Desktop/optee-qemu/optee_os/lib/libutee/tee_api_arith_mpi.c:325
    361c:	aa1803f5 	mov	x21, x24
/home/hei/Desktop/optee-qemu/optee_os/lib/libutee/tee_api_arith_mpi.c:333
    3620:	aa1903e1 	mov	x1, x25
    3624:	aa1803e0 	mov	x0, x24
    3628:	97ffffad 	bl	34dc <get_mpi>
/home/hei/Desktop/optee-qemu/optee_os/lib/libutee/tee_api_arith_mpi.c:335
    362c:	eb1402df 	cmp	x22, x20
    3630:	910223f7 	add	x23, sp, #0x88
    3634:	54000280 	b.eq	3684 <bigint_binary+0xac>  // b.none
/home/hei/Desktop/optee-qemu/optee_os/lib/libutee/tee_api_arith_mpi.c:337
    3638:	eb14033f 	cmp	x25, x20
    363c:	54000280 	b.eq	368c <bigint_binary+0xb4>  // b.none
/home/hei/Desktop/optee-qemu/optee_os/lib/libutee/tee_api_arith_mpi.c:340
    3640:	aa1403e1 	mov	x1, x20
/home/hei/Desktop/optee-qemu/optee_os/lib/libutee/tee_api_arith_mpi.c:326
    3644:	aa1703f4 	mov	x20, x23
/home/hei/Desktop/optee-qemu/optee_os/lib/libutee/tee_api_arith_mpi.c:340
    3648:	aa1703e0 	mov	x0, x23
    364c:	97ffffa4 	bl	34dc <get_mpi>
/home/hei/Desktop/optee-qemu/optee_os/lib/libutee/tee_api_arith_mpi.c:342
    3650:	aa1403e2 	mov	x2, x20
    3654:	aa1503e1 	mov	x1, x21
    3658:	aa1303e0 	mov	x0, x19
    365c:	d63f0340 	blr	x26
    3660:	340001a0 	cbz	w0, 3694 <bigint_binary+0xbc>
/home/hei/Desktop/optee-qemu/optee_os/lib/libutee/tee_api_arith_mpi.c:342 (discriminator 1)
    3664:	2a0003e2 	mov	w2, w0
    3668:	52802ac1 	mov	w1, #0x156                 	// #342
/home/hei/Desktop/optee-qemu/optee_os/lib/libutee/tee_api_arith_mpi.c:344 (discriminator 1)
    366c:	90000040 	adrp	x0, b000 <__func__.3755+0xec>
    3670:	910a7400 	add	x0, x0, #0x29d
    3674:	91002000 	add	x0, x0, #0x8
    3678:	97ffff8d 	bl	34ac <mpi_panic>
/home/hei/Desktop/optee-qemu/optee_os/lib/libutee/tee_api_arith_mpi.c:331
    367c:	aa1303f5 	mov	x21, x19
    3680:	17ffffeb 	b	362c <bigint_binary+0x54>
/home/hei/Desktop/optee-qemu/optee_os/lib/libutee/tee_api_arith_mpi.c:336
    3684:	aa1303f4 	mov	x20, x19
    3688:	17fffff2 	b	3650 <bigint_binary+0x78>
/home/hei/Desktop/optee-qemu/optee_os/lib/libutee/tee_api_arith_mpi.c:338
    368c:	aa1503f4 	mov	x20, x21
    3690:	17fffff0 	b	3650 <bigint_binary+0x78>
/home/hei/Desktop/optee-qemu/optee_os/lib/libutee/tee_api_arith_mpi.c:344
    3694:	aa1603e1 	mov	x1, x22
    3698:	aa1303e0 	mov	x0, x19
    369c:	97ffffb6 	bl	3574 <copy_mpi_to_bigint>
    36a0:	34000080 	cbz	w0, 36b0 <bigint_binary+0xd8>
/home/hei/Desktop/optee-qemu/optee_os/lib/libutee/tee_api_arith_mpi.c:344 (discriminator 1)
    36a4:	2a0003e2 	mov	w2, w0
    36a8:	52802b01 	mov	w1, #0x158                 	// #344
    36ac:	17fffff0 	b	366c <bigint_binary+0x94>
/home/hei/Desktop/optee-qemu/optee_os/lib/libutee/tee_api_arith_mpi.c:345
    36b0:	aa1303e0 	mov	x0, x19
    36b4:	94000737 	bl	5390 <mbedtls_mpi_free>
/home/hei/Desktop/optee-qemu/optee_os/lib/libutee/tee_api_arith_mpi.c:346
    36b8:	eb1802bf 	cmp	x21, x24
    36bc:	54000061 	b.ne	36c8 <bigint_binary+0xf0>  // b.any
/home/hei/Desktop/optee-qemu/optee_os/lib/libutee/tee_api_arith_mpi.c:347
    36c0:	aa1503e0 	mov	x0, x21
    36c4:	94000733 	bl	5390 <mbedtls_mpi_free>
/home/hei/Desktop/optee-qemu/optee_os/lib/libutee/tee_api_arith_mpi.c:348
    36c8:	eb17029f 	cmp	x20, x23
    36cc:	54000061 	b.ne	36d8 <bigint_binary+0x100>  // b.any
/home/hei/Desktop/optee-qemu/optee_os/lib/libutee/tee_api_arith_mpi.c:349
    36d0:	aa1403e0 	mov	x0, x20
    36d4:	9400072f 	bl	5390 <mbedtls_mpi_free>
/home/hei/Desktop/optee-qemu/optee_os/lib/libutee/tee_api_arith_mpi.c:350
    36d8:	a94153f3 	ldp	x19, x20, [sp, #16]
    36dc:	a9425bf5 	ldp	x21, x22, [sp, #32]
    36e0:	a94363f7 	ldp	x23, x24, [sp, #48]
    36e4:	a9446bf9 	ldp	x25, x26, [sp, #64]
    36e8:	a8ca7bfd 	ldp	x29, x30, [sp], #160
    36ec:	d65f03c0 	ret

00000000000036f0 <mpi_is_odd>:
mpi_is_odd():
/home/hei/Desktop/optee-qemu/optee_os/lib/libutee/tee_api_arith_mpi.c:590
    36f0:	a9bf7bfd 	stp	x29, x30, [sp, #-16]!
/home/hei/Desktop/optee-qemu/optee_os/lib/libutee/tee_api_arith_mpi.c:591
    36f4:	d2800001 	mov	x1, #0x0                   	// #0
/home/hei/Desktop/optee-qemu/optee_os/lib/libutee/tee_api_arith_mpi.c:590
    36f8:	910003fd 	mov	x29, sp
/home/hei/Desktop/optee-qemu/optee_os/lib/libutee/tee_api_arith_mpi.c:591
    36fc:	9400088e 	bl	5934 <mbedtls_mpi_get_bit>
    3700:	7100001f 	cmp	w0, #0x0
/home/hei/Desktop/optee-qemu/optee_os/lib/libutee/tee_api_arith_mpi.c:592
    3704:	1a9f07e0 	cset	w0, ne  // ne = any
    3708:	a8c17bfd 	ldp	x29, x30, [sp], #16
    370c:	d65f03c0 	ret

0000000000003710 <rng_read>:
rng_read():
/home/hei/Desktop/optee-qemu/optee_os/lib/libutee/tee_api_arith_mpi.c:757
    3710:	a9bf7bfd 	stp	x29, x30, [sp, #-16]!
    3714:	aa0103e0 	mov	x0, x1
/home/hei/Desktop/optee-qemu/optee_os/lib/libutee/tee_api_arith_mpi.c:758
    3718:	aa0203e1 	mov	x1, x2
/home/hei/Desktop/optee-qemu/optee_os/lib/libutee/tee_api_arith_mpi.c:757
    371c:	910003fd 	mov	x29, sp
/home/hei/Desktop/optee-qemu/optee_os/lib/libutee/tee_api_arith_mpi.c:758
    3720:	97fffe27 	bl	2fbc <utee_cryp_random_number_generate>
/home/hei/Desktop/optee-qemu/optee_os/lib/libutee/tee_api_arith_mpi.c:759
    3724:	7100001f 	cmp	w0, #0x0
/home/hei/Desktop/optee-qemu/optee_os/lib/libutee/tee_api_arith_mpi.c:761
    3728:	a8c17bfd 	ldp	x29, x30, [sp], #16
    372c:	12800020 	mov	w0, #0xfffffffe            	// #-2
    3730:	1a9f1000 	csel	w0, w0, wzr, ne  // ne = any
    3734:	d65f03c0 	ret

0000000000003738 <mpi_egcd>:
mpi_egcd():
/home/hei/Desktop/optee-qemu/optee_os/lib/libutee/tee_api_arith_mpi.c:605
    3738:	a9ae7bfd 	stp	x29, x30, [sp, #-288]!
    373c:	910003fd 	mov	x29, sp
    3740:	6d0627e8 	stp	d8, d9, [sp, #96]
    3744:	9e670028 	fmov	d8, x1
    3748:	9e670069 	fmov	d9, x3
    374c:	a90363f7 	stp	x23, x24, [sp, #48]
get_mpi():
/home/hei/Desktop/optee-qemu/optee_os/lib/libutee/tee_api_arith_mpi.c:101
    3750:	9101e3f7 	add	x23, sp, #0x78
mpi_egcd():
/home/hei/Desktop/optee-qemu/optee_os/lib/libutee/tee_api_arith_mpi.c:605
    3754:	aa0003f8 	mov	x24, x0
get_mpi():
/home/hei/Desktop/optee-qemu/optee_os/lib/libutee/tee_api_arith_mpi.c:101
    3758:	aa1703e0 	mov	x0, x23
mpi_egcd():
/home/hei/Desktop/optee-qemu/optee_os/lib/libutee/tee_api_arith_mpi.c:605
    375c:	a90153f3 	stp	x19, x20, [sp, #16]
get_mpi():
/home/hei/Desktop/optee-qemu/optee_os/lib/libutee/tee_api_arith_mpi.c:101
    3760:	9102a3f4 	add	x20, sp, #0xa8
mpi_egcd():
/home/hei/Desktop/optee-qemu/optee_os/lib/libutee/tee_api_arith_mpi.c:605
    3764:	a9025bf5 	stp	x21, x22, [sp, #32]
get_mpi():
/home/hei/Desktop/optee-qemu/optee_os/lib/libutee/tee_api_arith_mpi.c:101
    3768:	910243f6 	add	x22, sp, #0x90
    376c:	910303f3 	add	x19, sp, #0xc0
mpi_egcd():
/home/hei/Desktop/optee-qemu/optee_os/lib/libutee/tee_api_arith_mpi.c:605
    3770:	a9046bf9 	stp	x25, x26, [sp, #64]
get_mpi():
/home/hei/Desktop/optee-qemu/optee_os/lib/libutee/tee_api_arith_mpi.c:101
    3774:	910363fa 	add	x26, sp, #0xd8
    3778:	9103c3f9 	add	x25, sp, #0xf0
mpi_egcd():
/home/hei/Desktop/optee-qemu/optee_os/lib/libutee/tee_api_arith_mpi.c:605
    377c:	a90573fb 	stp	x27, x28, [sp, #80]
    3780:	aa0403fb 	mov	x27, x4
    3784:	aa0203fc 	mov	x28, x2
get_mpi():
/home/hei/Desktop/optee-qemu/optee_os/lib/libutee/tee_api_arith_mpi.c:101
    3788:	940006f8 	bl	5368 <mbedtls_mpi_init_mempool>
    378c:	910423f5 	add	x21, sp, #0x108
    3790:	aa1603e0 	mov	x0, x22
    3794:	940006f5 	bl	5368 <mbedtls_mpi_init_mempool>
    3798:	aa1403e0 	mov	x0, x20
    379c:	940006f3 	bl	5368 <mbedtls_mpi_init_mempool>
    37a0:	aa1303e0 	mov	x0, x19
    37a4:	940006f1 	bl	5368 <mbedtls_mpi_init_mempool>
    37a8:	aa1a03e0 	mov	x0, x26
    37ac:	940006ef 	bl	5368 <mbedtls_mpi_init_mempool>
    37b0:	aa1903e0 	mov	x0, x25
    37b4:	940006ed 	bl	5368 <mbedtls_mpi_init_mempool>
    37b8:	aa1503e0 	mov	x0, x21
    37bc:	940006eb 	bl	5368 <mbedtls_mpi_init_mempool>
mpi_egcd():
/home/hei/Desktop/optee-qemu/optee_os/lib/libutee/tee_api_arith_mpi.c:624
    37c0:	52800001 	mov	w1, #0x0                   	// #0
    37c4:	aa1b03e0 	mov	x0, x27
    37c8:	940009ea 	bl	5f70 <mbedtls_mpi_cmp_int>
    37cc:	35000320 	cbnz	w0, 3830 <mpi_egcd+0xf8>
/home/hei/Desktop/optee-qemu/optee_os/lib/libutee/tee_api_arith_mpi.c:625
    37d0:	9e660100 	fmov	x0, d8
    37d4:	52800021 	mov	w1, #0x1                   	// #1
    37d8:	9400083d 	bl	58cc <mbedtls_mpi_lset>
    37dc:	340000e0 	cbz	w0, 37f8 <mpi_egcd+0xc0>
/home/hei/Desktop/optee-qemu/optee_os/lib/libutee/tee_api_arith_mpi.c:625 (discriminator 1)
    37e0:	2a0003e2 	mov	w2, w0
    37e4:	52804e21 	mov	w1, #0x271                 	// #625
/home/hei/Desktop/optee-qemu/optee_os/lib/libutee/tee_api_arith_mpi.c:626 (discriminator 1)
    37e8:	90000040 	adrp	x0, b000 <__func__.3755+0xec>
    37ec:	910a7400 	add	x0, x0, #0x29d
    37f0:	91005800 	add	x0, x0, #0x16
    37f4:	97ffff2e 	bl	34ac <mpi_panic>
/home/hei/Desktop/optee-qemu/optee_os/lib/libutee/tee_api_arith_mpi.c:626
    37f8:	52800001 	mov	w1, #0x0                   	// #0
    37fc:	aa1c03e0 	mov	x0, x28
    3800:	94000833 	bl	58cc <mbedtls_mpi_lset>
    3804:	34000080 	cbz	w0, 3814 <mpi_egcd+0xdc>
/home/hei/Desktop/optee-qemu/optee_os/lib/libutee/tee_api_arith_mpi.c:626 (discriminator 1)
    3808:	2a0003e2 	mov	w2, w0
    380c:	52804e41 	mov	w1, #0x272                 	// #626
    3810:	17fffff6 	b	37e8 <mpi_egcd+0xb0>
/home/hei/Desktop/optee-qemu/optee_os/lib/libutee/tee_api_arith_mpi.c:627
    3814:	9e660121 	fmov	x1, d9
    3818:	aa1803e0 	mov	x0, x24
    381c:	9400077e 	bl	5614 <mbedtls_mpi_copy>
    3820:	34002060 	cbz	w0, 3c2c <mpi_egcd+0x4f4>
/home/hei/Desktop/optee-qemu/optee_os/lib/libutee/tee_api_arith_mpi.c:627 (discriminator 1)
    3824:	2a0003e2 	mov	w2, w0
    3828:	52804e61 	mov	w1, #0x273                 	// #627
    382c:	17ffffef 	b	37e8 <mpi_egcd+0xb0>
/home/hei/Desktop/optee-qemu/optee_os/lib/libutee/tee_api_arith_mpi.c:631
    3830:	9e660121 	fmov	x1, d9
    3834:	aa1a03e0 	mov	x0, x26
    3838:	94000777 	bl	5614 <mbedtls_mpi_copy>
    383c:	34000080 	cbz	w0, 384c <mpi_egcd+0x114>
/home/hei/Desktop/optee-qemu/optee_os/lib/libutee/tee_api_arith_mpi.c:631 (discriminator 1)
    3840:	2a0003e2 	mov	w2, w0
    3844:	52804ee1 	mov	w1, #0x277                 	// #631
    3848:	17ffffe8 	b	37e8 <mpi_egcd+0xb0>
/home/hei/Desktop/optee-qemu/optee_os/lib/libutee/tee_api_arith_mpi.c:632
    384c:	aa1b03e1 	mov	x1, x27
    3850:	aa1903e0 	mov	x0, x25
/home/hei/Desktop/optee-qemu/optee_os/lib/libutee/tee_api_arith_mpi.c:634
    3854:	5280001b 	mov	w27, #0x0                   	// #0
/home/hei/Desktop/optee-qemu/optee_os/lib/libutee/tee_api_arith_mpi.c:632
    3858:	9400076f 	bl	5614 <mbedtls_mpi_copy>
    385c:	34000160 	cbz	w0, 3888 <mpi_egcd+0x150>
/home/hei/Desktop/optee-qemu/optee_os/lib/libutee/tee_api_arith_mpi.c:632 (discriminator 1)
    3860:	2a0003e2 	mov	w2, w0
    3864:	52804f01 	mov	w1, #0x278                 	// #632
    3868:	17ffffe0 	b	37e8 <mpi_egcd+0xb0>
/home/hei/Desktop/optee-qemu/optee_os/lib/libutee/tee_api_arith_mpi.c:638
    386c:	d2800021 	mov	x1, #0x1                   	// #1
    3870:	aa1903e0 	mov	x0, x25
    3874:	94000930 	bl	5d34 <mbedtls_mpi_shift_r>
    3878:	34000080 	cbz	w0, 3888 <mpi_egcd+0x150>
/home/hei/Desktop/optee-qemu/optee_os/lib/libutee/tee_api_arith_mpi.c:638 (discriminator 1)
    387c:	2a0003e2 	mov	w2, w0
    3880:	52804fc1 	mov	w1, #0x27e                 	// #638
    3884:	17ffffd9 	b	37e8 <mpi_egcd+0xb0>
mpi_is_even():
/home/hei/Desktop/optee-qemu/optee_os/lib/libutee/tee_api_arith_mpi.c:596
    3888:	aa1a03e0 	mov	x0, x26
    388c:	97ffff99 	bl	36f0 <mpi_is_odd>
mpi_egcd():
/home/hei/Desktop/optee-qemu/optee_os/lib/libutee/tee_api_arith_mpi.c:635
    3890:	72001c1f 	tst	w0, #0xff
    3894:	54000100 	b.eq	38b4 <mpi_egcd+0x17c>  // b.none
/home/hei/Desktop/optee-qemu/optee_os/lib/libutee/tee_api_arith_mpi.c:641
    3898:	aa1a03e1 	mov	x1, x26
    389c:	aa1503e0 	mov	x0, x21
    38a0:	9400075d 	bl	5614 <mbedtls_mpi_copy>
    38a4:	34000200 	cbz	w0, 38e4 <mpi_egcd+0x1ac>
/home/hei/Desktop/optee-qemu/optee_os/lib/libutee/tee_api_arith_mpi.c:641 (discriminator 1)
    38a8:	2a0003e2 	mov	w2, w0
    38ac:	52805021 	mov	w1, #0x281                 	// #641
    38b0:	17ffffce 	b	37e8 <mpi_egcd+0xb0>
mpi_is_even():
/home/hei/Desktop/optee-qemu/optee_os/lib/libutee/tee_api_arith_mpi.c:596
    38b4:	aa1903e0 	mov	x0, x25
    38b8:	97ffff8e 	bl	36f0 <mpi_is_odd>
mpi_egcd():
/home/hei/Desktop/optee-qemu/optee_os/lib/libutee/tee_api_arith_mpi.c:635
    38bc:	72001c1f 	tst	w0, #0xff
    38c0:	54fffec1 	b.ne	3898 <mpi_egcd+0x160>  // b.any
/home/hei/Desktop/optee-qemu/optee_os/lib/libutee/tee_api_arith_mpi.c:636
    38c4:	1100077b 	add	w27, w27, #0x1
/home/hei/Desktop/optee-qemu/optee_os/lib/libutee/tee_api_arith_mpi.c:637
    38c8:	d2800021 	mov	x1, #0x1                   	// #1
    38cc:	aa1a03e0 	mov	x0, x26
    38d0:	94000919 	bl	5d34 <mbedtls_mpi_shift_r>
    38d4:	34fffcc0 	cbz	w0, 386c <mpi_egcd+0x134>
/home/hei/Desktop/optee-qemu/optee_os/lib/libutee/tee_api_arith_mpi.c:637 (discriminator 1)
    38d8:	2a0003e2 	mov	w2, w0
    38dc:	52804fa1 	mov	w1, #0x27d                 	// #637
    38e0:	17ffffc2 	b	37e8 <mpi_egcd+0xb0>
/home/hei/Desktop/optee-qemu/optee_os/lib/libutee/tee_api_arith_mpi.c:642
    38e4:	aa1903e1 	mov	x1, x25
    38e8:	aa1803e0 	mov	x0, x24
    38ec:	9400074a 	bl	5614 <mbedtls_mpi_copy>
    38f0:	34000080 	cbz	w0, 3900 <mpi_egcd+0x1c8>
/home/hei/Desktop/optee-qemu/optee_os/lib/libutee/tee_api_arith_mpi.c:642 (discriminator 1)
    38f4:	2a0003e2 	mov	w2, w0
    38f8:	52805041 	mov	w1, #0x282                 	// #642
    38fc:	17ffffbb 	b	37e8 <mpi_egcd+0xb0>
/home/hei/Desktop/optee-qemu/optee_os/lib/libutee/tee_api_arith_mpi.c:643
    3900:	52800021 	mov	w1, #0x1                   	// #1
    3904:	aa1703e0 	mov	x0, x23
    3908:	940007f1 	bl	58cc <mbedtls_mpi_lset>
    390c:	34000080 	cbz	w0, 391c <mpi_egcd+0x1e4>
/home/hei/Desktop/optee-qemu/optee_os/lib/libutee/tee_api_arith_mpi.c:643 (discriminator 1)
    3910:	2a0003e2 	mov	w2, w0
    3914:	52805061 	mov	w1, #0x283                 	// #643
    3918:	17ffffb4 	b	37e8 <mpi_egcd+0xb0>
/home/hei/Desktop/optee-qemu/optee_os/lib/libutee/tee_api_arith_mpi.c:644
    391c:	52800001 	mov	w1, #0x0                   	// #0
    3920:	aa1603e0 	mov	x0, x22
    3924:	940007ea 	bl	58cc <mbedtls_mpi_lset>
    3928:	34000080 	cbz	w0, 3938 <mpi_egcd+0x200>
/home/hei/Desktop/optee-qemu/optee_os/lib/libutee/tee_api_arith_mpi.c:644 (discriminator 1)
    392c:	2a0003e2 	mov	w2, w0
    3930:	52805081 	mov	w1, #0x284                 	// #644
    3934:	17ffffad 	b	37e8 <mpi_egcd+0xb0>
/home/hei/Desktop/optee-qemu/optee_os/lib/libutee/tee_api_arith_mpi.c:645
    3938:	52800001 	mov	w1, #0x0                   	// #0
    393c:	aa1403e0 	mov	x0, x20
    3940:	940007e3 	bl	58cc <mbedtls_mpi_lset>
    3944:	34000080 	cbz	w0, 3954 <mpi_egcd+0x21c>
/home/hei/Desktop/optee-qemu/optee_os/lib/libutee/tee_api_arith_mpi.c:645 (discriminator 1)
    3948:	2a0003e2 	mov	w2, w0
    394c:	528050a1 	mov	w1, #0x285                 	// #645
    3950:	17ffffa6 	b	37e8 <mpi_egcd+0xb0>
/home/hei/Desktop/optee-qemu/optee_os/lib/libutee/tee_api_arith_mpi.c:646
    3954:	52800021 	mov	w1, #0x1                   	// #1
    3958:	aa1303e0 	mov	x0, x19
    395c:	940007dc 	bl	58cc <mbedtls_mpi_lset>
    3960:	34001340 	cbz	w0, 3bc8 <mpi_egcd+0x490>
/home/hei/Desktop/optee-qemu/optee_os/lib/libutee/tee_api_arith_mpi.c:646 (discriminator 1)
    3964:	2a0003e2 	mov	w2, w0
    3968:	528050c1 	mov	w1, #0x286                 	// #646
    396c:	17ffff9f 	b	37e8 <mpi_egcd+0xb0>
/home/hei/Desktop/optee-qemu/optee_os/lib/libutee/tee_api_arith_mpi.c:650
    3970:	d2800021 	mov	x1, #0x1                   	// #1
    3974:	aa1503e0 	mov	x0, x21
    3978:	940008ef 	bl	5d34 <mbedtls_mpi_shift_r>
    397c:	34000080 	cbz	w0, 398c <mpi_egcd+0x254>
/home/hei/Desktop/optee-qemu/optee_os/lib/libutee/tee_api_arith_mpi.c:650 (discriminator 1)
    3980:	2a0003e2 	mov	w2, w0
    3984:	52805141 	mov	w1, #0x28a                 	// #650
    3988:	17ffff98 	b	37e8 <mpi_egcd+0xb0>
/home/hei/Desktop/optee-qemu/optee_os/lib/libutee/tee_api_arith_mpi.c:651
    398c:	aa1703e0 	mov	x0, x23
    3990:	97ffff58 	bl	36f0 <mpi_is_odd>
    3994:	72001c1f 	tst	w0, #0xff
    3998:	54000120 	b.eq	39bc <mpi_egcd+0x284>  // b.none
/home/hei/Desktop/optee-qemu/optee_os/lib/libutee/tee_api_arith_mpi.c:652
    399c:	aa1903e2 	mov	x2, x25
    39a0:	aa1703e1 	mov	x1, x23
    39a4:	aa1703e0 	mov	x0, x23
    39a8:	94000a02 	bl	61b0 <mbedtls_mpi_add_mpi>
    39ac:	340001e0 	cbz	w0, 39e8 <mpi_egcd+0x2b0>
/home/hei/Desktop/optee-qemu/optee_os/lib/libutee/tee_api_arith_mpi.c:652 (discriminator 1)
    39b0:	2a0003e2 	mov	w2, w0
    39b4:	52805181 	mov	w1, #0x28c                 	// #652
    39b8:	17ffff8c 	b	37e8 <mpi_egcd+0xb0>
/home/hei/Desktop/optee-qemu/optee_os/lib/libutee/tee_api_arith_mpi.c:651 (discriminator 1)
    39bc:	aa1603e0 	mov	x0, x22
    39c0:	97ffff4c 	bl	36f0 <mpi_is_odd>
    39c4:	72001c1f 	tst	w0, #0xff
    39c8:	54fffea1 	b.ne	399c <mpi_egcd+0x264>  // b.any
/home/hei/Desktop/optee-qemu/optee_os/lib/libutee/tee_api_arith_mpi.c:655
    39cc:	d2800021 	mov	x1, #0x1                   	// #1
    39d0:	aa1703e0 	mov	x0, x23
    39d4:	940008d8 	bl	5d34 <mbedtls_mpi_shift_r>
    39d8:	34000180 	cbz	w0, 3a08 <mpi_egcd+0x2d0>
/home/hei/Desktop/optee-qemu/optee_os/lib/libutee/tee_api_arith_mpi.c:655 (discriminator 1)
    39dc:	2a0003e2 	mov	w2, w0
    39e0:	528051e1 	mov	w1, #0x28f                 	// #655
    39e4:	17ffff81 	b	37e8 <mpi_egcd+0xb0>
/home/hei/Desktop/optee-qemu/optee_os/lib/libutee/tee_api_arith_mpi.c:653
    39e8:	aa1a03e2 	mov	x2, x26
    39ec:	aa1603e1 	mov	x1, x22
    39f0:	aa1603e0 	mov	x0, x22
    39f4:	94000a11 	bl	6238 <mbedtls_mpi_sub_mpi>
    39f8:	34fffea0 	cbz	w0, 39cc <mpi_egcd+0x294>
/home/hei/Desktop/optee-qemu/optee_os/lib/libutee/tee_api_arith_mpi.c:653 (discriminator 1)
    39fc:	2a0003e2 	mov	w2, w0
    3a00:	528051a1 	mov	w1, #0x28d                 	// #653
    3a04:	17ffff79 	b	37e8 <mpi_egcd+0xb0>
/home/hei/Desktop/optee-qemu/optee_os/lib/libutee/tee_api_arith_mpi.c:656
    3a08:	d2800021 	mov	x1, #0x1                   	// #1
    3a0c:	aa1603e0 	mov	x0, x22
    3a10:	940008c9 	bl	5d34 <mbedtls_mpi_shift_r>
    3a14:	34000080 	cbz	w0, 3a24 <mpi_egcd+0x2ec>
/home/hei/Desktop/optee-qemu/optee_os/lib/libutee/tee_api_arith_mpi.c:656 (discriminator 1)
    3a18:	2a0003e2 	mov	w2, w0
    3a1c:	52805201 	mov	w1, #0x290                 	// #656
    3a20:	17ffff72 	b	37e8 <mpi_egcd+0xb0>
mpi_is_even():
/home/hei/Desktop/optee-qemu/optee_os/lib/libutee/tee_api_arith_mpi.c:596
    3a24:	aa1503e0 	mov	x0, x21
    3a28:	97ffff32 	bl	36f0 <mpi_is_odd>
mpi_egcd():
/home/hei/Desktop/optee-qemu/optee_os/lib/libutee/tee_api_arith_mpi.c:649
    3a2c:	72001c1f 	tst	w0, #0xff
    3a30:	54fffa00 	b.eq	3970 <mpi_egcd+0x238>  // b.none
mpi_is_even():
/home/hei/Desktop/optee-qemu/optee_os/lib/libutee/tee_api_arith_mpi.c:596
    3a34:	aa1803e0 	mov	x0, x24
    3a38:	97ffff2e 	bl	36f0 <mpi_is_odd>
mpi_egcd():
/home/hei/Desktop/optee-qemu/optee_os/lib/libutee/tee_api_arith_mpi.c:659
    3a3c:	72001c1f 	tst	w0, #0xff
    3a40:	540001a0 	b.eq	3a74 <mpi_egcd+0x33c>  // b.none
/home/hei/Desktop/optee-qemu/optee_os/lib/libutee/tee_api_arith_mpi.c:670
    3a44:	aa1803e1 	mov	x1, x24
    3a48:	aa1503e0 	mov	x0, x21
    3a4c:	94000913 	bl	5e98 <mbedtls_mpi_cmp_mpi>
    3a50:	37f808c0 	tbnz	w0, #31, 3b68 <mpi_egcd+0x430>
/home/hei/Desktop/optee-qemu/optee_os/lib/libutee/tee_api_arith_mpi.c:671
    3a54:	aa1803e2 	mov	x2, x24
    3a58:	aa1503e1 	mov	x1, x21
    3a5c:	aa1503e0 	mov	x0, x21
    3a60:	940009f6 	bl	6238 <mbedtls_mpi_sub_mpi>
    3a64:	34000620 	cbz	w0, 3b28 <mpi_egcd+0x3f0>
/home/hei/Desktop/optee-qemu/optee_os/lib/libutee/tee_api_arith_mpi.c:671 (discriminator 1)
    3a68:	2a0003e2 	mov	w2, w0
    3a6c:	528053e1 	mov	w1, #0x29f                 	// #671
    3a70:	17ffff5e 	b	37e8 <mpi_egcd+0xb0>
/home/hei/Desktop/optee-qemu/optee_os/lib/libutee/tee_api_arith_mpi.c:660
    3a74:	d2800021 	mov	x1, #0x1                   	// #1
    3a78:	aa1803e0 	mov	x0, x24
    3a7c:	940008ae 	bl	5d34 <mbedtls_mpi_shift_r>
    3a80:	34000080 	cbz	w0, 3a90 <mpi_egcd+0x358>
/home/hei/Desktop/optee-qemu/optee_os/lib/libutee/tee_api_arith_mpi.c:660 (discriminator 1)
    3a84:	2a0003e2 	mov	w2, w0
    3a88:	52805281 	mov	w1, #0x294                 	// #660
    3a8c:	17ffff57 	b	37e8 <mpi_egcd+0xb0>
/home/hei/Desktop/optee-qemu/optee_os/lib/libutee/tee_api_arith_mpi.c:661
    3a90:	aa1403e0 	mov	x0, x20
    3a94:	97ffff17 	bl	36f0 <mpi_is_odd>
    3a98:	72001c1f 	tst	w0, #0xff
    3a9c:	54000120 	b.eq	3ac0 <mpi_egcd+0x388>  // b.none
/home/hei/Desktop/optee-qemu/optee_os/lib/libutee/tee_api_arith_mpi.c:662
    3aa0:	aa1903e2 	mov	x2, x25
    3aa4:	aa1403e1 	mov	x1, x20
    3aa8:	aa1403e0 	mov	x0, x20
    3aac:	940009c1 	bl	61b0 <mbedtls_mpi_add_mpi>
    3ab0:	340001e0 	cbz	w0, 3aec <mpi_egcd+0x3b4>
/home/hei/Desktop/optee-qemu/optee_os/lib/libutee/tee_api_arith_mpi.c:662 (discriminator 1)
    3ab4:	2a0003e2 	mov	w2, w0
    3ab8:	528052c1 	mov	w1, #0x296                 	// #662
    3abc:	17ffff4b 	b	37e8 <mpi_egcd+0xb0>
/home/hei/Desktop/optee-qemu/optee_os/lib/libutee/tee_api_arith_mpi.c:661 (discriminator 1)
    3ac0:	aa1303e0 	mov	x0, x19
    3ac4:	97ffff0b 	bl	36f0 <mpi_is_odd>
    3ac8:	72001c1f 	tst	w0, #0xff
    3acc:	54fffea1 	b.ne	3aa0 <mpi_egcd+0x368>  // b.any
/home/hei/Desktop/optee-qemu/optee_os/lib/libutee/tee_api_arith_mpi.c:665
    3ad0:	d2800021 	mov	x1, #0x1                   	// #1
    3ad4:	aa1403e0 	mov	x0, x20
    3ad8:	94000897 	bl	5d34 <mbedtls_mpi_shift_r>
    3adc:	34000180 	cbz	w0, 3b0c <mpi_egcd+0x3d4>
/home/hei/Desktop/optee-qemu/optee_os/lib/libutee/tee_api_arith_mpi.c:665 (discriminator 1)
    3ae0:	2a0003e2 	mov	w2, w0
    3ae4:	52805321 	mov	w1, #0x299                 	// #665
    3ae8:	17ffff40 	b	37e8 <mpi_egcd+0xb0>
/home/hei/Desktop/optee-qemu/optee_os/lib/libutee/tee_api_arith_mpi.c:663
    3aec:	aa1a03e2 	mov	x2, x26
    3af0:	aa1303e1 	mov	x1, x19
    3af4:	aa1303e0 	mov	x0, x19
    3af8:	940009d0 	bl	6238 <mbedtls_mpi_sub_mpi>
    3afc:	34fffea0 	cbz	w0, 3ad0 <mpi_egcd+0x398>
/home/hei/Desktop/optee-qemu/optee_os/lib/libutee/tee_api_arith_mpi.c:663 (discriminator 1)
    3b00:	2a0003e2 	mov	w2, w0
    3b04:	528052e1 	mov	w1, #0x297                 	// #663
    3b08:	17ffff38 	b	37e8 <mpi_egcd+0xb0>
/home/hei/Desktop/optee-qemu/optee_os/lib/libutee/tee_api_arith_mpi.c:666
    3b0c:	d2800021 	mov	x1, #0x1                   	// #1
    3b10:	aa1303e0 	mov	x0, x19
    3b14:	94000888 	bl	5d34 <mbedtls_mpi_shift_r>
    3b18:	34fff8e0 	cbz	w0, 3a34 <mpi_egcd+0x2fc>
/home/hei/Desktop/optee-qemu/optee_os/lib/libutee/tee_api_arith_mpi.c:666 (discriminator 1)
    3b1c:	2a0003e2 	mov	w2, w0
    3b20:	52805341 	mov	w1, #0x29a                 	// #666
    3b24:	17ffff31 	b	37e8 <mpi_egcd+0xb0>
/home/hei/Desktop/optee-qemu/optee_os/lib/libutee/tee_api_arith_mpi.c:672
    3b28:	aa1403e2 	mov	x2, x20
    3b2c:	aa1703e1 	mov	x1, x23
    3b30:	aa1703e0 	mov	x0, x23
    3b34:	940009c1 	bl	6238 <mbedtls_mpi_sub_mpi>
    3b38:	34000080 	cbz	w0, 3b48 <mpi_egcd+0x410>
/home/hei/Desktop/optee-qemu/optee_os/lib/libutee/tee_api_arith_mpi.c:672 (discriminator 1)
    3b3c:	2a0003e2 	mov	w2, w0
    3b40:	52805401 	mov	w1, #0x2a0                 	// #672
    3b44:	17ffff29 	b	37e8 <mpi_egcd+0xb0>
/home/hei/Desktop/optee-qemu/optee_os/lib/libutee/tee_api_arith_mpi.c:673
    3b48:	aa1303e2 	mov	x2, x19
    3b4c:	aa1603e1 	mov	x1, x22
    3b50:	aa1603e0 	mov	x0, x22
    3b54:	940009b9 	bl	6238 <mbedtls_mpi_sub_mpi>
    3b58:	34000380 	cbz	w0, 3bc8 <mpi_egcd+0x490>
/home/hei/Desktop/optee-qemu/optee_os/lib/libutee/tee_api_arith_mpi.c:673 (discriminator 1)
    3b5c:	2a0003e2 	mov	w2, w0
    3b60:	52805421 	mov	w1, #0x2a1                 	// #673
    3b64:	17ffff21 	b	37e8 <mpi_egcd+0xb0>
/home/hei/Desktop/optee-qemu/optee_os/lib/libutee/tee_api_arith_mpi.c:675
    3b68:	aa1503e2 	mov	x2, x21
    3b6c:	aa1803e1 	mov	x1, x24
    3b70:	aa1803e0 	mov	x0, x24
    3b74:	940009b1 	bl	6238 <mbedtls_mpi_sub_mpi>
    3b78:	34000080 	cbz	w0, 3b88 <mpi_egcd+0x450>
/home/hei/Desktop/optee-qemu/optee_os/lib/libutee/tee_api_arith_mpi.c:675 (discriminator 1)
    3b7c:	2a0003e2 	mov	w2, w0
    3b80:	52805461 	mov	w1, #0x2a3                 	// #675
    3b84:	17ffff19 	b	37e8 <mpi_egcd+0xb0>
/home/hei/Desktop/optee-qemu/optee_os/lib/libutee/tee_api_arith_mpi.c:676
    3b88:	aa1703e2 	mov	x2, x23
    3b8c:	aa1403e1 	mov	x1, x20
    3b90:	aa1403e0 	mov	x0, x20
    3b94:	940009a9 	bl	6238 <mbedtls_mpi_sub_mpi>
    3b98:	34000080 	cbz	w0, 3ba8 <mpi_egcd+0x470>
/home/hei/Desktop/optee-qemu/optee_os/lib/libutee/tee_api_arith_mpi.c:676 (discriminator 1)
    3b9c:	2a0003e2 	mov	w2, w0
    3ba0:	52805481 	mov	w1, #0x2a4                 	// #676
    3ba4:	17ffff11 	b	37e8 <mpi_egcd+0xb0>
/home/hei/Desktop/optee-qemu/optee_os/lib/libutee/tee_api_arith_mpi.c:677
    3ba8:	aa1603e2 	mov	x2, x22
    3bac:	aa1303e1 	mov	x1, x19
    3bb0:	aa1303e0 	mov	x0, x19
    3bb4:	940009a1 	bl	6238 <mbedtls_mpi_sub_mpi>
    3bb8:	34000080 	cbz	w0, 3bc8 <mpi_egcd+0x490>
/home/hei/Desktop/optee-qemu/optee_os/lib/libutee/tee_api_arith_mpi.c:677 (discriminator 1)
    3bbc:	2a0003e2 	mov	w2, w0
    3bc0:	528054a1 	mov	w1, #0x2a5                 	// #677
    3bc4:	17ffff09 	b	37e8 <mpi_egcd+0xb0>
/home/hei/Desktop/optee-qemu/optee_os/lib/libutee/tee_api_arith_mpi.c:648
    3bc8:	52800001 	mov	w1, #0x0                   	// #0
    3bcc:	aa1503e0 	mov	x0, x21
    3bd0:	940008e8 	bl	5f70 <mbedtls_mpi_cmp_int>
    3bd4:	35fff280 	cbnz	w0, 3a24 <mpi_egcd+0x2ec>
/home/hei/Desktop/optee-qemu/optee_os/lib/libutee/tee_api_arith_mpi.c:681
    3bd8:	9e660100 	fmov	x0, d8
    3bdc:	aa1403e1 	mov	x1, x20
    3be0:	9400068d 	bl	5614 <mbedtls_mpi_copy>
    3be4:	34000080 	cbz	w0, 3bf4 <mpi_egcd+0x4bc>
/home/hei/Desktop/optee-qemu/optee_os/lib/libutee/tee_api_arith_mpi.c:681 (discriminator 1)
    3be8:	2a0003e2 	mov	w2, w0
    3bec:	52805521 	mov	w1, #0x2a9                 	// #681
    3bf0:	17fffefe 	b	37e8 <mpi_egcd+0xb0>
/home/hei/Desktop/optee-qemu/optee_os/lib/libutee/tee_api_arith_mpi.c:682
    3bf4:	aa1303e1 	mov	x1, x19
    3bf8:	aa1c03e0 	mov	x0, x28
    3bfc:	94000686 	bl	5614 <mbedtls_mpi_copy>
    3c00:	34000080 	cbz	w0, 3c10 <mpi_egcd+0x4d8>
/home/hei/Desktop/optee-qemu/optee_os/lib/libutee/tee_api_arith_mpi.c:682 (discriminator 1)
    3c04:	2a0003e2 	mov	w2, w0
    3c08:	52805541 	mov	w1, #0x2aa                 	// #682
    3c0c:	17fffef7 	b	37e8 <mpi_egcd+0xb0>
/home/hei/Desktop/optee-qemu/optee_os/lib/libutee/tee_api_arith_mpi.c:683
    3c10:	2a1b03e1 	mov	w1, w27
    3c14:	aa1803e0 	mov	x0, x24
    3c18:	94000807 	bl	5c34 <mbedtls_mpi_shift_l>
    3c1c:	34000080 	cbz	w0, 3c2c <mpi_egcd+0x4f4>
/home/hei/Desktop/optee-qemu/optee_os/lib/libutee/tee_api_arith_mpi.c:683 (discriminator 1)
    3c20:	2a0003e2 	mov	w2, w0
    3c24:	52805561 	mov	w1, #0x2ab                 	// #683
    3c28:	17fffef0 	b	37e8 <mpi_egcd+0xb0>
/home/hei/Desktop/optee-qemu/optee_os/lib/libutee/tee_api_arith_mpi.c:686
    3c2c:	aa1703e0 	mov	x0, x23
    3c30:	940005d8 	bl	5390 <mbedtls_mpi_free>
/home/hei/Desktop/optee-qemu/optee_os/lib/libutee/tee_api_arith_mpi.c:687
    3c34:	aa1603e0 	mov	x0, x22
    3c38:	940005d6 	bl	5390 <mbedtls_mpi_free>
/home/hei/Desktop/optee-qemu/optee_os/lib/libutee/tee_api_arith_mpi.c:688
    3c3c:	aa1403e0 	mov	x0, x20
    3c40:	940005d4 	bl	5390 <mbedtls_mpi_free>
/home/hei/Desktop/optee-qemu/optee_os/lib/libutee/tee_api_arith_mpi.c:689
    3c44:	aa1303e0 	mov	x0, x19
    3c48:	940005d2 	bl	5390 <mbedtls_mpi_free>
/home/hei/Desktop/optee-qemu/optee_os/lib/libutee/tee_api_arith_mpi.c:690
    3c4c:	aa1a03e0 	mov	x0, x26
    3c50:	940005d0 	bl	5390 <mbedtls_mpi_free>
/home/hei/Desktop/optee-qemu/optee_os/lib/libutee/tee_api_arith_mpi.c:691
    3c54:	aa1903e0 	mov	x0, x25
    3c58:	940005ce 	bl	5390 <mbedtls_mpi_free>
/home/hei/Desktop/optee-qemu/optee_os/lib/libutee/tee_api_arith_mpi.c:692
    3c5c:	aa1503e0 	mov	x0, x21
    3c60:	940005cc 	bl	5390 <mbedtls_mpi_free>
/home/hei/Desktop/optee-qemu/optee_os/lib/libutee/tee_api_arith_mpi.c:693
    3c64:	a94153f3 	ldp	x19, x20, [sp, #16]
    3c68:	a9425bf5 	ldp	x21, x22, [sp, #32]
    3c6c:	a94363f7 	ldp	x23, x24, [sp, #48]
    3c70:	a9446bf9 	ldp	x25, x26, [sp, #64]
    3c74:	a94573fb 	ldp	x27, x28, [sp, #80]
    3c78:	6d4627e8 	ldp	d8, d9, [sp, #96]
    3c7c:	a8d27bfd 	ldp	x29, x30, [sp], #288
    3c80:	d65f03c0 	ret

0000000000003c84 <_TEE_MathAPI_Init>:
_TEE_MathAPI_Init():
/home/hei/Desktop/optee-qemu/optee_os/lib/libutee/tee_api_arith_mpi.c:44
    3c84:	a9bf7bfd 	stp	x29, x30, [sp, #-16]!
/home/hei/Desktop/optee-qemu/optee_os/lib/libutee/tee_api_arith_mpi.c:47
    3c88:	d2860001 	mov	x1, #0x3000                	// #12288
    3c8c:	d2800002 	mov	x2, #0x0                   	// #0
/home/hei/Desktop/optee-qemu/optee_os/lib/libutee/tee_api_arith_mpi.c:44
    3c90:	910003fd 	mov	x29, sp
/home/hei/Desktop/optee-qemu/optee_os/lib/libutee/tee_api_arith_mpi.c:47
    3c94:	b0000040 	adrp	x0, c000 <_DYNAMIC>
    3c98:	91132000 	add	x0, x0, #0x4c8
    3c9c:	9400138a 	bl	8ac4 <mempool_alloc_pool>
    3ca0:	b0000041 	adrp	x1, c000 <_DYNAMIC>
    3ca4:	f940cc21 	ldr	x1, [x1, #408]
    3ca8:	f9000020 	str	x0, [x1]
/home/hei/Desktop/optee-qemu/optee_os/lib/libutee/tee_api_arith_mpi.c:48
    3cac:	b5000100 	cbnz	x0, 3ccc <_TEE_MathAPI_Init+0x48>
/home/hei/Desktop/optee-qemu/optee_os/lib/libutee/tee_api_arith_mpi.c:49
    3cb0:	90000040 	adrp	x0, b000 <__func__.3755+0xec>
    3cb4:	910a7400 	add	x0, x0, #0x29d
    3cb8:	90000042 	adrp	x2, b000 <__func__.3755+0xec>
    3cbc:	52800621 	mov	w1, #0x31                  	// #49
    3cc0:	91107c42 	add	x2, x2, #0x41f
    3cc4:	91007c00 	add	x0, x0, #0x1f
    3cc8:	97fffded 	bl	347c <api_panic>
/home/hei/Desktop/optee-qemu/optee_os/lib/libutee/tee_api_arith_mpi.c:50
    3ccc:	a8c17bfd 	ldp	x29, x30, [sp], #16
    3cd0:	d65f03c0 	ret

0000000000003cd4 <TEE_BigIntInit>:
TEE_BigIntInit():
/home/hei/Desktop/optee-qemu/optee_os/lib/libutee/tee_api_arith_mpi.c:120
    3cd4:	11007c22 	add	w2, w1, #0x1f
/home/hei/Desktop/optee-qemu/optee_os/lib/libutee/tee_api_arith_mpi.c:119
    3cd8:	a9be7bfd 	stp	x29, x30, [sp, #-32]!
/home/hei/Desktop/optee-qemu/optee_os/lib/libutee/tee_api_arith_mpi.c:120
    3cdc:	53057c42 	lsr	w2, w2, #5
/home/hei/Desktop/optee-qemu/optee_os/lib/libutee/tee_api_arith_mpi.c:119
    3ce0:	910003fd 	mov	x29, sp
/home/hei/Desktop/optee-qemu/optee_os/lib/libutee/tee_api_arith_mpi.c:120
    3ce4:	11000842 	add	w2, w2, #0x2
/home/hei/Desktop/optee-qemu/optee_os/lib/libutee/tee_api_arith_mpi.c:119
    3ce8:	f9000bf3 	str	x19, [sp, #16]
    3cec:	2a0103f3 	mov	w19, w1
/home/hei/Desktop/optee-qemu/optee_os/lib/libutee/tee_api_arith_mpi.c:120
    3cf0:	d37e6c42 	ubfiz	x2, x2, #2, #28
    3cf4:	52800001 	mov	w1, #0x0                   	// #0
    3cf8:	97fff65c 	bl	1668 <memset>
    3cfc:	aa0003e3 	mov	x3, x0
/home/hei/Desktop/optee-qemu/optee_os/lib/libutee/tee_api_arith_mpi.c:125
    3d00:	52800020 	mov	w0, #0x1                   	// #1
/home/hei/Desktop/optee-qemu/optee_os/lib/libutee/tee_api_arith_mpi.c:126
    3d04:	51000a73 	sub	w19, w19, #0x2
/home/hei/Desktop/optee-qemu/optee_os/lib/libutee/tee_api_arith_mpi.c:125
    3d08:	b9000060 	str	w0, [x3]
/home/hei/Desktop/optee-qemu/optee_os/lib/libutee/tee_api_arith_mpi.c:126
    3d0c:	5284e200 	mov	w0, #0x2710                	// #10000
    3d10:	6b00027f 	cmp	w19, w0
    3d14:	54000109 	b.ls	3d34 <TEE_BigIntInit+0x60>  // b.plast
/home/hei/Desktop/optee-qemu/optee_os/lib/libutee/tee_api_arith_mpi.c:127
    3d18:	90000040 	adrp	x0, b000 <__func__.3755+0xec>
    3d1c:	910a7400 	add	x0, x0, #0x29d
    3d20:	90000042 	adrp	x2, b000 <__func__.3755+0xec>
    3d24:	52800fe1 	mov	w1, #0x7f                  	// #127
    3d28:	91110042 	add	x2, x2, #0x440
    3d2c:	9100c400 	add	x0, x0, #0x31
    3d30:	97fffdd3 	bl	347c <api_panic>
/home/hei/Desktop/optee-qemu/optee_os/lib/libutee/tee_api_arith_mpi.c:128
    3d34:	79000873 	strh	w19, [x3, #4]
/home/hei/Desktop/optee-qemu/optee_os/lib/libutee/tee_api_arith_mpi.c:129
    3d38:	f9400bf3 	ldr	x19, [sp, #16]
    3d3c:	a8c27bfd 	ldp	x29, x30, [sp], #32
    3d40:	d65f03c0 	ret

0000000000003d44 <TEE_BigIntConvertFromOctetString>:
TEE_BigIntConvertFromOctetString():
/home/hei/Desktop/optee-qemu/optee_os/lib/libutee/tee_api_arith_mpi.c:134
    3d44:	a9ba7bfd 	stp	x29, x30, [sp, #-96]!
    3d48:	910003fd 	mov	x29, sp
    3d4c:	a90153f3 	stp	x19, x20, [sp, #16]
get_mpi():
/home/hei/Desktop/optee-qemu/optee_os/lib/libutee/tee_api_arith_mpi.c:101
    3d50:	910123f3 	add	x19, sp, #0x48
TEE_BigIntConvertFromOctetString():
/home/hei/Desktop/optee-qemu/optee_os/lib/libutee/tee_api_arith_mpi.c:134
    3d54:	2a0303f4 	mov	w20, w3
    3d58:	a9025bf5 	stp	x21, x22, [sp, #32]
    3d5c:	2a0203f6 	mov	w22, w2
    3d60:	aa0003f5 	mov	x21, x0
get_mpi():
/home/hei/Desktop/optee-qemu/optee_os/lib/libutee/tee_api_arith_mpi.c:101
    3d64:	aa1303e0 	mov	x0, x19
TEE_BigIntConvertFromOctetString():
/home/hei/Desktop/optee-qemu/optee_os/lib/libutee/tee_api_arith_mpi.c:134
    3d68:	f9001fe1 	str	x1, [sp, #56]
get_mpi():
/home/hei/Desktop/optee-qemu/optee_os/lib/libutee/tee_api_arith_mpi.c:101
    3d6c:	9400057f 	bl	5368 <mbedtls_mpi_init_mempool>
TEE_BigIntConvertFromOctetString():
/home/hei/Desktop/optee-qemu/optee_os/lib/libutee/tee_api_arith_mpi.c:140
    3d70:	f9401fe1 	ldr	x1, [sp, #56]
    3d74:	2a1603e2 	mov	w2, w22
    3d78:	aa1303e0 	mov	x0, x19
    3d7c:	9400074f 	bl	5ab8 <mbedtls_mpi_read_binary>
    3d80:	350001e0 	cbnz	w0, 3dbc <TEE_BigIntConvertFromOctetString+0x78>
/home/hei/Desktop/optee-qemu/optee_os/lib/libutee/tee_api_arith_mpi.c:145
    3d84:	36f80074 	tbz	w20, #31, 3d90 <TEE_BigIntConvertFromOctetString+0x4c>
/home/hei/Desktop/optee-qemu/optee_os/lib/libutee/tee_api_arith_mpi.c:146
    3d88:	12800000 	mov	w0, #0xffffffff            	// #-1
    3d8c:	790093e0 	strh	w0, [sp, #72]
/home/hei/Desktop/optee-qemu/optee_os/lib/libutee/tee_api_arith_mpi.c:149
    3d90:	aa1503e1 	mov	x1, x21
    3d94:	aa1303e0 	mov	x0, x19
    3d98:	97fffdf7 	bl	3574 <copy_mpi_to_bigint>
    3d9c:	2a0003f4 	mov	w20, w0
/home/hei/Desktop/optee-qemu/optee_os/lib/libutee/tee_api_arith_mpi.c:151
    3da0:	aa1303e0 	mov	x0, x19
    3da4:	9400057b 	bl	5390 <mbedtls_mpi_free>
/home/hei/Desktop/optee-qemu/optee_os/lib/libutee/tee_api_arith_mpi.c:154
    3da8:	2a1403e0 	mov	w0, w20
    3dac:	a94153f3 	ldp	x19, x20, [sp, #16]
    3db0:	a9425bf5 	ldp	x21, x22, [sp, #32]
    3db4:	a8c67bfd 	ldp	x29, x30, [sp], #96
    3db8:	d65f03c0 	ret
/home/hei/Desktop/optee-qemu/optee_os/lib/libutee/tee_api_arith_mpi.c:145
    3dbc:	36f80074 	tbz	w20, #31, 3dc8 <TEE_BigIntConvertFromOctetString+0x84>
/home/hei/Desktop/optee-qemu/optee_os/lib/libutee/tee_api_arith_mpi.c:146
    3dc0:	12800000 	mov	w0, #0xffffffff            	// #-1
    3dc4:	790093e0 	strh	w0, [sp, #72]
/home/hei/Desktop/optee-qemu/optee_os/lib/libutee/tee_api_arith_mpi.c:141
    3dc8:	1299fe14 	mov	w20, #0xffff300f            	// #-53233
    3dcc:	17fffff5 	b	3da0 <TEE_BigIntConvertFromOctetString+0x5c>

0000000000003dd0 <TEE_BigIntConvertToOctetString>:
TEE_BigIntConvertToOctetString():
/home/hei/Desktop/optee-qemu/optee_os/lib/libutee/tee_api_arith_mpi.c:158
    3dd0:	a9bb7bfd 	stp	x29, x30, [sp, #-80]!
    3dd4:	910003fd 	mov	x29, sp
    3dd8:	a9025bf5 	stp	x21, x22, [sp, #32]
    3ddc:	aa0103f6 	mov	x22, x1
/home/hei/Desktop/optee-qemu/optee_os/lib/libutee/tee_api_arith_mpi.c:163
    3de0:	aa0203e1 	mov	x1, x2
/home/hei/Desktop/optee-qemu/optee_os/lib/libutee/tee_api_arith_mpi.c:158
    3de4:	a90153f3 	stp	x19, x20, [sp, #16]
/home/hei/Desktop/optee-qemu/optee_os/lib/libutee/tee_api_arith_mpi.c:163
    3de8:	9100e3f3 	add	x19, sp, #0x38
/home/hei/Desktop/optee-qemu/optee_os/lib/libutee/tee_api_arith_mpi.c:158
    3dec:	aa0003f5 	mov	x21, x0
/home/hei/Desktop/optee-qemu/optee_os/lib/libutee/tee_api_arith_mpi.c:163
    3df0:	aa1303e0 	mov	x0, x19
    3df4:	97fffdba 	bl	34dc <get_mpi>
/home/hei/Desktop/optee-qemu/optee_os/lib/libutee/tee_api_arith_mpi.c:165
    3df8:	aa1303e0 	mov	x0, x19
    3dfc:	94000728 	bl	5a9c <mbedtls_mpi_size>
    3e00:	aa0003f4 	mov	x20, x0
/home/hei/Desktop/optee-qemu/optee_os/lib/libutee/tee_api_arith_mpi.c:166
    3e04:	b94002c0 	ldr	w0, [x22]
    3e08:	eb14001f 	cmp	x0, x20
    3e0c:	540001a3 	b.cc	3e40 <TEE_BigIntConvertToOctetString+0x70>  // b.lo, b.ul, b.last
/home/hei/Desktop/optee-qemu/optee_os/lib/libutee/tee_api_arith_mpi.c:167
    3e10:	aa1503e1 	mov	x1, x21
    3e14:	aa1403e2 	mov	x2, x20
    3e18:	aa1303e0 	mov	x0, x19
/home/hei/Desktop/optee-qemu/optee_os/lib/libutee/tee_api_arith_mpi.c:159
    3e1c:	52800015 	mov	w21, #0x0                   	// #0
/home/hei/Desktop/optee-qemu/optee_os/lib/libutee/tee_api_arith_mpi.c:167
    3e20:	94000754 	bl	5b70 <mbedtls_mpi_write_binary>
    3e24:	34000100 	cbz	w0, 3e44 <TEE_BigIntConvertToOctetString+0x74>
/home/hei/Desktop/optee-qemu/optee_os/lib/libutee/tee_api_arith_mpi.c:167 (discriminator 1)
    3e28:	2a0003e2 	mov	w2, w0
    3e2c:	90000040 	adrp	x0, b000 <__func__.3755+0xec>
    3e30:	910a7400 	add	x0, x0, #0x29d
    3e34:	528014e1 	mov	w1, #0xa7                  	// #167
    3e38:	91010000 	add	x0, x0, #0x40
    3e3c:	97fffd9c 	bl	34ac <mpi_panic>
/home/hei/Desktop/optee-qemu/optee_os/lib/libutee/tee_api_arith_mpi.c:169
    3e40:	129ffdf5 	mov	w21, #0xffff0010            	// #-65520
/home/hei/Desktop/optee-qemu/optee_os/lib/libutee/tee_api_arith_mpi.c:171
    3e44:	b90002d4 	str	w20, [x22]
/home/hei/Desktop/optee-qemu/optee_os/lib/libutee/tee_api_arith_mpi.c:173
    3e48:	aa1303e0 	mov	x0, x19
    3e4c:	94000551 	bl	5390 <mbedtls_mpi_free>
/home/hei/Desktop/optee-qemu/optee_os/lib/libutee/tee_api_arith_mpi.c:176
    3e50:	2a1503e0 	mov	w0, w21
    3e54:	a94153f3 	ldp	x19, x20, [sp, #16]
    3e58:	a9425bf5 	ldp	x21, x22, [sp, #32]
    3e5c:	a8c57bfd 	ldp	x29, x30, [sp], #80
    3e60:	d65f03c0 	ret

0000000000003e64 <TEE_BigIntConvertFromS32>:
TEE_BigIntConvertFromS32():
/home/hei/Desktop/optee-qemu/optee_os/lib/libutee/tee_api_arith_mpi.c:179
    3e64:	a9bb7bfd 	stp	x29, x30, [sp, #-80]!
    3e68:	910003fd 	mov	x29, sp
    3e6c:	a90153f3 	stp	x19, x20, [sp, #16]
/home/hei/Desktop/optee-qemu/optee_os/lib/libutee/tee_api_arith_mpi.c:182
    3e70:	9100e3f3 	add	x19, sp, #0x38
/home/hei/Desktop/optee-qemu/optee_os/lib/libutee/tee_api_arith_mpi.c:179
    3e74:	aa0003f4 	mov	x20, x0
    3e78:	f90013f5 	str	x21, [sp, #32]
    3e7c:	2a0103f5 	mov	w21, w1
/home/hei/Desktop/optee-qemu/optee_os/lib/libutee/tee_api_arith_mpi.c:182
    3e80:	aa0003e1 	mov	x1, x0
    3e84:	aa1303e0 	mov	x0, x19
    3e88:	97fffd95 	bl	34dc <get_mpi>
/home/hei/Desktop/optee-qemu/optee_os/lib/libutee/tee_api_arith_mpi.c:184
    3e8c:	2a1503e1 	mov	w1, w21
    3e90:	aa1303e0 	mov	x0, x19
    3e94:	9400068e 	bl	58cc <mbedtls_mpi_lset>
    3e98:	340000e0 	cbz	w0, 3eb4 <TEE_BigIntConvertFromS32+0x50>
/home/hei/Desktop/optee-qemu/optee_os/lib/libutee/tee_api_arith_mpi.c:184 (discriminator 1)
    3e9c:	2a0003e2 	mov	w2, w0
    3ea0:	52801701 	mov	w1, #0xb8                  	// #184
/home/hei/Desktop/optee-qemu/optee_os/lib/libutee/tee_api_arith_mpi.c:186 (discriminator 1)
    3ea4:	90000040 	adrp	x0, b000 <__func__.3755+0xec>
    3ea8:	910a7400 	add	x0, x0, #0x29d
    3eac:	91017c00 	add	x0, x0, #0x5f
    3eb0:	97fffd7f 	bl	34ac <mpi_panic>
/home/hei/Desktop/optee-qemu/optee_os/lib/libutee/tee_api_arith_mpi.c:186
    3eb4:	aa1403e1 	mov	x1, x20
    3eb8:	aa1303e0 	mov	x0, x19
    3ebc:	97fffdae 	bl	3574 <copy_mpi_to_bigint>
    3ec0:	34000080 	cbz	w0, 3ed0 <TEE_BigIntConvertFromS32+0x6c>
/home/hei/Desktop/optee-qemu/optee_os/lib/libutee/tee_api_arith_mpi.c:186 (discriminator 1)
    3ec4:	2a0003e2 	mov	w2, w0
    3ec8:	52801741 	mov	w1, #0xba                  	// #186
    3ecc:	17fffff6 	b	3ea4 <TEE_BigIntConvertFromS32+0x40>
/home/hei/Desktop/optee-qemu/optee_os/lib/libutee/tee_api_arith_mpi.c:187
    3ed0:	aa1303e0 	mov	x0, x19
    3ed4:	9400052f 	bl	5390 <mbedtls_mpi_free>
/home/hei/Desktop/optee-qemu/optee_os/lib/libutee/tee_api_arith_mpi.c:188
    3ed8:	a94153f3 	ldp	x19, x20, [sp, #16]
    3edc:	f94013f5 	ldr	x21, [sp, #32]
    3ee0:	a8c57bfd 	ldp	x29, x30, [sp], #80
    3ee4:	d65f03c0 	ret

0000000000003ee8 <TEE_BigIntConvertToS32>:
TEE_BigIntConvertToS32():
/home/hei/Desktop/optee-qemu/optee_os/lib/libutee/tee_api_arith_mpi.c:191
    3ee8:	a9bc7bfd 	stp	x29, x30, [sp, #-64]!
    3eec:	910003fd 	mov	x29, sp
    3ef0:	a90153f3 	stp	x19, x20, [sp, #16]
/home/hei/Desktop/optee-qemu/optee_os/lib/libutee/tee_api_arith_mpi.c:196
    3ef4:	9100a3f3 	add	x19, sp, #0x28
/home/hei/Desktop/optee-qemu/optee_os/lib/libutee/tee_api_arith_mpi.c:191
    3ef8:	aa0003f4 	mov	x20, x0
/home/hei/Desktop/optee-qemu/optee_os/lib/libutee/tee_api_arith_mpi.c:196
    3efc:	aa1303e0 	mov	x0, x19
    3f00:	97fffd77 	bl	34dc <get_mpi>
/home/hei/Desktop/optee-qemu/optee_os/lib/libutee/tee_api_arith_mpi.c:198
    3f04:	d2800082 	mov	x2, #0x4                   	// #4
    3f08:	910093e1 	add	x1, sp, #0x24
    3f0c:	aa1303e0 	mov	x0, x19
    3f10:	94000718 	bl	5b70 <mbedtls_mpi_write_binary>
    3f14:	34000100 	cbz	w0, 3f34 <TEE_BigIntConvertToS32+0x4c>
/home/hei/Desktop/optee-qemu/optee_os/lib/libutee/tee_api_arith_mpi.c:199
    3f18:	1299fe14 	mov	w20, #0xffff300f            	// #-53233
/home/hei/Desktop/optee-qemu/optee_os/lib/libutee/tee_api_arith_mpi.c:212
    3f1c:	aa1303e0 	mov	x0, x19
    3f20:	9400051c 	bl	5390 <mbedtls_mpi_free>
/home/hei/Desktop/optee-qemu/optee_os/lib/libutee/tee_api_arith_mpi.c:215
    3f24:	2a1403e0 	mov	w0, w20
    3f28:	a94153f3 	ldp	x19, x20, [sp, #16]
    3f2c:	a8c47bfd 	ldp	x29, x30, [sp], #64
    3f30:	d65f03c0 	ret
/home/hei/Desktop/optee-qemu/optee_os/lib/libutee/tee_api_arith_mpi.c:203
    3f34:	b94027e1 	ldr	w1, [sp, #36]
    3f38:	79c053e0 	ldrsh	w0, [sp, #40]
    3f3c:	5ac00821 	rev	w1, w1
    3f40:	7100001f 	cmp	w0, #0x0
    3f44:	2a0103e0 	mov	w0, w1
    3f48:	540000cd 	b.le	3f60 <TEE_BigIntConvertToS32+0x78>
/home/hei/Desktop/optee-qemu/optee_os/lib/libutee/tee_api_arith_mpi.c:204
    3f4c:	eb21c01f 	cmp	x0, w1, sxtw
    3f50:	b9000281 	str	w1, [x20]
/home/hei/Desktop/optee-qemu/optee_os/lib/libutee/tee_api_arith_mpi.c:207
    3f54:	54fffe21 	b.ne	3f18 <TEE_BigIntConvertToS32+0x30>  // b.any
/home/hei/Desktop/optee-qemu/optee_os/lib/libutee/tee_api_arith_mpi.c:192
    3f58:	52800014 	mov	w20, #0x0                   	// #0
    3f5c:	17fffff0 	b	3f1c <TEE_BigIntConvertToS32+0x34>
/home/hei/Desktop/optee-qemu/optee_os/lib/libutee/tee_api_arith_mpi.c:207
    3f60:	cb0003e0 	neg	x0, x0
    3f64:	b9000280 	str	w0, [x20]
    3f68:	eb20c01f 	cmp	x0, w0, sxtw
    3f6c:	17fffffa 	b	3f54 <TEE_BigIntConvertToS32+0x6c>

0000000000003f70 <TEE_BigIntCmp>:
TEE_BigIntCmp():
/home/hei/Desktop/optee-qemu/optee_os/lib/libutee/tee_api_arith_mpi.c:218
    3f70:	a9ba7bfd 	stp	x29, x30, [sp, #-96]!
    3f74:	910003fd 	mov	x29, sp
    3f78:	a90153f3 	stp	x19, x20, [sp, #16]
/home/hei/Desktop/optee-qemu/optee_os/lib/libutee/tee_api_arith_mpi.c:223
    3f7c:	9100c3f4 	add	x20, sp, #0x30
/home/hei/Desktop/optee-qemu/optee_os/lib/libutee/tee_api_arith_mpi.c:224
    3f80:	910123f3 	add	x19, sp, #0x48
/home/hei/Desktop/optee-qemu/optee_os/lib/libutee/tee_api_arith_mpi.c:218
    3f84:	f90013f5 	str	x21, [sp, #32]
    3f88:	aa0103f5 	mov	x21, x1
/home/hei/Desktop/optee-qemu/optee_os/lib/libutee/tee_api_arith_mpi.c:223
    3f8c:	aa0003e1 	mov	x1, x0
    3f90:	aa1403e0 	mov	x0, x20
    3f94:	97fffd52 	bl	34dc <get_mpi>
/home/hei/Desktop/optee-qemu/optee_os/lib/libutee/tee_api_arith_mpi.c:224
    3f98:	aa1503e1 	mov	x1, x21
    3f9c:	aa1303e0 	mov	x0, x19
    3fa0:	97fffd4f 	bl	34dc <get_mpi>
/home/hei/Desktop/optee-qemu/optee_os/lib/libutee/tee_api_arith_mpi.c:226
    3fa4:	aa1303e1 	mov	x1, x19
    3fa8:	aa1403e0 	mov	x0, x20
    3fac:	940007bb 	bl	5e98 <mbedtls_mpi_cmp_mpi>
    3fb0:	2a0003f5 	mov	w21, w0
/home/hei/Desktop/optee-qemu/optee_os/lib/libutee/tee_api_arith_mpi.c:228
    3fb4:	aa1403e0 	mov	x0, x20
    3fb8:	940004f6 	bl	5390 <mbedtls_mpi_free>
/home/hei/Desktop/optee-qemu/optee_os/lib/libutee/tee_api_arith_mpi.c:229
    3fbc:	aa1303e0 	mov	x0, x19
    3fc0:	940004f4 	bl	5390 <mbedtls_mpi_free>
/home/hei/Desktop/optee-qemu/optee_os/lib/libutee/tee_api_arith_mpi.c:232
    3fc4:	2a1503e0 	mov	w0, w21
    3fc8:	a94153f3 	ldp	x19, x20, [sp, #16]
    3fcc:	f94013f5 	ldr	x21, [sp, #32]
    3fd0:	a8c67bfd 	ldp	x29, x30, [sp], #96
    3fd4:	d65f03c0 	ret

0000000000003fd8 <TEE_BigIntCmpS32>:
TEE_BigIntCmpS32():
/home/hei/Desktop/optee-qemu/optee_os/lib/libutee/tee_api_arith_mpi.c:235
    3fd8:	a9bc7bfd 	stp	x29, x30, [sp, #-64]!
    3fdc:	910003fd 	mov	x29, sp
    3fe0:	a90153f3 	stp	x19, x20, [sp, #16]
/home/hei/Desktop/optee-qemu/optee_os/lib/libutee/tee_api_arith_mpi.c:239
    3fe4:	9100a3f3 	add	x19, sp, #0x28
/home/hei/Desktop/optee-qemu/optee_os/lib/libutee/tee_api_arith_mpi.c:235
    3fe8:	2a0103f4 	mov	w20, w1
/home/hei/Desktop/optee-qemu/optee_os/lib/libutee/tee_api_arith_mpi.c:239
    3fec:	aa0003e1 	mov	x1, x0
    3ff0:	aa1303e0 	mov	x0, x19
    3ff4:	97fffd3a 	bl	34dc <get_mpi>
/home/hei/Desktop/optee-qemu/optee_os/lib/libutee/tee_api_arith_mpi.c:241
    3ff8:	2a1403e1 	mov	w1, w20
    3ffc:	aa1303e0 	mov	x0, x19
    4000:	940007dc 	bl	5f70 <mbedtls_mpi_cmp_int>
    4004:	2a0003f4 	mov	w20, w0
/home/hei/Desktop/optee-qemu/optee_os/lib/libutee/tee_api_arith_mpi.c:243
    4008:	aa1303e0 	mov	x0, x19
    400c:	940004e1 	bl	5390 <mbedtls_mpi_free>
/home/hei/Desktop/optee-qemu/optee_os/lib/libutee/tee_api_arith_mpi.c:246
    4010:	2a1403e0 	mov	w0, w20
    4014:	a94153f3 	ldp	x19, x20, [sp, #16]
    4018:	a8c47bfd 	ldp	x29, x30, [sp], #64
    401c:	d65f03c0 	ret

0000000000004020 <bigint_binary_mod>:
bigint_binary_mod():
/home/hei/Desktop/optee-qemu/optee_os/lib/libutee/tee_api_arith_mpi.c:356
    4020:	a9b27bfd 	stp	x29, x30, [sp, #-224]!
    4024:	910003fd 	mov	x29, sp
    4028:	a90153f3 	stp	x19, x20, [sp, #16]
    402c:	aa0203f4 	mov	x20, x2
    4030:	a9025bf5 	stp	x21, x22, [sp, #32]
    4034:	aa0103f6 	mov	x22, x1
    4038:	aa0303f5 	mov	x21, x3
/home/hei/Desktop/optee-qemu/optee_os/lib/libutee/tee_api_arith_mpi.c:357
    403c:	52800041 	mov	w1, #0x2                   	// #2
/home/hei/Desktop/optee-qemu/optee_os/lib/libutee/tee_api_arith_mpi.c:356
    4040:	a90363f7 	stp	x23, x24, [sp, #48]
    4044:	aa0003f7 	mov	x23, x0
/home/hei/Desktop/optee-qemu/optee_os/lib/libutee/tee_api_arith_mpi.c:357
    4048:	aa0303e0 	mov	x0, x3
/home/hei/Desktop/optee-qemu/optee_os/lib/libutee/tee_api_arith_mpi.c:356
    404c:	a9046bf9 	stp	x25, x26, [sp, #64]
    4050:	f9002bfb 	str	x27, [sp, #80]
    4054:	aa0403fb 	mov	x27, x4
/home/hei/Desktop/optee-qemu/optee_os/lib/libutee/tee_api_arith_mpi.c:357
    4058:	97ffffe0 	bl	3fd8 <TEE_BigIntCmpS32>
    405c:	36f80100 	tbz	w0, #31, 407c <bigint_binary_mod+0x5c>
/home/hei/Desktop/optee-qemu/optee_os/lib/libutee/tee_api_arith_mpi.c:358
    4060:	f0000020 	adrp	x0, b000 <__func__.3755+0xec>
    4064:	910a7400 	add	x0, x0, #0x29d
    4068:	f0000022 	adrp	x2, b000 <__func__.3755+0xec>
    406c:	52802cc1 	mov	w1, #0x166                 	// #358
    4070:	91114442 	add	x2, x2, #0x451
    4074:	9101e000 	add	x0, x0, #0x78
    4078:	97fffd01 	bl	347c <api_panic>
/home/hei/Desktop/optee-qemu/optee_os/lib/libutee/tee_api_arith_mpi.c:368
    407c:	9101a3f3 	add	x19, sp, #0x68
    4080:	aa1703e1 	mov	x1, x23
    4084:	aa1303e0 	mov	x0, x19
/home/hei/Desktop/optee-qemu/optee_os/lib/libutee/tee_api_arith_mpi.c:369
    4088:	9102c3fa 	add	x26, sp, #0xb0
/home/hei/Desktop/optee-qemu/optee_os/lib/libutee/tee_api_arith_mpi.c:368
    408c:	97fffd14 	bl	34dc <get_mpi>
/home/hei/Desktop/optee-qemu/optee_os/lib/libutee/tee_api_arith_mpi.c:369
    4090:	910203f9 	add	x25, sp, #0x80
    4094:	aa1503e1 	mov	x1, x21
    4098:	aa1a03e0 	mov	x0, x26
    409c:	97fffd10 	bl	34dc <get_mpi>
/home/hei/Desktop/optee-qemu/optee_os/lib/libutee/tee_api_arith_mpi.c:371
    40a0:	eb1602ff 	cmp	x23, x22
    40a4:	54000380 	b.eq	4114 <bigint_binary_mod+0xf4>  // b.none
/home/hei/Desktop/optee-qemu/optee_os/lib/libutee/tee_api_arith_mpi.c:364
    40a8:	aa1903f5 	mov	x21, x25
/home/hei/Desktop/optee-qemu/optee_os/lib/libutee/tee_api_arith_mpi.c:374
    40ac:	aa1603e1 	mov	x1, x22
    40b0:	aa1903e0 	mov	x0, x25
    40b4:	97fffd0a 	bl	34dc <get_mpi>
/home/hei/Desktop/optee-qemu/optee_os/lib/libutee/tee_api_arith_mpi.c:376
    40b8:	eb1402ff 	cmp	x23, x20
    40bc:	910263f8 	add	x24, sp, #0x98
    40c0:	540002e0 	b.eq	411c <bigint_binary_mod+0xfc>  // b.none
/home/hei/Desktop/optee-qemu/optee_os/lib/libutee/tee_api_arith_mpi.c:378
    40c4:	eb1402df 	cmp	x22, x20
    40c8:	540002e0 	b.eq	4124 <bigint_binary_mod+0x104>  // b.none
/home/hei/Desktop/optee-qemu/optee_os/lib/libutee/tee_api_arith_mpi.c:381
    40cc:	aa1403e1 	mov	x1, x20
/home/hei/Desktop/optee-qemu/optee_os/lib/libutee/tee_api_arith_mpi.c:365
    40d0:	aa1803f4 	mov	x20, x24
/home/hei/Desktop/optee-qemu/optee_os/lib/libutee/tee_api_arith_mpi.c:381
    40d4:	aa1803e0 	mov	x0, x24
    40d8:	97fffd01 	bl	34dc <get_mpi>
get_mpi():
/home/hei/Desktop/optee-qemu/optee_os/lib/libutee/tee_api_arith_mpi.c:101
    40dc:	910323f6 	add	x22, sp, #0xc8
    40e0:	aa1603e0 	mov	x0, x22
    40e4:	940004a1 	bl	5368 <mbedtls_mpi_init_mempool>
bigint_binary_mod():
/home/hei/Desktop/optee-qemu/optee_os/lib/libutee/tee_api_arith_mpi.c:385
    40e8:	aa1403e2 	mov	x2, x20
    40ec:	aa1503e1 	mov	x1, x21
    40f0:	aa1603e0 	mov	x0, x22
    40f4:	d63f0360 	blr	x27
    40f8:	340001a0 	cbz	w0, 412c <bigint_binary_mod+0x10c>
/home/hei/Desktop/optee-qemu/optee_os/lib/libutee/tee_api_arith_mpi.c:385 (discriminator 1)
    40fc:	2a0003e2 	mov	w2, w0
    4100:	52803021 	mov	w1, #0x181                 	// #385
/home/hei/Desktop/optee-qemu/optee_os/lib/libutee/tee_api_arith_mpi.c:386 (discriminator 1)
    4104:	f0000020 	adrp	x0, b000 <__func__.3755+0xec>
    4108:	910a7400 	add	x0, x0, #0x29d
    410c:	9101e000 	add	x0, x0, #0x78
    4110:	97fffce7 	bl	34ac <mpi_panic>
/home/hei/Desktop/optee-qemu/optee_os/lib/libutee/tee_api_arith_mpi.c:372
    4114:	aa1303f5 	mov	x21, x19
    4118:	17ffffe8 	b	40b8 <bigint_binary_mod+0x98>
/home/hei/Desktop/optee-qemu/optee_os/lib/libutee/tee_api_arith_mpi.c:377
    411c:	aa1303f4 	mov	x20, x19
    4120:	17ffffef 	b	40dc <bigint_binary_mod+0xbc>
/home/hei/Desktop/optee-qemu/optee_os/lib/libutee/tee_api_arith_mpi.c:379
    4124:	aa1503f4 	mov	x20, x21
    4128:	17ffffed 	b	40dc <bigint_binary_mod+0xbc>
/home/hei/Desktop/optee-qemu/optee_os/lib/libutee/tee_api_arith_mpi.c:386
    412c:	aa1a03e2 	mov	x2, x26
    4130:	aa1603e1 	mov	x1, x22
    4134:	aa1303e0 	mov	x0, x19
    4138:	94000ab8 	bl	6c18 <mbedtls_mpi_mod_mpi>
    413c:	34000080 	cbz	w0, 414c <bigint_binary_mod+0x12c>
/home/hei/Desktop/optee-qemu/optee_os/lib/libutee/tee_api_arith_mpi.c:386 (discriminator 1)
    4140:	2a0003e2 	mov	w2, w0
    4144:	52803041 	mov	w1, #0x182                 	// #386
    4148:	17ffffef 	b	4104 <bigint_binary_mod+0xe4>
/home/hei/Desktop/optee-qemu/optee_os/lib/libutee/tee_api_arith_mpi.c:388
    414c:	aa1703e1 	mov	x1, x23
    4150:	aa1303e0 	mov	x0, x19
    4154:	97fffd08 	bl	3574 <copy_mpi_to_bigint>
    4158:	34000080 	cbz	w0, 4168 <bigint_binary_mod+0x148>
/home/hei/Desktop/optee-qemu/optee_os/lib/libutee/tee_api_arith_mpi.c:388 (discriminator 1)
    415c:	2a0003e2 	mov	w2, w0
    4160:	52803081 	mov	w1, #0x184                 	// #388
    4164:	17ffffe8 	b	4104 <bigint_binary_mod+0xe4>
/home/hei/Desktop/optee-qemu/optee_os/lib/libutee/tee_api_arith_mpi.c:389
    4168:	aa1303e0 	mov	x0, x19
    416c:	94000489 	bl	5390 <mbedtls_mpi_free>
/home/hei/Desktop/optee-qemu/optee_os/lib/libutee/tee_api_arith_mpi.c:390
    4170:	eb1902bf 	cmp	x21, x25
    4174:	54000061 	b.ne	4180 <bigint_binary_mod+0x160>  // b.any
/home/hei/Desktop/optee-qemu/optee_os/lib/libutee/tee_api_arith_mpi.c:391
    4178:	aa1503e0 	mov	x0, x21
    417c:	94000485 	bl	5390 <mbedtls_mpi_free>
/home/hei/Desktop/optee-qemu/optee_os/lib/libutee/tee_api_arith_mpi.c:392
    4180:	eb18029f 	cmp	x20, x24
    4184:	54000061 	b.ne	4190 <bigint_binary_mod+0x170>  // b.any
/home/hei/Desktop/optee-qemu/optee_os/lib/libutee/tee_api_arith_mpi.c:393
    4188:	aa1403e0 	mov	x0, x20
    418c:	94000481 	bl	5390 <mbedtls_mpi_free>
/home/hei/Desktop/optee-qemu/optee_os/lib/libutee/tee_api_arith_mpi.c:394
    4190:	aa1603e0 	mov	x0, x22
    4194:	9400047f 	bl	5390 <mbedtls_mpi_free>
/home/hei/Desktop/optee-qemu/optee_os/lib/libutee/tee_api_arith_mpi.c:395
    4198:	a94153f3 	ldp	x19, x20, [sp, #16]
    419c:	a9425bf5 	ldp	x21, x22, [sp, #32]
    41a0:	a94363f7 	ldp	x23, x24, [sp, #48]
    41a4:	a9446bf9 	ldp	x25, x26, [sp, #64]
    41a8:	f9402bfb 	ldr	x27, [sp, #80]
    41ac:	a8ce7bfd 	ldp	x29, x30, [sp], #224
    41b0:	d65f03c0 	ret

00000000000041b4 <TEE_BigIntShiftRight>:
TEE_BigIntShiftRight():
/home/hei/Desktop/optee-qemu/optee_os/lib/libutee/tee_api_arith_mpi.c:249
    41b4:	a9b77bfd 	stp	x29, x30, [sp, #-144]!
    41b8:	910003fd 	mov	x29, sp
    41bc:	a90153f3 	stp	x19, x20, [sp, #16]
/home/hei/Desktop/optee-qemu/optee_os/lib/libutee/tee_api_arith_mpi.c:253
    41c0:	910123f3 	add	x19, sp, #0x48
/home/hei/Desktop/optee-qemu/optee_os/lib/libutee/tee_api_arith_mpi.c:249
    41c4:	a9025bf5 	stp	x21, x22, [sp, #32]
    41c8:	aa0003f6 	mov	x22, x0
    41cc:	aa0103f5 	mov	x21, x1
/home/hei/Desktop/optee-qemu/optee_os/lib/libutee/tee_api_arith_mpi.c:253
    41d0:	aa0003e1 	mov	x1, x0
    41d4:	aa1303e0 	mov	x0, x19
/home/hei/Desktop/optee-qemu/optee_os/lib/libutee/tee_api_arith_mpi.c:249
    41d8:	f9001bf7 	str	x23, [sp, #48]
    41dc:	aa0203f7 	mov	x23, x2
/home/hei/Desktop/optee-qemu/optee_os/lib/libutee/tee_api_arith_mpi.c:253
    41e0:	97fffcbf 	bl	34dc <get_mpi>
/home/hei/Desktop/optee-qemu/optee_os/lib/libutee/tee_api_arith_mpi.c:255
    41e4:	eb1502df 	cmp	x22, x21
    41e8:	54000161 	b.ne	4214 <TEE_BigIntShiftRight+0x60>  // b.any
/home/hei/Desktop/optee-qemu/optee_os/lib/libutee/tee_api_arith_mpi.c:256
    41ec:	aa1703e1 	mov	x1, x23
    41f0:	aa1303e0 	mov	x0, x19
    41f4:	940006d0 	bl	5d34 <mbedtls_mpi_shift_r>
    41f8:	34000780 	cbz	w0, 42e8 <TEE_BigIntShiftRight+0x134>
/home/hei/Desktop/optee-qemu/optee_os/lib/libutee/tee_api_arith_mpi.c:256 (discriminator 1)
    41fc:	2a0003e2 	mov	w2, w0
    4200:	52802001 	mov	w1, #0x100                 	// #256
/home/hei/Desktop/optee-qemu/optee_os/lib/libutee/tee_api_arith_mpi.c:263 (discriminator 1)
    4204:	f0000020 	adrp	x0, b000 <__func__.3755+0xec>
    4208:	910a7400 	add	x0, x0, #0x29d
    420c:	91022800 	add	x0, x0, #0x8a
    4210:	97fffca7 	bl	34ac <mpi_panic>
/home/hei/Desktop/optee-qemu/optee_os/lib/libutee/tee_api_arith_mpi.c:260
    4214:	aa1503e1 	mov	x1, x21
    4218:	910183f4 	add	x20, sp, #0x60
    421c:	aa1403e0 	mov	x0, x20
    4220:	97fffcaf 	bl	34dc <get_mpi>
/home/hei/Desktop/optee-qemu/optee_os/lib/libutee/tee_api_arith_mpi.c:262
    4224:	aa1303e0 	mov	x0, x19
    4228:	9400061d 	bl	5a9c <mbedtls_mpi_size>
    422c:	aa0003f5 	mov	x21, x0
    4230:	aa1403e0 	mov	x0, x20
    4234:	9400061a 	bl	5a9c <mbedtls_mpi_size>
    4238:	eb0002bf 	cmp	x21, x0
    423c:	540001e3 	b.cc	4278 <TEE_BigIntShiftRight+0xc4>  // b.lo, b.ul, b.last
/home/hei/Desktop/optee-qemu/optee_os/lib/libutee/tee_api_arith_mpi.c:263
    4240:	aa1403e1 	mov	x1, x20
    4244:	aa1303e0 	mov	x0, x19
    4248:	940004f3 	bl	5614 <mbedtls_mpi_copy>
    424c:	34000080 	cbz	w0, 425c <TEE_BigIntShiftRight+0xa8>
/home/hei/Desktop/optee-qemu/optee_os/lib/libutee/tee_api_arith_mpi.c:263 (discriminator 1)
    4250:	2a0003e2 	mov	w2, w0
    4254:	528020e1 	mov	w1, #0x107                 	// #263
    4258:	17ffffeb 	b	4204 <TEE_BigIntShiftRight+0x50>
/home/hei/Desktop/optee-qemu/optee_os/lib/libutee/tee_api_arith_mpi.c:264
    425c:	aa1703e1 	mov	x1, x23
    4260:	aa1303e0 	mov	x0, x19
    4264:	940006b4 	bl	5d34 <mbedtls_mpi_shift_r>
    4268:	340003c0 	cbz	w0, 42e0 <TEE_BigIntShiftRight+0x12c>
/home/hei/Desktop/optee-qemu/optee_os/lib/libutee/tee_api_arith_mpi.c:264 (discriminator 1)
    426c:	2a0003e2 	mov	w2, w0
    4270:	52802101 	mov	w1, #0x108                 	// #264
    4274:	17ffffe4 	b	4204 <TEE_BigIntShiftRight+0x50>
get_mpi():
/home/hei/Desktop/optee-qemu/optee_os/lib/libutee/tee_api_arith_mpi.c:101
    4278:	9101e3f5 	add	x21, sp, #0x78
    427c:	aa1503e0 	mov	x0, x21
    4280:	9400043a 	bl	5368 <mbedtls_mpi_init_mempool>
TEE_BigIntShiftRight():
/home/hei/Desktop/optee-qemu/optee_os/lib/libutee/tee_api_arith_mpi.c:275
    4284:	aa1403e1 	mov	x1, x20
    4288:	aa1503e0 	mov	x0, x21
    428c:	940004e2 	bl	5614 <mbedtls_mpi_copy>
    4290:	34000080 	cbz	w0, 42a0 <TEE_BigIntShiftRight+0xec>
/home/hei/Desktop/optee-qemu/optee_os/lib/libutee/tee_api_arith_mpi.c:275 (discriminator 1)
    4294:	2a0003e2 	mov	w2, w0
    4298:	52802261 	mov	w1, #0x113                 	// #275
    429c:	17ffffda 	b	4204 <TEE_BigIntShiftRight+0x50>
/home/hei/Desktop/optee-qemu/optee_os/lib/libutee/tee_api_arith_mpi.c:276
    42a0:	aa1703e1 	mov	x1, x23
    42a4:	aa1503e0 	mov	x0, x21
    42a8:	940006a3 	bl	5d34 <mbedtls_mpi_shift_r>
    42ac:	34000080 	cbz	w0, 42bc <TEE_BigIntShiftRight+0x108>
/home/hei/Desktop/optee-qemu/optee_os/lib/libutee/tee_api_arith_mpi.c:276 (discriminator 1)
    42b0:	2a0003e2 	mov	w2, w0
    42b4:	52802281 	mov	w1, #0x114                 	// #276
    42b8:	17ffffd3 	b	4204 <TEE_BigIntShiftRight+0x50>
/home/hei/Desktop/optee-qemu/optee_os/lib/libutee/tee_api_arith_mpi.c:277
    42bc:	aa1503e1 	mov	x1, x21
    42c0:	aa1303e0 	mov	x0, x19
    42c4:	940004d4 	bl	5614 <mbedtls_mpi_copy>
    42c8:	34000080 	cbz	w0, 42d8 <TEE_BigIntShiftRight+0x124>
/home/hei/Desktop/optee-qemu/optee_os/lib/libutee/tee_api_arith_mpi.c:277 (discriminator 1)
    42cc:	2a0003e2 	mov	w2, w0
    42d0:	528022a1 	mov	w1, #0x115                 	// #277
    42d4:	17ffffcc 	b	4204 <TEE_BigIntShiftRight+0x50>
/home/hei/Desktop/optee-qemu/optee_os/lib/libutee/tee_api_arith_mpi.c:279
    42d8:	aa1503e0 	mov	x0, x21
    42dc:	9400042d 	bl	5390 <mbedtls_mpi_free>
/home/hei/Desktop/optee-qemu/optee_os/lib/libutee/tee_api_arith_mpi.c:282
    42e0:	aa1403e0 	mov	x0, x20
    42e4:	9400042b 	bl	5390 <mbedtls_mpi_free>
/home/hei/Desktop/optee-qemu/optee_os/lib/libutee/tee_api_arith_mpi.c:285
    42e8:	aa1603e1 	mov	x1, x22
    42ec:	aa1303e0 	mov	x0, x19
    42f0:	97fffca1 	bl	3574 <copy_mpi_to_bigint>
    42f4:	34000080 	cbz	w0, 4304 <TEE_BigIntShiftRight+0x150>
/home/hei/Desktop/optee-qemu/optee_os/lib/libutee/tee_api_arith_mpi.c:285 (discriminator 1)
    42f8:	2a0003e2 	mov	w2, w0
    42fc:	528023a1 	mov	w1, #0x11d                 	// #285
    4300:	17ffffc1 	b	4204 <TEE_BigIntShiftRight+0x50>
/home/hei/Desktop/optee-qemu/optee_os/lib/libutee/tee_api_arith_mpi.c:286
    4304:	aa1303e0 	mov	x0, x19
    4308:	94000422 	bl	5390 <mbedtls_mpi_free>
/home/hei/Desktop/optee-qemu/optee_os/lib/libutee/tee_api_arith_mpi.c:287
    430c:	a94153f3 	ldp	x19, x20, [sp, #16]
    4310:	a9425bf5 	ldp	x21, x22, [sp, #32]
    4314:	f9401bf7 	ldr	x23, [sp, #48]
    4318:	a8c97bfd 	ldp	x29, x30, [sp], #144
    431c:	d65f03c0 	ret

0000000000004320 <TEE_BigIntGetBit>:
TEE_BigIntGetBit():
/home/hei/Desktop/optee-qemu/optee_os/lib/libutee/tee_api_arith_mpi.c:290
    4320:	a9bc7bfd 	stp	x29, x30, [sp, #-64]!
    4324:	910003fd 	mov	x29, sp
    4328:	a90153f3 	stp	x19, x20, [sp, #16]
/home/hei/Desktop/optee-qemu/optee_os/lib/libutee/tee_api_arith_mpi.c:294
    432c:	9100a3f3 	add	x19, sp, #0x28
/home/hei/Desktop/optee-qemu/optee_os/lib/libutee/tee_api_arith_mpi.c:290
    4330:	2a0103f4 	mov	w20, w1
/home/hei/Desktop/optee-qemu/optee_os/lib/libutee/tee_api_arith_mpi.c:294
    4334:	aa0003e1 	mov	x1, x0
    4338:	aa1303e0 	mov	x0, x19
    433c:	97fffc68 	bl	34dc <get_mpi>
/home/hei/Desktop/optee-qemu/optee_os/lib/libutee/tee_api_arith_mpi.c:296
    4340:	2a1403e1 	mov	w1, w20
    4344:	aa1303e0 	mov	x0, x19
    4348:	9400057b 	bl	5934 <mbedtls_mpi_get_bit>
    434c:	2a0003f4 	mov	w20, w0
/home/hei/Desktop/optee-qemu/optee_os/lib/libutee/tee_api_arith_mpi.c:298
    4350:	aa1303e0 	mov	x0, x19
    4354:	9400040f 	bl	5390 <mbedtls_mpi_free>
/home/hei/Desktop/optee-qemu/optee_os/lib/libutee/tee_api_arith_mpi.c:296
    4358:	7100029f 	cmp	w20, #0x0
/home/hei/Desktop/optee-qemu/optee_os/lib/libutee/tee_api_arith_mpi.c:301
    435c:	1a9f07e0 	cset	w0, ne  // ne = any
    4360:	a94153f3 	ldp	x19, x20, [sp, #16]
    4364:	a8c47bfd 	ldp	x29, x30, [sp], #64
    4368:	d65f03c0 	ret

000000000000436c <TEE_BigIntGetBitCount>:
TEE_BigIntGetBitCount():
/home/hei/Desktop/optee-qemu/optee_os/lib/libutee/tee_api_arith_mpi.c:304
    436c:	a9bc7bfd 	stp	x29, x30, [sp, #-64]!
/home/hei/Desktop/optee-qemu/optee_os/lib/libutee/tee_api_arith_mpi.c:308
    4370:	aa0003e1 	mov	x1, x0
/home/hei/Desktop/optee-qemu/optee_os/lib/libutee/tee_api_arith_mpi.c:304
    4374:	910003fd 	mov	x29, sp
    4378:	a90153f3 	stp	x19, x20, [sp, #16]
/home/hei/Desktop/optee-qemu/optee_os/lib/libutee/tee_api_arith_mpi.c:308
    437c:	9100a3f3 	add	x19, sp, #0x28
    4380:	aa1303e0 	mov	x0, x19
    4384:	97fffc56 	bl	34dc <get_mpi>
/home/hei/Desktop/optee-qemu/optee_os/lib/libutee/tee_api_arith_mpi.c:310
    4388:	aa1303e0 	mov	x0, x19
    438c:	940005ad 	bl	5a40 <mbedtls_mpi_bitlen>
    4390:	aa0003f4 	mov	x20, x0
/home/hei/Desktop/optee-qemu/optee_os/lib/libutee/tee_api_arith_mpi.c:312
    4394:	aa1303e0 	mov	x0, x19
    4398:	940003fe 	bl	5390 <mbedtls_mpi_free>
/home/hei/Desktop/optee-qemu/optee_os/lib/libutee/tee_api_arith_mpi.c:315
    439c:	2a1403e0 	mov	w0, w20
    43a0:	a94153f3 	ldp	x19, x20, [sp, #16]
    43a4:	a8c47bfd 	ldp	x29, x30, [sp], #64
    43a8:	d65f03c0 	ret

00000000000043ac <TEE_BigIntAdd>:
TEE_BigIntAdd():
/home/hei/Desktop/optee-qemu/optee_os/lib/libutee/tee_api_arith_mpi.c:400
    43ac:	90000043 	adrp	x3, c000 <_DYNAMIC>
    43b0:	f940ac63 	ldr	x3, [x3, #344]
    43b4:	17fffc89 	b	35d8 <bigint_binary>

00000000000043b8 <TEE_BigIntSub>:
TEE_BigIntSub():
/home/hei/Desktop/optee-qemu/optee_os/lib/libutee/tee_api_arith_mpi.c:406
    43b8:	90000043 	adrp	x3, c000 <_DYNAMIC>
    43bc:	f940b463 	ldr	x3, [x3, #360]
    43c0:	17fffc86 	b	35d8 <bigint_binary>

00000000000043c4 <TEE_BigIntNeg>:
TEE_BigIntNeg():
/home/hei/Desktop/optee-qemu/optee_os/lib/libutee/tee_api_arith_mpi.c:410
    43c4:	a9ba7bfd 	stp	x29, x30, [sp, #-96]!
    43c8:	910003fd 	mov	x29, sp
    43cc:	a90153f3 	stp	x19, x20, [sp, #16]
/home/hei/Desktop/optee-qemu/optee_os/lib/libutee/tee_api_arith_mpi.c:413
    43d0:	9100c3f3 	add	x19, sp, #0x30
/home/hei/Desktop/optee-qemu/optee_os/lib/libutee/tee_api_arith_mpi.c:410
    43d4:	aa0003f4 	mov	x20, x0
    43d8:	a9025bf5 	stp	x21, x22, [sp, #32]
    43dc:	aa0103f6 	mov	x22, x1
/home/hei/Desktop/optee-qemu/optee_os/lib/libutee/tee_api_arith_mpi.c:413
    43e0:	aa0003e1 	mov	x1, x0
    43e4:	aa1303e0 	mov	x0, x19
    43e8:	97fffc3d 	bl	34dc <get_mpi>
/home/hei/Desktop/optee-qemu/optee_os/lib/libutee/tee_api_arith_mpi.c:415
    43ec:	eb16029f 	cmp	x20, x22
    43f0:	54000220 	b.eq	4434 <TEE_BigIntNeg+0x70>  // b.none
/home/hei/Desktop/optee-qemu/optee_os/lib/libutee/tee_api_arith_mpi.c:418
    43f4:	910123f5 	add	x21, sp, #0x48
    43f8:	aa1603e1 	mov	x1, x22
    43fc:	aa1503e0 	mov	x0, x21
    4400:	97fffc37 	bl	34dc <get_mpi>
/home/hei/Desktop/optee-qemu/optee_os/lib/libutee/tee_api_arith_mpi.c:420
    4404:	aa1503e1 	mov	x1, x21
    4408:	aa1303e0 	mov	x0, x19
    440c:	94000482 	bl	5614 <mbedtls_mpi_copy>
    4410:	340000e0 	cbz	w0, 442c <TEE_BigIntNeg+0x68>
/home/hei/Desktop/optee-qemu/optee_os/lib/libutee/tee_api_arith_mpi.c:420 (discriminator 1)
    4414:	2a0003e2 	mov	w2, w0
    4418:	52803481 	mov	w1, #0x1a4                 	// #420
/home/hei/Desktop/optee-qemu/optee_os/lib/libutee/tee_api_arith_mpi.c:427 (discriminator 1)
    441c:	f0000020 	adrp	x0, b000 <__func__.3755+0xec>
    4420:	910a7400 	add	x0, x0, #0x29d
    4424:	91027c00 	add	x0, x0, #0x9f
    4428:	97fffc21 	bl	34ac <mpi_panic>
/home/hei/Desktop/optee-qemu/optee_os/lib/libutee/tee_api_arith_mpi.c:422
    442c:	aa1503e0 	mov	x0, x21
    4430:	940003d8 	bl	5390 <mbedtls_mpi_free>
/home/hei/Desktop/optee-qemu/optee_os/lib/libutee/tee_api_arith_mpi.c:425
    4434:	794063e0 	ldrh	w0, [sp, #48]
/home/hei/Desktop/optee-qemu/optee_os/lib/libutee/tee_api_arith_mpi.c:427
    4438:	aa1403e1 	mov	x1, x20
/home/hei/Desktop/optee-qemu/optee_os/lib/libutee/tee_api_arith_mpi.c:425
    443c:	4b0003e0 	neg	w0, w0
    4440:	790063e0 	strh	w0, [sp, #48]
/home/hei/Desktop/optee-qemu/optee_os/lib/libutee/tee_api_arith_mpi.c:427
    4444:	aa1303e0 	mov	x0, x19
    4448:	97fffc4b 	bl	3574 <copy_mpi_to_bigint>
    444c:	34000080 	cbz	w0, 445c <TEE_BigIntNeg+0x98>
/home/hei/Desktop/optee-qemu/optee_os/lib/libutee/tee_api_arith_mpi.c:427 (discriminator 1)
    4450:	2a0003e2 	mov	w2, w0
    4454:	52803561 	mov	w1, #0x1ab                 	// #427
    4458:	17fffff1 	b	441c <TEE_BigIntNeg+0x58>
/home/hei/Desktop/optee-qemu/optee_os/lib/libutee/tee_api_arith_mpi.c:428
    445c:	aa1303e0 	mov	x0, x19
    4460:	940003cc 	bl	5390 <mbedtls_mpi_free>
/home/hei/Desktop/optee-qemu/optee_os/lib/libutee/tee_api_arith_mpi.c:429
    4464:	a94153f3 	ldp	x19, x20, [sp, #16]
    4468:	a9425bf5 	ldp	x21, x22, [sp, #32]
    446c:	a8c67bfd 	ldp	x29, x30, [sp], #96
    4470:	d65f03c0 	ret

0000000000004474 <TEE_BigIntMul>:
TEE_BigIntMul():
/home/hei/Desktop/optee-qemu/optee_os/lib/libutee/tee_api_arith_mpi.c:433
    4474:	a9ba7bfd 	stp	x29, x30, [sp, #-96]!
    4478:	910003fd 	mov	x29, sp
    447c:	a90153f3 	stp	x19, x20, [sp, #16]
    4480:	a9025bf5 	stp	x21, x22, [sp, #32]
/home/hei/Desktop/optee-qemu/optee_os/lib/libutee/tee_api_arith_mpi.c:440
    4484:	90000056 	adrp	x22, c000 <_DYNAMIC>
    4488:	aa1603f5 	mov	x21, x22
/home/hei/Desktop/optee-qemu/optee_os/lib/libutee/tee_api_arith_mpi.c:433
    448c:	a90363f7 	stp	x23, x24, [sp, #48]
    4490:	aa0203f8 	mov	x24, x2
    4494:	aa0103f7 	mov	x23, x1
    4498:	f90023f9 	str	x25, [sp, #64]
    449c:	aa0003f9 	mov	x25, x0
/home/hei/Desktop/optee-qemu/optee_os/lib/libutee/tee_api_arith_mpi.c:434
    44a0:	aa0103e0 	mov	x0, x1
    44a4:	97ffffb2 	bl	436c <TEE_BigIntGetBitCount>
    44a8:	2a0003f3 	mov	w19, w0
/home/hei/Desktop/optee-qemu/optee_os/lib/libutee/tee_api_arith_mpi.c:435
    44ac:	aa1803e0 	mov	x0, x24
    44b0:	97ffffaf 	bl	436c <TEE_BigIntGetBitCount>
    44b4:	2a0003e0 	mov	w0, w0
/home/hei/Desktop/optee-qemu/optee_os/lib/libutee/tee_api_arith_mpi.c:436
    44b8:	91007c00 	add	x0, x0, #0x1f
    44bc:	91007e73 	add	x19, x19, #0x1f
/home/hei/Desktop/optee-qemu/optee_os/lib/libutee/tee_api_arith_mpi.c:437
    44c0:	f9002bff 	str	xzr, [sp, #80]
/home/hei/Desktop/optee-qemu/optee_os/lib/libutee/tee_api_arith_mpi.c:436
    44c4:	d345fc00 	lsr	x0, x0, #5
/home/hei/Desktop/optee-qemu/optee_os/lib/libutee/tee_api_arith_mpi.c:437
    44c8:	b9005bff 	str	wzr, [sp, #88]
/home/hei/Desktop/optee-qemu/optee_os/lib/libutee/tee_api_arith_mpi.c:436
    44cc:	8b531413 	add	x19, x0, x19, lsr #5
/home/hei/Desktop/optee-qemu/optee_os/lib/libutee/tee_api_arith_mpi.c:440
    44d0:	f940cec0 	ldr	x0, [x22, #408]
/home/hei/Desktop/optee-qemu/optee_os/lib/libutee/tee_api_arith_mpi.c:436
    44d4:	91001273 	add	x19, x19, #0x4
/home/hei/Desktop/optee-qemu/optee_os/lib/libutee/tee_api_arith_mpi.c:440
    44d8:	d37ef661 	lsl	x1, x19, #2
    44dc:	f9400000 	ldr	x0, [x0]
    44e0:	94001193 	bl	8b2c <mempool_alloc>
    44e4:	aa0003f4 	mov	x20, x0
/home/hei/Desktop/optee-qemu/optee_os/lib/libutee/tee_api_arith_mpi.c:441
    44e8:	b5000060 	cbnz	x0, 44f4 <TEE_BigIntMul+0x80>
/home/hei/Desktop/optee-qemu/optee_os/lib/libutee/tee_api_arith_mpi.c:442
    44ec:	129ffe60 	mov	w0, #0xffff000c            	// #-65524
    44f0:	97fff9e9 	bl	2c94 <TEE_Panic>
/home/hei/Desktop/optee-qemu/optee_os/lib/libutee/tee_api_arith_mpi.c:444
    44f4:	2a1303e1 	mov	w1, w19
    44f8:	aa1403e0 	mov	x0, x20
/home/hei/Desktop/optee-qemu/optee_os/lib/libutee/tee_api_arith_mpi.c:445
    44fc:	910143f3 	add	x19, sp, #0x50
/home/hei/Desktop/optee-qemu/optee_os/lib/libutee/tee_api_arith_mpi.c:444
    4500:	97fffdf5 	bl	3cd4 <TEE_BigIntInit>
/home/hei/Desktop/optee-qemu/optee_os/lib/libutee/tee_api_arith_mpi.c:445
    4504:	aa1303e0 	mov	x0, x19
    4508:	52800061 	mov	w1, #0x3                   	// #3
    450c:	97fffdf2 	bl	3cd4 <TEE_BigIntInit>
/home/hei/Desktop/optee-qemu/optee_os/lib/libutee/tee_api_arith_mpi.c:447
    4510:	f940aaa3 	ldr	x3, [x21, #336]
    4514:	aa1803e2 	mov	x2, x24
    4518:	aa1703e1 	mov	x1, x23
    451c:	aa1403e0 	mov	x0, x20
    4520:	97fffc2e 	bl	35d8 <bigint_binary>
/home/hei/Desktop/optee-qemu/optee_os/lib/libutee/tee_api_arith_mpi.c:449
    4524:	aa1303e2 	mov	x2, x19
    4528:	aa1403e1 	mov	x1, x20
    452c:	aa1903e0 	mov	x0, x25
    4530:	97ffff9f 	bl	43ac <TEE_BigIntAdd>
/home/hei/Desktop/optee-qemu/optee_os/lib/libutee/tee_api_arith_mpi.c:451
    4534:	f940ceb5 	ldr	x21, [x21, #408]
    4538:	aa1403e1 	mov	x1, x20
    453c:	f94002a0 	ldr	x0, [x21]
    4540:	940011ba 	bl	8c28 <mempool_free>
/home/hei/Desktop/optee-qemu/optee_os/lib/libutee/tee_api_arith_mpi.c:452
    4544:	a94153f3 	ldp	x19, x20, [sp, #16]
    4548:	a9425bf5 	ldp	x21, x22, [sp, #32]
    454c:	a94363f7 	ldp	x23, x24, [sp, #48]
    4550:	f94023f9 	ldr	x25, [sp, #64]
    4554:	a8c67bfd 	ldp	x29, x30, [sp], #96
    4558:	d65f03c0 	ret

000000000000455c <TEE_BigIntSquare>:
TEE_BigIntSquare():
/home/hei/Desktop/optee-qemu/optee_os/lib/libutee/tee_api_arith_mpi.c:456
    455c:	aa0103e2 	mov	x2, x1
    4560:	17ffffc5 	b	4474 <TEE_BigIntMul>

0000000000004564 <TEE_BigIntDiv>:
TEE_BigIntDiv():
/home/hei/Desktop/optee-qemu/optee_os/lib/libutee/tee_api_arith_mpi.c:461
    4564:	a9b47bfd 	stp	x29, x30, [sp, #-192]!
    4568:	910003fd 	mov	x29, sp
    456c:	a9025bf5 	stp	x21, x22, [sp, #32]
/home/hei/Desktop/optee-qemu/optee_os/lib/libutee/tee_api_arith_mpi.c:469
    4570:	910183f6 	add	x22, sp, #0x60
/home/hei/Desktop/optee-qemu/optee_os/lib/libutee/tee_api_arith_mpi.c:470
    4574:	9101e3f5 	add	x21, sp, #0x78
/home/hei/Desktop/optee-qemu/optee_os/lib/libutee/tee_api_arith_mpi.c:461
    4578:	a90153f3 	stp	x19, x20, [sp, #16]
    457c:	aa0303f3 	mov	x19, x3
    4580:	a90363f7 	stp	x23, x24, [sp, #48]
    4584:	aa0003f8 	mov	x24, x0
    4588:	aa0103f7 	mov	x23, x1
/home/hei/Desktop/optee-qemu/optee_os/lib/libutee/tee_api_arith_mpi.c:469
    458c:	aa0003e1 	mov	x1, x0
    4590:	aa1603e0 	mov	x0, x22
/home/hei/Desktop/optee-qemu/optee_os/lib/libutee/tee_api_arith_mpi.c:461
    4594:	a9046bf9 	stp	x25, x26, [sp, #64]
    4598:	aa0203f9 	mov	x25, x2
    459c:	f9002bfb 	str	x27, [sp, #80]
/home/hei/Desktop/optee-qemu/optee_os/lib/libutee/tee_api_arith_mpi.c:469
    45a0:	97fffbcf 	bl	34dc <get_mpi>
/home/hei/Desktop/optee-qemu/optee_os/lib/libutee/tee_api_arith_mpi.c:470
    45a4:	aa1703e1 	mov	x1, x23
    45a8:	aa1503e0 	mov	x0, x21
    45ac:	97fffbcc 	bl	34dc <get_mpi>
/home/hei/Desktop/optee-qemu/optee_os/lib/libutee/tee_api_arith_mpi.c:472
    45b0:	910243fb 	add	x27, sp, #0x90
    45b4:	eb19031f 	cmp	x24, x25
    45b8:	540003c0 	b.eq	4630 <TEE_BigIntDiv+0xcc>  // b.none
/home/hei/Desktop/optee-qemu/optee_os/lib/libutee/tee_api_arith_mpi.c:474
    45bc:	eb1902ff 	cmp	x23, x25
    45c0:	540003c0 	b.eq	4638 <TEE_BigIntDiv+0xd4>  // b.none
/home/hei/Desktop/optee-qemu/optee_os/lib/libutee/tee_api_arith_mpi.c:466
    45c4:	aa1b03f4 	mov	x20, x27
/home/hei/Desktop/optee-qemu/optee_os/lib/libutee/tee_api_arith_mpi.c:477
    45c8:	aa1903e1 	mov	x1, x25
    45cc:	aa1b03e0 	mov	x0, x27
    45d0:	97fffbc3 	bl	34dc <get_mpi>
/home/hei/Desktop/optee-qemu/optee_os/lib/libutee/tee_api_arith_mpi.c:479
    45d4:	eb13031f 	cmp	x24, x19
    45d8:	9102a3fa 	add	x26, sp, #0xa8
    45dc:	54000320 	b.eq	4640 <TEE_BigIntDiv+0xdc>  // b.none
/home/hei/Desktop/optee-qemu/optee_os/lib/libutee/tee_api_arith_mpi.c:481
    45e0:	eb1302ff 	cmp	x23, x19
    45e4:	54000320 	b.eq	4648 <TEE_BigIntDiv+0xe4>  // b.none
/home/hei/Desktop/optee-qemu/optee_os/lib/libutee/tee_api_arith_mpi.c:483
    45e8:	eb13033f 	cmp	x25, x19
    45ec:	54000320 	b.eq	4650 <TEE_BigIntDiv+0xec>  // b.none
/home/hei/Desktop/optee-qemu/optee_os/lib/libutee/tee_api_arith_mpi.c:486
    45f0:	aa1303e1 	mov	x1, x19
/home/hei/Desktop/optee-qemu/optee_os/lib/libutee/tee_api_arith_mpi.c:467
    45f4:	aa1a03f3 	mov	x19, x26
/home/hei/Desktop/optee-qemu/optee_os/lib/libutee/tee_api_arith_mpi.c:486
    45f8:	aa1a03e0 	mov	x0, x26
    45fc:	97fffbb8 	bl	34dc <get_mpi>
/home/hei/Desktop/optee-qemu/optee_os/lib/libutee/tee_api_arith_mpi.c:488
    4600:	aa1303e3 	mov	x3, x19
    4604:	aa1403e2 	mov	x2, x20
    4608:	aa1503e1 	mov	x1, x21
    460c:	aa1603e0 	mov	x0, x22
    4610:	94000827 	bl	66ac <mbedtls_mpi_div_mpi>
    4614:	34000220 	cbz	w0, 4658 <TEE_BigIntDiv+0xf4>
/home/hei/Desktop/optee-qemu/optee_os/lib/libutee/tee_api_arith_mpi.c:488 (discriminator 1)
    4618:	2a0003e2 	mov	w2, w0
    461c:	52803d01 	mov	w1, #0x1e8                 	// #488
/home/hei/Desktop/optee-qemu/optee_os/lib/libutee/tee_api_arith_mpi.c:490 (discriminator 1)
    4620:	f0000020 	adrp	x0, b000 <__func__.3755+0xec>
    4624:	910a7400 	add	x0, x0, #0x29d
    4628:	9102b400 	add	x0, x0, #0xad
    462c:	97fffba0 	bl	34ac <mpi_panic>
/home/hei/Desktop/optee-qemu/optee_os/lib/libutee/tee_api_arith_mpi.c:473
    4630:	aa1603f4 	mov	x20, x22
    4634:	17ffffe8 	b	45d4 <TEE_BigIntDiv+0x70>
/home/hei/Desktop/optee-qemu/optee_os/lib/libutee/tee_api_arith_mpi.c:475
    4638:	aa1503f4 	mov	x20, x21
    463c:	17ffffe6 	b	45d4 <TEE_BigIntDiv+0x70>
/home/hei/Desktop/optee-qemu/optee_os/lib/libutee/tee_api_arith_mpi.c:480
    4640:	aa1603f3 	mov	x19, x22
    4644:	17ffffef 	b	4600 <TEE_BigIntDiv+0x9c>
/home/hei/Desktop/optee-qemu/optee_os/lib/libutee/tee_api_arith_mpi.c:482
    4648:	aa1503f3 	mov	x19, x21
    464c:	17ffffed 	b	4600 <TEE_BigIntDiv+0x9c>
/home/hei/Desktop/optee-qemu/optee_os/lib/libutee/tee_api_arith_mpi.c:484
    4650:	aa1403f3 	mov	x19, x20
    4654:	17ffffeb 	b	4600 <TEE_BigIntDiv+0x9c>
/home/hei/Desktop/optee-qemu/optee_os/lib/libutee/tee_api_arith_mpi.c:490
    4658:	aa1803e1 	mov	x1, x24
    465c:	aa1603e0 	mov	x0, x22
    4660:	97fffbc5 	bl	3574 <copy_mpi_to_bigint>
    4664:	34000080 	cbz	w0, 4674 <TEE_BigIntDiv+0x110>
/home/hei/Desktop/optee-qemu/optee_os/lib/libutee/tee_api_arith_mpi.c:490 (discriminator 1)
    4668:	2a0003e2 	mov	w2, w0
    466c:	52803d41 	mov	w1, #0x1ea                 	// #490
    4670:	17ffffec 	b	4620 <TEE_BigIntDiv+0xbc>
/home/hei/Desktop/optee-qemu/optee_os/lib/libutee/tee_api_arith_mpi.c:491
    4674:	aa1703e1 	mov	x1, x23
    4678:	aa1503e0 	mov	x0, x21
    467c:	97fffbbe 	bl	3574 <copy_mpi_to_bigint>
    4680:	34000080 	cbz	w0, 4690 <TEE_BigIntDiv+0x12c>
/home/hei/Desktop/optee-qemu/optee_os/lib/libutee/tee_api_arith_mpi.c:491 (discriminator 1)
    4684:	2a0003e2 	mov	w2, w0
    4688:	52803d61 	mov	w1, #0x1eb                 	// #491
    468c:	17ffffe5 	b	4620 <TEE_BigIntDiv+0xbc>
/home/hei/Desktop/optee-qemu/optee_os/lib/libutee/tee_api_arith_mpi.c:492
    4690:	aa1603e0 	mov	x0, x22
    4694:	9400033f 	bl	5390 <mbedtls_mpi_free>
/home/hei/Desktop/optee-qemu/optee_os/lib/libutee/tee_api_arith_mpi.c:493
    4698:	aa1503e0 	mov	x0, x21
    469c:	9400033d 	bl	5390 <mbedtls_mpi_free>
/home/hei/Desktop/optee-qemu/optee_os/lib/libutee/tee_api_arith_mpi.c:494
    46a0:	eb1b029f 	cmp	x20, x27
    46a4:	54000061 	b.ne	46b0 <TEE_BigIntDiv+0x14c>  // b.any
/home/hei/Desktop/optee-qemu/optee_os/lib/libutee/tee_api_arith_mpi.c:495
    46a8:	aa1403e0 	mov	x0, x20
    46ac:	94000339 	bl	5390 <mbedtls_mpi_free>
/home/hei/Desktop/optee-qemu/optee_os/lib/libutee/tee_api_arith_mpi.c:496
    46b0:	eb1a027f 	cmp	x19, x26
    46b4:	54000061 	b.ne	46c0 <TEE_BigIntDiv+0x15c>  // b.any
/home/hei/Desktop/optee-qemu/optee_os/lib/libutee/tee_api_arith_mpi.c:497
    46b8:	aa1303e0 	mov	x0, x19
    46bc:	94000335 	bl	5390 <mbedtls_mpi_free>
/home/hei/Desktop/optee-qemu/optee_os/lib/libutee/tee_api_arith_mpi.c:498
    46c0:	a94153f3 	ldp	x19, x20, [sp, #16]
    46c4:	a9425bf5 	ldp	x21, x22, [sp, #32]
    46c8:	a94363f7 	ldp	x23, x24, [sp, #48]
    46cc:	a9446bf9 	ldp	x25, x26, [sp, #64]
    46d0:	f9402bfb 	ldr	x27, [sp, #80]
    46d4:	a8cc7bfd 	ldp	x29, x30, [sp], #192
    46d8:	d65f03c0 	ret

00000000000046dc <TEE_BigIntMod>:
TEE_BigIntMod():
/home/hei/Desktop/optee-qemu/optee_os/lib/libutee/tee_api_arith_mpi.c:501
    46dc:	a9bd7bfd 	stp	x29, x30, [sp, #-48]!
    46e0:	910003fd 	mov	x29, sp
    46e4:	a90153f3 	stp	x19, x20, [sp, #16]
    46e8:	aa0003f3 	mov	x19, x0
    46ec:	aa0103f4 	mov	x20, x1
/home/hei/Desktop/optee-qemu/optee_os/lib/libutee/tee_api_arith_mpi.c:502
    46f0:	aa0203e0 	mov	x0, x2
    46f4:	52800041 	mov	w1, #0x2                   	// #2
    46f8:	f90017e2 	str	x2, [sp, #40]
    46fc:	97fffe37 	bl	3fd8 <TEE_BigIntCmpS32>
    4700:	f94017e2 	ldr	x2, [sp, #40]
    4704:	36f80100 	tbz	w0, #31, 4724 <TEE_BigIntMod+0x48>
/home/hei/Desktop/optee-qemu/optee_os/lib/libutee/tee_api_arith_mpi.c:503
    4708:	f0000020 	adrp	x0, b000 <__func__.3755+0xec>
    470c:	910a7400 	add	x0, x0, #0x29d
    4710:	f0000022 	adrp	x2, b000 <__func__.3755+0xec>
    4714:	52803ee1 	mov	w1, #0x1f7                 	// #503
    4718:	91114442 	add	x2, x2, #0x451
    471c:	9102ec00 	add	x0, x0, #0xbb
    4720:	97fffb57 	bl	347c <api_panic>
/home/hei/Desktop/optee-qemu/optee_os/lib/libutee/tee_api_arith_mpi.c:505
    4724:	90000043 	adrp	x3, c000 <_DYNAMIC>
    4728:	aa1403e1 	mov	x1, x20
    472c:	aa1303e0 	mov	x0, x19
    4730:	f940bc63 	ldr	x3, [x3, #376]
/home/hei/Desktop/optee-qemu/optee_os/lib/libutee/tee_api_arith_mpi.c:506
    4734:	a94153f3 	ldp	x19, x20, [sp, #16]
    4738:	a8c37bfd 	ldp	x29, x30, [sp], #48
/home/hei/Desktop/optee-qemu/optee_os/lib/libutee/tee_api_arith_mpi.c:505
    473c:	17fffba7 	b	35d8 <bigint_binary>

0000000000004740 <TEE_BigIntAddMod>:
TEE_BigIntAddMod():
/home/hei/Desktop/optee-qemu/optee_os/lib/libutee/tee_api_arith_mpi.c:511
    4740:	90000044 	adrp	x4, c000 <_DYNAMIC>
    4744:	f940ac84 	ldr	x4, [x4, #344]
    4748:	17fffe36 	b	4020 <bigint_binary_mod>

000000000000474c <TEE_BigIntSubMod>:
TEE_BigIntSubMod():
/home/hei/Desktop/optee-qemu/optee_os/lib/libutee/tee_api_arith_mpi.c:517
    474c:	90000044 	adrp	x4, c000 <_DYNAMIC>
    4750:	f940b484 	ldr	x4, [x4, #360]
    4754:	17fffe33 	b	4020 <bigint_binary_mod>

0000000000004758 <TEE_BigIntMulMod>:
TEE_BigIntMulMod():
/home/hei/Desktop/optee-qemu/optee_os/lib/libutee/tee_api_arith_mpi.c:523
    4758:	90000044 	adrp	x4, c000 <_DYNAMIC>
    475c:	f940a884 	ldr	x4, [x4, #336]
    4760:	17fffe30 	b	4020 <bigint_binary_mod>

0000000000004764 <TEE_BigIntSquareMod>:
TEE_BigIntSquareMod():
/home/hei/Desktop/optee-qemu/optee_os/lib/libutee/tee_api_arith_mpi.c:529
    4764:	aa0203e3 	mov	x3, x2
    4768:	aa0103e2 	mov	x2, x1
    476c:	17fffffb 	b	4758 <TEE_BigIntMulMod>

0000000000004770 <TEE_BigIntInvMod>:
TEE_BigIntInvMod():
/home/hei/Desktop/optee-qemu/optee_os/lib/libutee/tee_api_arith_mpi.c:534
    4770:	a9b77bfd 	stp	x29, x30, [sp, #-144]!
    4774:	910003fd 	mov	x29, sp
    4778:	a90153f3 	stp	x19, x20, [sp, #16]
    477c:	aa0103f4 	mov	x20, x1
/home/hei/Desktop/optee-qemu/optee_os/lib/libutee/tee_api_arith_mpi.c:535
    4780:	52800041 	mov	w1, #0x2                   	// #2
/home/hei/Desktop/optee-qemu/optee_os/lib/libutee/tee_api_arith_mpi.c:534
    4784:	a9025bf5 	stp	x21, x22, [sp, #32]
    4788:	aa0203f5 	mov	x21, x2
    478c:	f9001bf7 	str	x23, [sp, #48]
    4790:	aa0003f7 	mov	x23, x0
/home/hei/Desktop/optee-qemu/optee_os/lib/libutee/tee_api_arith_mpi.c:535
    4794:	aa0203e0 	mov	x0, x2
    4798:	97fffe10 	bl	3fd8 <TEE_BigIntCmpS32>
    479c:	36f80100 	tbz	w0, #31, 47bc <TEE_BigIntInvMod+0x4c>
/home/hei/Desktop/optee-qemu/optee_os/lib/libutee/tee_api_arith_mpi.c:536
    47a0:	f0000020 	adrp	x0, b000 <__func__.3755+0xec>
    47a4:	910a7400 	add	x0, x0, #0x29d
    47a8:	f0000022 	adrp	x2, b000 <__func__.3755+0xec>
    47ac:	52804301 	mov	w1, #0x218                 	// #536
    47b0:	91119842 	add	x2, x2, #0x466
    47b4:	91032400 	add	x0, x0, #0xc9
    47b8:	97fffb31 	bl	347c <api_panic>
/home/hei/Desktop/optee-qemu/optee_os/lib/libutee/tee_api_arith_mpi.c:535 (discriminator 1)
    47bc:	52800001 	mov	w1, #0x0                   	// #0
    47c0:	aa1403e0 	mov	x0, x20
    47c4:	97fffe05 	bl	3fd8 <TEE_BigIntCmpS32>
    47c8:	34fffec0 	cbz	w0, 47a0 <TEE_BigIntInvMod+0x30>
/home/hei/Desktop/optee-qemu/optee_os/lib/libutee/tee_api_arith_mpi.c:543
    47cc:	910123f3 	add	x19, sp, #0x48
    47d0:	aa1703e1 	mov	x1, x23
    47d4:	aa1303e0 	mov	x0, x19
/home/hei/Desktop/optee-qemu/optee_os/lib/libutee/tee_api_arith_mpi.c:544
    47d8:	9101e3f6 	add	x22, sp, #0x78
/home/hei/Desktop/optee-qemu/optee_os/lib/libutee/tee_api_arith_mpi.c:543
    47dc:	97fffb40 	bl	34dc <get_mpi>
/home/hei/Desktop/optee-qemu/optee_os/lib/libutee/tee_api_arith_mpi.c:544
    47e0:	aa1503e1 	mov	x1, x21
    47e4:	aa1603e0 	mov	x0, x22
    47e8:	97fffb3d 	bl	34dc <get_mpi>
/home/hei/Desktop/optee-qemu/optee_os/lib/libutee/tee_api_arith_mpi.c:546
    47ec:	910183f5 	add	x21, sp, #0x60
    47f0:	eb17029f 	cmp	x20, x23
    47f4:	54000200 	b.eq	4834 <TEE_BigIntInvMod+0xc4>  // b.none
/home/hei/Desktop/optee-qemu/optee_os/lib/libutee/tee_api_arith_mpi.c:549
    47f8:	aa1403e1 	mov	x1, x20
/home/hei/Desktop/optee-qemu/optee_os/lib/libutee/tee_api_arith_mpi.c:541
    47fc:	aa1503f4 	mov	x20, x21
/home/hei/Desktop/optee-qemu/optee_os/lib/libutee/tee_api_arith_mpi.c:549
    4800:	aa1503e0 	mov	x0, x21
    4804:	97fffb36 	bl	34dc <get_mpi>
/home/hei/Desktop/optee-qemu/optee_os/lib/libutee/tee_api_arith_mpi.c:551
    4808:	aa1603e2 	mov	x2, x22
    480c:	aa1403e1 	mov	x1, x20
    4810:	aa1303e0 	mov	x0, x19
    4814:	94000d67 	bl	7db0 <mbedtls_mpi_inv_mod>
    4818:	34000120 	cbz	w0, 483c <TEE_BigIntInvMod+0xcc>
/home/hei/Desktop/optee-qemu/optee_os/lib/libutee/tee_api_arith_mpi.c:551 (discriminator 1)
    481c:	2a0003e2 	mov	w2, w0
    4820:	528044e1 	mov	w1, #0x227                 	// #551
/home/hei/Desktop/optee-qemu/optee_os/lib/libutee/tee_api_arith_mpi.c:553 (discriminator 1)
    4824:	f0000020 	adrp	x0, b000 <__func__.3755+0xec>
    4828:	910a7400 	add	x0, x0, #0x29d
    482c:	91032400 	add	x0, x0, #0xc9
    4830:	97fffb1f 	bl	34ac <mpi_panic>
/home/hei/Desktop/optee-qemu/optee_os/lib/libutee/tee_api_arith_mpi.c:547
    4834:	aa1303f4 	mov	x20, x19
    4838:	17fffff4 	b	4808 <TEE_BigIntInvMod+0x98>
/home/hei/Desktop/optee-qemu/optee_os/lib/libutee/tee_api_arith_mpi.c:553
    483c:	aa1703e1 	mov	x1, x23
    4840:	aa1303e0 	mov	x0, x19
    4844:	97fffb4c 	bl	3574 <copy_mpi_to_bigint>
    4848:	34000080 	cbz	w0, 4858 <TEE_BigIntInvMod+0xe8>
/home/hei/Desktop/optee-qemu/optee_os/lib/libutee/tee_api_arith_mpi.c:553 (discriminator 1)
    484c:	2a0003e2 	mov	w2, w0
    4850:	52804521 	mov	w1, #0x229                 	// #553
    4854:	17fffff4 	b	4824 <TEE_BigIntInvMod+0xb4>
/home/hei/Desktop/optee-qemu/optee_os/lib/libutee/tee_api_arith_mpi.c:554
    4858:	aa1303e0 	mov	x0, x19
    485c:	940002cd 	bl	5390 <mbedtls_mpi_free>
/home/hei/Desktop/optee-qemu/optee_os/lib/libutee/tee_api_arith_mpi.c:555
    4860:	aa1603e0 	mov	x0, x22
    4864:	940002cb 	bl	5390 <mbedtls_mpi_free>
/home/hei/Desktop/optee-qemu/optee_os/lib/libutee/tee_api_arith_mpi.c:556
    4868:	eb15029f 	cmp	x20, x21
    486c:	54000061 	b.ne	4878 <TEE_BigIntInvMod+0x108>  // b.any
/home/hei/Desktop/optee-qemu/optee_os/lib/libutee/tee_api_arith_mpi.c:557
    4870:	aa1403e0 	mov	x0, x20
    4874:	940002c7 	bl	5390 <mbedtls_mpi_free>
/home/hei/Desktop/optee-qemu/optee_os/lib/libutee/tee_api_arith_mpi.c:558
    4878:	a94153f3 	ldp	x19, x20, [sp, #16]
    487c:	a9425bf5 	ldp	x21, x22, [sp, #32]
    4880:	f9401bf7 	ldr	x23, [sp, #48]
    4884:	a8c97bfd 	ldp	x29, x30, [sp], #144
    4888:	d65f03c0 	ret

000000000000488c <TEE_BigIntRelativePrime>:
TEE_BigIntRelativePrime():
/home/hei/Desktop/optee-qemu/optee_os/lib/libutee/tee_api_arith_mpi.c:561
    488c:	a9b77bfd 	stp	x29, x30, [sp, #-144]!
    4890:	910003fd 	mov	x29, sp
    4894:	a90153f3 	stp	x19, x20, [sp, #16]
/home/hei/Desktop/optee-qemu/optee_os/lib/libutee/tee_api_arith_mpi.c:568
    4898:	910123f4 	add	x20, sp, #0x48
/home/hei/Desktop/optee-qemu/optee_os/lib/libutee/tee_api_arith_mpi.c:561
    489c:	aa0003f3 	mov	x19, x0
    48a0:	a9025bf5 	stp	x21, x22, [sp, #32]
    48a4:	aa0103f5 	mov	x21, x1
/home/hei/Desktop/optee-qemu/optee_os/lib/libutee/tee_api_arith_mpi.c:568
    48a8:	aa0003e1 	mov	x1, x0
    48ac:	aa1403e0 	mov	x0, x20
/home/hei/Desktop/optee-qemu/optee_os/lib/libutee/tee_api_arith_mpi.c:561
    48b0:	f9001bf7 	str	x23, [sp, #48]
/home/hei/Desktop/optee-qemu/optee_os/lib/libutee/tee_api_arith_mpi.c:568
    48b4:	97fffb0a 	bl	34dc <get_mpi>
/home/hei/Desktop/optee-qemu/optee_os/lib/libutee/tee_api_arith_mpi.c:570
    48b8:	eb15027f 	cmp	x19, x21
    48bc:	910183f3 	add	x19, sp, #0x60
    48c0:	54000260 	b.eq	490c <TEE_BigIntRelativePrime+0x80>  // b.none
/home/hei/Desktop/optee-qemu/optee_os/lib/libutee/tee_api_arith_mpi.c:565
    48c4:	aa1303f6 	mov	x22, x19
/home/hei/Desktop/optee-qemu/optee_os/lib/libutee/tee_api_arith_mpi.c:573
    48c8:	aa1503e1 	mov	x1, x21
    48cc:	aa1303e0 	mov	x0, x19
    48d0:	97fffb03 	bl	34dc <get_mpi>
get_mpi():
/home/hei/Desktop/optee-qemu/optee_os/lib/libutee/tee_api_arith_mpi.c:101
    48d4:	9101e3f5 	add	x21, sp, #0x78
    48d8:	aa1503e0 	mov	x0, x21
    48dc:	940002a3 	bl	5368 <mbedtls_mpi_init_mempool>
TEE_BigIntRelativePrime():
/home/hei/Desktop/optee-qemu/optee_os/lib/libutee/tee_api_arith_mpi.c:577
    48e0:	aa1303e2 	mov	x2, x19
    48e4:	aa1403e1 	mov	x1, x20
    48e8:	aa1503e0 	mov	x0, x21
    48ec:	94000bff 	bl	78e8 <mbedtls_mpi_gcd>
    48f0:	34000120 	cbz	w0, 4914 <TEE_BigIntRelativePrime+0x88>
/home/hei/Desktop/optee-qemu/optee_os/lib/libutee/tee_api_arith_mpi.c:577 (discriminator 1)
    48f4:	2a0003e2 	mov	w2, w0
    48f8:	f0000020 	adrp	x0, b000 <__func__.3755+0xec>
    48fc:	910a7400 	add	x0, x0, #0x29d
    4900:	52804821 	mov	w1, #0x241                 	// #577
    4904:	91036800 	add	x0, x0, #0xda
    4908:	97fffae9 	bl	34ac <mpi_panic>
/home/hei/Desktop/optee-qemu/optee_os/lib/libutee/tee_api_arith_mpi.c:571
    490c:	aa1403f6 	mov	x22, x20
    4910:	17fffff1 	b	48d4 <TEE_BigIntRelativePrime+0x48>
/home/hei/Desktop/optee-qemu/optee_os/lib/libutee/tee_api_arith_mpi.c:579
    4914:	52800021 	mov	w1, #0x1                   	// #1
    4918:	aa1503e0 	mov	x0, x21
    491c:	94000595 	bl	5f70 <mbedtls_mpi_cmp_int>
    4920:	7100001f 	cmp	w0, #0x0
    4924:	1a9f17f7 	cset	w23, eq  // eq = none
/home/hei/Desktop/optee-qemu/optee_os/lib/libutee/tee_api_arith_mpi.c:581
    4928:	aa1503e0 	mov	x0, x21
    492c:	94000299 	bl	5390 <mbedtls_mpi_free>
/home/hei/Desktop/optee-qemu/optee_os/lib/libutee/tee_api_arith_mpi.c:582
    4930:	aa1403e0 	mov	x0, x20
    4934:	94000297 	bl	5390 <mbedtls_mpi_free>
/home/hei/Desktop/optee-qemu/optee_os/lib/libutee/tee_api_arith_mpi.c:583
    4938:	eb1302df 	cmp	x22, x19
    493c:	54000061 	b.ne	4948 <TEE_BigIntRelativePrime+0xbc>  // b.any
/home/hei/Desktop/optee-qemu/optee_os/lib/libutee/tee_api_arith_mpi.c:584
    4940:	aa1603e0 	mov	x0, x22
    4944:	94000293 	bl	5390 <mbedtls_mpi_free>
/home/hei/Desktop/optee-qemu/optee_os/lib/libutee/tee_api_arith_mpi.c:587
    4948:	2a1703e0 	mov	w0, w23
    494c:	a94153f3 	ldp	x19, x20, [sp, #16]
    4950:	a9425bf5 	ldp	x21, x22, [sp, #32]
    4954:	f9401bf7 	ldr	x23, [sp, #48]
    4958:	a8c97bfd 	ldp	x29, x30, [sp], #144
    495c:	d65f03c0 	ret

0000000000004960 <TEE_BigIntComputeExtendedGcd>:
TEE_BigIntComputeExtendedGcd():
/home/hei/Desktop/optee-qemu/optee_os/lib/libutee/tee_api_arith_mpi.c:698
    4960:	a9b17bfd 	stp	x29, x30, [sp, #-240]!
    4964:	910003fd 	mov	x29, sp
    4968:	a9025bf5 	stp	x21, x22, [sp, #32]
/home/hei/Desktop/optee-qemu/optee_os/lib/libutee/tee_api_arith_mpi.c:704
    496c:	9101e3f5 	add	x21, sp, #0x78
/home/hei/Desktop/optee-qemu/optee_os/lib/libutee/tee_api_arith_mpi.c:698
    4970:	aa0303f6 	mov	x22, x3
    4974:	a90153f3 	stp	x19, x20, [sp, #16]
    4978:	aa0403f3 	mov	x19, x4
/home/hei/Desktop/optee-qemu/optee_os/lib/libutee/tee_api_arith_mpi.c:705
    497c:	910243f4 	add	x20, sp, #0x90
/home/hei/Desktop/optee-qemu/optee_os/lib/libutee/tee_api_arith_mpi.c:698
    4980:	a90363f7 	stp	x23, x24, [sp, #48]
    4984:	9102a3f8 	add	x24, sp, #0xa8
    4988:	a9046bf9 	stp	x25, x26, [sp, #64]
    498c:	aa0203fa 	mov	x26, x2
    4990:	aa0003f9 	mov	x25, x0
    4994:	a90573fb 	stp	x27, x28, [sp, #80]
    4998:	aa0103fb 	mov	x27, x1
/home/hei/Desktop/optee-qemu/optee_os/lib/libutee/tee_api_arith_mpi.c:704
    499c:	aa0003e1 	mov	x1, x0
    49a0:	aa1503e0 	mov	x0, x21
    49a4:	97ffface 	bl	34dc <get_mpi>
/home/hei/Desktop/optee-qemu/optee_os/lib/libutee/tee_api_arith_mpi.c:705
    49a8:	aa1603e1 	mov	x1, x22
    49ac:	aa1403e0 	mov	x0, x20
    49b0:	97fffacb 	bl	34dc <get_mpi>
/home/hei/Desktop/optee-qemu/optee_os/lib/libutee/tee_api_arith_mpi.c:707
    49b4:	eb1302df 	cmp	x22, x19
    49b8:	54000260 	b.eq	4a04 <TEE_BigIntComputeExtendedGcd+0xa4>  // b.none
/home/hei/Desktop/optee-qemu/optee_os/lib/libutee/tee_api_arith_mpi.c:710
    49bc:	aa1303e1 	mov	x1, x19
/home/hei/Desktop/optee-qemu/optee_os/lib/libutee/tee_api_arith_mpi.c:702
    49c0:	aa1803f3 	mov	x19, x24
/home/hei/Desktop/optee-qemu/optee_os/lib/libutee/tee_api_arith_mpi.c:710
    49c4:	aa1803e0 	mov	x0, x24
    49c8:	97fffac5 	bl	34dc <get_mpi>
/home/hei/Desktop/optee-qemu/optee_os/lib/libutee/tee_api_arith_mpi.c:712
    49cc:	aa1a0360 	orr	x0, x27, x26
    49d0:	b50001e0 	cbnz	x0, 4a0c <TEE_BigIntComputeExtendedGcd+0xac>
/home/hei/Desktop/optee-qemu/optee_os/lib/libutee/tee_api_arith_mpi.c:713
    49d4:	b4000b79 	cbz	x25, 4b40 <TEE_BigIntComputeExtendedGcd+0x1e0>
/home/hei/Desktop/optee-qemu/optee_os/lib/libutee/tee_api_arith_mpi.c:714
    49d8:	aa1303e2 	mov	x2, x19
    49dc:	aa1403e1 	mov	x1, x20
    49e0:	aa1503e0 	mov	x0, x21
    49e4:	94000bc1 	bl	78e8 <mbedtls_mpi_gcd>
    49e8:	34000ac0 	cbz	w0, 4b40 <TEE_BigIntComputeExtendedGcd+0x1e0>
/home/hei/Desktop/optee-qemu/optee_os/lib/libutee/tee_api_arith_mpi.c:714 (discriminator 1)
    49ec:	2a0003e2 	mov	w2, w0
    49f0:	52805961 	mov	w1, #0x2cb                 	// #715
/home/hei/Desktop/optee-qemu/optee_os/lib/libutee/tee_api_arith_mpi.c:731 (discriminator 1)
    49f4:	f0000020 	adrp	x0, b000 <__func__.3755+0xec>
    49f8:	910a7400 	add	x0, x0, #0x29d
    49fc:	9103c800 	add	x0, x0, #0xf2
    4a00:	97fffaab 	bl	34ac <mpi_panic>
/home/hei/Desktop/optee-qemu/optee_os/lib/libutee/tee_api_arith_mpi.c:708
    4a04:	aa1403f3 	mov	x19, x20
    4a08:	17fffff1 	b	49cc <TEE_BigIntComputeExtendedGcd+0x6c>
/home/hei/Desktop/optee-qemu/optee_os/lib/libutee/tee_api_arith_mpi.c:720
    4a0c:	39c00260 	ldrsb	w0, [x19]
/home/hei/Desktop/optee-qemu/optee_os/lib/libutee/tee_api_arith_mpi.c:726
    4a10:	910303f7 	add	x23, sp, #0xc0
/home/hei/Desktop/optee-qemu/optee_os/lib/libutee/tee_api_arith_mpi.c:719
    4a14:	39c243fc 	ldrsb	w28, [sp, #144]
/home/hei/Desktop/optee-qemu/optee_os/lib/libutee/tee_api_arith_mpi.c:726
    4a18:	aa1b03e1 	mov	x1, x27
/home/hei/Desktop/optee-qemu/optee_os/lib/libutee/tee_api_arith_mpi.c:720
    4a1c:	b9006fe0 	str	w0, [sp, #108]
/home/hei/Desktop/optee-qemu/optee_os/lib/libutee/tee_api_arith_mpi.c:723
    4a20:	52800020 	mov	w0, #0x1                   	// #1
    4a24:	790123e0 	strh	w0, [sp, #144]
/home/hei/Desktop/optee-qemu/optee_os/lib/libutee/tee_api_arith_mpi.c:727
    4a28:	910363f6 	add	x22, sp, #0xd8
/home/hei/Desktop/optee-qemu/optee_os/lib/libutee/tee_api_arith_mpi.c:724
    4a2c:	79000260 	strh	w0, [x19]
/home/hei/Desktop/optee-qemu/optee_os/lib/libutee/tee_api_arith_mpi.c:726
    4a30:	aa1703e0 	mov	x0, x23
    4a34:	97fffaaa 	bl	34dc <get_mpi>
/home/hei/Desktop/optee-qemu/optee_os/lib/libutee/tee_api_arith_mpi.c:727
    4a38:	aa1a03e1 	mov	x1, x26
    4a3c:	aa1603e0 	mov	x0, x22
    4a40:	97fffaa7 	bl	34dc <get_mpi>
/home/hei/Desktop/optee-qemu/optee_os/lib/libutee/tee_api_arith_mpi.c:729
    4a44:	aa1303e1 	mov	x1, x19
    4a48:	aa1403e0 	mov	x0, x20
    4a4c:	940004ec 	bl	5dfc <mbedtls_mpi_cmp_abs>
/home/hei/Desktop/optee-qemu/optee_os/lib/libutee/tee_api_arith_mpi.c:730
    4a50:	7100001f 	cmp	w0, #0x0
    4a54:	540002c1 	b.ne	4aac <TEE_BigIntComputeExtendedGcd+0x14c>  // b.any
/home/hei/Desktop/optee-qemu/optee_os/lib/libutee/tee_api_arith_mpi.c:731
    4a58:	aa1403e1 	mov	x1, x20
    4a5c:	aa1503e0 	mov	x0, x21
    4a60:	940002ed 	bl	5614 <mbedtls_mpi_copy>
    4a64:	34000080 	cbz	w0, 4a74 <TEE_BigIntComputeExtendedGcd+0x114>
/home/hei/Desktop/optee-qemu/optee_os/lib/libutee/tee_api_arith_mpi.c:731 (discriminator 1)
    4a68:	2a0003e2 	mov	w2, w0
    4a6c:	52805b61 	mov	w1, #0x2db                 	// #731
    4a70:	17ffffe1 	b	49f4 <TEE_BigIntComputeExtendedGcd+0x94>
/home/hei/Desktop/optee-qemu/optee_os/lib/libutee/tee_api_arith_mpi.c:732
    4a74:	52800021 	mov	w1, #0x1                   	// #1
    4a78:	aa1703e0 	mov	x0, x23
    4a7c:	94000394 	bl	58cc <mbedtls_mpi_lset>
    4a80:	34000080 	cbz	w0, 4a90 <TEE_BigIntComputeExtendedGcd+0x130>
/home/hei/Desktop/optee-qemu/optee_os/lib/libutee/tee_api_arith_mpi.c:732 (discriminator 1)
    4a84:	2a0003e2 	mov	w2, w0
    4a88:	52805b81 	mov	w1, #0x2dc                 	// #732
    4a8c:	17ffffda 	b	49f4 <TEE_BigIntComputeExtendedGcd+0x94>
/home/hei/Desktop/optee-qemu/optee_os/lib/libutee/tee_api_arith_mpi.c:733
    4a90:	52800001 	mov	w1, #0x0                   	// #0
    4a94:	aa1603e0 	mov	x0, x22
    4a98:	9400038d 	bl	58cc <mbedtls_mpi_lset>
    4a9c:	34000160 	cbz	w0, 4ac8 <TEE_BigIntComputeExtendedGcd+0x168>
/home/hei/Desktop/optee-qemu/optee_os/lib/libutee/tee_api_arith_mpi.c:733 (discriminator 1)
    4aa0:	2a0003e2 	mov	w2, w0
    4aa4:	52805ba1 	mov	w1, #0x2dd                 	// #733
    4aa8:	17ffffd3 	b	49f4 <TEE_BigIntComputeExtendedGcd+0x94>
/home/hei/Desktop/optee-qemu/optee_os/lib/libutee/tee_api_arith_mpi.c:734
    4aac:	540002ad 	b.le	4b00 <TEE_BigIntComputeExtendedGcd+0x1a0>
/home/hei/Desktop/optee-qemu/optee_os/lib/libutee/tee_api_arith_mpi.c:735
    4ab0:	aa1303e4 	mov	x4, x19
    4ab4:	aa1403e3 	mov	x3, x20
    4ab8:	aa1603e2 	mov	x2, x22
    4abc:	aa1703e1 	mov	x1, x23
/home/hei/Desktop/optee-qemu/optee_os/lib/libutee/tee_api_arith_mpi.c:737
    4ac0:	aa1503e0 	mov	x0, x21
    4ac4:	97fffb1d 	bl	3738 <mpi_egcd>
/home/hei/Desktop/optee-qemu/optee_os/lib/libutee/tee_api_arith_mpi.c:740
    4ac8:	794183e0 	ldrh	w0, [sp, #192]
/home/hei/Desktop/optee-qemu/optee_os/lib/libutee/tee_api_arith_mpi.c:741
    4acc:	b9406fe1 	ldr	w1, [sp, #108]
/home/hei/Desktop/optee-qemu/optee_os/lib/libutee/tee_api_arith_mpi.c:740
    4ad0:	1b007f9c 	mul	w28, w28, w0
/home/hei/Desktop/optee-qemu/optee_os/lib/libutee/tee_api_arith_mpi.c:741
    4ad4:	7941b3e0 	ldrh	w0, [sp, #216]
/home/hei/Desktop/optee-qemu/optee_os/lib/libutee/tee_api_arith_mpi.c:740
    4ad8:	790183fc 	strh	w28, [sp, #192]
/home/hei/Desktop/optee-qemu/optee_os/lib/libutee/tee_api_arith_mpi.c:741
    4adc:	1b007c20 	mul	w0, w1, w0
/home/hei/Desktop/optee-qemu/optee_os/lib/libutee/tee_api_arith_mpi.c:743
    4ae0:	aa1b03e1 	mov	x1, x27
/home/hei/Desktop/optee-qemu/optee_os/lib/libutee/tee_api_arith_mpi.c:741
    4ae4:	7901b3e0 	strh	w0, [sp, #216]
/home/hei/Desktop/optee-qemu/optee_os/lib/libutee/tee_api_arith_mpi.c:743
    4ae8:	aa1703e0 	mov	x0, x23
    4aec:	97fffaa2 	bl	3574 <copy_mpi_to_bigint>
    4af0:	34000120 	cbz	w0, 4b14 <TEE_BigIntComputeExtendedGcd+0x1b4>
/home/hei/Desktop/optee-qemu/optee_os/lib/libutee/tee_api_arith_mpi.c:743 (discriminator 1)
    4af4:	2a0003e2 	mov	w2, w0
    4af8:	52805ce1 	mov	w1, #0x2e7                 	// #743
    4afc:	17ffffbe 	b	49f4 <TEE_BigIntComputeExtendedGcd+0x94>
/home/hei/Desktop/optee-qemu/optee_os/lib/libutee/tee_api_arith_mpi.c:737
    4b00:	aa1403e4 	mov	x4, x20
    4b04:	aa1303e3 	mov	x3, x19
    4b08:	aa1703e2 	mov	x2, x23
    4b0c:	aa1603e1 	mov	x1, x22
    4b10:	17ffffec 	b	4ac0 <TEE_BigIntComputeExtendedGcd+0x160>
/home/hei/Desktop/optee-qemu/optee_os/lib/libutee/tee_api_arith_mpi.c:744
    4b14:	aa1a03e1 	mov	x1, x26
    4b18:	aa1603e0 	mov	x0, x22
    4b1c:	97fffa96 	bl	3574 <copy_mpi_to_bigint>
    4b20:	34000080 	cbz	w0, 4b30 <TEE_BigIntComputeExtendedGcd+0x1d0>
/home/hei/Desktop/optee-qemu/optee_os/lib/libutee/tee_api_arith_mpi.c:744 (discriminator 1)
    4b24:	2a0003e2 	mov	w2, w0
    4b28:	52805d01 	mov	w1, #0x2e8                 	// #744
    4b2c:	17ffffb2 	b	49f4 <TEE_BigIntComputeExtendedGcd+0x94>
/home/hei/Desktop/optee-qemu/optee_os/lib/libutee/tee_api_arith_mpi.c:745
    4b30:	aa1703e0 	mov	x0, x23
    4b34:	94000217 	bl	5390 <mbedtls_mpi_free>
/home/hei/Desktop/optee-qemu/optee_os/lib/libutee/tee_api_arith_mpi.c:746
    4b38:	aa1603e0 	mov	x0, x22
    4b3c:	94000215 	bl	5390 <mbedtls_mpi_free>
/home/hei/Desktop/optee-qemu/optee_os/lib/libutee/tee_api_arith_mpi.c:749
    4b40:	aa1903e1 	mov	x1, x25
    4b44:	aa1503e0 	mov	x0, x21
    4b48:	97fffa8b 	bl	3574 <copy_mpi_to_bigint>
    4b4c:	34000080 	cbz	w0, 4b5c <TEE_BigIntComputeExtendedGcd+0x1fc>
/home/hei/Desktop/optee-qemu/optee_os/lib/libutee/tee_api_arith_mpi.c:749 (discriminator 1)
    4b50:	2a0003e2 	mov	w2, w0
    4b54:	52805da1 	mov	w1, #0x2ed                 	// #749
    4b58:	17ffffa7 	b	49f4 <TEE_BigIntComputeExtendedGcd+0x94>
/home/hei/Desktop/optee-qemu/optee_os/lib/libutee/tee_api_arith_mpi.c:750
    4b5c:	aa1503e0 	mov	x0, x21
    4b60:	9400020c 	bl	5390 <mbedtls_mpi_free>
/home/hei/Desktop/optee-qemu/optee_os/lib/libutee/tee_api_arith_mpi.c:751
    4b64:	aa1403e0 	mov	x0, x20
    4b68:	9400020a 	bl	5390 <mbedtls_mpi_free>
/home/hei/Desktop/optee-qemu/optee_os/lib/libutee/tee_api_arith_mpi.c:752
    4b6c:	eb18027f 	cmp	x19, x24
    4b70:	54000061 	b.ne	4b7c <TEE_BigIntComputeExtendedGcd+0x21c>  // b.any
/home/hei/Desktop/optee-qemu/optee_os/lib/libutee/tee_api_arith_mpi.c:753
    4b74:	aa1303e0 	mov	x0, x19
    4b78:	94000206 	bl	5390 <mbedtls_mpi_free>
/home/hei/Desktop/optee-qemu/optee_os/lib/libutee/tee_api_arith_mpi.c:754
    4b7c:	a94153f3 	ldp	x19, x20, [sp, #16]
    4b80:	a9425bf5 	ldp	x21, x22, [sp, #32]
    4b84:	a94363f7 	ldp	x23, x24, [sp, #48]
    4b88:	a9446bf9 	ldp	x25, x26, [sp, #64]
    4b8c:	a94573fb 	ldp	x27, x28, [sp, #80]
    4b90:	a8cf7bfd 	ldp	x29, x30, [sp], #240
    4b94:	d65f03c0 	ret

0000000000004b98 <TEE_BigIntIsProbablePrime>:
TEE_BigIntIsProbablePrime():
/home/hei/Desktop/optee-qemu/optee_os/lib/libutee/tee_api_arith_mpi.c:765
    4b98:	a9bc7bfd 	stp	x29, x30, [sp, #-64]!
/home/hei/Desktop/optee-qemu/optee_os/lib/libutee/tee_api_arith_mpi.c:769
    4b9c:	aa0003e1 	mov	x1, x0
/home/hei/Desktop/optee-qemu/optee_os/lib/libutee/tee_api_arith_mpi.c:765
    4ba0:	910003fd 	mov	x29, sp
    4ba4:	a90153f3 	stp	x19, x20, [sp, #16]
/home/hei/Desktop/optee-qemu/optee_os/lib/libutee/tee_api_arith_mpi.c:769
    4ba8:	9100a3f3 	add	x19, sp, #0x28
    4bac:	aa1303e0 	mov	x0, x19
    4bb0:	97fffa4b 	bl	34dc <get_mpi>
/home/hei/Desktop/optee-qemu/optee_os/lib/libutee/tee_api_arith_mpi.c:771
    4bb4:	f0ffffe1 	adrp	x1, 3000 <utee_authenc_dec_final+0x8>
    4bb8:	911c4021 	add	x1, x1, #0x710
    4bbc:	d2800002 	mov	x2, #0x0                   	// #0
    4bc0:	aa1303e0 	mov	x0, x19
    4bc4:	94000db3 	bl	8290 <mbedtls_mpi_is_prime>
    4bc8:	2a0003f4 	mov	w20, w0
/home/hei/Desktop/optee-qemu/optee_os/lib/libutee/tee_api_arith_mpi.c:773
    4bcc:	aa1303e0 	mov	x0, x19
    4bd0:	940001f0 	bl	5390 <mbedtls_mpi_free>
/home/hei/Desktop/optee-qemu/optee_os/lib/libutee/tee_api_arith_mpi.c:775
    4bd4:	7100029f 	cmp	w20, #0x0
/home/hei/Desktop/optee-qemu/optee_os/lib/libutee/tee_api_arith_mpi.c:779
    4bd8:	1a9f17e0 	cset	w0, eq  // eq = none
    4bdc:	a94153f3 	ldp	x19, x20, [sp, #16]
    4be0:	a8c47bfd 	ldp	x29, x30, [sp], #64
    4be4:	d65f03c0 	ret

0000000000004be8 <TEE_BigIntInitFMM>:
TEE_BigIntInitFMM():
/home/hei/Desktop/optee-qemu/optee_os/lib/libutee/tee_api_arith_mpi.c:791
    4be8:	17fffc3b 	b	3cd4 <TEE_BigIntInit>

0000000000004bec <TEE_BigIntInitFMMContext>:
TEE_BigIntInitFMMContext():
/home/hei/Desktop/optee-qemu/optee_os/lib/libutee/tee_api_arith_mpi.c:798
    4bec:	d65f03c0 	ret

0000000000004bf0 <TEE_BigIntFMMSizeInU32>:
TEE_BigIntFMMSizeInU32():
/home/hei/Desktop/optee-qemu/optee_os/lib/libutee/tee_api_arith_mpi.c:802
    4bf0:	11007c00 	add	w0, w0, #0x1f
    4bf4:	53057c00 	lsr	w0, w0, #5
/home/hei/Desktop/optee-qemu/optee_os/lib/libutee/tee_api_arith_mpi.c:803
    4bf8:	11000800 	add	w0, w0, #0x2
    4bfc:	d65f03c0 	ret

0000000000004c00 <TEE_BigIntFMMContextSizeInU32>:
TEE_BigIntFMMContextSizeInU32():
/home/hei/Desktop/optee-qemu/optee_os/lib/libutee/tee_api_arith_mpi.c:809
    4c00:	52800020 	mov	w0, #0x1                   	// #1
    4c04:	d65f03c0 	ret

0000000000004c08 <TEE_BigIntConvertToFMM>:
TEE_BigIntConvertToFMM():
/home/hei/Desktop/optee-qemu/optee_os/lib/libutee/tee_api_arith_mpi.c:815
    4c08:	17fffeb5 	b	46dc <TEE_BigIntMod>

0000000000004c0c <TEE_BigIntConvertFromFMM>:
TEE_BigIntConvertFromFMM():
/home/hei/Desktop/optee-qemu/optee_os/lib/libutee/tee_api_arith_mpi.c:821
    4c0c:	a9ba7bfd 	stp	x29, x30, [sp, #-96]!
    4c10:	910003fd 	mov	x29, sp
    4c14:	a90153f3 	stp	x19, x20, [sp, #16]
/home/hei/Desktop/optee-qemu/optee_os/lib/libutee/tee_api_arith_mpi.c:825
    4c18:	9100c3f3 	add	x19, sp, #0x30
/home/hei/Desktop/optee-qemu/optee_os/lib/libutee/tee_api_arith_mpi.c:826
    4c1c:	910123f4 	add	x20, sp, #0x48
/home/hei/Desktop/optee-qemu/optee_os/lib/libutee/tee_api_arith_mpi.c:821
    4c20:	a9025bf5 	stp	x21, x22, [sp, #32]
    4c24:	aa0103f6 	mov	x22, x1
    4c28:	aa0003f5 	mov	x21, x0
/home/hei/Desktop/optee-qemu/optee_os/lib/libutee/tee_api_arith_mpi.c:825
    4c2c:	aa0003e1 	mov	x1, x0
    4c30:	aa1303e0 	mov	x0, x19
    4c34:	97fffa2a 	bl	34dc <get_mpi>
/home/hei/Desktop/optee-qemu/optee_os/lib/libutee/tee_api_arith_mpi.c:826
    4c38:	aa1603e1 	mov	x1, x22
    4c3c:	aa1403e0 	mov	x0, x20
    4c40:	97fffa27 	bl	34dc <get_mpi>
/home/hei/Desktop/optee-qemu/optee_os/lib/libutee/tee_api_arith_mpi.c:828
    4c44:	aa1403e1 	mov	x1, x20
    4c48:	aa1303e0 	mov	x0, x19
    4c4c:	94000272 	bl	5614 <mbedtls_mpi_copy>
    4c50:	340000e0 	cbz	w0, 4c6c <TEE_BigIntConvertFromFMM+0x60>
/home/hei/Desktop/optee-qemu/optee_os/lib/libutee/tee_api_arith_mpi.c:828 (discriminator 1)
    4c54:	2a0003e2 	mov	w2, w0
    4c58:	52806781 	mov	w1, #0x33c                 	// #828
/home/hei/Desktop/optee-qemu/optee_os/lib/libutee/tee_api_arith_mpi.c:830 (discriminator 1)
    4c5c:	f0000020 	adrp	x0, b000 <__func__.3755+0xec>
    4c60:	910a7400 	add	x0, x0, #0x29d
    4c64:	91043c00 	add	x0, x0, #0x10f
    4c68:	97fffa11 	bl	34ac <mpi_panic>
/home/hei/Desktop/optee-qemu/optee_os/lib/libutee/tee_api_arith_mpi.c:830
    4c6c:	aa1503e1 	mov	x1, x21
    4c70:	aa1303e0 	mov	x0, x19
    4c74:	97fffa40 	bl	3574 <copy_mpi_to_bigint>
    4c78:	34000080 	cbz	w0, 4c88 <TEE_BigIntConvertFromFMM+0x7c>
/home/hei/Desktop/optee-qemu/optee_os/lib/libutee/tee_api_arith_mpi.c:830 (discriminator 1)
    4c7c:	2a0003e2 	mov	w2, w0
    4c80:	528067c1 	mov	w1, #0x33e                 	// #830
    4c84:	17fffff6 	b	4c5c <TEE_BigIntConvertFromFMM+0x50>
/home/hei/Desktop/optee-qemu/optee_os/lib/libutee/tee_api_arith_mpi.c:831
    4c88:	aa1303e0 	mov	x0, x19
    4c8c:	940001c1 	bl	5390 <mbedtls_mpi_free>
/home/hei/Desktop/optee-qemu/optee_os/lib/libutee/tee_api_arith_mpi.c:832
    4c90:	aa1403e0 	mov	x0, x20
    4c94:	940001bf 	bl	5390 <mbedtls_mpi_free>
/home/hei/Desktop/optee-qemu/optee_os/lib/libutee/tee_api_arith_mpi.c:833
    4c98:	a94153f3 	ldp	x19, x20, [sp, #16]
    4c9c:	a9425bf5 	ldp	x21, x22, [sp, #32]
    4ca0:	a8c67bfd 	ldp	x29, x30, [sp], #96
    4ca4:	d65f03c0 	ret

0000000000004ca8 <TEE_BigIntComputeFMM>:
TEE_BigIntComputeFMM():
/home/hei/Desktop/optee-qemu/optee_os/lib/libutee/tee_api_arith_mpi.c:838
    4ca8:	a9b37bfd 	stp	x29, x30, [sp, #-208]!
    4cac:	910003fd 	mov	x29, sp
    4cb0:	a90153f3 	stp	x19, x20, [sp, #16]
/home/hei/Desktop/optee-qemu/optee_os/lib/libutee/tee_api_arith_mpi.c:845
    4cb4:	910163f3 	add	x19, sp, #0x58
/home/hei/Desktop/optee-qemu/optee_os/lib/libutee/tee_api_arith_mpi.c:838
    4cb8:	aa0103f4 	mov	x20, x1
/home/hei/Desktop/optee-qemu/optee_os/lib/libutee/tee_api_arith_mpi.c:845
    4cbc:	aa0003e1 	mov	x1, x0
/home/hei/Desktop/optee-qemu/optee_os/lib/libutee/tee_api_arith_mpi.c:838
    4cc0:	a9025bf5 	stp	x21, x22, [sp, #32]
/home/hei/Desktop/optee-qemu/optee_os/lib/libutee/tee_api_arith_mpi.c:846
    4cc4:	9101c3f5 	add	x21, sp, #0x70
/home/hei/Desktop/optee-qemu/optee_os/lib/libutee/tee_api_arith_mpi.c:838
    4cc8:	a90363f7 	stp	x23, x24, [sp, #48]
    4ccc:	aa0003f8 	mov	x24, x0
/home/hei/Desktop/optee-qemu/optee_os/lib/libutee/tee_api_arith_mpi.c:845
    4cd0:	aa1303e0 	mov	x0, x19
/home/hei/Desktop/optee-qemu/optee_os/lib/libutee/tee_api_arith_mpi.c:838
    4cd4:	a9040be3 	stp	x3, x2, [sp, #64]
/home/hei/Desktop/optee-qemu/optee_os/lib/libutee/tee_api_arith_mpi.c:845
    4cd8:	97fffa01 	bl	34dc <get_mpi>
/home/hei/Desktop/optee-qemu/optee_os/lib/libutee/tee_api_arith_mpi.c:846
    4cdc:	aa1403e1 	mov	x1, x20
    4ce0:	aa1503e0 	mov	x0, x21
    4ce4:	97fff9fe 	bl	34dc <get_mpi>
/home/hei/Desktop/optee-qemu/optee_os/lib/libutee/tee_api_arith_mpi.c:847
    4ce8:	f94027e2 	ldr	x2, [sp, #72]
    4cec:	910223f6 	add	x22, sp, #0x88
    4cf0:	aa1603e0 	mov	x0, x22
/home/hei/Desktop/optee-qemu/optee_os/lib/libutee/tee_api_arith_mpi.c:848
    4cf4:	910283f7 	add	x23, sp, #0xa0
/home/hei/Desktop/optee-qemu/optee_os/lib/libutee/tee_api_arith_mpi.c:847
    4cf8:	aa0203e1 	mov	x1, x2
get_mpi():
/home/hei/Desktop/optee-qemu/optee_os/lib/libutee/tee_api_arith_mpi.c:101
    4cfc:	9102e3f4 	add	x20, sp, #0xb8
TEE_BigIntComputeFMM():
/home/hei/Desktop/optee-qemu/optee_os/lib/libutee/tee_api_arith_mpi.c:847
    4d00:	97fff9f7 	bl	34dc <get_mpi>
/home/hei/Desktop/optee-qemu/optee_os/lib/libutee/tee_api_arith_mpi.c:848
    4d04:	f94023e3 	ldr	x3, [sp, #64]
    4d08:	aa1703e0 	mov	x0, x23
    4d0c:	aa0303e1 	mov	x1, x3
    4d10:	97fff9f3 	bl	34dc <get_mpi>
get_mpi():
/home/hei/Desktop/optee-qemu/optee_os/lib/libutee/tee_api_arith_mpi.c:101
    4d14:	aa1403e0 	mov	x0, x20
    4d18:	94000194 	bl	5368 <mbedtls_mpi_init_mempool>
TEE_BigIntComputeFMM():
/home/hei/Desktop/optee-qemu/optee_os/lib/libutee/tee_api_arith_mpi.c:851
    4d1c:	aa1603e2 	mov	x2, x22
    4d20:	aa1503e1 	mov	x1, x21
    4d24:	aa1403e0 	mov	x0, x20
    4d28:	94000587 	bl	6344 <mbedtls_mpi_mul_mpi>
    4d2c:	340000e0 	cbz	w0, 4d48 <TEE_BigIntComputeFMM+0xa0>
/home/hei/Desktop/optee-qemu/optee_os/lib/libutee/tee_api_arith_mpi.c:851 (discriminator 1)
    4d30:	2a0003e2 	mov	w2, w0
    4d34:	52806a61 	mov	w1, #0x353                 	// #851
/home/hei/Desktop/optee-qemu/optee_os/lib/libutee/tee_api_arith_mpi.c:852 (discriminator 1)
    4d38:	f0000020 	adrp	x0, b000 <__func__.3755+0xec>
    4d3c:	910a7400 	add	x0, x0, #0x29d
    4d40:	9104a000 	add	x0, x0, #0x128
    4d44:	97fff9da 	bl	34ac <mpi_panic>
/home/hei/Desktop/optee-qemu/optee_os/lib/libutee/tee_api_arith_mpi.c:852
    4d48:	aa1703e2 	mov	x2, x23
    4d4c:	aa1403e1 	mov	x1, x20
    4d50:	aa1303e0 	mov	x0, x19
    4d54:	940007b1 	bl	6c18 <mbedtls_mpi_mod_mpi>
    4d58:	34000080 	cbz	w0, 4d68 <TEE_BigIntComputeFMM+0xc0>
/home/hei/Desktop/optee-qemu/optee_os/lib/libutee/tee_api_arith_mpi.c:852 (discriminator 1)
    4d5c:	2a0003e2 	mov	w2, w0
    4d60:	52806a81 	mov	w1, #0x354                 	// #852
    4d64:	17fffff5 	b	4d38 <TEE_BigIntComputeFMM+0x90>
/home/hei/Desktop/optee-qemu/optee_os/lib/libutee/tee_api_arith_mpi.c:854
    4d68:	aa1403e0 	mov	x0, x20
    4d6c:	94000189 	bl	5390 <mbedtls_mpi_free>
/home/hei/Desktop/optee-qemu/optee_os/lib/libutee/tee_api_arith_mpi.c:855
    4d70:	aa1703e0 	mov	x0, x23
    4d74:	94000187 	bl	5390 <mbedtls_mpi_free>
/home/hei/Desktop/optee-qemu/optee_os/lib/libutee/tee_api_arith_mpi.c:856
    4d78:	aa1603e0 	mov	x0, x22
    4d7c:	94000185 	bl	5390 <mbedtls_mpi_free>
/home/hei/Desktop/optee-qemu/optee_os/lib/libutee/tee_api_arith_mpi.c:857
    4d80:	aa1503e0 	mov	x0, x21
    4d84:	94000183 	bl	5390 <mbedtls_mpi_free>
/home/hei/Desktop/optee-qemu/optee_os/lib/libutee/tee_api_arith_mpi.c:858
    4d88:	aa1803e1 	mov	x1, x24
    4d8c:	aa1303e0 	mov	x0, x19
    4d90:	97fff9f9 	bl	3574 <copy_mpi_to_bigint>
    4d94:	34000080 	cbz	w0, 4da4 <TEE_BigIntComputeFMM+0xfc>
/home/hei/Desktop/optee-qemu/optee_os/lib/libutee/tee_api_arith_mpi.c:858 (discriminator 1)
    4d98:	2a0003e2 	mov	w2, w0
    4d9c:	52806b41 	mov	w1, #0x35a                 	// #858
    4da0:	17ffffe6 	b	4d38 <TEE_BigIntComputeFMM+0x90>
/home/hei/Desktop/optee-qemu/optee_os/lib/libutee/tee_api_arith_mpi.c:859
    4da4:	aa1303e0 	mov	x0, x19
    4da8:	9400017a 	bl	5390 <mbedtls_mpi_free>
/home/hei/Desktop/optee-qemu/optee_os/lib/libutee/tee_api_arith_mpi.c:860
    4dac:	a94153f3 	ldp	x19, x20, [sp, #16]
    4db0:	a9425bf5 	ldp	x21, x22, [sp, #32]
    4db4:	a94363f7 	ldp	x23, x24, [sp, #48]
    4db8:	a8cd7bfd 	ldp	x29, x30, [sp], #208
    4dbc:	d65f03c0 	ret

0000000000004dc0 <mpi_get_digit>:
mpi_get_digit():
/home/hei/Desktop/optee-qemu/optee_os/lib/libmbedtls/mbedtls/library/bignum.c:489
    4dc0:	12001c42 	and	w2, w2, #0xff
/home/hei/Desktop/optee-qemu/optee_os/lib/libmbedtls/mbedtls/library/bignum.c:492
    4dc4:	5100c043 	sub	w3, w2, #0x30
    4dc8:	12001c64 	and	w4, w3, #0xff
    4dcc:	7100249f 	cmp	w4, #0x9
    4dd0:	540000e8 	b.hi	4dec <mpi_get_digit+0x2c>  // b.pmore
/home/hei/Desktop/optee-qemu/optee_os/lib/libmbedtls/mbedtls/library/bignum.c:492 (discriminator 1)
    4dd4:	b9000003 	str	w3, [x0]
/home/hei/Desktop/optee-qemu/optee_os/lib/libmbedtls/mbedtls/library/bignum.c:496
    4dd8:	b9400000 	ldr	w0, [x0]
/home/hei/Desktop/optee-qemu/optee_os/lib/libmbedtls/mbedtls/library/bignum.c:497
    4ddc:	6b01001f 	cmp	w0, w1
/home/hei/Desktop/optee-qemu/optee_os/lib/libmbedtls/mbedtls/library/bignum.c:500
    4de0:	128000a0 	mov	w0, #0xfffffffa            	// #-6
    4de4:	1a9f2000 	csel	w0, w0, wzr, cs  // cs = hs, nlast
    4de8:	d65f03c0 	ret
/home/hei/Desktop/optee-qemu/optee_os/lib/libmbedtls/mbedtls/library/bignum.c:493
    4dec:	51010443 	sub	w3, w2, #0x41
    4df0:	12001c63 	and	w3, w3, #0xff
    4df4:	7100147f 	cmp	w3, #0x5
    4df8:	54000088 	b.hi	4e08 <mpi_get_digit+0x48>  // b.pmore
/home/hei/Desktop/optee-qemu/optee_os/lib/libmbedtls/mbedtls/library/bignum.c:493 (discriminator 1)
    4dfc:	5100dc42 	sub	w2, w2, #0x37
/home/hei/Desktop/optee-qemu/optee_os/lib/libmbedtls/mbedtls/library/bignum.c:494
    4e00:	b9000002 	str	w2, [x0]
    4e04:	17fffff5 	b	4dd8 <mpi_get_digit+0x18>
    4e08:	51018443 	sub	w3, w2, #0x61
    4e0c:	51015c42 	sub	w2, w2, #0x57
    4e10:	12001c63 	and	w3, w3, #0xff
    4e14:	7100187f 	cmp	w3, #0x6
    4e18:	52801fe3 	mov	w3, #0xff                  	// #255
    4e1c:	1a833042 	csel	w2, w2, w3, cc  // cc = lo, ul, last
    4e20:	17fffff8 	b	4e00 <mpi_get_digit+0x40>

0000000000004e24 <mpi_sub_hlp>:
mpi_sub_hlp():
/home/hei/Desktop/optee-qemu/optee_os/lib/libmbedtls/mbedtls/library/bignum.c:1089
    4e24:	52800005 	mov	w5, #0x0                   	// #0
    4e28:	d2800003 	mov	x3, #0x0                   	// #0
/home/hei/Desktop/optee-qemu/optee_os/lib/libmbedtls/mbedtls/library/bignum.c:1089 (discriminator 1)
    4e2c:	eb00007f 	cmp	x3, x0
    4e30:	54000081 	b.ne	4e40 <mpi_sub_hlp+0x1c>  // b.any
    4e34:	8b030843 	add	x3, x2, x3, lsl #2
/home/hei/Desktop/optee-qemu/optee_os/lib/libmbedtls/mbedtls/library/bignum.c:1095
    4e38:	350001c5 	cbnz	w5, 4e70 <mpi_sub_hlp+0x4c>
/home/hei/Desktop/optee-qemu/optee_os/lib/libmbedtls/mbedtls/library/bignum.c:1100
    4e3c:	d65f03c0 	ret
/home/hei/Desktop/optee-qemu/optee_os/lib/libmbedtls/mbedtls/library/bignum.c:1091 (discriminator 3)
    4e40:	b8637844 	ldr	w4, [x2, x3, lsl #2]
    4e44:	6b05009f 	cmp	w4, w5
    4e48:	4b050084 	sub	w4, w4, w5
    4e4c:	b8237844 	str	w4, [x2, x3, lsl #2]
    4e50:	1a9f27e7 	cset	w7, cc  // cc = lo, ul, last
/home/hei/Desktop/optee-qemu/optee_os/lib/libmbedtls/mbedtls/library/bignum.c:1092 (discriminator 3)
    4e54:	b8637826 	ldr	w6, [x1, x3, lsl #2]
    4e58:	6b06009f 	cmp	w4, w6
    4e5c:	4b060084 	sub	w4, w4, w6
    4e60:	1a8724e5 	cinc	w5, w7, cc  // cc = lo, ul, last
    4e64:	b8237844 	str	w4, [x2, x3, lsl #2]
/home/hei/Desktop/optee-qemu/optee_os/lib/libmbedtls/mbedtls/library/bignum.c:1089 (discriminator 3)
    4e68:	91000463 	add	x3, x3, #0x1
    4e6c:	17fffff0 	b	4e2c <mpi_sub_hlp+0x8>
/home/hei/Desktop/optee-qemu/optee_os/lib/libmbedtls/mbedtls/library/bignum.c:1097
    4e70:	b9400060 	ldr	w0, [x3]
    4e74:	6b050005 	subs	w5, w0, w5
    4e78:	b8004465 	str	w5, [x3], #4
/home/hei/Desktop/optee-qemu/optee_os/lib/libmbedtls/mbedtls/library/bignum.c:1098
    4e7c:	1a9f27e5 	cset	w5, cc  // cc = lo, ul, last
    4e80:	17ffffee 	b	4e38 <mpi_sub_hlp+0x14>

0000000000004e84 <mpi_mul_hlp>:
mpi_mul_hlp():
/home/hei/Desktop/optee-qemu/optee_os/lib/libmbedtls/mbedtls/library/bignum.c:1284
    4e84:	aa0203e4 	mov	x4, x2
    4e88:	aa0103e6 	mov	x6, x1
    4e8c:	aa0003e8 	mov	x8, x0
/home/hei/Desktop/optee-qemu/optee_os/lib/libmbedtls/mbedtls/library/bignum.c:1267
    4e90:	52800005 	mov	w5, #0x0                   	// #0
/home/hei/Desktop/optee-qemu/optee_os/lib/libmbedtls/mbedtls/library/bignum.c:1284 (discriminator 1)
    4e94:	f1003d1f 	cmp	x8, #0xf
    4e98:	b940008a 	ldr	w10, [x4]
    4e9c:	54000dc8 	b.hi	5054 <mpi_mul_hlp+0x1d0>  // b.pmore
    4ea0:	d344fc07 	lsr	x7, x0, #4
    4ea4:	928001e4 	mov	x4, #0xfffffffffffffff0    	// #-16
    4ea8:	9b0400e0 	madd	x0, x7, x4, x0
    4eac:	d37ae4e7 	lsl	x7, x7, #6
    4eb0:	8b070026 	add	x6, x1, x7
    4eb4:	8b070044 	add	x4, x2, x7
/home/hei/Desktop/optee-qemu/optee_os/lib/libmbedtls/mbedtls/library/bignum.c:1299
    4eb8:	f1001c1f 	cmp	x0, #0x7
    4ebc:	54000b69 	b.ls	5028 <mpi_mul_hlp+0x1a4>  // b.plast
/home/hei/Desktop/optee-qemu/optee_os/lib/libmbedtls/mbedtls/library/bignum.c:1302
    4ec0:	b8676821 	ldr	w1, [x1, x7]
/home/hei/Desktop/optee-qemu/optee_os/lib/libmbedtls/mbedtls/library/bignum.c:1299
    4ec4:	d1002000 	sub	x0, x0, #0x8
/home/hei/Desktop/optee-qemu/optee_os/lib/libmbedtls/mbedtls/library/bignum.c:1306
    4ec8:	910080c6 	add	x6, x6, #0x20
    4ecc:	91008084 	add	x4, x4, #0x20
/home/hei/Desktop/optee-qemu/optee_os/lib/libmbedtls/mbedtls/library/bignum.c:1302
    4ed0:	9ba17c61 	umull	x1, w3, w1
    4ed4:	d360fc28 	lsr	x8, x1, #32
    4ed8:	0b0100a1 	add	w1, w5, w1
    4edc:	6b0100bf 	cmp	w5, w1
    4ee0:	0b010141 	add	w1, w10, w1
    4ee4:	b8276841 	str	w1, [x2, x7]
    4ee8:	1a889508 	cinc	w8, w8, hi  // hi = pmore
    4eec:	6b01015f 	cmp	w10, w1
    4ef0:	b85e40c1 	ldur	w1, [x6, #-28]
    4ef4:	1a889508 	cinc	w8, w8, hi  // hi = pmore
    4ef8:	b85e4082 	ldur	w2, [x4, #-28]
    4efc:	9ba17c61 	umull	x1, w3, w1
    4f00:	d360fc25 	lsr	x5, x1, #32
    4f04:	0b010101 	add	w1, w8, w1
    4f08:	6b01011f 	cmp	w8, w1
    4f0c:	0b020021 	add	w1, w1, w2
    4f10:	b81e4081 	stur	w1, [x4, #-28]
    4f14:	1a8594a5 	cinc	w5, w5, hi  // hi = pmore
    4f18:	6b01005f 	cmp	w2, w1
/home/hei/Desktop/optee-qemu/optee_os/lib/libmbedtls/mbedtls/library/bignum.c:1303
    4f1c:	b85e80c1 	ldur	w1, [x6, #-24]
/home/hei/Desktop/optee-qemu/optee_os/lib/libmbedtls/mbedtls/library/bignum.c:1302
    4f20:	1a8594a5 	cinc	w5, w5, hi  // hi = pmore
/home/hei/Desktop/optee-qemu/optee_os/lib/libmbedtls/mbedtls/library/bignum.c:1303
    4f24:	9ba17c61 	umull	x1, w3, w1
    4f28:	d360fc22 	lsr	x2, x1, #32
    4f2c:	0b0100a1 	add	w1, w5, w1
    4f30:	6b0100bf 	cmp	w5, w1
    4f34:	b85e8085 	ldur	w5, [x4, #-24]
    4f38:	1a829442 	cinc	w2, w2, hi  // hi = pmore
    4f3c:	0b050021 	add	w1, w1, w5
    4f40:	b81e8081 	stur	w1, [x4, #-24]
    4f44:	6b0100bf 	cmp	w5, w1
    4f48:	b85ec0c1 	ldur	w1, [x6, #-20]
    4f4c:	1a829442 	cinc	w2, w2, hi  // hi = pmore
    4f50:	9ba17c61 	umull	x1, w3, w1
    4f54:	d360fc25 	lsr	x5, x1, #32
    4f58:	0b010041 	add	w1, w2, w1
    4f5c:	6b01005f 	cmp	w2, w1
    4f60:	b85ec082 	ldur	w2, [x4, #-20]
    4f64:	1a8594a5 	cinc	w5, w5, hi  // hi = pmore
    4f68:	0b020021 	add	w1, w1, w2
    4f6c:	b81ec081 	stur	w1, [x4, #-20]
    4f70:	6b01005f 	cmp	w2, w1
/home/hei/Desktop/optee-qemu/optee_os/lib/libmbedtls/mbedtls/library/bignum.c:1305
    4f74:	b85f00c1 	ldur	w1, [x6, #-16]
/home/hei/Desktop/optee-qemu/optee_os/lib/libmbedtls/mbedtls/library/bignum.c:1303
    4f78:	1a8594a5 	cinc	w5, w5, hi  // hi = pmore
/home/hei/Desktop/optee-qemu/optee_os/lib/libmbedtls/mbedtls/library/bignum.c:1305
    4f7c:	9ba17c61 	umull	x1, w3, w1
    4f80:	d360fc22 	lsr	x2, x1, #32
    4f84:	0b0100a1 	add	w1, w5, w1
    4f88:	6b0100bf 	cmp	w5, w1
    4f8c:	b85f0085 	ldur	w5, [x4, #-16]
    4f90:	1a829442 	cinc	w2, w2, hi  // hi = pmore
    4f94:	0b050021 	add	w1, w1, w5
    4f98:	b81f0081 	stur	w1, [x4, #-16]
    4f9c:	6b0100bf 	cmp	w5, w1
    4fa0:	b85f40c1 	ldur	w1, [x6, #-12]
    4fa4:	1a829442 	cinc	w2, w2, hi  // hi = pmore
    4fa8:	9ba17c61 	umull	x1, w3, w1
    4fac:	d360fc25 	lsr	x5, x1, #32
    4fb0:	0b010041 	add	w1, w2, w1
    4fb4:	6b01005f 	cmp	w2, w1
    4fb8:	b85f4082 	ldur	w2, [x4, #-12]
    4fbc:	1a8594a5 	cinc	w5, w5, hi  // hi = pmore
    4fc0:	0b020021 	add	w1, w1, w2
    4fc4:	b81f4081 	stur	w1, [x4, #-12]
    4fc8:	6b01005f 	cmp	w2, w1
/home/hei/Desktop/optee-qemu/optee_os/lib/libmbedtls/mbedtls/library/bignum.c:1306
    4fcc:	b85f80c1 	ldur	w1, [x6, #-8]
/home/hei/Desktop/optee-qemu/optee_os/lib/libmbedtls/mbedtls/library/bignum.c:1305
    4fd0:	1a8594a5 	cinc	w5, w5, hi  // hi = pmore
/home/hei/Desktop/optee-qemu/optee_os/lib/libmbedtls/mbedtls/library/bignum.c:1306
    4fd4:	9ba17c61 	umull	x1, w3, w1
    4fd8:	d360fc22 	lsr	x2, x1, #32
    4fdc:	0b0100a1 	add	w1, w5, w1
    4fe0:	6b0100bf 	cmp	w5, w1
    4fe4:	b85f8085 	ldur	w5, [x4, #-8]
    4fe8:	1a829442 	cinc	w2, w2, hi  // hi = pmore
    4fec:	0b050021 	add	w1, w1, w5
    4ff0:	b81f8081 	stur	w1, [x4, #-8]
    4ff4:	6b0100bf 	cmp	w5, w1
    4ff8:	b85fc0c1 	ldur	w1, [x6, #-4]
    4ffc:	1a829442 	cinc	w2, w2, hi  // hi = pmore
    5000:	9ba17c61 	umull	x1, w3, w1
    5004:	d360fc25 	lsr	x5, x1, #32
    5008:	0b010041 	add	w1, w2, w1
    500c:	6b01005f 	cmp	w2, w1
    5010:	b85fc082 	ldur	w2, [x4, #-4]
    5014:	1a8594a5 	cinc	w5, w5, hi  // hi = pmore
    5018:	0b020021 	add	w1, w1, w2
    501c:	b81fc081 	stur	w1, [x4, #-4]
    5020:	6b01005f 	cmp	w2, w1
    5024:	1a8594a5 	cinc	w5, w5, hi  // hi = pmore
/home/hei/Desktop/optee-qemu/optee_os/lib/libmbedtls/mbedtls/library/bignum.c:1306 (discriminator 1)
    5028:	d2800001 	mov	x1, #0x0                   	// #0
    502c:	b8617888 	ldr	w8, [x4, x1, lsl #2]
/home/hei/Desktop/optee-qemu/optee_os/lib/libmbedtls/mbedtls/library/bignum.c:1310 (discriminator 1)
    5030:	eb00003f 	cmp	x1, x0
    5034:	54001761 	b.ne	5320 <mpi_mul_hlp+0x49c>  // b.any
    5038:	8b010884 	add	x4, x4, x1, lsl #2
/home/hei/Desktop/optee-qemu/optee_os/lib/libmbedtls/mbedtls/library/bignum.c:1321 (discriminator 1)
    503c:	b9400080 	ldr	w0, [x4]
    5040:	0b0000a0 	add	w0, w5, w0
    5044:	b8004480 	str	w0, [x4], #4
/home/hei/Desktop/optee-qemu/optee_os/lib/libmbedtls/mbedtls/library/bignum.c:1323 (discriminator 1)
    5048:	6b05001f 	cmp	w0, w5
    504c:	54001823 	b.cc	5350 <mpi_mul_hlp+0x4cc>  // b.lo, b.ul, b.last
/home/hei/Desktop/optee-qemu/optee_os/lib/libmbedtls/mbedtls/library/bignum.c:1324
    5050:	d65f03c0 	ret
/home/hei/Desktop/optee-qemu/optee_os/lib/libmbedtls/mbedtls/library/bignum.c:1287 (discriminator 2)
    5054:	b94000c7 	ldr	w7, [x6]
    5058:	910100c6 	add	x6, x6, #0x40
    505c:	91010084 	add	x4, x4, #0x40
/home/hei/Desktop/optee-qemu/optee_os/lib/libmbedtls/mbedtls/library/bignum.c:1284 (discriminator 2)
    5060:	d1004108 	sub	x8, x8, #0x10
/home/hei/Desktop/optee-qemu/optee_os/lib/libmbedtls/mbedtls/library/bignum.c:1287 (discriminator 2)
    5064:	9ba77c67 	umull	x7, w3, w7
    5068:	d360fce9 	lsr	x9, x7, #32
    506c:	0b0700a7 	add	w7, w5, w7
    5070:	6b0700bf 	cmp	w5, w7
    5074:	0b0a00e5 	add	w5, w7, w10
    5078:	b81c0085 	stur	w5, [x4, #-64]
    507c:	1a899529 	cinc	w9, w9, hi  // hi = pmore
    5080:	6b0a00bf 	cmp	w5, w10
    5084:	b85c40c5 	ldur	w5, [x6, #-60]
    5088:	1a892529 	cinc	w9, w9, cc  // cc = lo, ul, last
    508c:	9ba57c65 	umull	x5, w3, w5
    5090:	d360fca7 	lsr	x7, x5, #32
    5094:	0b050125 	add	w5, w9, w5
    5098:	6b05013f 	cmp	w9, w5
    509c:	b85c4089 	ldur	w9, [x4, #-60]
    50a0:	1a8794e7 	cinc	w7, w7, hi  // hi = pmore
    50a4:	0b050125 	add	w5, w9, w5
    50a8:	b81c4085 	stur	w5, [x4, #-60]
    50ac:	6b05013f 	cmp	w9, w5
/home/hei/Desktop/optee-qemu/optee_os/lib/libmbedtls/mbedtls/library/bignum.c:1288 (discriminator 2)
    50b0:	b85c80c5 	ldur	w5, [x6, #-56]
/home/hei/Desktop/optee-qemu/optee_os/lib/libmbedtls/mbedtls/library/bignum.c:1287 (discriminator 2)
    50b4:	1a8794e7 	cinc	w7, w7, hi  // hi = pmore
/home/hei/Desktop/optee-qemu/optee_os/lib/libmbedtls/mbedtls/library/bignum.c:1288 (discriminator 2)
    50b8:	9ba57c65 	umull	x5, w3, w5
    50bc:	d360fca9 	lsr	x9, x5, #32
    50c0:	0b0500e5 	add	w5, w7, w5
    50c4:	6b0500ff 	cmp	w7, w5
    50c8:	b85c8087 	ldur	w7, [x4, #-56]
    50cc:	1a899529 	cinc	w9, w9, hi  // hi = pmore
    50d0:	0b0500e5 	add	w5, w7, w5
    50d4:	b81c8085 	stur	w5, [x4, #-56]
    50d8:	6b0500ff 	cmp	w7, w5
    50dc:	b85cc0c5 	ldur	w5, [x6, #-52]
    50e0:	1a899529 	cinc	w9, w9, hi  // hi = pmore
    50e4:	9ba57c65 	umull	x5, w3, w5
    50e8:	d360fca7 	lsr	x7, x5, #32
    50ec:	0b050125 	add	w5, w9, w5
    50f0:	6b05013f 	cmp	w9, w5
    50f4:	b85cc089 	ldur	w9, [x4, #-52]
    50f8:	1a8794e7 	cinc	w7, w7, hi  // hi = pmore
    50fc:	0b050125 	add	w5, w9, w5
    5100:	b81cc085 	stur	w5, [x4, #-52]
    5104:	6b05013f 	cmp	w9, w5
/home/hei/Desktop/optee-qemu/optee_os/lib/libmbedtls/mbedtls/library/bignum.c:1289 (discriminator 2)
    5108:	b85d00c5 	ldur	w5, [x6, #-48]
/home/hei/Desktop/optee-qemu/optee_os/lib/libmbedtls/mbedtls/library/bignum.c:1288 (discriminator 2)
    510c:	1a8794e7 	cinc	w7, w7, hi  // hi = pmore
/home/hei/Desktop/optee-qemu/optee_os/lib/libmbedtls/mbedtls/library/bignum.c:1289 (discriminator 2)
    5110:	9ba57c65 	umull	x5, w3, w5
    5114:	d360fca9 	lsr	x9, x5, #32
    5118:	0b0500e5 	add	w5, w7, w5
    511c:	6b0500ff 	cmp	w7, w5
    5120:	b85d0087 	ldur	w7, [x4, #-48]
    5124:	1a899529 	cinc	w9, w9, hi  // hi = pmore
    5128:	0b0500e5 	add	w5, w7, w5
    512c:	b81d0085 	stur	w5, [x4, #-48]
    5130:	6b0500ff 	cmp	w7, w5
    5134:	b85d40c5 	ldur	w5, [x6, #-44]
    5138:	1a899529 	cinc	w9, w9, hi  // hi = pmore
    513c:	9ba57c65 	umull	x5, w3, w5
    5140:	d360fca7 	lsr	x7, x5, #32
    5144:	0b050125 	add	w5, w9, w5
    5148:	6b05013f 	cmp	w9, w5
    514c:	b85d4089 	ldur	w9, [x4, #-44]
    5150:	1a8794e7 	cinc	w7, w7, hi  // hi = pmore
    5154:	0b050125 	add	w5, w9, w5
    5158:	b81d4085 	stur	w5, [x4, #-44]
    515c:	6b05013f 	cmp	w9, w5
/home/hei/Desktop/optee-qemu/optee_os/lib/libmbedtls/mbedtls/library/bignum.c:1290 (discriminator 2)
    5160:	b85d80c5 	ldur	w5, [x6, #-40]
/home/hei/Desktop/optee-qemu/optee_os/lib/libmbedtls/mbedtls/library/bignum.c:1289 (discriminator 2)
    5164:	1a8794e7 	cinc	w7, w7, hi  // hi = pmore
/home/hei/Desktop/optee-qemu/optee_os/lib/libmbedtls/mbedtls/library/bignum.c:1290 (discriminator 2)
    5168:	9ba57c65 	umull	x5, w3, w5
    516c:	d360fca9 	lsr	x9, x5, #32
    5170:	0b0500e5 	add	w5, w7, w5
    5174:	6b0500ff 	cmp	w7, w5
    5178:	b85d8087 	ldur	w7, [x4, #-40]
    517c:	1a899529 	cinc	w9, w9, hi  // hi = pmore
    5180:	0b0500e5 	add	w5, w7, w5
    5184:	b81d8085 	stur	w5, [x4, #-40]
    5188:	6b0500ff 	cmp	w7, w5
    518c:	b85dc0c5 	ldur	w5, [x6, #-36]
    5190:	1a899529 	cinc	w9, w9, hi  // hi = pmore
    5194:	9ba57c65 	umull	x5, w3, w5
    5198:	d360fca7 	lsr	x7, x5, #32
    519c:	0b050125 	add	w5, w9, w5
    51a0:	6b05013f 	cmp	w9, w5
    51a4:	b85dc089 	ldur	w9, [x4, #-36]
    51a8:	1a8794e7 	cinc	w7, w7, hi  // hi = pmore
    51ac:	0b050125 	add	w5, w9, w5
    51b0:	b81dc085 	stur	w5, [x4, #-36]
    51b4:	6b05013f 	cmp	w9, w5
/home/hei/Desktop/optee-qemu/optee_os/lib/libmbedtls/mbedtls/library/bignum.c:1292 (discriminator 2)
    51b8:	b85e00c5 	ldur	w5, [x6, #-32]
/home/hei/Desktop/optee-qemu/optee_os/lib/libmbedtls/mbedtls/library/bignum.c:1290 (discriminator 2)
    51bc:	1a8794e7 	cinc	w7, w7, hi  // hi = pmore
/home/hei/Desktop/optee-qemu/optee_os/lib/libmbedtls/mbedtls/library/bignum.c:1292 (discriminator 2)
    51c0:	9ba57c65 	umull	x5, w3, w5
    51c4:	d360fca9 	lsr	x9, x5, #32
    51c8:	0b0500e5 	add	w5, w7, w5
    51cc:	6b0500ff 	cmp	w7, w5
    51d0:	b85e0087 	ldur	w7, [x4, #-32]
    51d4:	1a899529 	cinc	w9, w9, hi  // hi = pmore
    51d8:	0b0500e5 	add	w5, w7, w5
    51dc:	b81e0085 	stur	w5, [x4, #-32]
    51e0:	6b0500ff 	cmp	w7, w5
    51e4:	b85e40c5 	ldur	w5, [x6, #-28]
    51e8:	1a899529 	cinc	w9, w9, hi  // hi = pmore
    51ec:	9ba57c65 	umull	x5, w3, w5
    51f0:	d360fca7 	lsr	x7, x5, #32
    51f4:	0b050125 	add	w5, w9, w5
    51f8:	6b05013f 	cmp	w9, w5
    51fc:	b85e4089 	ldur	w9, [x4, #-28]
    5200:	1a8794e7 	cinc	w7, w7, hi  // hi = pmore
    5204:	0b050125 	add	w5, w9, w5
    5208:	b81e4085 	stur	w5, [x4, #-28]
    520c:	6b05013f 	cmp	w9, w5
/home/hei/Desktop/optee-qemu/optee_os/lib/libmbedtls/mbedtls/library/bignum.c:1293 (discriminator 2)
    5210:	b85e80c5 	ldur	w5, [x6, #-24]
/home/hei/Desktop/optee-qemu/optee_os/lib/libmbedtls/mbedtls/library/bignum.c:1292 (discriminator 2)
    5214:	1a8794e7 	cinc	w7, w7, hi  // hi = pmore
/home/hei/Desktop/optee-qemu/optee_os/lib/libmbedtls/mbedtls/library/bignum.c:1293 (discriminator 2)
    5218:	9ba57c65 	umull	x5, w3, w5
    521c:	d360fca9 	lsr	x9, x5, #32
    5220:	0b0500e5 	add	w5, w7, w5
    5224:	6b0500ff 	cmp	w7, w5
    5228:	b85e8087 	ldur	w7, [x4, #-24]
    522c:	1a899529 	cinc	w9, w9, hi  // hi = pmore
    5230:	0b0500e5 	add	w5, w7, w5
    5234:	b81e8085 	stur	w5, [x4, #-24]
    5238:	6b0500ff 	cmp	w7, w5
    523c:	b85ec0c5 	ldur	w5, [x6, #-20]
    5240:	1a899529 	cinc	w9, w9, hi  // hi = pmore
    5244:	9ba57c65 	umull	x5, w3, w5
    5248:	d360fca7 	lsr	x7, x5, #32
    524c:	0b050125 	add	w5, w9, w5
    5250:	6b05013f 	cmp	w9, w5
    5254:	b85ec089 	ldur	w9, [x4, #-20]
    5258:	1a8794e7 	cinc	w7, w7, hi  // hi = pmore
    525c:	0b050125 	add	w5, w9, w5
    5260:	b81ec085 	stur	w5, [x4, #-20]
    5264:	6b05013f 	cmp	w9, w5
/home/hei/Desktop/optee-qemu/optee_os/lib/libmbedtls/mbedtls/library/bignum.c:1294 (discriminator 2)
    5268:	b85f00c5 	ldur	w5, [x6, #-16]
/home/hei/Desktop/optee-qemu/optee_os/lib/libmbedtls/mbedtls/library/bignum.c:1293 (discriminator 2)
    526c:	1a8794e7 	cinc	w7, w7, hi  // hi = pmore
/home/hei/Desktop/optee-qemu/optee_os/lib/libmbedtls/mbedtls/library/bignum.c:1294 (discriminator 2)
    5270:	9ba57c65 	umull	x5, w3, w5
    5274:	d360fca9 	lsr	x9, x5, #32
    5278:	0b0500e5 	add	w5, w7, w5
    527c:	6b0500ff 	cmp	w7, w5
    5280:	b85f0087 	ldur	w7, [x4, #-16]
    5284:	1a899529 	cinc	w9, w9, hi  // hi = pmore
    5288:	0b0500e5 	add	w5, w7, w5
    528c:	b81f0085 	stur	w5, [x4, #-16]
    5290:	6b0500ff 	cmp	w7, w5
    5294:	b85f40c5 	ldur	w5, [x6, #-12]
    5298:	1a899529 	cinc	w9, w9, hi  // hi = pmore
    529c:	9ba57c65 	umull	x5, w3, w5
    52a0:	d360fca7 	lsr	x7, x5, #32
    52a4:	0b050125 	add	w5, w9, w5
    52a8:	6b05013f 	cmp	w9, w5
    52ac:	b85f4089 	ldur	w9, [x4, #-12]
    52b0:	1a8794e7 	cinc	w7, w7, hi  // hi = pmore
    52b4:	0b050125 	add	w5, w9, w5
    52b8:	b81f4085 	stur	w5, [x4, #-12]
    52bc:	6b05013f 	cmp	w9, w5
/home/hei/Desktop/optee-qemu/optee_os/lib/libmbedtls/mbedtls/library/bignum.c:1295 (discriminator 2)
    52c0:	b85f80c5 	ldur	w5, [x6, #-8]
/home/hei/Desktop/optee-qemu/optee_os/lib/libmbedtls/mbedtls/library/bignum.c:1294 (discriminator 2)
    52c4:	1a8794e7 	cinc	w7, w7, hi  // hi = pmore
/home/hei/Desktop/optee-qemu/optee_os/lib/libmbedtls/mbedtls/library/bignum.c:1295 (discriminator 2)
    52c8:	9ba57c65 	umull	x5, w3, w5
    52cc:	d360fca9 	lsr	x9, x5, #32
    52d0:	0b0500e5 	add	w5, w7, w5
    52d4:	6b0500ff 	cmp	w7, w5
    52d8:	b85f8087 	ldur	w7, [x4, #-8]
    52dc:	1a899529 	cinc	w9, w9, hi  // hi = pmore
    52e0:	0b0500e5 	add	w5, w7, w5
    52e4:	b81f8085 	stur	w5, [x4, #-8]
    52e8:	6b0500ff 	cmp	w7, w5
    52ec:	b85fc0c7 	ldur	w7, [x6, #-4]
    52f0:	1a899529 	cinc	w9, w9, hi  // hi = pmore
    52f4:	9ba77c67 	umull	x7, w3, w7
    52f8:	d360fce5 	lsr	x5, x7, #32
    52fc:	0b070127 	add	w7, w9, w7
    5300:	6b07013f 	cmp	w9, w7
    5304:	b85fc089 	ldur	w9, [x4, #-4]
    5308:	1a8594a5 	cinc	w5, w5, hi  // hi = pmore
    530c:	0b070127 	add	w7, w9, w7
    5310:	b81fc087 	stur	w7, [x4, #-4]
    5314:	6b07013f 	cmp	w9, w7
    5318:	1a8594a5 	cinc	w5, w5, hi  // hi = pmore
    531c:	17fffede 	b	4e94 <mpi_mul_hlp+0x10>
/home/hei/Desktop/optee-qemu/optee_os/lib/libmbedtls/mbedtls/library/bignum.c:1313 (discriminator 2)
    5320:	b86178c2 	ldr	w2, [x6, x1, lsl #2]
    5324:	9ba27c62 	umull	x2, w3, w2
    5328:	d360fc47 	lsr	x7, x2, #32
    532c:	0b0200a2 	add	w2, w5, w2
    5330:	6b0200bf 	cmp	w5, w2
    5334:	0b020102 	add	w2, w8, w2
    5338:	1a8794e5 	cinc	w5, w7, hi  // hi = pmore
    533c:	6b02011f 	cmp	w8, w2
    5340:	1a8594a5 	cinc	w5, w5, hi  // hi = pmore
    5344:	b8217882 	str	w2, [x4, x1, lsl #2]
    5348:	91000421 	add	x1, x1, #0x1
    534c:	17ffff38 	b	502c <mpi_mul_hlp+0x1a8>
/home/hei/Desktop/optee-qemu/optee_os/lib/libmbedtls/mbedtls/library/bignum.c:1321
    5350:	52800025 	mov	w5, #0x1                   	// #1
    5354:	17ffff3a 	b	503c <mpi_mul_hlp+0x1b8>

0000000000005358 <mbedtls_mpi_init>:
mpi_init():
/home/hei/Desktop/optee-qemu/optee_os/lib/libmbedtls/mbedtls/library/bignum.c:98
    5358:	52800021 	mov	w1, #0x1                   	// #1
    535c:	b9000001 	str	w1, [x0]
/home/hei/Desktop/optee-qemu/optee_os/lib/libmbedtls/mbedtls/library/bignum.c:101
    5360:	a900fc1f 	stp	xzr, xzr, [x0, #8]
mbedtls_mpi_init():
/home/hei/Desktop/optee-qemu/optee_os/lib/libmbedtls/mbedtls/library/bignum.c:107
    5364:	d65f03c0 	ret

0000000000005368 <mbedtls_mpi_init_mempool>:
mbedtls_mpi_init_mempool():
/home/hei/Desktop/optee-qemu/optee_os/lib/libmbedtls/mbedtls/library/bignum.c:111
    5368:	f0000021 	adrp	x1, c000 <_DYNAMIC>
mpi_init():
/home/hei/Desktop/optee-qemu/optee_os/lib/libmbedtls/mbedtls/library/bignum.c:98
    536c:	52800022 	mov	w2, #0x1                   	// #1
/home/hei/Desktop/optee-qemu/optee_os/lib/libmbedtls/mbedtls/library/bignum.c:101
    5370:	a900fc1f 	stp	xzr, xzr, [x0, #8]
mbedtls_mpi_init_mempool():
/home/hei/Desktop/optee-qemu/optee_os/lib/libmbedtls/mbedtls/library/bignum.c:111
    5374:	f940cc21 	ldr	x1, [x1, #408]
    5378:	f9400021 	ldr	x1, [x1]
mpi_init():
/home/hei/Desktop/optee-qemu/optee_os/lib/libmbedtls/mbedtls/library/bignum.c:98
    537c:	79000002 	strh	w2, [x0]
mbedtls_mpi_init_mempool():
/home/hei/Desktop/optee-qemu/optee_os/lib/libmbedtls/mbedtls/library/bignum.c:111
    5380:	f100003f 	cmp	x1, #0x0
    5384:	1a9f07e1 	cset	w1, ne  // ne = any
mpi_init():
/home/hei/Desktop/optee-qemu/optee_os/lib/libmbedtls/mbedtls/library/bignum.c:99
    5388:	79000401 	strh	w1, [x0, #2]
mbedtls_mpi_init_mempool():
/home/hei/Desktop/optee-qemu/optee_os/lib/libmbedtls/mbedtls/library/bignum.c:112
    538c:	d65f03c0 	ret

0000000000005390 <mbedtls_mpi_free>:
mbedtls_mpi_free():
/home/hei/Desktop/optee-qemu/optee_os/lib/libmbedtls/mbedtls/library/bignum.c:119
    5390:	b4000340 	cbz	x0, 53f8 <mbedtls_mpi_free+0x68>
/home/hei/Desktop/optee-qemu/optee_os/lib/libmbedtls/mbedtls/library/bignum.c:118
    5394:	a9be7bfd 	stp	x29, x30, [sp, #-32]!
    5398:	910003fd 	mov	x29, sp
    539c:	f9000bf3 	str	x19, [sp, #16]
    53a0:	aa0003f3 	mov	x19, x0
/home/hei/Desktop/optee-qemu/optee_os/lib/libmbedtls/mbedtls/library/bignum.c:122
    53a4:	f9400800 	ldr	x0, [x0, #16]
    53a8:	b4000160 	cbz	x0, 53d4 <mbedtls_mpi_free+0x44>
mbedtls_mpi_zeroize():
/home/hei/Desktop/optee-qemu/optee_os/lib/libmbedtls/mbedtls/library/bignum.c:88
    53ac:	f9400661 	ldr	x1, [x19, #8]
    53b0:	d37ef421 	lsl	x1, x1, #2
    53b4:	94000d75 	bl	8988 <mbedtls_platform_zeroize>
mbedtls_mpi_free():
/home/hei/Desktop/optee-qemu/optee_os/lib/libmbedtls/mbedtls/library/bignum.c:125
    53b8:	79c00660 	ldrsh	w0, [x19, #2]
    53bc:	34000180 	cbz	w0, 53ec <mbedtls_mpi_free+0x5c>
/home/hei/Desktop/optee-qemu/optee_os/lib/libmbedtls/mbedtls/library/bignum.c:126
    53c0:	f0000020 	adrp	x0, c000 <_DYNAMIC>
    53c4:	f9400a61 	ldr	x1, [x19, #16]
    53c8:	f940cc00 	ldr	x0, [x0, #408]
    53cc:	f9400000 	ldr	x0, [x0]
    53d0:	94000e16 	bl	8c28 <mempool_free>
/home/hei/Desktop/optee-qemu/optee_os/lib/libmbedtls/mbedtls/library/bignum.c:131
    53d4:	52800020 	mov	w0, #0x1                   	// #1
    53d8:	79000260 	strh	w0, [x19]
/home/hei/Desktop/optee-qemu/optee_os/lib/libmbedtls/mbedtls/library/bignum.c:133
    53dc:	a900fe7f 	stp	xzr, xzr, [x19, #8]
/home/hei/Desktop/optee-qemu/optee_os/lib/libmbedtls/mbedtls/library/bignum.c:134
    53e0:	f9400bf3 	ldr	x19, [sp, #16]
    53e4:	a8c27bfd 	ldp	x29, x30, [sp], #32
    53e8:	d65f03c0 	ret
/home/hei/Desktop/optee-qemu/optee_os/lib/libmbedtls/mbedtls/library/bignum.c:128
    53ec:	f9400a60 	ldr	x0, [x19, #16]
    53f0:	97ffefc3 	bl	12fc <free>
    53f4:	17fffff8 	b	53d4 <mbedtls_mpi_free+0x44>
    53f8:	d65f03c0 	ret

00000000000053fc <mbedtls_mpi_grow>:
mbedtls_mpi_grow():
/home/hei/Desktop/optee-qemu/optee_os/lib/libmbedtls/mbedtls/library/bignum.c:144
    53fc:	d284e202 	mov	x2, #0x2710                	// #10000
    5400:	eb02003f 	cmp	x1, x2
    5404:	54000069 	b.ls	5410 <mbedtls_mpi_grow+0x14>  // b.plast
/home/hei/Desktop/optee-qemu/optee_os/lib/libmbedtls/mbedtls/library/bignum.c:145
    5408:	128001e0 	mov	w0, #0xfffffff0            	// #-16
/home/hei/Desktop/optee-qemu/optee_os/lib/libmbedtls/mbedtls/library/bignum.c:178
    540c:	d65f03c0 	ret
/home/hei/Desktop/optee-qemu/optee_os/lib/libmbedtls/mbedtls/library/bignum.c:147
    5410:	f9400402 	ldr	x2, [x0, #8]
    5414:	eb01005f 	cmp	x2, x1
    5418:	540006a2 	b.cs	54ec <mbedtls_mpi_grow+0xf0>  // b.hs, b.nlast
/home/hei/Desktop/optee-qemu/optee_os/lib/libmbedtls/mbedtls/library/bignum.c:140
    541c:	a9bc7bfd 	stp	x29, x30, [sp, #-64]!
    5420:	910003fd 	mov	x29, sp
    5424:	a90153f3 	stp	x19, x20, [sp, #16]
    5428:	aa0003f3 	mov	x19, x0
/home/hei/Desktop/optee-qemu/optee_os/lib/libmbedtls/mbedtls/library/bignum.c:149
    542c:	79c00400 	ldrsh	w0, [x0, #2]
/home/hei/Desktop/optee-qemu/optee_os/lib/libmbedtls/mbedtls/library/bignum.c:140
    5430:	f90013f5 	str	x21, [sp, #32]
    5434:	aa0103f4 	mov	x20, x1
/home/hei/Desktop/optee-qemu/optee_os/lib/libmbedtls/mbedtls/library/bignum.c:149
    5438:	34000400 	cbz	w0, 54b8 <mbedtls_mpi_grow+0xbc>
/home/hei/Desktop/optee-qemu/optee_os/lib/libmbedtls/mbedtls/library/bignum.c:151
    543c:	f0000020 	adrp	x0, c000 <_DYNAMIC>
    5440:	d37ef422 	lsl	x2, x1, #2
    5444:	aa0203e1 	mov	x1, x2
    5448:	f9001fe2 	str	x2, [sp, #56]
    544c:	f940cc00 	ldr	x0, [x0, #408]
    5450:	f9400000 	ldr	x0, [x0]
    5454:	94000db6 	bl	8b2c <mempool_alloc>
    5458:	aa0003f5 	mov	x21, x0
/home/hei/Desktop/optee-qemu/optee_os/lib/libmbedtls/mbedtls/library/bignum.c:152
    545c:	b4000380 	cbz	x0, 54cc <mbedtls_mpi_grow+0xd0>
/home/hei/Desktop/optee-qemu/optee_os/lib/libmbedtls/mbedtls/library/bignum.c:154
    5460:	f9401fe2 	ldr	x2, [sp, #56]
    5464:	52800001 	mov	w1, #0x0                   	// #0
    5468:	97fff080 	bl	1668 <memset>
/home/hei/Desktop/optee-qemu/optee_os/lib/libmbedtls/mbedtls/library/bignum.c:163
    546c:	f9400a61 	ldr	x1, [x19, #16]
    5470:	b40001e1 	cbz	x1, 54ac <mbedtls_mpi_grow+0xb0>
/home/hei/Desktop/optee-qemu/optee_os/lib/libmbedtls/mbedtls/library/bignum.c:165
    5474:	f9400662 	ldr	x2, [x19, #8]
    5478:	aa1503e0 	mov	x0, x21
    547c:	d37ef442 	lsl	x2, x2, #2
    5480:	97ffec25 	bl	514 <memcpy>
mbedtls_mpi_zeroize():
/home/hei/Desktop/optee-qemu/optee_os/lib/libmbedtls/mbedtls/library/bignum.c:88
    5484:	a9408261 	ldp	x1, x0, [x19, #8]
    5488:	d37ef421 	lsl	x1, x1, #2
    548c:	94000d3f 	bl	8988 <mbedtls_platform_zeroize>
mbedtls_mpi_grow():
/home/hei/Desktop/optee-qemu/optee_os/lib/libmbedtls/mbedtls/library/bignum.c:167
    5490:	79c00660 	ldrsh	w0, [x19, #2]
    5494:	34000260 	cbz	w0, 54e0 <mbedtls_mpi_grow+0xe4>
/home/hei/Desktop/optee-qemu/optee_os/lib/libmbedtls/mbedtls/library/bignum.c:168
    5498:	f0000020 	adrp	x0, c000 <_DYNAMIC>
    549c:	f9400a61 	ldr	x1, [x19, #16]
    54a0:	f940cc00 	ldr	x0, [x0, #408]
    54a4:	f9400000 	ldr	x0, [x0]
    54a8:	94000de0 	bl	8c28 <mempool_free>
/home/hei/Desktop/optee-qemu/optee_os/lib/libmbedtls/mbedtls/library/bignum.c:177
    54ac:	52800000 	mov	w0, #0x0                   	// #0
/home/hei/Desktop/optee-qemu/optee_os/lib/libmbedtls/mbedtls/library/bignum.c:174
    54b0:	a900d674 	stp	x20, x21, [x19, #8]
    54b4:	14000007 	b	54d0 <mbedtls_mpi_grow+0xd4>
/home/hei/Desktop/optee-qemu/optee_os/lib/libmbedtls/mbedtls/library/bignum.c:158
    54b8:	d2800081 	mov	x1, #0x4                   	// #4
    54bc:	aa1403e0 	mov	x0, x20
    54c0:	97ffef62 	bl	1248 <calloc>
    54c4:	aa0003f5 	mov	x21, x0
/home/hei/Desktop/optee-qemu/optee_os/lib/libmbedtls/mbedtls/library/bignum.c:159
    54c8:	b5fffd20 	cbnz	x0, 546c <mbedtls_mpi_grow+0x70>
/home/hei/Desktop/optee-qemu/optee_os/lib/libmbedtls/mbedtls/library/bignum.c:145
    54cc:	128001e0 	mov	w0, #0xfffffff0            	// #-16
/home/hei/Desktop/optee-qemu/optee_os/lib/libmbedtls/mbedtls/library/bignum.c:178
    54d0:	a94153f3 	ldp	x19, x20, [sp, #16]
    54d4:	f94013f5 	ldr	x21, [sp, #32]
    54d8:	a8c47bfd 	ldp	x29, x30, [sp], #64
    54dc:	d65f03c0 	ret
/home/hei/Desktop/optee-qemu/optee_os/lib/libmbedtls/mbedtls/library/bignum.c:170
    54e0:	f9400a60 	ldr	x0, [x19, #16]
    54e4:	97ffef86 	bl	12fc <free>
    54e8:	17fffff1 	b	54ac <mbedtls_mpi_grow+0xb0>
/home/hei/Desktop/optee-qemu/optee_os/lib/libmbedtls/mbedtls/library/bignum.c:177
    54ec:	52800000 	mov	w0, #0x0                   	// #0
    54f0:	d65f03c0 	ret

00000000000054f4 <mbedtls_mpi_shrink>:
mbedtls_mpi_shrink():
/home/hei/Desktop/optee-qemu/optee_os/lib/libmbedtls/mbedtls/library/bignum.c:190
    54f4:	d284e203 	mov	x3, #0x2710                	// #10000
    54f8:	eb03003f 	cmp	x1, x3
    54fc:	54000069 	b.ls	5508 <mbedtls_mpi_shrink+0x14>  // b.plast
/home/hei/Desktop/optee-qemu/optee_os/lib/libmbedtls/mbedtls/library/bignum.c:191
    5500:	128001e0 	mov	w0, #0xfffffff0            	// #-16
/home/hei/Desktop/optee-qemu/optee_os/lib/libmbedtls/mbedtls/library/bignum.c:233
    5504:	d65f03c0 	ret
/home/hei/Desktop/optee-qemu/optee_os/lib/libmbedtls/mbedtls/library/bignum.c:185
    5508:	a9bd7bfd 	stp	x29, x30, [sp, #-48]!
    550c:	aa0103e2 	mov	x2, x1
    5510:	910003fd 	mov	x29, sp
/home/hei/Desktop/optee-qemu/optee_os/lib/libmbedtls/mbedtls/library/bignum.c:194
    5514:	f9400403 	ldr	x3, [x0, #8]
/home/hei/Desktop/optee-qemu/optee_os/lib/libmbedtls/mbedtls/library/bignum.c:185
    5518:	a90153f3 	stp	x19, x20, [sp, #16]
    551c:	a9025bf5 	stp	x21, x22, [sp, #32]
/home/hei/Desktop/optee-qemu/optee_os/lib/libmbedtls/mbedtls/library/bignum.c:194
    5520:	eb01007f 	cmp	x3, x1
    5524:	aa0003f5 	mov	x21, x0
    5528:	540000a8 	b.hi	553c <mbedtls_mpi_shrink+0x48>  // b.pmore
/home/hei/Desktop/optee-qemu/optee_os/lib/libmbedtls/mbedtls/library/bignum.c:233
    552c:	a94153f3 	ldp	x19, x20, [sp, #16]
    5530:	a9425bf5 	ldp	x21, x22, [sp, #32]
    5534:	a8c37bfd 	ldp	x29, x30, [sp], #48
/home/hei/Desktop/optee-qemu/optee_os/lib/libmbedtls/mbedtls/library/bignum.c:195
    5538:	17ffffb1 	b	53fc <mbedtls_mpi_grow>
/home/hei/Desktop/optee-qemu/optee_os/lib/libmbedtls/mbedtls/library/bignum.c:197
    553c:	d1000461 	sub	x1, x3, #0x1
/home/hei/Desktop/optee-qemu/optee_os/lib/libmbedtls/mbedtls/library/bignum.c:197 (discriminator 1)
    5540:	b5000481 	cbnz	x1, 55d0 <mbedtls_mpi_shrink+0xdc>
/home/hei/Desktop/optee-qemu/optee_os/lib/libmbedtls/mbedtls/library/bignum.c:200
    5544:	91000421 	add	x1, x1, #0x1
    5548:	aa0203e0 	mov	x0, x2
/home/hei/Desktop/optee-qemu/optee_os/lib/libmbedtls/mbedtls/library/bignum.c:202
    554c:	eb01005f 	cmp	x2, x1
    5550:	9a812054 	csel	x20, x2, x1, cs  // cs = hs, nlast
/home/hei/Desktop/optee-qemu/optee_os/lib/libmbedtls/mbedtls/library/bignum.c:205
    5554:	79c006a1 	ldrsh	w1, [x21, #2]
    5558:	34000461 	cbz	w1, 55e4 <mbedtls_mpi_shrink+0xf0>
/home/hei/Desktop/optee-qemu/optee_os/lib/libmbedtls/mbedtls/library/bignum.c:207
    555c:	f0000020 	adrp	x0, c000 <_DYNAMIC>
    5560:	d37ef453 	lsl	x19, x2, #2
    5564:	aa1303e1 	mov	x1, x19
    5568:	f940cc00 	ldr	x0, [x0, #408]
    556c:	f9400000 	ldr	x0, [x0]
    5570:	94000d6f 	bl	8b2c <mempool_alloc>
    5574:	aa0003f6 	mov	x22, x0
/home/hei/Desktop/optee-qemu/optee_os/lib/libmbedtls/mbedtls/library/bignum.c:208
    5578:	b40003e0 	cbz	x0, 55f4 <mbedtls_mpi_shrink+0x100>
/home/hei/Desktop/optee-qemu/optee_os/lib/libmbedtls/mbedtls/library/bignum.c:210
    557c:	aa1303e2 	mov	x2, x19
    5580:	52800001 	mov	w1, #0x0                   	// #0
    5584:	97fff039 	bl	1668 <memset>
/home/hei/Desktop/optee-qemu/optee_os/lib/libmbedtls/mbedtls/library/bignum.c:219
    5588:	f9400aa1 	ldr	x1, [x21, #16]
    558c:	b40001c1 	cbz	x1, 55c4 <mbedtls_mpi_shrink+0xd0>
/home/hei/Desktop/optee-qemu/optee_os/lib/libmbedtls/mbedtls/library/bignum.c:221
    5590:	d37ef682 	lsl	x2, x20, #2
    5594:	aa1603e0 	mov	x0, x22
    5598:	97ffebdf 	bl	514 <memcpy>
mbedtls_mpi_zeroize():
/home/hei/Desktop/optee-qemu/optee_os/lib/libmbedtls/mbedtls/library/bignum.c:88
    559c:	a94082a1 	ldp	x1, x0, [x21, #8]
    55a0:	d37ef421 	lsl	x1, x1, #2
    55a4:	94000cf9 	bl	8988 <mbedtls_platform_zeroize>
mbedtls_mpi_shrink():
/home/hei/Desktop/optee-qemu/optee_os/lib/libmbedtls/mbedtls/library/bignum.c:223
    55a8:	79c006a0 	ldrsh	w0, [x21, #2]
    55ac:	340002e0 	cbz	w0, 5608 <mbedtls_mpi_shrink+0x114>
/home/hei/Desktop/optee-qemu/optee_os/lib/libmbedtls/mbedtls/library/bignum.c:224
    55b0:	f0000020 	adrp	x0, c000 <_DYNAMIC>
    55b4:	f9400aa1 	ldr	x1, [x21, #16]
    55b8:	f940cc00 	ldr	x0, [x0, #408]
    55bc:	f9400000 	ldr	x0, [x0]
    55c0:	94000d9a 	bl	8c28 <mempool_free>
/home/hei/Desktop/optee-qemu/optee_os/lib/libmbedtls/mbedtls/library/bignum.c:232
    55c4:	52800000 	mov	w0, #0x0                   	// #0
/home/hei/Desktop/optee-qemu/optee_os/lib/libmbedtls/mbedtls/library/bignum.c:230
    55c8:	a900dab4 	stp	x20, x22, [x21, #8]
/home/hei/Desktop/optee-qemu/optee_os/lib/libmbedtls/mbedtls/library/bignum.c:232
    55cc:	1400000b 	b	55f8 <mbedtls_mpi_shrink+0x104>
/home/hei/Desktop/optee-qemu/optee_os/lib/libmbedtls/mbedtls/library/bignum.c:198
    55d0:	f9400aa0 	ldr	x0, [x21, #16]
    55d4:	b8617800 	ldr	w0, [x0, x1, lsl #2]
    55d8:	35fffb60 	cbnz	w0, 5544 <mbedtls_mpi_shrink+0x50>
/home/hei/Desktop/optee-qemu/optee_os/lib/libmbedtls/mbedtls/library/bignum.c:197 (discriminator 2)
    55dc:	d1000421 	sub	x1, x1, #0x1
    55e0:	17ffffd8 	b	5540 <mbedtls_mpi_shrink+0x4c>
/home/hei/Desktop/optee-qemu/optee_os/lib/libmbedtls/mbedtls/library/bignum.c:214
    55e4:	d2800081 	mov	x1, #0x4                   	// #4
    55e8:	97ffef18 	bl	1248 <calloc>
    55ec:	aa0003f6 	mov	x22, x0
/home/hei/Desktop/optee-qemu/optee_os/lib/libmbedtls/mbedtls/library/bignum.c:215
    55f0:	b5fffcc0 	cbnz	x0, 5588 <mbedtls_mpi_shrink+0x94>
/home/hei/Desktop/optee-qemu/optee_os/lib/libmbedtls/mbedtls/library/bignum.c:191
    55f4:	128001e0 	mov	w0, #0xfffffff0            	// #-16
/home/hei/Desktop/optee-qemu/optee_os/lib/libmbedtls/mbedtls/library/bignum.c:233
    55f8:	a94153f3 	ldp	x19, x20, [sp, #16]
    55fc:	a9425bf5 	ldp	x21, x22, [sp, #32]
    5600:	a8c37bfd 	ldp	x29, x30, [sp], #48
    5604:	d65f03c0 	ret
/home/hei/Desktop/optee-qemu/optee_os/lib/libmbedtls/mbedtls/library/bignum.c:226
    5608:	f9400aa0 	ldr	x0, [x21, #16]
    560c:	97ffef3c 	bl	12fc <free>
    5610:	17ffffed 	b	55c4 <mbedtls_mpi_shrink+0xd0>

0000000000005614 <mbedtls_mpi_copy>:
mbedtls_mpi_copy():
/home/hei/Desktop/optee-qemu/optee_os/lib/libmbedtls/mbedtls/library/bignum.c:245
    5614:	eb01001f 	cmp	x0, x1
    5618:	54000540 	b.eq	56c0 <mbedtls_mpi_copy+0xac>  // b.none
/home/hei/Desktop/optee-qemu/optee_os/lib/libmbedtls/mbedtls/library/bignum.c:239
    561c:	a9bd7bfd 	stp	x29, x30, [sp, #-48]!
    5620:	910003fd 	mov	x29, sp
    5624:	f90013f5 	str	x21, [sp, #32]
    5628:	aa0103f5 	mov	x21, x1
/home/hei/Desktop/optee-qemu/optee_os/lib/libmbedtls/mbedtls/library/bignum.c:248
    562c:	f9400821 	ldr	x1, [x1, #16]
/home/hei/Desktop/optee-qemu/optee_os/lib/libmbedtls/mbedtls/library/bignum.c:239
    5630:	a90153f3 	stp	x19, x20, [sp, #16]
/home/hei/Desktop/optee-qemu/optee_os/lib/libmbedtls/mbedtls/library/bignum.c:248
    5634:	b5000081 	cbnz	x1, 5644 <mbedtls_mpi_copy+0x30>
/home/hei/Desktop/optee-qemu/optee_os/lib/libmbedtls/mbedtls/library/bignum.c:250
    5638:	97ffff56 	bl	5390 <mbedtls_mpi_free>
/home/hei/Desktop/optee-qemu/optee_os/lib/libmbedtls/mbedtls/library/bignum.c:270
    563c:	52800000 	mov	w0, #0x0                   	// #0
    5640:	14000011 	b	5684 <mbedtls_mpi_copy+0x70>
/home/hei/Desktop/optee-qemu/optee_os/lib/libmbedtls/mbedtls/library/bignum.c:254
    5644:	f94006b3 	ldr	x19, [x21, #8]
    5648:	aa0003f4 	mov	x20, x0
/home/hei/Desktop/optee-qemu/optee_os/lib/libmbedtls/mbedtls/library/bignum.c:254 (discriminator 2)
    564c:	d1000673 	sub	x19, x19, #0x1
    5650:	b4000073 	cbz	x19, 565c <mbedtls_mpi_copy+0x48>
/home/hei/Desktop/optee-qemu/optee_os/lib/libmbedtls/mbedtls/library/bignum.c:255
    5654:	b8737820 	ldr	w0, [x1, x19, lsl #2]
    5658:	34ffffa0 	cbz	w0, 564c <mbedtls_mpi_copy+0x38>
/home/hei/Desktop/optee-qemu/optee_os/lib/libmbedtls/mbedtls/library/bignum.c:259
    565c:	79c002a0 	ldrsh	w0, [x21]
/home/hei/Desktop/optee-qemu/optee_os/lib/libmbedtls/mbedtls/library/bignum.c:257
    5660:	91000673 	add	x19, x19, #0x1
/home/hei/Desktop/optee-qemu/optee_os/lib/libmbedtls/mbedtls/library/bignum.c:261
    5664:	f9400682 	ldr	x2, [x20, #8]
/home/hei/Desktop/optee-qemu/optee_os/lib/libmbedtls/mbedtls/library/bignum.c:259
    5668:	79000280 	strh	w0, [x20]
/home/hei/Desktop/optee-qemu/optee_os/lib/libmbedtls/mbedtls/library/bignum.c:261
    566c:	eb13005f 	cmp	x2, x19
    5670:	54000122 	b.cs	5694 <mbedtls_mpi_copy+0x80>  // b.hs, b.nlast
/home/hei/Desktop/optee-qemu/optee_os/lib/libmbedtls/mbedtls/library/bignum.c:263
    5674:	aa1303e1 	mov	x1, x19
    5678:	aa1403e0 	mov	x0, x20
    567c:	97ffff60 	bl	53fc <mbedtls_mpi_grow>
    5680:	34000160 	cbz	w0, 56ac <mbedtls_mpi_copy+0x98>
/home/hei/Desktop/optee-qemu/optee_os/lib/libmbedtls/mbedtls/library/bignum.c:275
    5684:	a94153f3 	ldp	x19, x20, [sp, #16]
    5688:	f94013f5 	ldr	x21, [sp, #32]
    568c:	a8c37bfd 	ldp	x29, x30, [sp], #48
    5690:	d65f03c0 	ret
/home/hei/Desktop/optee-qemu/optee_os/lib/libmbedtls/mbedtls/library/bignum.c:267
    5694:	f9400a80 	ldr	x0, [x20, #16]
    5698:	cb130042 	sub	x2, x2, x19
    569c:	52800001 	mov	w1, #0x0                   	// #0
    56a0:	d37ef442 	lsl	x2, x2, #2
    56a4:	8b130800 	add	x0, x0, x19, lsl #2
    56a8:	97ffeff0 	bl	1668 <memset>
/home/hei/Desktop/optee-qemu/optee_os/lib/libmbedtls/mbedtls/library/bignum.c:270
    56ac:	f9400a80 	ldr	x0, [x20, #16]
    56b0:	d37ef662 	lsl	x2, x19, #2
    56b4:	f9400aa1 	ldr	x1, [x21, #16]
    56b8:	97ffeb97 	bl	514 <memcpy>
    56bc:	17ffffe0 	b	563c <mbedtls_mpi_copy+0x28>
/home/hei/Desktop/optee-qemu/optee_os/lib/libmbedtls/mbedtls/library/bignum.c:246
    56c0:	52800000 	mov	w0, #0x0                   	// #0
/home/hei/Desktop/optee-qemu/optee_os/lib/libmbedtls/mbedtls/library/bignum.c:275
    56c4:	d65f03c0 	ret

00000000000056c8 <mbedtls_mpi_swap>:
mbedtls_mpi_swap():
/home/hei/Desktop/optee-qemu/optee_os/lib/libmbedtls/mbedtls/library/bignum.c:281
    56c8:	a9bb7bfd 	stp	x29, x30, [sp, #-80]!
    56cc:	910003fd 	mov	x29, sp
    56d0:	a90153f3 	stp	x19, x20, [sp, #16]
/home/hei/Desktop/optee-qemu/optee_os/lib/libmbedtls/mbedtls/library/bignum.c:286
    56d4:	9100e3f3 	add	x19, sp, #0x38
    56d8:	d2800314 	mov	x20, #0x18                  	// #24
    56dc:	aa1403e2 	mov	x2, x20
/home/hei/Desktop/optee-qemu/optee_os/lib/libmbedtls/mbedtls/library/bignum.c:281
    56e0:	a9025bf5 	stp	x21, x22, [sp, #32]
    56e4:	aa0103f5 	mov	x21, x1
    56e8:	aa0003f6 	mov	x22, x0
/home/hei/Desktop/optee-qemu/optee_os/lib/libmbedtls/mbedtls/library/bignum.c:286
    56ec:	aa0003e1 	mov	x1, x0
    56f0:	aa1303e0 	mov	x0, x19
    56f4:	97ffeb88 	bl	514 <memcpy>
/home/hei/Desktop/optee-qemu/optee_os/lib/libmbedtls/mbedtls/library/bignum.c:287
    56f8:	aa1403e2 	mov	x2, x20
    56fc:	aa1503e1 	mov	x1, x21
    5700:	aa1603e0 	mov	x0, x22
    5704:	97ffeb84 	bl	514 <memcpy>
/home/hei/Desktop/optee-qemu/optee_os/lib/libmbedtls/mbedtls/library/bignum.c:288
    5708:	aa1403e2 	mov	x2, x20
    570c:	aa1303e1 	mov	x1, x19
    5710:	aa1503e0 	mov	x0, x21
    5714:	97ffeb80 	bl	514 <memcpy>
/home/hei/Desktop/optee-qemu/optee_os/lib/libmbedtls/mbedtls/library/bignum.c:289
    5718:	a94153f3 	ldp	x19, x20, [sp, #16]
    571c:	a9425bf5 	ldp	x21, x22, [sp, #32]
    5720:	a8c57bfd 	ldp	x29, x30, [sp], #80
    5724:	d65f03c0 	ret

0000000000005728 <mbedtls_mpi_safe_cond_assign>:
mbedtls_mpi_safe_cond_assign():
/home/hei/Desktop/optee-qemu/optee_os/lib/libmbedtls/mbedtls/library/bignum.c:297
    5728:	a9bd7bfd 	stp	x29, x30, [sp, #-48]!
    572c:	910003fd 	mov	x29, sp
    5730:	f90013f5 	str	x21, [sp, #32]
    5734:	aa0103f5 	mov	x21, x1
/home/hei/Desktop/optee-qemu/optee_os/lib/libmbedtls/mbedtls/library/bignum.c:306
    5738:	f9400421 	ldr	x1, [x1, #8]
/home/hei/Desktop/optee-qemu/optee_os/lib/libmbedtls/mbedtls/library/bignum.c:297
    573c:	a90153f3 	stp	x19, x20, [sp, #16]
    5740:	aa0003f4 	mov	x20, x0
    5744:	12001c53 	and	w19, w2, #0xff
/home/hei/Desktop/optee-qemu/optee_os/lib/libmbedtls/mbedtls/library/bignum.c:306
    5748:	97ffff2d 	bl	53fc <mbedtls_mpi_grow>
    574c:	35000240 	cbnz	w0, 5794 <mbedtls_mpi_safe_cond_assign+0x6c>
/home/hei/Desktop/optee-qemu/optee_os/lib/libmbedtls/mbedtls/library/bignum.c:304
    5750:	4b1303e2 	neg	w2, w19
/home/hei/Desktop/optee-qemu/optee_os/lib/libmbedtls/mbedtls/library/bignum.c:308
    5754:	794002a4 	ldrh	w4, [x21]
/home/hei/Desktop/optee-qemu/optee_os/lib/libmbedtls/mbedtls/library/bignum.c:304
    5758:	2a020262 	orr	w2, w19, w2
/home/hei/Desktop/optee-qemu/optee_os/lib/libmbedtls/mbedtls/library/bignum.c:308
    575c:	79400281 	ldrh	w1, [x20]
    5760:	52800023 	mov	w3, #0x1                   	// #1
/home/hei/Desktop/optee-qemu/optee_os/lib/libmbedtls/mbedtls/library/bignum.c:304
    5764:	d3471c42 	ubfx	x2, x2, #7, #1
/home/hei/Desktop/optee-qemu/optee_os/lib/libmbedtls/mbedtls/library/bignum.c:308
    5768:	4b020063 	sub	w3, w3, w2
/home/hei/Desktop/optee-qemu/optee_os/lib/libmbedtls/mbedtls/library/bignum.c:310
    576c:	f94006a8 	ldr	x8, [x21, #8]
/home/hei/Desktop/optee-qemu/optee_os/lib/libmbedtls/mbedtls/library/bignum.c:308
    5770:	1b047c44 	mul	w4, w2, w4
    5774:	1b011061 	madd	w1, w3, w1, w4
    5778:	79000281 	strh	w1, [x20]
/home/hei/Desktop/optee-qemu/optee_os/lib/libmbedtls/mbedtls/library/bignum.c:310
    577c:	d2800001 	mov	x1, #0x0                   	// #0
/home/hei/Desktop/optee-qemu/optee_os/lib/libmbedtls/mbedtls/library/bignum.c:310 (discriminator 1)
    5780:	eb01011f 	cmp	x8, x1
    5784:	54000101 	b.ne	57a4 <mbedtls_mpi_safe_cond_assign+0x7c>  // b.any
/home/hei/Desktop/optee-qemu/optee_os/lib/libmbedtls/mbedtls/library/bignum.c:313
    5788:	f9400686 	ldr	x6, [x20, #8]
/home/hei/Desktop/optee-qemu/optee_os/lib/libmbedtls/mbedtls/library/bignum.c:313 (discriminator 1)
    578c:	eb0100df 	cmp	x6, x1
    5790:	540001e8 	b.hi	57cc <mbedtls_mpi_safe_cond_assign+0xa4>  // b.pmore
/home/hei/Desktop/optee-qemu/optee_os/lib/libmbedtls/mbedtls/library/bignum.c:318
    5794:	a94153f3 	ldp	x19, x20, [sp, #16]
    5798:	f94013f5 	ldr	x21, [sp, #32]
    579c:	a8c37bfd 	ldp	x29, x30, [sp], #48
    57a0:	d65f03c0 	ret
/home/hei/Desktop/optee-qemu/optee_os/lib/libmbedtls/mbedtls/library/bignum.c:311 (discriminator 3)
    57a4:	f9400a87 	ldr	x7, [x20, #16]
    57a8:	d37ef424 	lsl	x4, x1, #2
    57ac:	f9400aa5 	ldr	x5, [x21, #16]
/home/hei/Desktop/optee-qemu/optee_os/lib/libmbedtls/mbedtls/library/bignum.c:310 (discriminator 3)
    57b0:	91000421 	add	x1, x1, #0x1
/home/hei/Desktop/optee-qemu/optee_os/lib/libmbedtls/mbedtls/library/bignum.c:311 (discriminator 3)
    57b4:	b86468e6 	ldr	w6, [x7, x4]
    57b8:	b86468a5 	ldr	w5, [x5, x4]
    57bc:	1b067c66 	mul	w6, w3, w6
    57c0:	1b051845 	madd	w5, w2, w5, w6
    57c4:	b82468e5 	str	w5, [x7, x4]
    57c8:	17ffffee 	b	5780 <mbedtls_mpi_safe_cond_assign+0x58>
/home/hei/Desktop/optee-qemu/optee_os/lib/libmbedtls/mbedtls/library/bignum.c:314 (discriminator 2)
    57cc:	f9400a85 	ldr	x5, [x20, #16]
    57d0:	d37ef424 	lsl	x4, x1, #2
/home/hei/Desktop/optee-qemu/optee_os/lib/libmbedtls/mbedtls/library/bignum.c:313 (discriminator 2)
    57d4:	91000421 	add	x1, x1, #0x1
/home/hei/Desktop/optee-qemu/optee_os/lib/libmbedtls/mbedtls/library/bignum.c:314 (discriminator 2)
    57d8:	b86468a2 	ldr	w2, [x5, x4]
    57dc:	1b037c42 	mul	w2, w2, w3
    57e0:	b82468a2 	str	w2, [x5, x4]
    57e4:	17ffffea 	b	578c <mbedtls_mpi_safe_cond_assign+0x64>

00000000000057e8 <mbedtls_mpi_safe_cond_swap>:
mbedtls_mpi_safe_cond_swap():
/home/hei/Desktop/optee-qemu/optee_os/lib/libmbedtls/mbedtls/library/bignum.c:334
    57e8:	eb01001f 	cmp	x0, x1
    57ec:	54000061 	b.ne	57f8 <mbedtls_mpi_safe_cond_swap+0x10>  // b.any
/home/hei/Desktop/optee-qemu/optee_os/lib/libmbedtls/mbedtls/library/bignum.c:335
    57f0:	52800000 	mov	w0, #0x0                   	// #0
/home/hei/Desktop/optee-qemu/optee_os/lib/libmbedtls/mbedtls/library/bignum.c:357
    57f4:	d65f03c0 	ret
/home/hei/Desktop/optee-qemu/optee_os/lib/libmbedtls/mbedtls/library/bignum.c:327
    57f8:	a9bd7bfd 	stp	x29, x30, [sp, #-48]!
    57fc:	910003fd 	mov	x29, sp
    5800:	a90153f3 	stp	x19, x20, [sp, #16]
    5804:	aa0103f4 	mov	x20, x1
/home/hei/Desktop/optee-qemu/optee_os/lib/libmbedtls/mbedtls/library/bignum.c:338
    5808:	12001c53 	and	w19, w2, #0xff
/home/hei/Desktop/optee-qemu/optee_os/lib/libmbedtls/mbedtls/library/bignum.c:340
    580c:	f9400421 	ldr	x1, [x1, #8]
/home/hei/Desktop/optee-qemu/optee_os/lib/libmbedtls/mbedtls/library/bignum.c:327
    5810:	f90013f5 	str	x21, [sp, #32]
    5814:	aa0003f5 	mov	x21, x0
/home/hei/Desktop/optee-qemu/optee_os/lib/libmbedtls/mbedtls/library/bignum.c:340
    5818:	97fffef9 	bl	53fc <mbedtls_mpi_grow>
    581c:	35000340 	cbnz	w0, 5884 <mbedtls_mpi_safe_cond_swap+0x9c>
/home/hei/Desktop/optee-qemu/optee_os/lib/libmbedtls/mbedtls/library/bignum.c:341
    5820:	f94006a1 	ldr	x1, [x21, #8]
    5824:	aa1403e0 	mov	x0, x20
    5828:	97fffef5 	bl	53fc <mbedtls_mpi_grow>
    582c:	350002c0 	cbnz	w0, 5884 <mbedtls_mpi_safe_cond_swap+0x9c>
/home/hei/Desktop/optee-qemu/optee_os/lib/libmbedtls/mbedtls/library/bignum.c:338
    5830:	4b1303e2 	neg	w2, w19
/home/hei/Desktop/optee-qemu/optee_os/lib/libmbedtls/mbedtls/library/bignum.c:344
    5834:	794002a3 	ldrh	w3, [x21]
/home/hei/Desktop/optee-qemu/optee_os/lib/libmbedtls/mbedtls/library/bignum.c:338
    5838:	2a020262 	orr	w2, w19, w2
/home/hei/Desktop/optee-qemu/optee_os/lib/libmbedtls/mbedtls/library/bignum.c:344
    583c:	52800020 	mov	w0, #0x1                   	// #1
    5840:	79400284 	ldrh	w4, [x20]
/home/hei/Desktop/optee-qemu/optee_os/lib/libmbedtls/mbedtls/library/bignum.c:338
    5844:	d3471c42 	ubfx	x2, x2, #7, #1
/home/hei/Desktop/optee-qemu/optee_os/lib/libmbedtls/mbedtls/library/bignum.c:344
    5848:	4b020000 	sub	w0, w0, w2
    584c:	12003c45 	and	w5, w2, #0xffff
    5850:	12003c01 	and	w1, w0, #0xffff
/home/hei/Desktop/optee-qemu/optee_os/lib/libmbedtls/mbedtls/library/bignum.c:348
    5854:	f94006a8 	ldr	x8, [x21, #8]
/home/hei/Desktop/optee-qemu/optee_os/lib/libmbedtls/mbedtls/library/bignum.c:344
    5858:	1b017c66 	mul	w6, w3, w1
    585c:	1b0418a4 	madd	w4, w5, w4, w6
    5860:	790002a4 	strh	w4, [x21]
/home/hei/Desktop/optee-qemu/optee_os/lib/libmbedtls/mbedtls/library/bignum.c:345
    5864:	1b057c63 	mul	w3, w3, w5
    5868:	79400284 	ldrh	w4, [x20]
    586c:	1b040c21 	madd	w1, w1, w4, w3
/home/hei/Desktop/optee-qemu/optee_os/lib/libmbedtls/mbedtls/library/bignum.c:348
    5870:	d2800003 	mov	x3, #0x0                   	// #0
/home/hei/Desktop/optee-qemu/optee_os/lib/libmbedtls/mbedtls/library/bignum.c:345
    5874:	79000281 	strh	w1, [x20]
/home/hei/Desktop/optee-qemu/optee_os/lib/libmbedtls/mbedtls/library/bignum.c:348 (discriminator 1)
    5878:	eb03011f 	cmp	x8, x3
    587c:	540000c1 	b.ne	5894 <mbedtls_mpi_safe_cond_swap+0xac>  // b.any
/home/hei/Desktop/optee-qemu/optee_os/lib/libmbedtls/mbedtls/library/bignum.c:335
    5880:	52800000 	mov	w0, #0x0                   	// #0
/home/hei/Desktop/optee-qemu/optee_os/lib/libmbedtls/mbedtls/library/bignum.c:357
    5884:	a94153f3 	ldp	x19, x20, [sp, #16]
    5888:	f94013f5 	ldr	x21, [sp, #32]
    588c:	a8c37bfd 	ldp	x29, x30, [sp], #48
    5890:	d65f03c0 	ret
/home/hei/Desktop/optee-qemu/optee_os/lib/libmbedtls/mbedtls/library/bignum.c:350 (discriminator 3)
    5894:	f9400aa7 	ldr	x7, [x21, #16]
    5898:	d37ef461 	lsl	x1, x3, #2
/home/hei/Desktop/optee-qemu/optee_os/lib/libmbedtls/mbedtls/library/bignum.c:351 (discriminator 3)
    589c:	f9400a85 	ldr	x5, [x20, #16]
/home/hei/Desktop/optee-qemu/optee_os/lib/libmbedtls/mbedtls/library/bignum.c:348 (discriminator 3)
    58a0:	91000463 	add	x3, x3, #0x1
/home/hei/Desktop/optee-qemu/optee_os/lib/libmbedtls/mbedtls/library/bignum.c:350 (discriminator 3)
    58a4:	b86168e4 	ldr	w4, [x7, x1]
/home/hei/Desktop/optee-qemu/optee_os/lib/libmbedtls/mbedtls/library/bignum.c:351 (discriminator 3)
    58a8:	b86168a6 	ldr	w6, [x5, x1]
    58ac:	1b047c09 	mul	w9, w0, w4
/home/hei/Desktop/optee-qemu/optee_os/lib/libmbedtls/mbedtls/library/bignum.c:352 (discriminator 3)
    58b0:	1b047c44 	mul	w4, w2, w4
/home/hei/Desktop/optee-qemu/optee_os/lib/libmbedtls/mbedtls/library/bignum.c:351 (discriminator 3)
    58b4:	1b062446 	madd	w6, w2, w6, w9
    58b8:	b82168e6 	str	w6, [x7, x1]
/home/hei/Desktop/optee-qemu/optee_os/lib/libmbedtls/mbedtls/library/bignum.c:352 (discriminator 3)
    58bc:	b86168a6 	ldr	w6, [x5, x1]
    58c0:	1b061004 	madd	w4, w0, w6, w4
    58c4:	b82168a4 	str	w4, [x5, x1]
    58c8:	17ffffec 	b	5878 <mbedtls_mpi_safe_cond_swap+0x90>

00000000000058cc <mbedtls_mpi_lset>:
mbedtls_mpi_lset():
/home/hei/Desktop/optee-qemu/optee_os/lib/libmbedtls/mbedtls/library/bignum.c:363
    58cc:	a9bd7bfd 	stp	x29, x30, [sp, #-48]!
    58d0:	910003fd 	mov	x29, sp
    58d4:	a90153f3 	stp	x19, x20, [sp, #16]
    58d8:	aa0003f3 	mov	x19, x0
    58dc:	2a0103f4 	mov	w20, w1
/home/hei/Desktop/optee-qemu/optee_os/lib/libmbedtls/mbedtls/library/bignum.c:367
    58e0:	d2800021 	mov	x1, #0x1                   	// #1
/home/hei/Desktop/optee-qemu/optee_os/lib/libmbedtls/mbedtls/library/bignum.c:363
    58e4:	f90013f5 	str	x21, [sp, #32]
/home/hei/Desktop/optee-qemu/optee_os/lib/libmbedtls/mbedtls/library/bignum.c:367
    58e8:	97fffec5 	bl	53fc <mbedtls_mpi_grow>
    58ec:	2a0003f5 	mov	w21, w0
    58f0:	35000180 	cbnz	w0, 5920 <mbedtls_mpi_lset+0x54>
/home/hei/Desktop/optee-qemu/optee_os/lib/libmbedtls/mbedtls/library/bignum.c:368
    58f4:	a9408262 	ldp	x2, x0, [x19, #8]
    58f8:	52800001 	mov	w1, #0x0                   	// #0
    58fc:	d37ef442 	lsl	x2, x2, #2
    5900:	97ffef5a 	bl	1668 <memset>
/home/hei/Desktop/optee-qemu/optee_os/lib/libmbedtls/mbedtls/library/bignum.c:370
    5904:	f9400a60 	ldr	x0, [x19, #16]
    5908:	7100029f 	cmp	w20, #0x0
    590c:	5a94a681 	cneg	w1, w20, lt  // lt = tstop
    5910:	b9000001 	str	w1, [x0]
/home/hei/Desktop/optee-qemu/optee_os/lib/libmbedtls/mbedtls/library/bignum.c:371
    5914:	52800020 	mov	w0, #0x1                   	// #1
    5918:	5a80a400 	cneg	w0, w0, lt  // lt = tstop
    591c:	79000260 	strh	w0, [x19]
/home/hei/Desktop/optee-qemu/optee_os/lib/libmbedtls/mbedtls/library/bignum.c:376
    5920:	2a1503e0 	mov	w0, w21
    5924:	a94153f3 	ldp	x19, x20, [sp, #16]
    5928:	f94013f5 	ldr	x21, [sp, #32]
    592c:	a8c37bfd 	ldp	x29, x30, [sp], #48
    5930:	d65f03c0 	ret

0000000000005934 <mbedtls_mpi_get_bit>:
mbedtls_mpi_get_bit():
/home/hei/Desktop/optee-qemu/optee_os/lib/libmbedtls/mbedtls/library/bignum.c:385
    5934:	f9400402 	ldr	x2, [x0, #8]
    5938:	eb02143f 	cmp	x1, x2, lsl #5
    593c:	540000e2 	b.cs	5958 <mbedtls_mpi_get_bit+0x24>  // b.hs, b.nlast
/home/hei/Desktop/optee-qemu/optee_os/lib/libmbedtls/mbedtls/library/bignum.c:388
    5940:	f9400800 	ldr	x0, [x0, #16]
    5944:	d345fc22 	lsr	x2, x1, #5
    5948:	b8627800 	ldr	w0, [x0, x2, lsl #2]
    594c:	1ac12400 	lsr	w0, w0, w1
    5950:	12000000 	and	w0, w0, #0x1
/home/hei/Desktop/optee-qemu/optee_os/lib/libmbedtls/mbedtls/library/bignum.c:389
    5954:	d65f03c0 	ret
/home/hei/Desktop/optee-qemu/optee_os/lib/libmbedtls/mbedtls/library/bignum.c:386
    5958:	52800000 	mov	w0, #0x0                   	// #0
    595c:	17fffffe 	b	5954 <mbedtls_mpi_get_bit+0x20>

0000000000005960 <mbedtls_mpi_set_bit>:
mbedtls_mpi_set_bit():
/home/hei/Desktop/optee-qemu/optee_os/lib/libmbedtls/mbedtls/library/bignum.c:399
    5960:	a9bd7bfd 	stp	x29, x30, [sp, #-48]!
    5964:	910003fd 	mov	x29, sp
    5968:	a90153f3 	stp	x19, x20, [sp, #16]
    596c:	a9025bf5 	stp	x21, x22, [sp, #32]
    5970:	12001c55 	and	w21, w2, #0xff
/home/hei/Desktop/optee-qemu/optee_os/lib/libmbedtls/mbedtls/library/bignum.c:405
    5974:	710006bf 	cmp	w21, #0x1
    5978:	54000368 	b.hi	59e4 <mbedtls_mpi_set_bit+0x84>  // b.pmore
    597c:	aa0103f3 	mov	x19, x1
/home/hei/Desktop/optee-qemu/optee_os/lib/libmbedtls/mbedtls/library/bignum.c:408
    5980:	d345fc34 	lsr	x20, x1, #5
    5984:	f9400401 	ldr	x1, [x0, #8]
    5988:	aa0003f6 	mov	x22, x0
    598c:	eb01167f 	cmp	x19, x1, lsl #5
    5990:	540001a2 	b.cs	59c4 <mbedtls_mpi_set_bit+0x64>  // b.hs, b.nlast
/home/hei/Desktop/optee-qemu/optee_os/lib/libmbedtls/mbedtls/library/bignum.c:416
    5994:	f9400ac3 	ldr	x3, [x22, #16]
    5998:	d37ef694 	lsl	x20, x20, #2
/home/hei/Desktop/optee-qemu/optee_os/lib/libmbedtls/mbedtls/library/bignum.c:402
    599c:	92401273 	and	x19, x19, #0x1f
/home/hei/Desktop/optee-qemu/optee_os/lib/libmbedtls/mbedtls/library/bignum.c:416
    59a0:	52800020 	mov	w0, #0x1                   	// #1
    59a4:	1ad32001 	lsl	w1, w0, w19
    59a8:	b8746860 	ldr	w0, [x3, x20]
/home/hei/Desktop/optee-qemu/optee_os/lib/libmbedtls/mbedtls/library/bignum.c:417
    59ac:	1ad322b3 	lsl	w19, w21, w19
/home/hei/Desktop/optee-qemu/optee_os/lib/libmbedtls/mbedtls/library/bignum.c:416
    59b0:	0a210000 	bic	w0, w0, w1
/home/hei/Desktop/optee-qemu/optee_os/lib/libmbedtls/mbedtls/library/bignum.c:417
    59b4:	2a130000 	orr	w0, w0, w19
    59b8:	b8346860 	str	w0, [x3, x20]
/home/hei/Desktop/optee-qemu/optee_os/lib/libmbedtls/mbedtls/library/bignum.c:411
    59bc:	52800000 	mov	w0, #0x0                   	// #0
    59c0:	14000005 	b	59d4 <mbedtls_mpi_set_bit+0x74>
/home/hei/Desktop/optee-qemu/optee_os/lib/libmbedtls/mbedtls/library/bignum.c:410
    59c4:	34ffffd5 	cbz	w21, 59bc <mbedtls_mpi_set_bit+0x5c>
/home/hei/Desktop/optee-qemu/optee_os/lib/libmbedtls/mbedtls/library/bignum.c:413
    59c8:	91000681 	add	x1, x20, #0x1
    59cc:	97fffe8c 	bl	53fc <mbedtls_mpi_grow>
    59d0:	34fffe20 	cbz	w0, 5994 <mbedtls_mpi_set_bit+0x34>
/home/hei/Desktop/optee-qemu/optee_os/lib/libmbedtls/mbedtls/library/bignum.c:422
    59d4:	a94153f3 	ldp	x19, x20, [sp, #16]
    59d8:	a9425bf5 	ldp	x21, x22, [sp, #32]
    59dc:	a8c37bfd 	ldp	x29, x30, [sp], #48
    59e0:	d65f03c0 	ret
/home/hei/Desktop/optee-qemu/optee_os/lib/libmbedtls/mbedtls/library/bignum.c:406
    59e4:	12800060 	mov	w0, #0xfffffffc            	// #-4
    59e8:	17fffffb 	b	59d4 <mbedtls_mpi_set_bit+0x74>

00000000000059ec <mbedtls_mpi_lsb>:
mbedtls_mpi_lsb():
/home/hei/Desktop/optee-qemu/optee_os/lib/libmbedtls/mbedtls/library/bignum.c:432
    59ec:	f9400405 	ldr	x5, [x0, #8]
/home/hei/Desktop/optee-qemu/optee_os/lib/libmbedtls/mbedtls/library/bignum.c:428
    59f0:	aa0003e4 	mov	x4, x0
/home/hei/Desktop/optee-qemu/optee_os/lib/libmbedtls/mbedtls/library/bignum.c:429
    59f4:	d2800003 	mov	x3, #0x0                   	// #0
/home/hei/Desktop/optee-qemu/optee_os/lib/libmbedtls/mbedtls/library/bignum.c:432
    59f8:	d2800002 	mov	x2, #0x0                   	// #0
/home/hei/Desktop/optee-qemu/optee_os/lib/libmbedtls/mbedtls/library/bignum.c:432 (discriminator 1)
    59fc:	eb0200bf 	cmp	x5, x2
    5a00:	54000061 	b.ne	5a0c <mbedtls_mpi_lsb+0x20>  // b.any
/home/hei/Desktop/optee-qemu/optee_os/lib/libmbedtls/mbedtls/library/bignum.c:437
    5a04:	d2800000 	mov	x0, #0x0                   	// #0
/home/hei/Desktop/optee-qemu/optee_os/lib/libmbedtls/mbedtls/library/bignum.c:438
    5a08:	d65f03c0 	ret
/home/hei/Desktop/optee-qemu/optee_os/lib/libmbedtls/mbedtls/library/bignum.c:434
    5a0c:	f9400880 	ldr	x0, [x4, #16]
/home/hei/Desktop/optee-qemu/optee_os/lib/libmbedtls/mbedtls/library/bignum.c:433
    5a10:	d2800001 	mov	x1, #0x0                   	// #0
/home/hei/Desktop/optee-qemu/optee_os/lib/libmbedtls/mbedtls/library/bignum.c:434
    5a14:	b8627806 	ldr	w6, [x0, x2, lsl #2]
    5a18:	8b010060 	add	x0, x3, x1
    5a1c:	1ac124c7 	lsr	w7, w6, w1
    5a20:	3707ff47 	tbnz	w7, #0, 5a08 <mbedtls_mpi_lsb+0x1c>
/home/hei/Desktop/optee-qemu/optee_os/lib/libmbedtls/mbedtls/library/bignum.c:433 (discriminator 2)
    5a24:	91000421 	add	x1, x1, #0x1
    5a28:	8b010060 	add	x0, x3, x1
    5a2c:	f100803f 	cmp	x1, #0x20
    5a30:	54ffff41 	b.ne	5a18 <mbedtls_mpi_lsb+0x2c>  // b.any
/home/hei/Desktop/optee-qemu/optee_os/lib/libmbedtls/mbedtls/library/bignum.c:432 (discriminator 2)
    5a34:	91000442 	add	x2, x2, #0x1
/home/hei/Desktop/optee-qemu/optee_os/lib/libmbedtls/mbedtls/library/bignum.c:433 (discriminator 2)
    5a38:	aa0003e3 	mov	x3, x0
    5a3c:	17fffff0 	b	59fc <mbedtls_mpi_lsb+0x10>

0000000000005a40 <mbedtls_mpi_bitlen>:
mbedtls_mpi_bitlen():
/home/hei/Desktop/optee-qemu/optee_os/lib/libmbedtls/mbedtls/library/bignum.c:465
    5a40:	f9400401 	ldr	x1, [x0, #8]
    5a44:	b4000201 	cbz	x1, 5a84 <mbedtls_mpi_bitlen+0x44>
/home/hei/Desktop/optee-qemu/optee_os/lib/libmbedtls/mbedtls/library/bignum.c:468
    5a48:	f9400800 	ldr	x0, [x0, #16]
    5a4c:	d1000421 	sub	x1, x1, #0x1
/home/hei/Desktop/optee-qemu/optee_os/lib/libmbedtls/mbedtls/library/bignum.c:468 (discriminator 1)
    5a50:	b50001e1 	cbnz	x1, 5a8c <mbedtls_mpi_bitlen+0x4c>
/home/hei/Desktop/optee-qemu/optee_os/lib/libmbedtls/mbedtls/library/bignum.c:472
    5a54:	b8617803 	ldr	w3, [x0, x1, lsl #2]
mbedtls_clz():
/home/hei/Desktop/optee-qemu/optee_os/lib/libmbedtls/mbedtls/library/bignum.c:446
    5a58:	52b00002 	mov	w2, #0x80000000            	// #-2147483648
/home/hei/Desktop/optee-qemu/optee_os/lib/libmbedtls/mbedtls/library/bignum.c:448
    5a5c:	d2800000 	mov	x0, #0x0                   	// #0
/home/hei/Desktop/optee-qemu/optee_os/lib/libmbedtls/mbedtls/library/bignum.c:450
    5a60:	6a02007f 	tst	w3, w2
    5a64:	540000a1 	b.ne	5a78 <mbedtls_mpi_bitlen+0x38>  // b.any
/home/hei/Desktop/optee-qemu/optee_os/lib/libmbedtls/mbedtls/library/bignum.c:448
    5a68:	91000400 	add	x0, x0, #0x1
/home/hei/Desktop/optee-qemu/optee_os/lib/libmbedtls/mbedtls/library/bignum.c:452
    5a6c:	53017c42 	lsr	w2, w2, #1
/home/hei/Desktop/optee-qemu/optee_os/lib/libmbedtls/mbedtls/library/bignum.c:448
    5a70:	f100801f 	cmp	x0, #0x20
    5a74:	54ffff61 	b.ne	5a60 <mbedtls_mpi_bitlen+0x20>  // b.any
mbedtls_mpi_bitlen():
/home/hei/Desktop/optee-qemu/optee_os/lib/libmbedtls/mbedtls/library/bignum.c:474
    5a78:	91000421 	add	x1, x1, #0x1
    5a7c:	d37be821 	lsl	x1, x1, #5
    5a80:	cb000021 	sub	x1, x1, x0
/home/hei/Desktop/optee-qemu/optee_os/lib/libmbedtls/mbedtls/library/bignum.c:475
    5a84:	aa0103e0 	mov	x0, x1
    5a88:	d65f03c0 	ret
/home/hei/Desktop/optee-qemu/optee_os/lib/libmbedtls/mbedtls/library/bignum.c:469
    5a8c:	b8617802 	ldr	w2, [x0, x1, lsl #2]
    5a90:	35fffe22 	cbnz	w2, 5a54 <mbedtls_mpi_bitlen+0x14>
/home/hei/Desktop/optee-qemu/optee_os/lib/libmbedtls/mbedtls/library/bignum.c:468 (discriminator 2)
    5a94:	d1000421 	sub	x1, x1, #0x1
    5a98:	17ffffee 	b	5a50 <mbedtls_mpi_bitlen+0x10>

0000000000005a9c <mbedtls_mpi_size>:
mbedtls_mpi_size():
/home/hei/Desktop/optee-qemu/optee_os/lib/libmbedtls/mbedtls/library/bignum.c:481
    5a9c:	a9bf7bfd 	stp	x29, x30, [sp, #-16]!
    5aa0:	910003fd 	mov	x29, sp
/home/hei/Desktop/optee-qemu/optee_os/lib/libmbedtls/mbedtls/library/bignum.c:482
    5aa4:	97ffffe7 	bl	5a40 <mbedtls_mpi_bitlen>
    5aa8:	91001c00 	add	x0, x0, #0x7
/home/hei/Desktop/optee-qemu/optee_os/lib/libmbedtls/mbedtls/library/bignum.c:483
    5aac:	a8c17bfd 	ldp	x29, x30, [sp], #16
    5ab0:	d343fc00 	lsr	x0, x0, #3
    5ab4:	d65f03c0 	ret

0000000000005ab8 <mbedtls_mpi_read_binary>:
mbedtls_mpi_read_binary():
/home/hei/Desktop/optee-qemu/optee_os/lib/libmbedtls/mbedtls/library/bignum.c:769
    5ab8:	a9bc7bfd 	stp	x29, x30, [sp, #-64]!
/home/hei/Desktop/optee-qemu/optee_os/lib/libmbedtls/mbedtls/library/bignum.c:772
    5abc:	f240045f 	tst	x2, #0x3
/home/hei/Desktop/optee-qemu/optee_os/lib/libmbedtls/mbedtls/library/bignum.c:769
    5ac0:	910003fd 	mov	x29, sp
    5ac4:	a9025bf5 	stp	x21, x22, [sp, #32]
    5ac8:	aa0103f6 	mov	x22, x1
/home/hei/Desktop/optee-qemu/optee_os/lib/libmbedtls/mbedtls/library/bignum.c:772
    5acc:	d342fc55 	lsr	x21, x2, #2
/home/hei/Desktop/optee-qemu/optee_os/lib/libmbedtls/mbedtls/library/bignum.c:778
    5ad0:	f9400401 	ldr	x1, [x0, #8]
/home/hei/Desktop/optee-qemu/optee_os/lib/libmbedtls/mbedtls/library/bignum.c:769
    5ad4:	a90153f3 	stp	x19, x20, [sp, #16]
/home/hei/Desktop/optee-qemu/optee_os/lib/libmbedtls/mbedtls/library/bignum.c:772
    5ad8:	9a9506b5 	cinc	x21, x21, ne  // ne = any
/home/hei/Desktop/optee-qemu/optee_os/lib/libmbedtls/mbedtls/library/bignum.c:769
    5adc:	f9001bf7 	str	x23, [sp, #48]
    5ae0:	aa0003f3 	mov	x19, x0
    5ae4:	aa0203f4 	mov	x20, x2
/home/hei/Desktop/optee-qemu/optee_os/lib/libmbedtls/mbedtls/library/bignum.c:778
    5ae8:	eb15003f 	cmp	x1, x21
    5aec:	54000241 	b.ne	5b34 <mbedtls_mpi_read_binary+0x7c>  // b.any
/home/hei/Desktop/optee-qemu/optee_os/lib/libmbedtls/mbedtls/library/bignum.c:787
    5af0:	52800001 	mov	w1, #0x0                   	// #0
    5af4:	aa1303e0 	mov	x0, x19
    5af8:	97ffff75 	bl	58cc <mbedtls_mpi_lset>
    5afc:	35000300 	cbnz	w0, 5b5c <mbedtls_mpi_read_binary+0xa4>
/home/hei/Desktop/optee-qemu/optee_os/lib/libmbedtls/mbedtls/library/bignum.c:789
    5b00:	d2800001 	mov	x1, #0x0                   	// #0
    5b04:	b40002d4 	cbz	x20, 5b5c <mbedtls_mpi_read_binary+0xa4>
/home/hei/Desktop/optee-qemu/optee_os/lib/libmbedtls/mbedtls/library/bignum.c:790
    5b08:	d1000694 	sub	x20, x20, #0x1
    5b0c:	927ef424 	and	x4, x1, #0xfffffffffffffffc
    5b10:	f9400a65 	ldr	x5, [x19, #16]
    5b14:	531d0423 	ubfiz	w3, w1, #3, #2
    5b18:	38746ac2 	ldrb	w2, [x22, x20]
/home/hei/Desktop/optee-qemu/optee_os/lib/libmbedtls/mbedtls/library/bignum.c:789
    5b1c:	91000421 	add	x1, x1, #0x1
/home/hei/Desktop/optee-qemu/optee_os/lib/libmbedtls/mbedtls/library/bignum.c:790
    5b20:	1ac32043 	lsl	w3, w2, w3
    5b24:	b86468a2 	ldr	w2, [x5, x4]
    5b28:	2a030042 	orr	w2, w2, w3
    5b2c:	b82468a2 	str	w2, [x5, x4]
    5b30:	17fffff5 	b	5b04 <mbedtls_mpi_read_binary+0x4c>
/home/hei/Desktop/optee-qemu/optee_os/lib/libmbedtls/mbedtls/library/bignum.c:780
    5b34:	79c00417 	ldrsh	w23, [x0, #2]
/home/hei/Desktop/optee-qemu/optee_os/lib/libmbedtls/mbedtls/library/bignum.c:782
    5b38:	97fffe16 	bl	5390 <mbedtls_mpi_free>
mpi_init():
/home/hei/Desktop/optee-qemu/optee_os/lib/libmbedtls/mbedtls/library/bignum.c:98
    5b3c:	52800020 	mov	w0, #0x1                   	// #1
    5b40:	79000260 	strh	w0, [x19]
/home/hei/Desktop/optee-qemu/optee_os/lib/libmbedtls/mbedtls/library/bignum.c:99
    5b44:	79000677 	strh	w23, [x19, #2]
mbedtls_mpi_read_binary():
/home/hei/Desktop/optee-qemu/optee_os/lib/libmbedtls/mbedtls/library/bignum.c:784
    5b48:	aa1503e1 	mov	x1, x21
mpi_init():
/home/hei/Desktop/optee-qemu/optee_os/lib/libmbedtls/mbedtls/library/bignum.c:101
    5b4c:	a900fe7f 	stp	xzr, xzr, [x19, #8]
mbedtls_mpi_read_binary():
/home/hei/Desktop/optee-qemu/optee_os/lib/libmbedtls/mbedtls/library/bignum.c:784
    5b50:	aa1303e0 	mov	x0, x19
    5b54:	97fffe2a 	bl	53fc <mbedtls_mpi_grow>
    5b58:	34fffcc0 	cbz	w0, 5af0 <mbedtls_mpi_read_binary+0x38>
/home/hei/Desktop/optee-qemu/optee_os/lib/libmbedtls/mbedtls/library/bignum.c:795
    5b5c:	a94153f3 	ldp	x19, x20, [sp, #16]
    5b60:	a9425bf5 	ldp	x21, x22, [sp, #32]
    5b64:	f9401bf7 	ldr	x23, [sp, #48]
    5b68:	a8c47bfd 	ldp	x29, x30, [sp], #64
    5b6c:	d65f03c0 	ret

0000000000005b70 <mbedtls_mpi_write_binary>:
mbedtls_mpi_write_binary():
/home/hei/Desktop/optee-qemu/optee_os/lib/libmbedtls/mbedtls/library/bignum.c:802
    5b70:	a9bd7bfd 	stp	x29, x30, [sp, #-48]!
    5b74:	910003fd 	mov	x29, sp
    5b78:	a90153f3 	stp	x19, x20, [sp, #16]
    5b7c:	aa0003f4 	mov	x20, x0
    5b80:	aa0103e0 	mov	x0, x1
/home/hei/Desktop/optee-qemu/optee_os/lib/libmbedtls/mbedtls/library/bignum.c:811
    5b84:	f9400693 	ldr	x19, [x20, #8]
/home/hei/Desktop/optee-qemu/optee_os/lib/libmbedtls/mbedtls/library/bignum.c:802
    5b88:	f90013f5 	str	x21, [sp, #32]
/home/hei/Desktop/optee-qemu/optee_os/lib/libmbedtls/mbedtls/library/bignum.c:811
    5b8c:	d37ef673 	lsl	x19, x19, #2
/home/hei/Desktop/optee-qemu/optee_os/lib/libmbedtls/mbedtls/library/bignum.c:813
    5b90:	eb02027f 	cmp	x19, x2
    5b94:	54000382 	b.cs	5c04 <mbedtls_mpi_write_binary+0x94>  // b.hs, b.nlast
/home/hei/Desktop/optee-qemu/optee_os/lib/libmbedtls/mbedtls/library/bignum.c:821
    5b98:	cb130042 	sub	x2, x2, x19
    5b9c:	8b020035 	add	x21, x1, x2
/home/hei/Desktop/optee-qemu/optee_os/lib/libmbedtls/mbedtls/library/bignum.c:822
    5ba0:	52800001 	mov	w1, #0x0                   	// #0
    5ba4:	97ffeeb1 	bl	1668 <memset>
/home/hei/Desktop/optee-qemu/optee_os/lib/libmbedtls/mbedtls/library/bignum.c:821
    5ba8:	aa1503e0 	mov	x0, x21
    5bac:	aa1303e2 	mov	x2, x19
/home/hei/Desktop/optee-qemu/optee_os/lib/libmbedtls/mbedtls/library/bignum.c:837
    5bb0:	8b020000 	add	x0, x0, x2
    5bb4:	d2800001 	mov	x1, #0x0                   	// #0
    5bb8:	d1000400 	sub	x0, x0, #0x1
/home/hei/Desktop/optee-qemu/optee_os/lib/libmbedtls/mbedtls/library/bignum.c:837 (discriminator 1)
    5bbc:	eb01005f 	cmp	x2, x1
    5bc0:	54000261 	b.ne	5c0c <mbedtls_mpi_write_binary+0x9c>  // b.any
/home/hei/Desktop/optee-qemu/optee_os/lib/libmbedtls/mbedtls/library/bignum.c:840
    5bc4:	52800000 	mov	w0, #0x0                   	// #0
/home/hei/Desktop/optee-qemu/optee_os/lib/libmbedtls/mbedtls/library/bignum.c:841
    5bc8:	a94153f3 	ldp	x19, x20, [sp, #16]
    5bcc:	f94013f5 	ldr	x21, [sp, #32]
    5bd0:	a8c37bfd 	ldp	x29, x30, [sp], #48
    5bd4:	d65f03c0 	ret
/home/hei/Desktop/optee-qemu/optee_os/lib/libmbedtls/mbedtls/library/bignum.c:832
    5bd8:	f9400a85 	ldr	x5, [x20, #16]
    5bdc:	927ef424 	and	x4, x1, #0xfffffffffffffffc
    5be0:	531d0423 	ubfiz	w3, w1, #3, #2
    5be4:	b86468a4 	ldr	w4, [x5, x4]
    5be8:	1ac32483 	lsr	w3, w4, w3
    5bec:	12001c63 	and	w3, w3, #0xff
    5bf0:	350001e3 	cbnz	w3, 5c2c <mbedtls_mpi_write_binary+0xbc>
/home/hei/Desktop/optee-qemu/optee_os/lib/libmbedtls/mbedtls/library/bignum.c:830 (discriminator 2)
    5bf4:	91000421 	add	x1, x1, #0x1
/home/hei/Desktop/optee-qemu/optee_os/lib/libmbedtls/mbedtls/library/bignum.c:830 (discriminator 1)
    5bf8:	eb13003f 	cmp	x1, x19
    5bfc:	54fffee1 	b.ne	5bd8 <mbedtls_mpi_write_binary+0x68>  // b.any
    5c00:	17ffffec 	b	5bb0 <mbedtls_mpi_write_binary+0x40>
    5c04:	aa0203e1 	mov	x1, x2
    5c08:	17fffffc 	b	5bf8 <mbedtls_mpi_write_binary+0x88>
/home/hei/Desktop/optee-qemu/optee_os/lib/libmbedtls/mbedtls/library/bignum.c:838 (discriminator 3)
    5c0c:	f9400a85 	ldr	x5, [x20, #16]
    5c10:	927ef423 	and	x3, x1, #0xfffffffffffffffc
    5c14:	531d0424 	ubfiz	w4, w1, #3, #2
/home/hei/Desktop/optee-qemu/optee_os/lib/libmbedtls/mbedtls/library/bignum.c:837 (discriminator 3)
    5c18:	91000421 	add	x1, x1, #0x1
/home/hei/Desktop/optee-qemu/optee_os/lib/libmbedtls/mbedtls/library/bignum.c:838 (discriminator 3)
    5c1c:	b86368a3 	ldr	w3, [x5, x3]
    5c20:	1ac42463 	lsr	w3, w3, w4
    5c24:	39000003 	strb	w3, [x0]
    5c28:	17ffffe4 	b	5bb8 <mbedtls_mpi_write_binary+0x48>
/home/hei/Desktop/optee-qemu/optee_os/lib/libmbedtls/mbedtls/library/bignum.c:833
    5c2c:	128000e0 	mov	w0, #0xfffffff8            	// #-8
    5c30:	17ffffe6 	b	5bc8 <mbedtls_mpi_write_binary+0x58>

0000000000005c34 <mbedtls_mpi_shift_l>:
mbedtls_mpi_shift_l():
/home/hei/Desktop/optee-qemu/optee_os/lib/libmbedtls/mbedtls/library/bignum.c:847
    5c34:	a9bd7bfd 	stp	x29, x30, [sp, #-48]!
    5c38:	910003fd 	mov	x29, sp
    5c3c:	a90153f3 	stp	x19, x20, [sp, #16]
    5c40:	aa0003f3 	mov	x19, x0
/home/hei/Desktop/optee-qemu/optee_os/lib/libmbedtls/mbedtls/library/bignum.c:853
    5c44:	d345fc34 	lsr	x20, x1, #5
/home/hei/Desktop/optee-qemu/optee_os/lib/libmbedtls/mbedtls/library/bignum.c:847
    5c48:	a9025bf5 	stp	x21, x22, [sp, #32]
    5c4c:	aa0103f5 	mov	x21, x1
/home/hei/Desktop/optee-qemu/optee_os/lib/libmbedtls/mbedtls/library/bignum.c:854
    5c50:	92401036 	and	x22, x1, #0x1f
/home/hei/Desktop/optee-qemu/optee_os/lib/libmbedtls/mbedtls/library/bignum.c:856
    5c54:	97ffff7b 	bl	5a40 <mbedtls_mpi_bitlen>
    5c58:	8b150000 	add	x0, x0, x21
/home/hei/Desktop/optee-qemu/optee_os/lib/libmbedtls/mbedtls/library/bignum.c:858
    5c5c:	f9400661 	ldr	x1, [x19, #8]
    5c60:	eb01141f 	cmp	x0, x1, lsl #5
    5c64:	540000c8 	b.hi	5c7c <mbedtls_mpi_shift_l+0x48>  // b.pmore
/home/hei/Desktop/optee-qemu/optee_os/lib/libmbedtls/mbedtls/library/bignum.c:866
    5c68:	f1007ebf 	cmp	x21, #0x1f
    5c6c:	540001c8 	b.hi	5ca4 <mbedtls_mpi_shift_l+0x70>  // b.pmore
/home/hei/Desktop/optee-qemu/optee_os/lib/libmbedtls/mbedtls/library/bignum.c:878
    5c70:	b5000456 	cbnz	x22, 5cf8 <mbedtls_mpi_shift_l+0xc4>
/home/hei/Desktop/optee-qemu/optee_os/lib/libmbedtls/mbedtls/library/bignum.c:861
    5c74:	52800000 	mov	w0, #0x0                   	// #0
    5c78:	14000007 	b	5c94 <mbedtls_mpi_shift_l+0x60>
/home/hei/Desktop/optee-qemu/optee_os/lib/libmbedtls/mbedtls/library/bignum.c:859
    5c7c:	f240101f 	tst	x0, #0x1f
    5c80:	d345fc00 	lsr	x0, x0, #5
    5c84:	9a800401 	cinc	x1, x0, ne  // ne = any
    5c88:	aa1303e0 	mov	x0, x19
    5c8c:	97fffddc 	bl	53fc <mbedtls_mpi_grow>
    5c90:	34fffec0 	cbz	w0, 5c68 <mbedtls_mpi_shift_l+0x34>
/home/hei/Desktop/optee-qemu/optee_os/lib/libmbedtls/mbedtls/library/bignum.c:892
    5c94:	a94153f3 	ldp	x19, x20, [sp, #16]
    5c98:	a9425bf5 	ldp	x21, x22, [sp, #32]
    5c9c:	a8c37bfd 	ldp	x29, x30, [sp], #48
    5ca0:	d65f03c0 	ret
/home/hei/Desktop/optee-qemu/optee_os/lib/libmbedtls/mbedtls/library/bignum.c:868
    5ca4:	f9400660 	ldr	x0, [x19, #8]
    5ca8:	92800062 	mov	x2, #0xfffffffffffffffc    	// #-4
    5cac:	9b027e82 	mul	x2, x20, x2
    5cb0:	d37ef401 	lsl	x1, x0, #2
    5cb4:	d1001021 	sub	x1, x1, #0x4
/home/hei/Desktop/optee-qemu/optee_os/lib/libmbedtls/mbedtls/library/bignum.c:868 (discriminator 1)
    5cb8:	eb14001f 	cmp	x0, x20
    5cbc:	54000108 	b.hi	5cdc <mbedtls_mpi_shift_l+0xa8>  // b.pmore
    5cc0:	d37ef400 	lsl	x0, x0, #2
    5cc4:	d1001000 	sub	x0, x0, #0x4
/home/hei/Desktop/optee-qemu/optee_os/lib/libmbedtls/mbedtls/library/bignum.c:871 (discriminator 2)
    5cc8:	b100101f 	cmn	x0, #0x4
    5ccc:	54fffd20 	b.eq	5c70 <mbedtls_mpi_shift_l+0x3c>  // b.none
/home/hei/Desktop/optee-qemu/optee_os/lib/libmbedtls/mbedtls/library/bignum.c:872 (discriminator 2)
    5cd0:	f9400a61 	ldr	x1, [x19, #16]
    5cd4:	b820683f 	str	wzr, [x1, x0]
    5cd8:	17fffffb 	b	5cc4 <mbedtls_mpi_shift_l+0x90>
/home/hei/Desktop/optee-qemu/optee_os/lib/libmbedtls/mbedtls/library/bignum.c:869 (discriminator 3)
    5cdc:	f9400a63 	ldr	x3, [x19, #16]
/home/hei/Desktop/optee-qemu/optee_os/lib/libmbedtls/mbedtls/library/bignum.c:868 (discriminator 3)
    5ce0:	d1000400 	sub	x0, x0, #0x1
/home/hei/Desktop/optee-qemu/optee_os/lib/libmbedtls/mbedtls/library/bignum.c:869 (discriminator 3)
    5ce4:	8b010064 	add	x4, x3, x1
    5ce8:	b8626884 	ldr	w4, [x4, x2]
    5cec:	b8216864 	str	w4, [x3, x1]
    5cf0:	d1001021 	sub	x1, x1, #0x4
    5cf4:	17fffff1 	b	5cb8 <mbedtls_mpi_shift_l+0x84>
/home/hei/Desktop/optee-qemu/optee_os/lib/libmbedtls/mbedtls/library/bignum.c:880
    5cf8:	f9400666 	ldr	x6, [x19, #8]
/home/hei/Desktop/optee-qemu/optee_os/lib/libmbedtls/mbedtls/library/bignum.c:882
    5cfc:	52800400 	mov	w0, #0x20                  	// #32
    5d00:	4b160000 	sub	w0, w0, w22
/home/hei/Desktop/optee-qemu/optee_os/lib/libmbedtls/mbedtls/library/bignum.c:850
    5d04:	52800002 	mov	w2, #0x0                   	// #0
/home/hei/Desktop/optee-qemu/optee_os/lib/libmbedtls/mbedtls/library/bignum.c:880 (discriminator 1)
    5d08:	eb1400df 	cmp	x6, x20
    5d0c:	54fffb49 	b.ls	5c74 <mbedtls_mpi_shift_l+0x40>  // b.plast
/home/hei/Desktop/optee-qemu/optee_os/lib/libmbedtls/mbedtls/library/bignum.c:882 (discriminator 3)
    5d10:	f9400a65 	ldr	x5, [x19, #16]
    5d14:	d37ef684 	lsl	x4, x20, #2
/home/hei/Desktop/optee-qemu/optee_os/lib/libmbedtls/mbedtls/library/bignum.c:880 (discriminator 3)
    5d18:	91000694 	add	x20, x20, #0x1
/home/hei/Desktop/optee-qemu/optee_os/lib/libmbedtls/mbedtls/library/bignum.c:882 (discriminator 3)
    5d1c:	b86468a3 	ldr	w3, [x5, x4]
/home/hei/Desktop/optee-qemu/optee_os/lib/libmbedtls/mbedtls/library/bignum.c:883 (discriminator 3)
    5d20:	1ad62061 	lsl	w1, w3, w22
/home/hei/Desktop/optee-qemu/optee_os/lib/libmbedtls/mbedtls/library/bignum.c:884 (discriminator 3)
    5d24:	2a020021 	orr	w1, w1, w2
/home/hei/Desktop/optee-qemu/optee_os/lib/libmbedtls/mbedtls/library/bignum.c:882 (discriminator 3)
    5d28:	1ac02462 	lsr	w2, w3, w0
/home/hei/Desktop/optee-qemu/optee_os/lib/libmbedtls/mbedtls/library/bignum.c:884 (discriminator 3)
    5d2c:	b82468a1 	str	w1, [x5, x4]
/home/hei/Desktop/optee-qemu/optee_os/lib/libmbedtls/mbedtls/library/bignum.c:885 (discriminator 3)
    5d30:	17fffff6 	b	5d08 <mbedtls_mpi_shift_l+0xd4>

0000000000005d34 <mbedtls_mpi_shift_r>:
mbedtls_mpi_shift_r():
/home/hei/Desktop/optee-qemu/optee_os/lib/libmbedtls/mbedtls/library/bignum.c:906
    5d34:	f9400402 	ldr	x2, [x0, #8]
/home/hei/Desktop/optee-qemu/optee_os/lib/libmbedtls/mbedtls/library/bignum.c:903
    5d38:	d345fc25 	lsr	x5, x1, #5
/home/hei/Desktop/optee-qemu/optee_os/lib/libmbedtls/mbedtls/library/bignum.c:904
    5d3c:	92401023 	and	x3, x1, #0x1f
/home/hei/Desktop/optee-qemu/optee_os/lib/libmbedtls/mbedtls/library/bignum.c:906
    5d40:	eb05005f 	cmp	x2, x5
    5d44:	54000063 	b.cc	5d50 <mbedtls_mpi_shift_r+0x1c>  // b.lo, b.ul, b.last
/home/hei/Desktop/optee-qemu/optee_os/lib/libmbedtls/mbedtls/library/bignum.c:906 (discriminator 1)
    5d48:	54000081 	b.ne	5d58 <mbedtls_mpi_shift_r+0x24>  // b.any
/home/hei/Desktop/optee-qemu/optee_os/lib/libmbedtls/mbedtls/library/bignum.c:906 (discriminator 2)
    5d4c:	b4000503 	cbz	x3, 5dec <mbedtls_mpi_shift_r+0xb8>
/home/hei/Desktop/optee-qemu/optee_os/lib/libmbedtls/mbedtls/library/bignum.c:907
    5d50:	52800001 	mov	w1, #0x0                   	// #0
    5d54:	17fffede 	b	58cc <mbedtls_mpi_lset>
/home/hei/Desktop/optee-qemu/optee_os/lib/libmbedtls/mbedtls/library/bignum.c:912
    5d58:	f1007c3f 	cmp	x1, #0x1f
    5d5c:	54000109 	b.ls	5d7c <mbedtls_mpi_shift_r+0x48>  // b.plast
    5d60:	d37ef4a6 	lsl	x6, x5, #2
    5d64:	d2800004 	mov	x4, #0x0                   	// #0
/home/hei/Desktop/optee-qemu/optee_os/lib/libmbedtls/mbedtls/library/bignum.c:914 (discriminator 1)
    5d68:	cb050041 	sub	x1, x2, x5
    5d6c:	eb04003f 	cmp	x1, x4
    5d70:	540000c8 	b.hi	5d88 <mbedtls_mpi_shift_r+0x54>  // b.pmore
/home/hei/Desktop/optee-qemu/optee_os/lib/libmbedtls/mbedtls/library/bignum.c:917 (discriminator 1)
    5d74:	eb01005f 	cmp	x2, x1
    5d78:	54000148 	b.hi	5da0 <mbedtls_mpi_shift_r+0x6c>  // b.pmore
/home/hei/Desktop/optee-qemu/optee_os/lib/libmbedtls/mbedtls/library/bignum.c:924
    5d7c:	b5000303 	cbnz	x3, 5ddc <mbedtls_mpi_shift_r+0xa8>
/home/hei/Desktop/optee-qemu/optee_os/lib/libmbedtls/mbedtls/library/bignum.c:936
    5d80:	52800000 	mov	w0, #0x0                   	// #0
    5d84:	d65f03c0 	ret
/home/hei/Desktop/optee-qemu/optee_os/lib/libmbedtls/mbedtls/library/bignum.c:915 (discriminator 3)
    5d88:	f9400801 	ldr	x1, [x0, #16]
    5d8c:	b8666827 	ldr	w7, [x1, x6]
    5d90:	910010c6 	add	x6, x6, #0x4
    5d94:	b8247827 	str	w7, [x1, x4, lsl #2]
/home/hei/Desktop/optee-qemu/optee_os/lib/libmbedtls/mbedtls/library/bignum.c:914 (discriminator 3)
    5d98:	91000484 	add	x4, x4, #0x1
    5d9c:	17fffff3 	b	5d68 <mbedtls_mpi_shift_r+0x34>
/home/hei/Desktop/optee-qemu/optee_os/lib/libmbedtls/mbedtls/library/bignum.c:918 (discriminator 2)
    5da0:	f9400804 	ldr	x4, [x0, #16]
    5da4:	b821789f 	str	wzr, [x4, x1, lsl #2]
/home/hei/Desktop/optee-qemu/optee_os/lib/libmbedtls/mbedtls/library/bignum.c:917 (discriminator 2)
    5da8:	91000421 	add	x1, x1, #0x1
    5dac:	17fffff2 	b	5d74 <mbedtls_mpi_shift_r+0x40>
/home/hei/Desktop/optee-qemu/optee_os/lib/libmbedtls/mbedtls/library/bignum.c:928 (discriminator 3)
    5db0:	f9400808 	ldr	x8, [x0, #16]
    5db4:	d37ef447 	lsl	x7, x2, #2
    5db8:	b8676906 	ldr	w6, [x8, x7]
/home/hei/Desktop/optee-qemu/optee_os/lib/libmbedtls/mbedtls/library/bignum.c:929 (discriminator 3)
    5dbc:	1ac324c4 	lsr	w4, w6, w3
/home/hei/Desktop/optee-qemu/optee_os/lib/libmbedtls/mbedtls/library/bignum.c:930 (discriminator 3)
    5dc0:	2a050084 	orr	w4, w4, w5
/home/hei/Desktop/optee-qemu/optee_os/lib/libmbedtls/mbedtls/library/bignum.c:928 (discriminator 3)
    5dc4:	1ac120c5 	lsl	w5, w6, w1
/home/hei/Desktop/optee-qemu/optee_os/lib/libmbedtls/mbedtls/library/bignum.c:930 (discriminator 3)
    5dc8:	b8276904 	str	w4, [x8, x7]
/home/hei/Desktop/optee-qemu/optee_os/lib/libmbedtls/mbedtls/library/bignum.c:931 (discriminator 3)
    5dcc:	d1000442 	sub	x2, x2, #0x1
/home/hei/Desktop/optee-qemu/optee_os/lib/libmbedtls/mbedtls/library/bignum.c:926 (discriminator 1)
    5dd0:	b100045f 	cmn	x2, #0x1
    5dd4:	54fffee1 	b.ne	5db0 <mbedtls_mpi_shift_r+0x7c>  // b.any
    5dd8:	17ffffea 	b	5d80 <mbedtls_mpi_shift_r+0x4c>
/home/hei/Desktop/optee-qemu/optee_os/lib/libmbedtls/mbedtls/library/bignum.c:928
    5ddc:	52800401 	mov	w1, #0x20                  	// #32
/home/hei/Desktop/optee-qemu/optee_os/lib/libmbedtls/mbedtls/library/bignum.c:900
    5de0:	52800005 	mov	w5, #0x0                   	// #0
/home/hei/Desktop/optee-qemu/optee_os/lib/libmbedtls/mbedtls/library/bignum.c:928
    5de4:	4b030021 	sub	w1, w1, w3
    5de8:	17fffff9 	b	5dcc <mbedtls_mpi_shift_r+0x98>
/home/hei/Desktop/optee-qemu/optee_os/lib/libmbedtls/mbedtls/library/bignum.c:912
    5dec:	f1007c3f 	cmp	x1, #0x1f
    5df0:	54fffc89 	b.ls	5d80 <mbedtls_mpi_shift_r+0x4c>  // b.plast
    5df4:	d2800001 	mov	x1, #0x0                   	// #0
    5df8:	17ffffdf 	b	5d74 <mbedtls_mpi_shift_r+0x40>

0000000000005dfc <mbedtls_mpi_cmp_abs>:
mbedtls_mpi_cmp_abs():
/home/hei/Desktop/optee-qemu/optee_os/lib/libmbedtls/mbedtls/library/bignum.c:947
    5dfc:	f9400402 	ldr	x2, [x0, #8]
/home/hei/Desktop/optee-qemu/optee_os/lib/libmbedtls/mbedtls/library/bignum.c:947 (discriminator 1)
    5e00:	b50000c2 	cbnz	x2, 5e18 <mbedtls_mpi_cmp_abs+0x1c>
/home/hei/Desktop/optee-qemu/optee_os/lib/libmbedtls/mbedtls/library/bignum.c:951
    5e04:	f9400423 	ldr	x3, [x1, #8]
/home/hei/Desktop/optee-qemu/optee_os/lib/libmbedtls/mbedtls/library/bignum.c:951 (discriminator 1)
    5e08:	b5000143 	cbnz	x3, 5e30 <mbedtls_mpi_cmp_abs+0x34>
/home/hei/Desktop/optee-qemu/optee_os/lib/libmbedtls/mbedtls/library/bignum.c:955
    5e0c:	f100005f 	cmp	x2, #0x0
    5e10:	1a9f07e0 	cset	w0, ne  // ne = any
/home/hei/Desktop/optee-qemu/optee_os/lib/libmbedtls/mbedtls/library/bignum.c:968
    5e14:	d65f03c0 	ret
/home/hei/Desktop/optee-qemu/optee_os/lib/libmbedtls/mbedtls/library/bignum.c:948
    5e18:	f9400803 	ldr	x3, [x0, #16]
    5e1c:	8b020863 	add	x3, x3, x2, lsl #2
    5e20:	b85fc063 	ldur	w3, [x3, #-4]
    5e24:	35ffff03 	cbnz	w3, 5e04 <mbedtls_mpi_cmp_abs+0x8>
/home/hei/Desktop/optee-qemu/optee_os/lib/libmbedtls/mbedtls/library/bignum.c:947 (discriminator 2)
    5e28:	d1000442 	sub	x2, x2, #0x1
    5e2c:	17fffff5 	b	5e00 <mbedtls_mpi_cmp_abs+0x4>
/home/hei/Desktop/optee-qemu/optee_os/lib/libmbedtls/mbedtls/library/bignum.c:952
    5e30:	f9400824 	ldr	x4, [x1, #16]
    5e34:	8b030885 	add	x5, x4, x3, lsl #2
    5e38:	b85fc0a5 	ldur	w5, [x5, #-4]
    5e3c:	340000a5 	cbz	w5, 5e50 <mbedtls_mpi_cmp_abs+0x54>
/home/hei/Desktop/optee-qemu/optee_os/lib/libmbedtls/mbedtls/library/bignum.c:958
    5e40:	eb03005f 	cmp	x2, x3
    5e44:	540000a9 	b.ls	5e58 <mbedtls_mpi_cmp_abs+0x5c>  // b.plast
    5e48:	52800020 	mov	w0, #0x1                   	// #1
    5e4c:	17fffff2 	b	5e14 <mbedtls_mpi_cmp_abs+0x18>
/home/hei/Desktop/optee-qemu/optee_os/lib/libmbedtls/mbedtls/library/bignum.c:951 (discriminator 2)
    5e50:	d1000463 	sub	x3, x3, #0x1
    5e54:	17ffffed 	b	5e08 <mbedtls_mpi_cmp_abs+0xc>
/home/hei/Desktop/optee-qemu/optee_os/lib/libmbedtls/mbedtls/library/bignum.c:959
    5e58:	540001c3 	b.cc	5e90 <mbedtls_mpi_cmp_abs+0x94>  // b.lo, b.ul, b.last
    5e5c:	d1000442 	sub	x2, x2, #0x1
/home/hei/Desktop/optee-qemu/optee_os/lib/libmbedtls/mbedtls/library/bignum.c:961 (discriminator 1)
    5e60:	b100045f 	cmn	x2, #0x1
    5e64:	54000061 	b.ne	5e70 <mbedtls_mpi_cmp_abs+0x74>  // b.any
/home/hei/Desktop/optee-qemu/optee_os/lib/libmbedtls/mbedtls/library/bignum.c:956
    5e68:	52800000 	mov	w0, #0x0                   	// #0
    5e6c:	17ffffea 	b	5e14 <mbedtls_mpi_cmp_abs+0x18>
/home/hei/Desktop/optee-qemu/optee_os/lib/libmbedtls/mbedtls/library/bignum.c:963
    5e70:	f9400803 	ldr	x3, [x0, #16]
    5e74:	d37ef441 	lsl	x1, x2, #2
    5e78:	b8616863 	ldr	w3, [x3, x1]
    5e7c:	b8616881 	ldr	w1, [x4, x1]
    5e80:	6b01007f 	cmp	w3, w1
    5e84:	54fffe28 	b.hi	5e48 <mbedtls_mpi_cmp_abs+0x4c>  // b.pmore
/home/hei/Desktop/optee-qemu/optee_os/lib/libmbedtls/mbedtls/library/bignum.c:964
    5e88:	d1000442 	sub	x2, x2, #0x1
    5e8c:	54fffea2 	b.cs	5e60 <mbedtls_mpi_cmp_abs+0x64>  // b.hs, b.nlast
/home/hei/Desktop/optee-qemu/optee_os/lib/libmbedtls/mbedtls/library/bignum.c:959
    5e90:	12800000 	mov	w0, #0xffffffff            	// #-1
    5e94:	17ffffe0 	b	5e14 <mbedtls_mpi_cmp_abs+0x18>

0000000000005e98 <mbedtls_mpi_cmp_mpi>:
mbedtls_mpi_cmp_mpi():
/home/hei/Desktop/optee-qemu/optee_os/lib/libmbedtls/mbedtls/library/bignum.c:979
    5e98:	f9400403 	ldr	x3, [x0, #8]
/home/hei/Desktop/optee-qemu/optee_os/lib/libmbedtls/mbedtls/library/bignum.c:979 (discriminator 1)
    5e9c:	b5000103 	cbnz	x3, 5ebc <mbedtls_mpi_cmp_mpi+0x24>
/home/hei/Desktop/optee-qemu/optee_os/lib/libmbedtls/mbedtls/library/bignum.c:983
    5ea0:	f9400422 	ldr	x2, [x1, #8]
/home/hei/Desktop/optee-qemu/optee_os/lib/libmbedtls/mbedtls/library/bignum.c:983 (discriminator 1)
    5ea4:	b5000182 	cbnz	x2, 5ed4 <mbedtls_mpi_cmp_mpi+0x3c>
/home/hei/Desktop/optee-qemu/optee_os/lib/libmbedtls/mbedtls/library/bignum.c:987
    5ea8:	b4000603 	cbz	x3, 5f68 <mbedtls_mpi_cmp_mpi+0xd0>
/home/hei/Desktop/optee-qemu/optee_os/lib/libmbedtls/mbedtls/library/bignum.c:990
    5eac:	eb02007f 	cmp	x3, x2
    5eb0:	540001e9 	b.ls	5eec <mbedtls_mpi_cmp_mpi+0x54>  // b.plast
/home/hei/Desktop/optee-qemu/optee_os/lib/libmbedtls/mbedtls/library/bignum.c:990 (discriminator 1)
    5eb4:	79c00000 	ldrsh	w0, [x0]
/home/hei/Desktop/optee-qemu/optee_os/lib/libmbedtls/mbedtls/library/bignum.c:1003
    5eb8:	d65f03c0 	ret
/home/hei/Desktop/optee-qemu/optee_os/lib/libmbedtls/mbedtls/library/bignum.c:980
    5ebc:	f9400802 	ldr	x2, [x0, #16]
    5ec0:	8b030842 	add	x2, x2, x3, lsl #2
    5ec4:	b85fc042 	ldur	w2, [x2, #-4]
    5ec8:	35fffec2 	cbnz	w2, 5ea0 <mbedtls_mpi_cmp_mpi+0x8>
/home/hei/Desktop/optee-qemu/optee_os/lib/libmbedtls/mbedtls/library/bignum.c:979 (discriminator 2)
    5ecc:	d1000463 	sub	x3, x3, #0x1
    5ed0:	17fffff3 	b	5e9c <mbedtls_mpi_cmp_mpi+0x4>
/home/hei/Desktop/optee-qemu/optee_os/lib/libmbedtls/mbedtls/library/bignum.c:984
    5ed4:	f9400824 	ldr	x4, [x1, #16]
    5ed8:	8b020884 	add	x4, x4, x2, lsl #2
    5edc:	b85fc084 	ldur	w4, [x4, #-4]
    5ee0:	35fffe64 	cbnz	w4, 5eac <mbedtls_mpi_cmp_mpi+0x14>
/home/hei/Desktop/optee-qemu/optee_os/lib/libmbedtls/mbedtls/library/bignum.c:983 (discriminator 2)
    5ee4:	d1000442 	sub	x2, x2, #0x1
    5ee8:	17ffffef 	b	5ea4 <mbedtls_mpi_cmp_mpi+0xc>
/home/hei/Desktop/optee-qemu/optee_os/lib/libmbedtls/mbedtls/library/bignum.c:991
    5eec:	79c00024 	ldrsh	w4, [x1]
    5ef0:	54000062 	b.cs	5efc <mbedtls_mpi_cmp_mpi+0x64>  // b.hs, b.nlast
/home/hei/Desktop/optee-qemu/optee_os/lib/libmbedtls/mbedtls/library/bignum.c:991 (discriminator 1)
    5ef4:	4b0403e0 	neg	w0, w4
    5ef8:	17fffff0 	b	5eb8 <mbedtls_mpi_cmp_mpi+0x20>
/home/hei/Desktop/optee-qemu/optee_os/lib/libmbedtls/mbedtls/library/bignum.c:993
    5efc:	79c00002 	ldrsh	w2, [x0]
    5f00:	7100005f 	cmp	w2, #0x0
    5f04:	5400008d 	b.le	5f14 <mbedtls_mpi_cmp_mpi+0x7c>
/home/hei/Desktop/optee-qemu/optee_os/lib/libmbedtls/mbedtls/library/bignum.c:993 (discriminator 1)
    5f08:	36f802a4 	tbz	w4, #31, 5f5c <mbedtls_mpi_cmp_mpi+0xc4>
/home/hei/Desktop/optee-qemu/optee_os/lib/libmbedtls/mbedtls/library/bignum.c:993
    5f0c:	52800020 	mov	w0, #0x1                   	// #1
    5f10:	17ffffea 	b	5eb8 <mbedtls_mpi_cmp_mpi+0x20>
/home/hei/Desktop/optee-qemu/optee_os/lib/libmbedtls/mbedtls/library/bignum.c:994
    5f14:	7100009f 	cmp	w4, #0x0
    5f18:	5400022d 	b.le	5f5c <mbedtls_mpi_cmp_mpi+0xc4>
/home/hei/Desktop/optee-qemu/optee_os/lib/libmbedtls/mbedtls/library/bignum.c:994 (discriminator 1)
    5f1c:	34000202 	cbz	w2, 5f5c <mbedtls_mpi_cmp_mpi+0xc4>
/home/hei/Desktop/optee-qemu/optee_os/lib/libmbedtls/mbedtls/library/bignum.c:994
    5f20:	12800000 	mov	w0, #0xffffffff            	// #-1
    5f24:	17ffffe5 	b	5eb8 <mbedtls_mpi_cmp_mpi+0x20>
/home/hei/Desktop/optee-qemu/optee_os/lib/libmbedtls/mbedtls/library/bignum.c:998
    5f28:	f9400805 	ldr	x5, [x0, #16]
    5f2c:	d37ef464 	lsl	x4, x3, #2
    5f30:	f9400826 	ldr	x6, [x1, #16]
    5f34:	b86468a5 	ldr	w5, [x5, x4]
    5f38:	b86468c4 	ldr	w4, [x6, x4]
    5f3c:	6b0400bf 	cmp	w5, w4
    5f40:	54000069 	b.ls	5f4c <mbedtls_mpi_cmp_mpi+0xb4>  // b.plast
/home/hei/Desktop/optee-qemu/optee_os/lib/libmbedtls/mbedtls/library/bignum.c:998 (discriminator 1)
    5f44:	2a0203e0 	mov	w0, w2
    5f48:	17ffffdc 	b	5eb8 <mbedtls_mpi_cmp_mpi+0x20>
/home/hei/Desktop/optee-qemu/optee_os/lib/libmbedtls/mbedtls/library/bignum.c:999
    5f4c:	d1000463 	sub	x3, x3, #0x1
    5f50:	54000082 	b.cs	5f60 <mbedtls_mpi_cmp_mpi+0xc8>  // b.hs, b.nlast
/home/hei/Desktop/optee-qemu/optee_os/lib/libmbedtls/mbedtls/library/bignum.c:999 (discriminator 1)
    5f54:	4b0203e0 	neg	w0, w2
    5f58:	17ffffd8 	b	5eb8 <mbedtls_mpi_cmp_mpi+0x20>
    5f5c:	d1000463 	sub	x3, x3, #0x1
/home/hei/Desktop/optee-qemu/optee_os/lib/libmbedtls/mbedtls/library/bignum.c:996 (discriminator 1)
    5f60:	b100047f 	cmn	x3, #0x1
    5f64:	54fffe21 	b.ne	5f28 <mbedtls_mpi_cmp_mpi+0x90>  // b.any
/home/hei/Desktop/optee-qemu/optee_os/lib/libmbedtls/mbedtls/library/bignum.c:988
    5f68:	52800000 	mov	w0, #0x0                   	// #0
    5f6c:	17ffffd3 	b	5eb8 <mbedtls_mpi_cmp_mpi+0x20>

0000000000005f70 <mbedtls_mpi_cmp_int>:
mbedtls_mpi_cmp_int():
/home/hei/Desktop/optee-qemu/optee_os/lib/libmbedtls/mbedtls/library/bignum.c:1009
    5f70:	a9bd7bfd 	stp	x29, x30, [sp, #-48]!
/home/hei/Desktop/optee-qemu/optee_os/lib/libmbedtls/mbedtls/library/bignum.c:1014
    5f74:	7100003f 	cmp	w1, #0x0
    5f78:	5a81a422 	cneg	w2, w1, lt  // lt = tstop
/home/hei/Desktop/optee-qemu/optee_os/lib/libmbedtls/mbedtls/library/bignum.c:1009
    5f7c:	910003fd 	mov	x29, sp
/home/hei/Desktop/optee-qemu/optee_os/lib/libmbedtls/mbedtls/library/bignum.c:1014
    5f80:	b90013e2 	str	w2, [sp, #16]
/home/hei/Desktop/optee-qemu/optee_os/lib/libmbedtls/mbedtls/library/bignum.c:1015
    5f84:	52800022 	mov	w2, #0x1                   	// #1
    5f88:	5a82a442 	cneg	w2, w2, lt  // lt = tstop
/home/hei/Desktop/optee-qemu/optee_os/lib/libmbedtls/mbedtls/library/bignum.c:1016
    5f8c:	d2800021 	mov	x1, #0x1                   	// #1
    5f90:	f90013e1 	str	x1, [sp, #32]
/home/hei/Desktop/optee-qemu/optee_os/lib/libmbedtls/mbedtls/library/bignum.c:1017
    5f94:	910043e1 	add	x1, sp, #0x10
/home/hei/Desktop/optee-qemu/optee_os/lib/libmbedtls/mbedtls/library/bignum.c:1015
    5f98:	790033e2 	strh	w2, [sp, #24]
/home/hei/Desktop/optee-qemu/optee_os/lib/libmbedtls/mbedtls/library/bignum.c:1017
    5f9c:	f90017e1 	str	x1, [sp, #40]
/home/hei/Desktop/optee-qemu/optee_os/lib/libmbedtls/mbedtls/library/bignum.c:1019
    5fa0:	910063e1 	add	x1, sp, #0x18
    5fa4:	97ffffbd 	bl	5e98 <mbedtls_mpi_cmp_mpi>
/home/hei/Desktop/optee-qemu/optee_os/lib/libmbedtls/mbedtls/library/bignum.c:1020
    5fa8:	a8c37bfd 	ldp	x29, x30, [sp], #48
    5fac:	d65f03c0 	ret

0000000000005fb0 <mbedtls_mpi_add_abs>:
mbedtls_mpi_add_abs():
/home/hei/Desktop/optee-qemu/optee_os/lib/libmbedtls/mbedtls/library/bignum.c:1026
    5fb0:	a9bc7bfd 	stp	x29, x30, [sp, #-64]!
/home/hei/Desktop/optee-qemu/optee_os/lib/libmbedtls/mbedtls/library/bignum.c:1034
    5fb4:	eb02001f 	cmp	x0, x2
/home/hei/Desktop/optee-qemu/optee_os/lib/libmbedtls/mbedtls/library/bignum.c:1026
    5fb8:	910003fd 	mov	x29, sp
    5fbc:	a90153f3 	stp	x19, x20, [sp, #16]
    5fc0:	aa0103f4 	mov	x20, x1
    5fc4:	a9025bf5 	stp	x21, x22, [sp, #32]
    5fc8:	aa0003f5 	mov	x21, x0
    5fcc:	f9001bf7 	str	x23, [sp, #48]
/home/hei/Desktop/optee-qemu/optee_os/lib/libmbedtls/mbedtls/library/bignum.c:1034
    5fd0:	540000a0 	b.eq	5fe4 <mbedtls_mpi_add_abs+0x34>  // b.none
    5fd4:	aa0203f3 	mov	x19, x2
/home/hei/Desktop/optee-qemu/optee_os/lib/libmbedtls/mbedtls/library/bignum.c:1039
    5fd8:	eb01001f 	cmp	x0, x1
    5fdc:	54000481 	b.ne	606c <mbedtls_mpi_add_abs+0xbc>  // b.any
/home/hei/Desktop/optee-qemu/optee_os/lib/libmbedtls/mbedtls/library/bignum.c:1026
    5fe0:	aa1303f4 	mov	x20, x19
/home/hei/Desktop/optee-qemu/optee_os/lib/libmbedtls/mbedtls/library/bignum.c:1047
    5fe4:	f9400693 	ldr	x19, [x20, #8]
/home/hei/Desktop/optee-qemu/optee_os/lib/libmbedtls/mbedtls/library/bignum.c:1045
    5fe8:	52800020 	mov	w0, #0x1                   	// #1
    5fec:	790002a0 	strh	w0, [x21]
/home/hei/Desktop/optee-qemu/optee_os/lib/libmbedtls/mbedtls/library/bignum.c:1047 (discriminator 1)
    5ff0:	b5000513 	cbnz	x19, 6090 <mbedtls_mpi_add_abs+0xe0>
/home/hei/Desktop/optee-qemu/optee_os/lib/libmbedtls/mbedtls/library/bignum.c:1051
    5ff4:	aa1303e1 	mov	x1, x19
    5ff8:	aa1503e0 	mov	x0, x21
    5ffc:	97fffd00 	bl	53fc <mbedtls_mpi_grow>
    6000:	2a0003f6 	mov	w22, w0
    6004:	350003a0 	cbnz	w0, 6078 <mbedtls_mpi_add_abs+0xc8>
/home/hei/Desktop/optee-qemu/optee_os/lib/libmbedtls/mbedtls/library/bignum.c:1053
    6008:	f9400aa0 	ldr	x0, [x21, #16]
/home/hei/Desktop/optee-qemu/optee_os/lib/libmbedtls/mbedtls/library/bignum.c:1058
    600c:	d2800002 	mov	x2, #0x0                   	// #0
/home/hei/Desktop/optee-qemu/optee_os/lib/libmbedtls/mbedtls/library/bignum.c:1053
    6010:	f9400a84 	ldr	x4, [x20, #16]
    6014:	52800014 	mov	w20, #0x0                   	// #0
/home/hei/Desktop/optee-qemu/optee_os/lib/libmbedtls/mbedtls/library/bignum.c:1058 (discriminator 1)
    6018:	eb02027f 	cmp	x19, x2
    601c:	54000461 	b.ne	60a8 <mbedtls_mpi_add_abs+0xf8>  // b.any
    6020:	8b130800 	add	x0, x0, x19, lsl #2
/home/hei/Desktop/optee-qemu/optee_os/lib/libmbedtls/mbedtls/library/bignum.c:1065
    6024:	340002b4 	cbz	w20, 6078 <mbedtls_mpi_add_abs+0xc8>
/home/hei/Desktop/optee-qemu/optee_os/lib/libmbedtls/mbedtls/library/bignum.c:1067
    6028:	f94006a1 	ldr	x1, [x21, #8]
    602c:	91000677 	add	x23, x19, #0x1
    6030:	eb13003f 	cmp	x1, x19
    6034:	540000e8 	b.hi	6050 <mbedtls_mpi_add_abs+0xa0>  // b.pmore
/home/hei/Desktop/optee-qemu/optee_os/lib/libmbedtls/mbedtls/library/bignum.c:1069
    6038:	aa1703e1 	mov	x1, x23
    603c:	aa1503e0 	mov	x0, x21
    6040:	97fffcef 	bl	53fc <mbedtls_mpi_grow>
    6044:	35000480 	cbnz	w0, 60d4 <mbedtls_mpi_add_abs+0x124>
/home/hei/Desktop/optee-qemu/optee_os/lib/libmbedtls/mbedtls/library/bignum.c:1070
    6048:	f9400aa0 	ldr	x0, [x21, #16]
    604c:	8b130800 	add	x0, x0, x19, lsl #2
/home/hei/Desktop/optee-qemu/optee_os/lib/libmbedtls/mbedtls/library/bignum.c:1073
    6050:	b9400001 	ldr	w1, [x0]
    6054:	aa1703f3 	mov	x19, x23
    6058:	0b010281 	add	w1, w20, w1
    605c:	b8004401 	str	w1, [x0], #4
    6060:	6b14003f 	cmp	w1, w20
    6064:	1a9f27f4 	cset	w20, cc  // cc = lo, ul, last
    6068:	17ffffef 	b	6024 <mbedtls_mpi_add_abs+0x74>
/home/hei/Desktop/optee-qemu/optee_os/lib/libmbedtls/mbedtls/library/bignum.c:1040
    606c:	97fffd6a 	bl	5614 <mbedtls_mpi_copy>
    6070:	2a0003f6 	mov	w22, w0
    6074:	34fffb60 	cbz	w0, 5fe0 <mbedtls_mpi_add_abs+0x30>
/home/hei/Desktop/optee-qemu/optee_os/lib/libmbedtls/mbedtls/library/bignum.c:1079
    6078:	2a1603e0 	mov	w0, w22
    607c:	a94153f3 	ldp	x19, x20, [sp, #16]
    6080:	a9425bf5 	ldp	x21, x22, [sp, #32]
    6084:	f9401bf7 	ldr	x23, [sp, #48]
    6088:	a8c47bfd 	ldp	x29, x30, [sp], #64
    608c:	d65f03c0 	ret
/home/hei/Desktop/optee-qemu/optee_os/lib/libmbedtls/mbedtls/library/bignum.c:1048
    6090:	f9400a80 	ldr	x0, [x20, #16]
    6094:	8b130800 	add	x0, x0, x19, lsl #2
    6098:	b85fc000 	ldur	w0, [x0, #-4]
    609c:	35fffac0 	cbnz	w0, 5ff4 <mbedtls_mpi_add_abs+0x44>
/home/hei/Desktop/optee-qemu/optee_os/lib/libmbedtls/mbedtls/library/bignum.c:1047 (discriminator 2)
    60a0:	d1000673 	sub	x19, x19, #0x1
    60a4:	17ffffd3 	b	5ff0 <mbedtls_mpi_add_abs+0x40>
/home/hei/Desktop/optee-qemu/optee_os/lib/libmbedtls/mbedtls/library/bignum.c:1061 (discriminator 3)
    60a8:	b8627801 	ldr	w1, [x0, x2, lsl #2]
/home/hei/Desktop/optee-qemu/optee_os/lib/libmbedtls/mbedtls/library/bignum.c:1060 (discriminator 3)
    60ac:	b8627883 	ldr	w3, [x4, x2, lsl #2]
/home/hei/Desktop/optee-qemu/optee_os/lib/libmbedtls/mbedtls/library/bignum.c:1061 (discriminator 3)
    60b0:	0b010281 	add	w1, w20, w1
    60b4:	6b14003f 	cmp	w1, w20
/home/hei/Desktop/optee-qemu/optee_os/lib/libmbedtls/mbedtls/library/bignum.c:1062 (discriminator 3)
    60b8:	0b030021 	add	w1, w1, w3
/home/hei/Desktop/optee-qemu/optee_os/lib/libmbedtls/mbedtls/library/bignum.c:1061 (discriminator 3)
    60bc:	1a9f27f4 	cset	w20, cc  // cc = lo, ul, last
/home/hei/Desktop/optee-qemu/optee_os/lib/libmbedtls/mbedtls/library/bignum.c:1062 (discriminator 3)
    60c0:	6b03003f 	cmp	w1, w3
    60c4:	1a942694 	cinc	w20, w20, cc  // cc = lo, ul, last
    60c8:	b8227801 	str	w1, [x0, x2, lsl #2]
/home/hei/Desktop/optee-qemu/optee_os/lib/libmbedtls/mbedtls/library/bignum.c:1058 (discriminator 3)
    60cc:	91000442 	add	x2, x2, #0x1
    60d0:	17ffffd2 	b	6018 <mbedtls_mpi_add_abs+0x68>
/home/hei/Desktop/optee-qemu/optee_os/lib/libmbedtls/mbedtls/library/bignum.c:1069
    60d4:	2a0003f6 	mov	w22, w0
/home/hei/Desktop/optee-qemu/optee_os/lib/libmbedtls/mbedtls/library/bignum.c:1078
    60d8:	17ffffe8 	b	6078 <mbedtls_mpi_add_abs+0xc8>

00000000000060dc <mbedtls_mpi_sub_abs>:
mbedtls_mpi_sub_abs():
/home/hei/Desktop/optee-qemu/optee_os/lib/libmbedtls/mbedtls/library/bignum.c:1106
    60dc:	a9ba7bfd 	stp	x29, x30, [sp, #-96]!
    60e0:	910003fd 	mov	x29, sp
    60e4:	f9001bf7 	str	x23, [sp, #48]
    60e8:	aa0103f7 	mov	x23, x1
/home/hei/Desktop/optee-qemu/optee_os/lib/libmbedtls/mbedtls/library/bignum.c:1114
    60ec:	aa0203e1 	mov	x1, x2
/home/hei/Desktop/optee-qemu/optee_os/lib/libmbedtls/mbedtls/library/bignum.c:1106
    60f0:	a90153f3 	stp	x19, x20, [sp, #16]
    60f4:	aa0203f4 	mov	x20, x2
    60f8:	a9025bf5 	stp	x21, x22, [sp, #32]
    60fc:	aa0003f5 	mov	x21, x0
/home/hei/Desktop/optee-qemu/optee_os/lib/libmbedtls/mbedtls/library/bignum.c:1114
    6100:	aa1703e0 	mov	x0, x23
    6104:	97ffff3e 	bl	5dfc <mbedtls_mpi_cmp_abs>
    6108:	37f80500 	tbnz	w0, #31, 61a8 <mbedtls_mpi_sub_abs+0xcc>
/home/hei/Desktop/optee-qemu/optee_os/lib/libmbedtls/mbedtls/library/bignum.c:1117
    610c:	910123f6 	add	x22, sp, #0x48
    6110:	aa1603e0 	mov	x0, x22
    6114:	97fffc95 	bl	5368 <mbedtls_mpi_init_mempool>
/home/hei/Desktop/optee-qemu/optee_os/lib/libmbedtls/mbedtls/library/bignum.c:1119
    6118:	eb15029f 	cmp	x20, x21
    611c:	540000e1 	b.ne	6138 <mbedtls_mpi_sub_abs+0x5c>  // b.any
/home/hei/Desktop/optee-qemu/optee_os/lib/libmbedtls/mbedtls/library/bignum.c:1121
    6120:	aa1403e1 	mov	x1, x20
    6124:	aa1603e0 	mov	x0, x22
    6128:	97fffd3b 	bl	5614 <mbedtls_mpi_copy>
    612c:	2a0003f3 	mov	w19, w0
    6130:	35000220 	cbnz	w0, 6174 <mbedtls_mpi_sub_abs+0x98>
/home/hei/Desktop/optee-qemu/optee_os/lib/libmbedtls/mbedtls/library/bignum.c:1122
    6134:	aa1603f4 	mov	x20, x22
/home/hei/Desktop/optee-qemu/optee_os/lib/libmbedtls/mbedtls/library/bignum.c:1125
    6138:	eb1502ff 	cmp	x23, x21
    613c:	54000121 	b.ne	6160 <mbedtls_mpi_sub_abs+0x84>  // b.any
/home/hei/Desktop/optee-qemu/optee_os/lib/libmbedtls/mbedtls/library/bignum.c:1131
    6140:	52800020 	mov	w0, #0x1                   	// #1
    6144:	790002a0 	strh	w0, [x21]
/home/hei/Desktop/optee-qemu/optee_os/lib/libmbedtls/mbedtls/library/bignum.c:1135
    6148:	a9408680 	ldp	x0, x1, [x20, #8]
/home/hei/Desktop/optee-qemu/optee_os/lib/libmbedtls/mbedtls/library/bignum.c:1135 (discriminator 1)
    614c:	b5000240 	cbnz	x0, 6194 <mbedtls_mpi_sub_abs+0xb8>
/home/hei/Desktop/optee-qemu/optee_os/lib/libmbedtls/mbedtls/library/bignum.c:1139
    6150:	f9400aa2 	ldr	x2, [x21, #16]
/home/hei/Desktop/optee-qemu/optee_os/lib/libmbedtls/mbedtls/library/bignum.c:1133
    6154:	52800013 	mov	w19, #0x0                   	// #0
/home/hei/Desktop/optee-qemu/optee_os/lib/libmbedtls/mbedtls/library/bignum.c:1139
    6158:	97fffb33 	bl	4e24 <mpi_sub_hlp>
    615c:	14000006 	b	6174 <mbedtls_mpi_sub_abs+0x98>
/home/hei/Desktop/optee-qemu/optee_os/lib/libmbedtls/mbedtls/library/bignum.c:1126
    6160:	aa1703e1 	mov	x1, x23
    6164:	aa1503e0 	mov	x0, x21
    6168:	97fffd2b 	bl	5614 <mbedtls_mpi_copy>
    616c:	2a0003f3 	mov	w19, w0
    6170:	34fffe80 	cbz	w0, 6140 <mbedtls_mpi_sub_abs+0x64>
/home/hei/Desktop/optee-qemu/optee_os/lib/libmbedtls/mbedtls/library/bignum.c:1143
    6174:	aa1603e0 	mov	x0, x22
    6178:	97fffc86 	bl	5390 <mbedtls_mpi_free>
/home/hei/Desktop/optee-qemu/optee_os/lib/libmbedtls/mbedtls/library/bignum.c:1146
    617c:	2a1303e0 	mov	w0, w19
    6180:	a94153f3 	ldp	x19, x20, [sp, #16]
    6184:	a9425bf5 	ldp	x21, x22, [sp, #32]
    6188:	f9401bf7 	ldr	x23, [sp, #48]
    618c:	a8c67bfd 	ldp	x29, x30, [sp], #96
    6190:	d65f03c0 	ret
/home/hei/Desktop/optee-qemu/optee_os/lib/libmbedtls/mbedtls/library/bignum.c:1136
    6194:	8b000822 	add	x2, x1, x0, lsl #2
    6198:	b85fc042 	ldur	w2, [x2, #-4]
    619c:	35fffda2 	cbnz	w2, 6150 <mbedtls_mpi_sub_abs+0x74>
/home/hei/Desktop/optee-qemu/optee_os/lib/libmbedtls/mbedtls/library/bignum.c:1135 (discriminator 2)
    61a0:	d1000400 	sub	x0, x0, #0x1
    61a4:	17ffffea 	b	614c <mbedtls_mpi_sub_abs+0x70>
/home/hei/Desktop/optee-qemu/optee_os/lib/libmbedtls/mbedtls/library/bignum.c:1115
    61a8:	12800133 	mov	w19, #0xfffffff6            	// #-10
    61ac:	17fffff4 	b	617c <mbedtls_mpi_sub_abs+0xa0>

00000000000061b0 <mbedtls_mpi_add_mpi>:
mbedtls_mpi_add_mpi():
/home/hei/Desktop/optee-qemu/optee_os/lib/libmbedtls/mbedtls/library/bignum.c:1152
    61b0:	a9bd7bfd 	stp	x29, x30, [sp, #-48]!
    61b4:	910003fd 	mov	x29, sp
/home/hei/Desktop/optee-qemu/optee_os/lib/libmbedtls/mbedtls/library/bignum.c:1159
    61b8:	79c00043 	ldrsh	w3, [x2]
/home/hei/Desktop/optee-qemu/optee_os/lib/libmbedtls/mbedtls/library/bignum.c:1152
    61bc:	a90153f3 	stp	x19, x20, [sp, #16]
    61c0:	aa0003f4 	mov	x20, x0
/home/hei/Desktop/optee-qemu/optee_os/lib/libmbedtls/mbedtls/library/bignum.c:1158
    61c4:	79c00033 	ldrsh	w19, [x1]
/home/hei/Desktop/optee-qemu/optee_os/lib/libmbedtls/mbedtls/library/bignum.c:1152
    61c8:	a9025bf5 	stp	x21, x22, [sp, #32]
/home/hei/Desktop/optee-qemu/optee_os/lib/libmbedtls/mbedtls/library/bignum.c:1159
    61cc:	1b137c63 	mul	w3, w3, w19
    61d0:	36f80303 	tbz	w3, #31, 6230 <mbedtls_mpi_add_mpi+0x80>
    61d4:	aa0103f6 	mov	x22, x1
    61d8:	aa0203f5 	mov	x21, x2
/home/hei/Desktop/optee-qemu/optee_os/lib/libmbedtls/mbedtls/library/bignum.c:1161
    61dc:	aa0203e1 	mov	x1, x2
    61e0:	aa1603e0 	mov	x0, x22
    61e4:	97ffff06 	bl	5dfc <mbedtls_mpi_cmp_abs>
    61e8:	37f80140 	tbnz	w0, #31, 6210 <mbedtls_mpi_add_mpi+0x60>
/home/hei/Desktop/optee-qemu/optee_os/lib/libmbedtls/mbedtls/library/bignum.c:1163
    61ec:	aa1503e2 	mov	x2, x21
    61f0:	aa1603e1 	mov	x1, x22
    61f4:	aa1403e0 	mov	x0, x20
    61f8:	97ffffb9 	bl	60dc <mbedtls_mpi_sub_abs>
/home/hei/Desktop/optee-qemu/optee_os/lib/libmbedtls/mbedtls/library/bignum.c:1174
    61fc:	34000160 	cbz	w0, 6228 <mbedtls_mpi_add_mpi+0x78>
/home/hei/Desktop/optee-qemu/optee_os/lib/libmbedtls/mbedtls/library/bignum.c:1181
    6200:	a94153f3 	ldp	x19, x20, [sp, #16]
    6204:	a9425bf5 	ldp	x21, x22, [sp, #32]
    6208:	a8c37bfd 	ldp	x29, x30, [sp], #48
    620c:	d65f03c0 	ret
/home/hei/Desktop/optee-qemu/optee_os/lib/libmbedtls/mbedtls/library/bignum.c:1168
    6210:	aa1603e2 	mov	x2, x22
    6214:	aa1503e1 	mov	x1, x21
    6218:	aa1403e0 	mov	x0, x20
    621c:	97ffffb0 	bl	60dc <mbedtls_mpi_sub_abs>
    6220:	35ffff00 	cbnz	w0, 6200 <mbedtls_mpi_add_mpi+0x50>
/home/hei/Desktop/optee-qemu/optee_os/lib/libmbedtls/mbedtls/library/bignum.c:1169
    6224:	4b1303f3 	neg	w19, w19
/home/hei/Desktop/optee-qemu/optee_os/lib/libmbedtls/mbedtls/library/bignum.c:1175
    6228:	79000293 	strh	w19, [x20]
/home/hei/Desktop/optee-qemu/optee_os/lib/libmbedtls/mbedtls/library/bignum.c:1180
    622c:	17fffff5 	b	6200 <mbedtls_mpi_add_mpi+0x50>
/home/hei/Desktop/optee-qemu/optee_os/lib/libmbedtls/mbedtls/library/bignum.c:1174
    6230:	97ffff60 	bl	5fb0 <mbedtls_mpi_add_abs>
    6234:	17fffff2 	b	61fc <mbedtls_mpi_add_mpi+0x4c>

0000000000006238 <mbedtls_mpi_sub_mpi>:
mbedtls_mpi_sub_mpi():
/home/hei/Desktop/optee-qemu/optee_os/lib/libmbedtls/mbedtls/library/bignum.c:1187
    6238:	a9bd7bfd 	stp	x29, x30, [sp, #-48]!
    623c:	910003fd 	mov	x29, sp
/home/hei/Desktop/optee-qemu/optee_os/lib/libmbedtls/mbedtls/library/bignum.c:1194
    6240:	79c00043 	ldrsh	w3, [x2]
/home/hei/Desktop/optee-qemu/optee_os/lib/libmbedtls/mbedtls/library/bignum.c:1187
    6244:	a90153f3 	stp	x19, x20, [sp, #16]
    6248:	aa0003f4 	mov	x20, x0
/home/hei/Desktop/optee-qemu/optee_os/lib/libmbedtls/mbedtls/library/bignum.c:1193
    624c:	79c00033 	ldrsh	w19, [x1]
/home/hei/Desktop/optee-qemu/optee_os/lib/libmbedtls/mbedtls/library/bignum.c:1187
    6250:	a9025bf5 	stp	x21, x22, [sp, #32]
/home/hei/Desktop/optee-qemu/optee_os/lib/libmbedtls/mbedtls/library/bignum.c:1194
    6254:	1b137c63 	mul	w3, w3, w19
    6258:	7100007f 	cmp	w3, #0x0
    625c:	5400030d 	b.le	62bc <mbedtls_mpi_sub_mpi+0x84>
    6260:	aa0103f6 	mov	x22, x1
    6264:	aa0203f5 	mov	x21, x2
/home/hei/Desktop/optee-qemu/optee_os/lib/libmbedtls/mbedtls/library/bignum.c:1196
    6268:	aa0203e1 	mov	x1, x2
    626c:	aa1603e0 	mov	x0, x22
    6270:	97fffee3 	bl	5dfc <mbedtls_mpi_cmp_abs>
    6274:	37f80140 	tbnz	w0, #31, 629c <mbedtls_mpi_sub_mpi+0x64>
/home/hei/Desktop/optee-qemu/optee_os/lib/libmbedtls/mbedtls/library/bignum.c:1198
    6278:	aa1503e2 	mov	x2, x21
    627c:	aa1603e1 	mov	x1, x22
    6280:	aa1403e0 	mov	x0, x20
    6284:	97ffff96 	bl	60dc <mbedtls_mpi_sub_abs>
/home/hei/Desktop/optee-qemu/optee_os/lib/libmbedtls/mbedtls/library/bignum.c:1209
    6288:	34000160 	cbz	w0, 62b4 <mbedtls_mpi_sub_mpi+0x7c>
/home/hei/Desktop/optee-qemu/optee_os/lib/libmbedtls/mbedtls/library/bignum.c:1216
    628c:	a94153f3 	ldp	x19, x20, [sp, #16]
    6290:	a9425bf5 	ldp	x21, x22, [sp, #32]
    6294:	a8c37bfd 	ldp	x29, x30, [sp], #48
    6298:	d65f03c0 	ret
/home/hei/Desktop/optee-qemu/optee_os/lib/libmbedtls/mbedtls/library/bignum.c:1203
    629c:	aa1603e2 	mov	x2, x22
    62a0:	aa1503e1 	mov	x1, x21
    62a4:	aa1403e0 	mov	x0, x20
    62a8:	97ffff8d 	bl	60dc <mbedtls_mpi_sub_abs>
    62ac:	35ffff00 	cbnz	w0, 628c <mbedtls_mpi_sub_mpi+0x54>
/home/hei/Desktop/optee-qemu/optee_os/lib/libmbedtls/mbedtls/library/bignum.c:1204
    62b0:	4b1303f3 	neg	w19, w19
/home/hei/Desktop/optee-qemu/optee_os/lib/libmbedtls/mbedtls/library/bignum.c:1210
    62b4:	79000293 	strh	w19, [x20]
/home/hei/Desktop/optee-qemu/optee_os/lib/libmbedtls/mbedtls/library/bignum.c:1215
    62b8:	17fffff5 	b	628c <mbedtls_mpi_sub_mpi+0x54>
/home/hei/Desktop/optee-qemu/optee_os/lib/libmbedtls/mbedtls/library/bignum.c:1209
    62bc:	97ffff3d 	bl	5fb0 <mbedtls_mpi_add_abs>
    62c0:	17fffff2 	b	6288 <mbedtls_mpi_sub_mpi+0x50>

00000000000062c4 <mbedtls_mpi_add_int>:
mbedtls_mpi_add_int():
/home/hei/Desktop/optee-qemu/optee_os/lib/libmbedtls/mbedtls/library/bignum.c:1222
    62c4:	a9bd7bfd 	stp	x29, x30, [sp, #-48]!
/home/hei/Desktop/optee-qemu/optee_os/lib/libmbedtls/mbedtls/library/bignum.c:1228
    62c8:	7100005f 	cmp	w2, #0x0
    62cc:	5a82a443 	cneg	w3, w2, lt  // lt = tstop
/home/hei/Desktop/optee-qemu/optee_os/lib/libmbedtls/mbedtls/library/bignum.c:1222
    62d0:	910003fd 	mov	x29, sp
/home/hei/Desktop/optee-qemu/optee_os/lib/libmbedtls/mbedtls/library/bignum.c:1228
    62d4:	b90013e3 	str	w3, [sp, #16]
/home/hei/Desktop/optee-qemu/optee_os/lib/libmbedtls/mbedtls/library/bignum.c:1229
    62d8:	52800023 	mov	w3, #0x1                   	// #1
    62dc:	5a83a463 	cneg	w3, w3, lt  // lt = tstop
/home/hei/Desktop/optee-qemu/optee_os/lib/libmbedtls/mbedtls/library/bignum.c:1230
    62e0:	d2800022 	mov	x2, #0x1                   	// #1
    62e4:	f90013e2 	str	x2, [sp, #32]
/home/hei/Desktop/optee-qemu/optee_os/lib/libmbedtls/mbedtls/library/bignum.c:1231
    62e8:	910043e2 	add	x2, sp, #0x10
/home/hei/Desktop/optee-qemu/optee_os/lib/libmbedtls/mbedtls/library/bignum.c:1229
    62ec:	790033e3 	strh	w3, [sp, #24]
/home/hei/Desktop/optee-qemu/optee_os/lib/libmbedtls/mbedtls/library/bignum.c:1231
    62f0:	f90017e2 	str	x2, [sp, #40]
/home/hei/Desktop/optee-qemu/optee_os/lib/libmbedtls/mbedtls/library/bignum.c:1233
    62f4:	910063e2 	add	x2, sp, #0x18
    62f8:	97ffffae 	bl	61b0 <mbedtls_mpi_add_mpi>
/home/hei/Desktop/optee-qemu/optee_os/lib/libmbedtls/mbedtls/library/bignum.c:1234
    62fc:	a8c37bfd 	ldp	x29, x30, [sp], #48
    6300:	d65f03c0 	ret

0000000000006304 <mbedtls_mpi_sub_int>:
mbedtls_mpi_sub_int():
/home/hei/Desktop/optee-qemu/optee_os/lib/libmbedtls/mbedtls/library/bignum.c:1240
    6304:	a9bd7bfd 	stp	x29, x30, [sp, #-48]!
/home/hei/Desktop/optee-qemu/optee_os/lib/libmbedtls/mbedtls/library/bignum.c:1246
    6308:	7100005f 	cmp	w2, #0x0
    630c:	5a82a443 	cneg	w3, w2, lt  // lt = tstop
/home/hei/Desktop/optee-qemu/optee_os/lib/libmbedtls/mbedtls/library/bignum.c:1240
    6310:	910003fd 	mov	x29, sp
/home/hei/Desktop/optee-qemu/optee_os/lib/libmbedtls/mbedtls/library/bignum.c:1246
    6314:	b90013e3 	str	w3, [sp, #16]
/home/hei/Desktop/optee-qemu/optee_os/lib/libmbedtls/mbedtls/library/bignum.c:1247
    6318:	52800023 	mov	w3, #0x1                   	// #1
    631c:	5a83a463 	cneg	w3, w3, lt  // lt = tstop
/home/hei/Desktop/optee-qemu/optee_os/lib/libmbedtls/mbedtls/library/bignum.c:1248
    6320:	d2800022 	mov	x2, #0x1                   	// #1
    6324:	f90013e2 	str	x2, [sp, #32]
/home/hei/Desktop/optee-qemu/optee_os/lib/libmbedtls/mbedtls/library/bignum.c:1249
    6328:	910043e2 	add	x2, sp, #0x10
/home/hei/Desktop/optee-qemu/optee_os/lib/libmbedtls/mbedtls/library/bignum.c:1247
    632c:	790033e3 	strh	w3, [sp, #24]
/home/hei/Desktop/optee-qemu/optee_os/lib/libmbedtls/mbedtls/library/bignum.c:1249
    6330:	f90017e2 	str	x2, [sp, #40]
/home/hei/Desktop/optee-qemu/optee_os/lib/libmbedtls/mbedtls/library/bignum.c:1251
    6334:	910063e2 	add	x2, sp, #0x18
    6338:	97ffffc0 	bl	6238 <mbedtls_mpi_sub_mpi>
/home/hei/Desktop/optee-qemu/optee_os/lib/libmbedtls/mbedtls/library/bignum.c:1252
    633c:	a8c37bfd 	ldp	x29, x30, [sp], #48
    6340:	d65f03c0 	ret

0000000000006344 <mbedtls_mpi_mul_mpi>:
mbedtls_mpi_mul_mpi():
/home/hei/Desktop/optee-qemu/optee_os/lib/libmbedtls/mbedtls/library/bignum.c:1330
    6344:	a9b87bfd 	stp	x29, x30, [sp, #-128]!
    6348:	910003fd 	mov	x29, sp
    634c:	a9046bf9 	stp	x25, x26, [sp, #64]
/home/hei/Desktop/optee-qemu/optee_os/lib/libmbedtls/mbedtls/library/bignum.c:1338
    6350:	910143f9 	add	x25, sp, #0x50
    6354:	9101a3fa 	add	x26, sp, #0x68
/home/hei/Desktop/optee-qemu/optee_os/lib/libmbedtls/mbedtls/library/bignum.c:1330
    6358:	a90153f3 	stp	x19, x20, [sp, #16]
    635c:	a9025bf5 	stp	x21, x22, [sp, #32]
    6360:	aa0003f5 	mov	x21, x0
    6364:	aa0203f6 	mov	x22, x2
/home/hei/Desktop/optee-qemu/optee_os/lib/libmbedtls/mbedtls/library/bignum.c:1338
    6368:	aa1903e0 	mov	x0, x25
/home/hei/Desktop/optee-qemu/optee_os/lib/libmbedtls/mbedtls/library/bignum.c:1330
    636c:	a90363f7 	stp	x23, x24, [sp, #48]
    6370:	aa0103f7 	mov	x23, x1
/home/hei/Desktop/optee-qemu/optee_os/lib/libmbedtls/mbedtls/library/bignum.c:1338
    6374:	97fffbfd 	bl	5368 <mbedtls_mpi_init_mempool>
    6378:	aa1a03e0 	mov	x0, x26
    637c:	97fffbfb 	bl	5368 <mbedtls_mpi_init_mempool>
/home/hei/Desktop/optee-qemu/optee_os/lib/libmbedtls/mbedtls/library/bignum.c:1340
    6380:	eb1702bf 	cmp	x21, x23
    6384:	540000e1 	b.ne	63a0 <mbedtls_mpi_mul_mpi+0x5c>  // b.any
/home/hei/Desktop/optee-qemu/optee_os/lib/libmbedtls/mbedtls/library/bignum.c:1340 (discriminator 1)
    6388:	aa1503e1 	mov	x1, x21
    638c:	aa1903e0 	mov	x0, x25
    6390:	97fffca1 	bl	5614 <mbedtls_mpi_copy>
    6394:	2a0003f4 	mov	w20, w0
    6398:	35000300 	cbnz	w0, 63f8 <mbedtls_mpi_mul_mpi+0xb4>
/home/hei/Desktop/optee-qemu/optee_os/lib/libmbedtls/mbedtls/library/bignum.c:1340
    639c:	aa1903f7 	mov	x23, x25
/home/hei/Desktop/optee-qemu/optee_os/lib/libmbedtls/mbedtls/library/bignum.c:1341
    63a0:	eb1602bf 	cmp	x21, x22
    63a4:	540000e1 	b.ne	63c0 <mbedtls_mpi_mul_mpi+0x7c>  // b.any
/home/hei/Desktop/optee-qemu/optee_os/lib/libmbedtls/mbedtls/library/bignum.c:1341 (discriminator 1)
    63a8:	aa1503e1 	mov	x1, x21
    63ac:	aa1a03e0 	mov	x0, x26
    63b0:	97fffc99 	bl	5614 <mbedtls_mpi_copy>
    63b4:	2a0003f4 	mov	w20, w0
    63b8:	35000200 	cbnz	w0, 63f8 <mbedtls_mpi_mul_mpi+0xb4>
/home/hei/Desktop/optee-qemu/optee_os/lib/libmbedtls/mbedtls/library/bignum.c:1341
    63bc:	aa1a03f6 	mov	x22, x26
/home/hei/Desktop/optee-qemu/optee_os/lib/libmbedtls/mbedtls/library/bignum.c:1343
    63c0:	f94006f8 	ldr	x24, [x23, #8]
/home/hei/Desktop/optee-qemu/optee_os/lib/libmbedtls/mbedtls/library/bignum.c:1343 (discriminator 1)
    63c4:	b5000318 	cbnz	x24, 6424 <mbedtls_mpi_mul_mpi+0xe0>
/home/hei/Desktop/optee-qemu/optee_os/lib/libmbedtls/mbedtls/library/bignum.c:1347
    63c8:	f94006d3 	ldr	x19, [x22, #8]
/home/hei/Desktop/optee-qemu/optee_os/lib/libmbedtls/mbedtls/library/bignum.c:1347 (discriminator 1)
    63cc:	b5000393 	cbnz	x19, 643c <mbedtls_mpi_mul_mpi+0xf8>
/home/hei/Desktop/optee-qemu/optee_os/lib/libmbedtls/mbedtls/library/bignum.c:1351
    63d0:	8b130301 	add	x1, x24, x19
    63d4:	aa1503e0 	mov	x0, x21
    63d8:	97fffc09 	bl	53fc <mbedtls_mpi_grow>
    63dc:	2a0003f4 	mov	w20, w0
    63e0:	350000c0 	cbnz	w0, 63f8 <mbedtls_mpi_mul_mpi+0xb4>
/home/hei/Desktop/optee-qemu/optee_os/lib/libmbedtls/mbedtls/library/bignum.c:1352
    63e4:	52800001 	mov	w1, #0x0                   	// #0
    63e8:	aa1503e0 	mov	x0, x21
    63ec:	97fffd38 	bl	58cc <mbedtls_mpi_lset>
    63f0:	2a0003f4 	mov	w20, w0
    63f4:	34000400 	cbz	w0, 6474 <mbedtls_mpi_mul_mpi+0x130>
/home/hei/Desktop/optee-qemu/optee_os/lib/libmbedtls/mbedtls/library/bignum.c:1361
    63f8:	aa1a03e0 	mov	x0, x26
    63fc:	97fffbe5 	bl	5390 <mbedtls_mpi_free>
    6400:	aa1903e0 	mov	x0, x25
    6404:	97fffbe3 	bl	5390 <mbedtls_mpi_free>
/home/hei/Desktop/optee-qemu/optee_os/lib/libmbedtls/mbedtls/library/bignum.c:1364
    6408:	2a1403e0 	mov	w0, w20
    640c:	a94153f3 	ldp	x19, x20, [sp, #16]
    6410:	a9425bf5 	ldp	x21, x22, [sp, #32]
    6414:	a94363f7 	ldp	x23, x24, [sp, #48]
    6418:	a9446bf9 	ldp	x25, x26, [sp, #64]
    641c:	a8c87bfd 	ldp	x29, x30, [sp], #128
    6420:	d65f03c0 	ret
/home/hei/Desktop/optee-qemu/optee_os/lib/libmbedtls/mbedtls/library/bignum.c:1344
    6424:	f9400ae0 	ldr	x0, [x23, #16]
    6428:	8b180800 	add	x0, x0, x24, lsl #2
    642c:	b85fc000 	ldur	w0, [x0, #-4]
    6430:	35fffcc0 	cbnz	w0, 63c8 <mbedtls_mpi_mul_mpi+0x84>
/home/hei/Desktop/optee-qemu/optee_os/lib/libmbedtls/mbedtls/library/bignum.c:1343 (discriminator 2)
    6434:	d1000718 	sub	x24, x24, #0x1
    6438:	17ffffe3 	b	63c4 <mbedtls_mpi_mul_mpi+0x80>
/home/hei/Desktop/optee-qemu/optee_os/lib/libmbedtls/mbedtls/library/bignum.c:1348
    643c:	f9400ac0 	ldr	x0, [x22, #16]
    6440:	8b130800 	add	x0, x0, x19, lsl #2
    6444:	b85fc000 	ldur	w0, [x0, #-4]
    6448:	35fffc40 	cbnz	w0, 63d0 <mbedtls_mpi_mul_mpi+0x8c>
/home/hei/Desktop/optee-qemu/optee_os/lib/libmbedtls/mbedtls/library/bignum.c:1347 (discriminator 2)
    644c:	d1000673 	sub	x19, x19, #0x1
    6450:	17ffffdf 	b	63cc <mbedtls_mpi_mul_mpi+0x88>
/home/hei/Desktop/optee-qemu/optee_os/lib/libmbedtls/mbedtls/library/bignum.c:1355 (discriminator 2)
    6454:	f9400ac1 	ldr	x1, [x22, #16]
    6458:	d37ef662 	lsl	x2, x19, #2
    645c:	f9400aa0 	ldr	x0, [x21, #16]
    6460:	b8626823 	ldr	w3, [x1, x2]
    6464:	f9400ae1 	ldr	x1, [x23, #16]
    6468:	8b020002 	add	x2, x0, x2
    646c:	aa1803e0 	mov	x0, x24
    6470:	97fffa85 	bl	4e84 <mpi_mul_hlp>
    6474:	d1000673 	sub	x19, x19, #0x1
/home/hei/Desktop/optee-qemu/optee_os/lib/libmbedtls/mbedtls/library/bignum.c:1354 (discriminator 1)
    6478:	b100067f 	cmn	x19, #0x1
    647c:	54fffec1 	b.ne	6454 <mbedtls_mpi_mul_mpi+0x110>  // b.any
/home/hei/Desktop/optee-qemu/optee_os/lib/libmbedtls/mbedtls/library/bignum.c:1357
    6480:	794002e0 	ldrh	w0, [x23]
    6484:	794002c1 	ldrh	w1, [x22]
    6488:	1b017c00 	mul	w0, w0, w1
    648c:	790002a0 	strh	w0, [x21]
    6490:	17ffffda 	b	63f8 <mbedtls_mpi_mul_mpi+0xb4>

0000000000006494 <mbedtls_mpi_mul_int>:
mbedtls_mpi_mul_int():
/home/hei/Desktop/optee-qemu/optee_os/lib/libmbedtls/mbedtls/library/bignum.c:1370
    6494:	a9bd7bfd 	stp	x29, x30, [sp, #-48]!
/home/hei/Desktop/optee-qemu/optee_os/lib/libmbedtls/mbedtls/library/bignum.c:1376
    6498:	52800023 	mov	w3, #0x1                   	// #1
/home/hei/Desktop/optee-qemu/optee_os/lib/libmbedtls/mbedtls/library/bignum.c:1370
    649c:	910003fd 	mov	x29, sp
/home/hei/Desktop/optee-qemu/optee_os/lib/libmbedtls/mbedtls/library/bignum.c:1376
    64a0:	790033e3 	strh	w3, [sp, #24]
/home/hei/Desktop/optee-qemu/optee_os/lib/libmbedtls/mbedtls/library/bignum.c:1377
    64a4:	d2800023 	mov	x3, #0x1                   	// #1
    64a8:	f90013e3 	str	x3, [sp, #32]
/home/hei/Desktop/optee-qemu/optee_os/lib/libmbedtls/mbedtls/library/bignum.c:1378
    64ac:	910043e3 	add	x3, sp, #0x10
/home/hei/Desktop/optee-qemu/optee_os/lib/libmbedtls/mbedtls/library/bignum.c:1379
    64b0:	b90013e2 	str	w2, [sp, #16]
/home/hei/Desktop/optee-qemu/optee_os/lib/libmbedtls/mbedtls/library/bignum.c:1381
    64b4:	910063e2 	add	x2, sp, #0x18
/home/hei/Desktop/optee-qemu/optee_os/lib/libmbedtls/mbedtls/library/bignum.c:1378
    64b8:	f90017e3 	str	x3, [sp, #40]
/home/hei/Desktop/optee-qemu/optee_os/lib/libmbedtls/mbedtls/library/bignum.c:1381
    64bc:	97ffffa2 	bl	6344 <mbedtls_mpi_mul_mpi>
/home/hei/Desktop/optee-qemu/optee_os/lib/libmbedtls/mbedtls/library/bignum.c:1382
    64c0:	a8c37bfd 	ldp	x29, x30, [sp], #48
    64c4:	d65f03c0 	ret

00000000000064c8 <mbedtls_mpi_read_string>:
mbedtls_mpi_read_string():
/home/hei/Desktop/optee-qemu/optee_os/lib/libmbedtls/mbedtls/library/bignum.c:506
    64c8:	a9b87bfd 	stp	x29, x30, [sp, #-128]!
/home/hei/Desktop/optee-qemu/optee_os/lib/libmbedtls/mbedtls/library/bignum.c:514
    64cc:	51000823 	sub	w3, w1, #0x2
    64d0:	7100387f 	cmp	w3, #0xe
/home/hei/Desktop/optee-qemu/optee_os/lib/libmbedtls/mbedtls/library/bignum.c:506
    64d4:	910003fd 	mov	x29, sp
    64d8:	a90153f3 	stp	x19, x20, [sp, #16]
    64dc:	a9025bf5 	stp	x21, x22, [sp, #32]
    64e0:	a90363f7 	stp	x23, x24, [sp, #48]
    64e4:	a9046bf9 	stp	x25, x26, [sp, #64]
    64e8:	f9002bfb 	str	x27, [sp, #80]
/home/hei/Desktop/optee-qemu/optee_os/lib/libmbedtls/mbedtls/library/bignum.c:514
    64ec:	54000149 	b.ls	6514 <mbedtls_mpi_read_string+0x4c>  // b.plast
/home/hei/Desktop/optee-qemu/optee_os/lib/libmbedtls/mbedtls/library/bignum.c:515
    64f0:	12800073 	mov	w19, #0xfffffffc            	// #-4
/home/hei/Desktop/optee-qemu/optee_os/lib/libmbedtls/mbedtls/library/bignum.c:574
    64f4:	2a1303e0 	mov	w0, w19
    64f8:	a94153f3 	ldp	x19, x20, [sp, #16]
    64fc:	a9425bf5 	ldp	x21, x22, [sp, #32]
    6500:	a94363f7 	ldp	x23, x24, [sp, #48]
    6504:	a9446bf9 	ldp	x25, x26, [sp, #64]
    6508:	f9402bfb 	ldr	x27, [sp, #80]
    650c:	a8c87bfd 	ldp	x29, x30, [sp], #128
    6510:	d65f03c0 	ret
/home/hei/Desktop/optee-qemu/optee_os/lib/libmbedtls/mbedtls/library/bignum.c:517
    6514:	9101a3f8 	add	x24, sp, #0x68
    6518:	aa0203f6 	mov	x22, x2
    651c:	2a0103f7 	mov	w23, w1
    6520:	aa0003f4 	mov	x20, x0
    6524:	aa1803e0 	mov	x0, x24
    6528:	97fffb90 	bl	5368 <mbedtls_mpi_init_mempool>
/home/hei/Desktop/optee-qemu/optee_os/lib/libmbedtls/mbedtls/library/bignum.c:519
    652c:	aa1603e0 	mov	x0, x22
    6530:	97ffe807 	bl	54c <strlen>
/home/hei/Desktop/optee-qemu/optee_os/lib/libmbedtls/mbedtls/library/bignum.c:521
    6534:	710042ff 	cmp	w23, #0x10
/home/hei/Desktop/optee-qemu/optee_os/lib/libmbedtls/mbedtls/library/bignum.c:519
    6538:	aa0003f5 	mov	x21, x0
/home/hei/Desktop/optee-qemu/optee_os/lib/libmbedtls/mbedtls/library/bignum.c:521
    653c:	54000621 	b.ne	6600 <mbedtls_mpi_read_string+0x138>  // b.any
/home/hei/Desktop/optee-qemu/optee_os/lib/libmbedtls/mbedtls/library/bignum.c:523
    6540:	92f80000 	mov	x0, #0x3fffffffffffffff    	// #4611686018427387903
    6544:	eb0002bf 	cmp	x21, x0
    6548:	54fffd48 	b.hi	64f0 <mbedtls_mpi_read_string+0x28>  // b.pmore
/home/hei/Desktop/optee-qemu/optee_os/lib/libmbedtls/mbedtls/library/bignum.c:526
    654c:	d37ef6a1 	lsl	x1, x21, #2
/home/hei/Desktop/optee-qemu/optee_os/lib/libmbedtls/mbedtls/library/bignum.c:528
    6550:	aa1403e0 	mov	x0, x20
/home/hei/Desktop/optee-qemu/optee_os/lib/libmbedtls/mbedtls/library/bignum.c:526
    6554:	f27e083f 	tst	x1, #0x1c
    6558:	d345fc21 	lsr	x1, x1, #5
/home/hei/Desktop/optee-qemu/optee_os/lib/libmbedtls/mbedtls/library/bignum.c:528
    655c:	9a810421 	cinc	x1, x1, ne  // ne = any
    6560:	97fffba7 	bl	53fc <mbedtls_mpi_grow>
    6564:	2a0003f3 	mov	w19, w0
    6568:	35000240 	cbnz	w0, 65b0 <mbedtls_mpi_read_string+0xe8>
/home/hei/Desktop/optee-qemu/optee_os/lib/libmbedtls/mbedtls/library/bignum.c:529
    656c:	52800001 	mov	w1, #0x0                   	// #0
    6570:	aa1403e0 	mov	x0, x20
    6574:	97fffcd6 	bl	58cc <mbedtls_mpi_lset>
    6578:	2a0003f3 	mov	w19, w0
    657c:	350001a0 	cbnz	w0, 65b0 <mbedtls_mpi_read_string+0xe8>
/home/hei/Desktop/optee-qemu/optee_os/lib/libmbedtls/mbedtls/library/bignum.c:539
    6580:	910193e6 	add	x6, sp, #0x64
/home/hei/Desktop/optee-qemu/optee_os/lib/libmbedtls/mbedtls/library/bignum.c:531
    6584:	d2800005 	mov	x5, #0x0                   	// #0
/home/hei/Desktop/optee-qemu/optee_os/lib/libmbedtls/mbedtls/library/bignum.c:531 (discriminator 1)
    6588:	b5000075 	cbnz	x21, 6594 <mbedtls_mpi_read_string+0xcc>
/home/hei/Desktop/optee-qemu/optee_os/lib/libmbedtls/mbedtls/library/bignum.c:539
    658c:	52800013 	mov	w19, #0x0                   	// #0
    6590:	14000008 	b	65b0 <mbedtls_mpi_read_string+0xe8>
/home/hei/Desktop/optee-qemu/optee_os/lib/libmbedtls/mbedtls/library/bignum.c:533
    6594:	f10006bf 	cmp	x21, #0x1
    6598:	54000121 	b.ne	65bc <mbedtls_mpi_read_string+0xf4>  // b.any
/home/hei/Desktop/optee-qemu/optee_os/lib/libmbedtls/mbedtls/library/bignum.c:533 (discriminator 1)
    659c:	394002c0 	ldrb	w0, [x22]
    65a0:	7100b41f 	cmp	w0, #0x2d
    65a4:	540000c1 	b.ne	65bc <mbedtls_mpi_read_string+0xf4>  // b.any
/home/hei/Desktop/optee-qemu/optee_os/lib/libmbedtls/mbedtls/library/bignum.c:535
    65a8:	12800000 	mov	w0, #0xffffffff            	// #-1
    65ac:	79000280 	strh	w0, [x20]
/home/hei/Desktop/optee-qemu/optee_os/lib/libmbedtls/mbedtls/library/bignum.c:571
    65b0:	aa1803e0 	mov	x0, x24
    65b4:	97fffb77 	bl	5390 <mbedtls_mpi_free>
/home/hei/Desktop/optee-qemu/optee_os/lib/libmbedtls/mbedtls/library/bignum.c:573
    65b8:	17ffffcf 	b	64f4 <mbedtls_mpi_read_string+0x2c>
/home/hei/Desktop/optee-qemu/optee_os/lib/libmbedtls/mbedtls/library/bignum.c:539
    65bc:	d10006b5 	sub	x21, x21, #0x1
    65c0:	52800201 	mov	w1, #0x10                  	// #16
    65c4:	aa0603e0 	mov	x0, x6
    65c8:	38756ac2 	ldrb	w2, [x22, x21]
    65cc:	97fff9fd 	bl	4dc0 <mpi_get_digit>
    65d0:	350006a0 	cbnz	w0, 66a4 <mbedtls_mpi_read_string+0x1dc>
/home/hei/Desktop/optee-qemu/optee_os/lib/libmbedtls/mbedtls/library/bignum.c:540 (discriminator 2)
    65d4:	d343fca0 	lsr	x0, x5, #3
    65d8:	b94067e1 	ldr	w1, [sp, #100]
    65dc:	f9400a83 	ldr	x3, [x20, #16]
    65e0:	d37ef400 	lsl	x0, x0, #2
    65e4:	531e08a2 	ubfiz	w2, w5, #2, #3
/home/hei/Desktop/optee-qemu/optee_os/lib/libmbedtls/mbedtls/library/bignum.c:531 (discriminator 2)
    65e8:	910004a5 	add	x5, x5, #0x1
/home/hei/Desktop/optee-qemu/optee_os/lib/libmbedtls/mbedtls/library/bignum.c:540 (discriminator 2)
    65ec:	1ac22022 	lsl	w2, w1, w2
    65f0:	b8606861 	ldr	w1, [x3, x0]
    65f4:	2a020021 	orr	w1, w1, w2
    65f8:	b8206861 	str	w1, [x3, x0]
    65fc:	17ffffe3 	b	6588 <mbedtls_mpi_read_string+0xc0>
/home/hei/Desktop/optee-qemu/optee_os/lib/libmbedtls/mbedtls/library/bignum.c:545
    6600:	52800001 	mov	w1, #0x0                   	// #0
    6604:	aa1403e0 	mov	x0, x20
    6608:	97fffcb1 	bl	58cc <mbedtls_mpi_lset>
    660c:	2a0003f3 	mov	w19, w0
    6610:	35fffd00 	cbnz	w0, 65b0 <mbedtls_mpi_read_string+0xe8>
/home/hei/Desktop/optee-qemu/optee_os/lib/libmbedtls/mbedtls/library/bignum.c:555
    6614:	910193fa 	add	x26, sp, #0x64
/home/hei/Desktop/optee-qemu/optee_os/lib/libmbedtls/mbedtls/library/bignum.c:547
    6618:	d2800019 	mov	x25, #0x0                   	// #0
/home/hei/Desktop/optee-qemu/optee_os/lib/libmbedtls/mbedtls/library/bignum.c:551
    661c:	1280001b 	mov	w27, #0xffffffff            	// #-1
/home/hei/Desktop/optee-qemu/optee_os/lib/libmbedtls/mbedtls/library/bignum.c:547 (discriminator 1)
    6620:	eb15033f 	cmp	x25, x21
    6624:	54fffb40 	b.eq	658c <mbedtls_mpi_read_string+0xc4>  // b.none
/home/hei/Desktop/optee-qemu/optee_os/lib/libmbedtls/mbedtls/library/bignum.c:549
    6628:	b50000f9 	cbnz	x25, 6644 <mbedtls_mpi_read_string+0x17c>
/home/hei/Desktop/optee-qemu/optee_os/lib/libmbedtls/mbedtls/library/bignum.c:549 (discriminator 1)
    662c:	394002c0 	ldrb	w0, [x22]
    6630:	7100b41f 	cmp	w0, #0x2d
    6634:	54000081 	b.ne	6644 <mbedtls_mpi_read_string+0x17c>  // b.any
/home/hei/Desktop/optee-qemu/optee_os/lib/libmbedtls/mbedtls/library/bignum.c:551
    6638:	7900029b 	strh	w27, [x20]
/home/hei/Desktop/optee-qemu/optee_os/lib/libmbedtls/mbedtls/library/bignum.c:547 (discriminator 2)
    663c:	91000739 	add	x25, x25, #0x1
    6640:	17fffff8 	b	6620 <mbedtls_mpi_read_string+0x158>
/home/hei/Desktop/optee-qemu/optee_os/lib/libmbedtls/mbedtls/library/bignum.c:555
    6644:	38796ac2 	ldrb	w2, [x22, x25]
    6648:	2a1703e1 	mov	w1, w23
    664c:	aa1a03e0 	mov	x0, x26
    6650:	97fff9dc 	bl	4dc0 <mpi_get_digit>
    6654:	2a0003f3 	mov	w19, w0
    6658:	35fffac0 	cbnz	w0, 65b0 <mbedtls_mpi_read_string+0xe8>
/home/hei/Desktop/optee-qemu/optee_os/lib/libmbedtls/mbedtls/library/bignum.c:556
    665c:	2a1703e2 	mov	w2, w23
    6660:	aa1403e1 	mov	x1, x20
    6664:	aa1803e0 	mov	x0, x24
    6668:	97ffff8b 	bl	6494 <mbedtls_mpi_mul_int>
    666c:	2a0003f3 	mov	w19, w0
    6670:	35fffa00 	cbnz	w0, 65b0 <mbedtls_mpi_read_string+0xe8>
/home/hei/Desktop/optee-qemu/optee_os/lib/libmbedtls/mbedtls/library/bignum.c:558
    6674:	79c00280 	ldrsh	w0, [x20]
/home/hei/Desktop/optee-qemu/optee_os/lib/libmbedtls/mbedtls/library/bignum.c:560
    6678:	aa1803e1 	mov	x1, x24
    667c:	b94067e2 	ldr	w2, [sp, #100]
/home/hei/Desktop/optee-qemu/optee_os/lib/libmbedtls/mbedtls/library/bignum.c:558
    6680:	7100041f 	cmp	w0, #0x1
/home/hei/Desktop/optee-qemu/optee_os/lib/libmbedtls/mbedtls/library/bignum.c:560
    6684:	aa1403e0 	mov	x0, x20
/home/hei/Desktop/optee-qemu/optee_os/lib/libmbedtls/mbedtls/library/bignum.c:558
    6688:	540000a1 	b.ne	669c <mbedtls_mpi_read_string+0x1d4>  // b.any
/home/hei/Desktop/optee-qemu/optee_os/lib/libmbedtls/mbedtls/library/bignum.c:560
    668c:	97ffff0e 	bl	62c4 <mbedtls_mpi_add_int>
/home/hei/Desktop/optee-qemu/optee_os/lib/libmbedtls/mbedtls/library/bignum.c:564
    6690:	2a0003f3 	mov	w19, w0
    6694:	34fffd40 	cbz	w0, 663c <mbedtls_mpi_read_string+0x174>
    6698:	17ffffc6 	b	65b0 <mbedtls_mpi_read_string+0xe8>
    669c:	97ffff1a 	bl	6304 <mbedtls_mpi_sub_int>
    66a0:	17fffffc 	b	6690 <mbedtls_mpi_read_string+0x1c8>
/home/hei/Desktop/optee-qemu/optee_os/lib/libmbedtls/mbedtls/library/bignum.c:539
    66a4:	2a0003f3 	mov	w19, w0
    66a8:	17ffffc2 	b	65b0 <mbedtls_mpi_read_string+0xe8>

00000000000066ac <mbedtls_mpi_div_mpi>:
mbedtls_mpi_div_mpi():
/home/hei/Desktop/optee-qemu/optee_os/lib/libmbedtls/mbedtls/library/bignum.c:1485
    66ac:	a9ad7bfd 	stp	x29, x30, [sp, #-304]!
    66b0:	910003fd 	mov	x29, sp
    66b4:	a90153f3 	stp	x19, x20, [sp, #16]
    66b8:	a9025bf5 	stp	x21, x22, [sp, #32]
    66bc:	a90363f7 	stp	x23, x24, [sp, #48]
    66c0:	aa0103f7 	mov	x23, x1
    66c4:	aa0203f8 	mov	x24, x2
/home/hei/Desktop/optee-qemu/optee_os/lib/libmbedtls/mbedtls/library/bignum.c:1492
    66c8:	52800001 	mov	w1, #0x0                   	// #0
/home/hei/Desktop/optee-qemu/optee_os/lib/libmbedtls/mbedtls/library/bignum.c:1485
    66cc:	a9046bf9 	stp	x25, x26, [sp, #64]
    66d0:	a90573fb 	stp	x27, x28, [sp, #80]
    66d4:	aa0003fb 	mov	x27, x0
/home/hei/Desktop/optee-qemu/optee_os/lib/libmbedtls/mbedtls/library/bignum.c:1492
    66d8:	aa0303e0 	mov	x0, x3
/home/hei/Desktop/optee-qemu/optee_os/lib/libmbedtls/mbedtls/library/bignum.c:1485
    66dc:	fd0033e8 	str	d8, [sp, #96]
    66e0:	f90047e3 	str	x3, [sp, #136]
/home/hei/Desktop/optee-qemu/optee_os/lib/libmbedtls/mbedtls/library/bignum.c:1492
    66e4:	97fffe23 	bl	5f70 <mbedtls_mpi_cmp_int>
    66e8:	34002740 	cbz	w0, 6bd0 <mbedtls_mpi_div_mpi+0x524>
/home/hei/Desktop/optee-qemu/optee_os/lib/libmbedtls/mbedtls/library/bignum.c:1495
    66ec:	9102e3f4 	add	x20, sp, #0xb8
    66f0:	910343f6 	add	x22, sp, #0xd0
    66f4:	aa1403e0 	mov	x0, x20
    66f8:	97fffb1c 	bl	5368 <mbedtls_mpi_init_mempool>
    66fc:	aa1603e0 	mov	x0, x22
/home/hei/Desktop/optee-qemu/optee_os/lib/libmbedtls/mbedtls/library/bignum.c:1496
    6700:	9103a3fa 	add	x26, sp, #0xe8
/home/hei/Desktop/optee-qemu/optee_os/lib/libmbedtls/mbedtls/library/bignum.c:1495
    6704:	97fffb19 	bl	5368 <mbedtls_mpi_init_mempool>
/home/hei/Desktop/optee-qemu/optee_os/lib/libmbedtls/mbedtls/library/bignum.c:1496
    6708:	910403f5 	add	x21, sp, #0x100
    670c:	aa1a03e0 	mov	x0, x26
    6710:	97fffb16 	bl	5368 <mbedtls_mpi_init_mempool>
    6714:	aa1503e0 	mov	x0, x21
    6718:	97fffb14 	bl	5368 <mbedtls_mpi_init_mempool>
/home/hei/Desktop/optee-qemu/optee_os/lib/libmbedtls/mbedtls/library/bignum.c:1497
    671c:	910463e0 	add	x0, sp, #0x118
    6720:	f9003fe0 	str	x0, [sp, #120]
    6724:	97fffb11 	bl	5368 <mbedtls_mpi_init_mempool>
/home/hei/Desktop/optee-qemu/optee_os/lib/libmbedtls/mbedtls/library/bignum.c:1499
    6728:	f94047e1 	ldr	x1, [sp, #136]
    672c:	aa1803e0 	mov	x0, x24
    6730:	97fffdb3 	bl	5dfc <mbedtls_mpi_cmp_abs>
    6734:	36f80460 	tbz	w0, #31, 67c0 <mbedtls_mpi_div_mpi+0x114>
/home/hei/Desktop/optee-qemu/optee_os/lib/libmbedtls/mbedtls/library/bignum.c:1501
    6738:	b500019b 	cbnz	x27, 6768 <mbedtls_mpi_div_mpi+0xbc>
/home/hei/Desktop/optee-qemu/optee_os/lib/libmbedtls/mbedtls/library/bignum.c:1502
    673c:	b5000377 	cbnz	x23, 67a8 <mbedtls_mpi_div_mpi+0xfc>
/home/hei/Desktop/optee-qemu/optee_os/lib/libmbedtls/mbedtls/library/bignum.c:1503
    6740:	52800019 	mov	w25, #0x0                   	// #0
/home/hei/Desktop/optee-qemu/optee_os/lib/libmbedtls/mbedtls/library/bignum.c:1597
    6744:	2a1903e0 	mov	w0, w25
    6748:	fd4033e8 	ldr	d8, [sp, #96]
    674c:	a94153f3 	ldp	x19, x20, [sp, #16]
    6750:	a9425bf5 	ldp	x21, x22, [sp, #32]
    6754:	a94363f7 	ldp	x23, x24, [sp, #48]
    6758:	a9446bf9 	ldp	x25, x26, [sp, #64]
    675c:	a94573fb 	ldp	x27, x28, [sp, #80]
    6760:	a8d37bfd 	ldp	x29, x30, [sp], #304
    6764:	d65f03c0 	ret
/home/hei/Desktop/optee-qemu/optee_os/lib/libmbedtls/mbedtls/library/bignum.c:1501 (discriminator 1)
    6768:	52800001 	mov	w1, #0x0                   	// #0
    676c:	aa1b03e0 	mov	x0, x27
    6770:	97fffc57 	bl	58cc <mbedtls_mpi_lset>
    6774:	2a0003f9 	mov	w25, w0
    6778:	34fffe20 	cbz	w0, 673c <mbedtls_mpi_div_mpi+0x90>
/home/hei/Desktop/optee-qemu/optee_os/lib/libmbedtls/mbedtls/library/bignum.c:1593
    677c:	aa1403e0 	mov	x0, x20
    6780:	97fffb04 	bl	5390 <mbedtls_mpi_free>
    6784:	aa1603e0 	mov	x0, x22
    6788:	97fffb02 	bl	5390 <mbedtls_mpi_free>
    678c:	aa1a03e0 	mov	x0, x26
    6790:	97fffb00 	bl	5390 <mbedtls_mpi_free>
/home/hei/Desktop/optee-qemu/optee_os/lib/libmbedtls/mbedtls/library/bignum.c:1594
    6794:	aa1503e0 	mov	x0, x21
    6798:	97fffafe 	bl	5390 <mbedtls_mpi_free>
    679c:	f9403fe0 	ldr	x0, [sp, #120]
    67a0:	97fffafc 	bl	5390 <mbedtls_mpi_free>
/home/hei/Desktop/optee-qemu/optee_os/lib/libmbedtls/mbedtls/library/bignum.c:1596
    67a4:	17ffffe8 	b	6744 <mbedtls_mpi_div_mpi+0x98>
/home/hei/Desktop/optee-qemu/optee_os/lib/libmbedtls/mbedtls/library/bignum.c:1502 (discriminator 1)
    67a8:	aa1803e1 	mov	x1, x24
    67ac:	aa1703e0 	mov	x0, x23
    67b0:	97fffb99 	bl	5614 <mbedtls_mpi_copy>
    67b4:	2a0003f9 	mov	w25, w0
    67b8:	35fffe20 	cbnz	w0, 677c <mbedtls_mpi_div_mpi+0xd0>
    67bc:	17ffffe1 	b	6740 <mbedtls_mpi_div_mpi+0x94>
/home/hei/Desktop/optee-qemu/optee_os/lib/libmbedtls/mbedtls/library/bignum.c:1506
    67c0:	aa1803e1 	mov	x1, x24
    67c4:	aa1403e0 	mov	x0, x20
    67c8:	97fffb93 	bl	5614 <mbedtls_mpi_copy>
    67cc:	2a0003f9 	mov	w25, w0
    67d0:	35fffd60 	cbnz	w0, 677c <mbedtls_mpi_div_mpi+0xd0>
/home/hei/Desktop/optee-qemu/optee_os/lib/libmbedtls/mbedtls/library/bignum.c:1507
    67d4:	f94047e1 	ldr	x1, [sp, #136]
    67d8:	aa1603e0 	mov	x0, x22
    67dc:	97fffb8e 	bl	5614 <mbedtls_mpi_copy>
    67e0:	2a0003f9 	mov	w25, w0
    67e4:	35fffcc0 	cbnz	w0, 677c <mbedtls_mpi_div_mpi+0xd0>
/home/hei/Desktop/optee-qemu/optee_os/lib/libmbedtls/mbedtls/library/bignum.c:1510
    67e8:	f9400701 	ldr	x1, [x24, #8]
/home/hei/Desktop/optee-qemu/optee_os/lib/libmbedtls/mbedtls/library/bignum.c:1508
    67ec:	52800020 	mov	w0, #0x1                   	// #1
    67f0:	790173e0 	strh	w0, [sp, #184]
/home/hei/Desktop/optee-qemu/optee_os/lib/libmbedtls/mbedtls/library/bignum.c:1510
    67f4:	91000821 	add	x1, x1, #0x2
/home/hei/Desktop/optee-qemu/optee_os/lib/libmbedtls/mbedtls/library/bignum.c:1508
    67f8:	7901a3e0 	strh	w0, [sp, #208]
/home/hei/Desktop/optee-qemu/optee_os/lib/libmbedtls/mbedtls/library/bignum.c:1510
    67fc:	aa1a03e0 	mov	x0, x26
    6800:	97fffaff 	bl	53fc <mbedtls_mpi_grow>
    6804:	2a0003f9 	mov	w25, w0
    6808:	35fffba0 	cbnz	w0, 677c <mbedtls_mpi_div_mpi+0xd0>
/home/hei/Desktop/optee-qemu/optee_os/lib/libmbedtls/mbedtls/library/bignum.c:1511
    680c:	52800001 	mov	w1, #0x0                   	// #0
    6810:	aa1a03e0 	mov	x0, x26
    6814:	97fffc2e 	bl	58cc <mbedtls_mpi_lset>
    6818:	2a0003f9 	mov	w25, w0
    681c:	35fffb00 	cbnz	w0, 677c <mbedtls_mpi_div_mpi+0xd0>
/home/hei/Desktop/optee-qemu/optee_os/lib/libmbedtls/mbedtls/library/bignum.c:1512
    6820:	d2800041 	mov	x1, #0x2                   	// #2
    6824:	aa1503e0 	mov	x0, x21
    6828:	97fffaf5 	bl	53fc <mbedtls_mpi_grow>
    682c:	2a0003f9 	mov	w25, w0
    6830:	35fffa60 	cbnz	w0, 677c <mbedtls_mpi_div_mpi+0xd0>
/home/hei/Desktop/optee-qemu/optee_os/lib/libmbedtls/mbedtls/library/bignum.c:1513
    6834:	f9403fe0 	ldr	x0, [sp, #120]
    6838:	d2800061 	mov	x1, #0x3                   	// #3
    683c:	97fffaf0 	bl	53fc <mbedtls_mpi_grow>
    6840:	2a0003f9 	mov	w25, w0
    6844:	35fff9c0 	cbnz	w0, 677c <mbedtls_mpi_div_mpi+0xd0>
/home/hei/Desktop/optee-qemu/optee_os/lib/libmbedtls/mbedtls/library/bignum.c:1515
    6848:	aa1603e0 	mov	x0, x22
    684c:	97fffc7d 	bl	5a40 <mbedtls_mpi_bitlen>
    6850:	92401000 	and	x0, x0, #0x1f
/home/hei/Desktop/optee-qemu/optee_os/lib/libmbedtls/mbedtls/library/bignum.c:1516
    6854:	f1007c1f 	cmp	x0, #0x1f
    6858:	54000a00 	b.eq	6998 <mbedtls_mpi_div_mpi+0x2ec>  // b.none
/home/hei/Desktop/optee-qemu/optee_os/lib/libmbedtls/mbedtls/library/bignum.c:1518
    685c:	d28003e1 	mov	x1, #0x1f                  	// #31
    6860:	cb000020 	sub	x0, x1, x0
/home/hei/Desktop/optee-qemu/optee_os/lib/libmbedtls/mbedtls/library/bignum.c:1519
    6864:	aa0003e1 	mov	x1, x0
/home/hei/Desktop/optee-qemu/optee_os/lib/libmbedtls/mbedtls/library/bignum.c:1518
    6868:	f90043e0 	str	x0, [sp, #128]
/home/hei/Desktop/optee-qemu/optee_os/lib/libmbedtls/mbedtls/library/bignum.c:1519
    686c:	aa1403e0 	mov	x0, x20
    6870:	97fffcf1 	bl	5c34 <mbedtls_mpi_shift_l>
    6874:	2a0003f9 	mov	w25, w0
    6878:	35fff820 	cbnz	w0, 677c <mbedtls_mpi_div_mpi+0xd0>
/home/hei/Desktop/optee-qemu/optee_os/lib/libmbedtls/mbedtls/library/bignum.c:1520
    687c:	f94043e1 	ldr	x1, [sp, #128]
    6880:	aa1603e0 	mov	x0, x22
    6884:	97fffcec 	bl	5c34 <mbedtls_mpi_shift_l>
    6888:	2a0003f9 	mov	w25, w0
    688c:	35fff780 	cbnz	w0, 677c <mbedtls_mpi_div_mpi+0xd0>
/home/hei/Desktop/optee-qemu/optee_os/lib/libmbedtls/mbedtls/library/bignum.c:1524
    6890:	f94063fc 	ldr	x28, [sp, #192]
/home/hei/Desktop/optee-qemu/optee_os/lib/libmbedtls/mbedtls/library/bignum.c:1525
    6894:	f9406fe0 	ldr	x0, [sp, #216]
    6898:	f9004be0 	str	x0, [sp, #144]
/home/hei/Desktop/optee-qemu/optee_os/lib/libmbedtls/mbedtls/library/bignum.c:1526
    689c:	cb000393 	sub	x19, x28, x0
    68a0:	9e670260 	fmov	d0, x19
    68a4:	aa1603e0 	mov	x0, x22
    68a8:	5f455408 	shl	d8, d0, #5
    68ac:	9e660101 	fmov	x1, d8
    68b0:	97fffce1 	bl	5c34 <mbedtls_mpi_shift_l>
    68b4:	2a0003f9 	mov	w25, w0
    68b8:	35fff620 	cbnz	w0, 677c <mbedtls_mpi_div_mpi+0xd0>
/home/hei/Desktop/optee-qemu/optee_os/lib/libmbedtls/mbedtls/library/bignum.c:1530
    68bc:	d37ef673 	lsl	x19, x19, #2
/home/hei/Desktop/optee-qemu/optee_os/lib/libmbedtls/mbedtls/library/bignum.c:1528
    68c0:	aa1603e1 	mov	x1, x22
    68c4:	aa1403e0 	mov	x0, x20
    68c8:	97fffd74 	bl	5e98 <mbedtls_mpi_cmp_mpi>
    68cc:	36f806a0 	tbz	w0, #31, 69a0 <mbedtls_mpi_div_mpi+0x2f4>
/home/hei/Desktop/optee-qemu/optee_os/lib/libmbedtls/mbedtls/library/bignum.c:1533
    68d0:	9e660101 	fmov	x1, d8
    68d4:	aa1603e0 	mov	x0, x22
    68d8:	97fffd17 	bl	5d34 <mbedtls_mpi_shift_r>
    68dc:	2a0003f9 	mov	w25, w0
    68e0:	35fff4e0 	cbnz	w0, 677c <mbedtls_mpi_div_mpi+0xd0>
/home/hei/Desktop/optee-qemu/optee_os/lib/libmbedtls/mbedtls/library/bignum.c:1524
    68e4:	d1000780 	sub	x0, x28, #0x1
    68e8:	f9003be0 	str	x0, [sp, #112]
/home/hei/Desktop/optee-qemu/optee_os/lib/libmbedtls/mbedtls/library/bignum.c:1525
    68ec:	f9404be0 	ldr	x0, [sp, #144]
    68f0:	d1001273 	sub	x19, x19, #0x4
    68f4:	d1000400 	sub	x0, x0, #0x1
    68f8:	f90053e0 	str	x0, [sp, #160]
/home/hei/Desktop/optee-qemu/optee_os/lib/libmbedtls/mbedtls/library/bignum.c:1537
    68fc:	d37ef400 	lsl	x0, x0, #2
    6900:	f9004be0 	str	x0, [sp, #144]
    6904:	d37ef780 	lsl	x0, x28, #2
    6908:	d100201c 	sub	x28, x0, #0x8
    690c:	d1003000 	sub	x0, x0, #0xc
    6910:	f9004fe0 	str	x0, [sp, #152]
/home/hei/Desktop/optee-qemu/optee_os/lib/libmbedtls/mbedtls/library/bignum.c:1535 (discriminator 2)
    6914:	f9403be0 	ldr	x0, [sp, #112]
    6918:	f94053e1 	ldr	x1, [sp, #160]
    691c:	eb01001f 	cmp	x0, x1
    6920:	54000568 	b.hi	69cc <mbedtls_mpi_div_mpi+0x320>  // b.pmore
/home/hei/Desktop/optee-qemu/optee_os/lib/libmbedtls/mbedtls/library/bignum.c:1575
    6924:	b400015b 	cbz	x27, 694c <mbedtls_mpi_div_mpi+0x2a0>
/home/hei/Desktop/optee-qemu/optee_os/lib/libmbedtls/mbedtls/library/bignum.c:1577
    6928:	aa1a03e1 	mov	x1, x26
    692c:	aa1b03e0 	mov	x0, x27
    6930:	97fffb39 	bl	5614 <mbedtls_mpi_copy>
    6934:	350014a0 	cbnz	w0, 6bc8 <mbedtls_mpi_div_mpi+0x51c>
/home/hei/Desktop/optee-qemu/optee_os/lib/libmbedtls/mbedtls/library/bignum.c:1578
    6938:	f94047e1 	ldr	x1, [sp, #136]
    693c:	79400300 	ldrh	w0, [x24]
    6940:	79400021 	ldrh	w1, [x1]
    6944:	1b017c00 	mul	w0, w0, w1
    6948:	79000360 	strh	w0, [x27]
/home/hei/Desktop/optee-qemu/optee_os/lib/libmbedtls/mbedtls/library/bignum.c:1581
    694c:	b4fff197 	cbz	x23, 677c <mbedtls_mpi_div_mpi+0xd0>
/home/hei/Desktop/optee-qemu/optee_os/lib/libmbedtls/mbedtls/library/bignum.c:1583
    6950:	f94043e1 	ldr	x1, [sp, #128]
    6954:	aa1403e0 	mov	x0, x20
    6958:	97fffcf7 	bl	5d34 <mbedtls_mpi_shift_r>
    695c:	35001360 	cbnz	w0, 6bc8 <mbedtls_mpi_div_mpi+0x51c>
/home/hei/Desktop/optee-qemu/optee_os/lib/libmbedtls/mbedtls/library/bignum.c:1584
    6960:	79400300 	ldrh	w0, [x24]
/home/hei/Desktop/optee-qemu/optee_os/lib/libmbedtls/mbedtls/library/bignum.c:1585
    6964:	aa1403e1 	mov	x1, x20
/home/hei/Desktop/optee-qemu/optee_os/lib/libmbedtls/mbedtls/library/bignum.c:1584
    6968:	790173e0 	strh	w0, [sp, #184]
/home/hei/Desktop/optee-qemu/optee_os/lib/libmbedtls/mbedtls/library/bignum.c:1585
    696c:	aa1703e0 	mov	x0, x23
    6970:	97fffb29 	bl	5614 <mbedtls_mpi_copy>
    6974:	350012a0 	cbnz	w0, 6bc8 <mbedtls_mpi_div_mpi+0x51c>
/home/hei/Desktop/optee-qemu/optee_os/lib/libmbedtls/mbedtls/library/bignum.c:1587
    6978:	52800001 	mov	w1, #0x0                   	// #0
    697c:	aa1703e0 	mov	x0, x23
    6980:	97fffd7c 	bl	5f70 <mbedtls_mpi_cmp_int>
    6984:	35ffefc0 	cbnz	w0, 677c <mbedtls_mpi_div_mpi+0xd0>
/home/hei/Desktop/optee-qemu/optee_os/lib/libmbedtls/mbedtls/library/bignum.c:1588
    6988:	52800020 	mov	w0, #0x1                   	// #1
/home/hei/Desktop/optee-qemu/optee_os/lib/libmbedtls/mbedtls/library/bignum.c:1585
    698c:	52800019 	mov	w25, #0x0                   	// #0
/home/hei/Desktop/optee-qemu/optee_os/lib/libmbedtls/mbedtls/library/bignum.c:1588
    6990:	790002e0 	strh	w0, [x23]
    6994:	17ffff7a 	b	677c <mbedtls_mpi_div_mpi+0xd0>
/home/hei/Desktop/optee-qemu/optee_os/lib/libmbedtls/mbedtls/library/bignum.c:1522
    6998:	f90043ff 	str	xzr, [sp, #128]
    699c:	17ffffbd 	b	6890 <mbedtls_mpi_div_mpi+0x1e4>
/home/hei/Desktop/optee-qemu/optee_os/lib/libmbedtls/mbedtls/library/bignum.c:1530
    69a0:	f9407fe1 	ldr	x1, [sp, #248]
/home/hei/Desktop/optee-qemu/optee_os/lib/libmbedtls/mbedtls/library/bignum.c:1531
    69a4:	aa1603e2 	mov	x2, x22
/home/hei/Desktop/optee-qemu/optee_os/lib/libmbedtls/mbedtls/library/bignum.c:1530
    69a8:	b8736820 	ldr	w0, [x1, x19]
    69ac:	11000400 	add	w0, w0, #0x1
    69b0:	b8336820 	str	w0, [x1, x19]
/home/hei/Desktop/optee-qemu/optee_os/lib/libmbedtls/mbedtls/library/bignum.c:1531
    69b4:	aa1403e1 	mov	x1, x20
    69b8:	aa1403e0 	mov	x0, x20
    69bc:	97fffe1f 	bl	6238 <mbedtls_mpi_sub_mpi>
    69c0:	2a0003f9 	mov	w25, w0
    69c4:	34fff7e0 	cbz	w0, 68c0 <mbedtls_mpi_div_mpi+0x214>
    69c8:	17ffff6d 	b	677c <mbedtls_mpi_div_mpi+0xd0>
/home/hei/Desktop/optee-qemu/optee_os/lib/libmbedtls/mbedtls/library/bignum.c:1537
    69cc:	f9403be1 	ldr	x1, [sp, #112]
    69d0:	f9404be3 	ldr	x3, [sp, #144]
    69d4:	f94067e0 	ldr	x0, [sp, #200]
    69d8:	d37ef421 	lsl	x1, x1, #2
    69dc:	f94073e2 	ldr	x2, [sp, #224]
    69e0:	f90057e1 	str	x1, [sp, #168]
    69e4:	f9407fe5 	ldr	x5, [sp, #248]
    69e8:	b8636842 	ldr	w2, [x2, x3]
    69ec:	b8616801 	ldr	w1, [x0, x1]
    69f0:	8b1300a4 	add	x4, x5, x19
    69f4:	6b02003f 	cmp	w1, w2
    69f8:	54000c63 	b.cc	6b84 <mbedtls_mpi_div_mpi+0x4d8>  // b.lo, b.ul, b.last
/home/hei/Desktop/optee-qemu/optee_os/lib/libmbedtls/mbedtls/library/bignum.c:1538
    69fc:	12800000 	mov	w0, #0xffffffff            	// #-1
    6a00:	b83368a0 	str	w0, [x5, x19]
/home/hei/Desktop/optee-qemu/optee_os/lib/libmbedtls/mbedtls/library/bignum.c:1545
    6a04:	b9400080 	ldr	w0, [x4]
    6a08:	11000400 	add	w0, w0, #0x1
    6a0c:	b9000080 	str	w0, [x4]
/home/hei/Desktop/optee-qemu/optee_os/lib/libmbedtls/mbedtls/library/bignum.c:1548
    6a10:	f9407fe1 	ldr	x1, [sp, #248]
    6a14:	b8736820 	ldr	w0, [x1, x19]
    6a18:	51000400 	sub	w0, w0, #0x1
    6a1c:	b8336820 	str	w0, [x1, x19]
/home/hei/Desktop/optee-qemu/optee_os/lib/libmbedtls/mbedtls/library/bignum.c:1550
    6a20:	52800001 	mov	w1, #0x0                   	// #0
    6a24:	aa1503e0 	mov	x0, x21
    6a28:	97fffba9 	bl	58cc <mbedtls_mpi_lset>
    6a2c:	35000ce0 	cbnz	w0, 6bc8 <mbedtls_mpi_div_mpi+0x51c>
/home/hei/Desktop/optee-qemu/optee_os/lib/libmbedtls/mbedtls/library/bignum.c:1551
    6a30:	f94053e0 	ldr	x0, [sp, #160]
    6a34:	f94073e1 	ldr	x1, [sp, #224]
    6a38:	b4000c00 	cbz	x0, 6bb8 <mbedtls_mpi_div_mpi+0x50c>
/home/hei/Desktop/optee-qemu/optee_os/lib/libmbedtls/mbedtls/library/bignum.c:1551 (discriminator 1)
    6a3c:	f9404be0 	ldr	x0, [sp, #144]
    6a40:	8b000020 	add	x0, x1, x0
    6a44:	b85fc002 	ldur	w2, [x0, #-4]
/home/hei/Desktop/optee-qemu/optee_os/lib/libmbedtls/mbedtls/library/bignum.c:1551 (discriminator 4)
    6a48:	f9408be0 	ldr	x0, [sp, #272]
    6a4c:	b9000002 	str	w2, [x0]
/home/hei/Desktop/optee-qemu/optee_os/lib/libmbedtls/mbedtls/library/bignum.c:1552 (discriminator 4)
    6a50:	f9404be2 	ldr	x2, [sp, #144]
    6a54:	b8626821 	ldr	w1, [x1, x2]
    6a58:	b9000401 	str	w1, [x0, #4]
/home/hei/Desktop/optee-qemu/optee_os/lib/libmbedtls/mbedtls/library/bignum.c:1553 (discriminator 4)
    6a5c:	aa1503e1 	mov	x1, x21
    6a60:	f9407fe0 	ldr	x0, [sp, #248]
    6a64:	b8736802 	ldr	w2, [x0, x19]
    6a68:	aa1503e0 	mov	x0, x21
    6a6c:	97fffe8a 	bl	6494 <mbedtls_mpi_mul_int>
    6a70:	35000ac0 	cbnz	w0, 6bc8 <mbedtls_mpi_div_mpi+0x51c>
/home/hei/Desktop/optee-qemu/optee_os/lib/libmbedtls/mbedtls/library/bignum.c:1555
    6a74:	f9403fe0 	ldr	x0, [sp, #120]
    6a78:	52800001 	mov	w1, #0x0                   	// #0
    6a7c:	97fffb94 	bl	58cc <mbedtls_mpi_lset>
    6a80:	35000a40 	cbnz	w0, 6bc8 <mbedtls_mpi_div_mpi+0x51c>
/home/hei/Desktop/optee-qemu/optee_os/lib/libmbedtls/mbedtls/library/bignum.c:1556
    6a84:	f9403be0 	ldr	x0, [sp, #112]
    6a88:	f94067e1 	ldr	x1, [sp, #200]
    6a8c:	f100041f 	cmp	x0, #0x1
    6a90:	54000980 	b.eq	6bc0 <mbedtls_mpi_div_mpi+0x514>  // b.none
/home/hei/Desktop/optee-qemu/optee_os/lib/libmbedtls/mbedtls/library/bignum.c:1556 (discriminator 1)
    6a94:	f9404fe0 	ldr	x0, [sp, #152]
    6a98:	b8606822 	ldr	w2, [x1, x0]
/home/hei/Desktop/optee-qemu/optee_os/lib/libmbedtls/mbedtls/library/bignum.c:1556 (discriminator 4)
    6a9c:	f94097e0 	ldr	x0, [sp, #296]
    6aa0:	b9000002 	str	w2, [x0]
/home/hei/Desktop/optee-qemu/optee_os/lib/libmbedtls/mbedtls/library/bignum.c:1557 (discriminator 4)
    6aa4:	b87c6822 	ldr	w2, [x1, x28]
    6aa8:	b9000402 	str	w2, [x0, #4]
/home/hei/Desktop/optee-qemu/optee_os/lib/libmbedtls/mbedtls/library/bignum.c:1558 (discriminator 4)
    6aac:	f94057e2 	ldr	x2, [sp, #168]
    6ab0:	b8626821 	ldr	w1, [x1, x2]
    6ab4:	b9000801 	str	w1, [x0, #8]
/home/hei/Desktop/optee-qemu/optee_os/lib/libmbedtls/mbedtls/library/bignum.c:1560 (discriminator 4)
    6ab8:	aa1503e0 	mov	x0, x21
    6abc:	f9403fe1 	ldr	x1, [sp, #120]
    6ac0:	97fffcf6 	bl	5e98 <mbedtls_mpi_cmp_mpi>
    6ac4:	7100001f 	cmp	w0, #0x0
    6ac8:	54fffa4c 	b.gt	6a10 <mbedtls_mpi_div_mpi+0x364>
/home/hei/Desktop/optee-qemu/optee_os/lib/libmbedtls/mbedtls/library/bignum.c:1562
    6acc:	f9407fe0 	ldr	x0, [sp, #248]
    6ad0:	aa1603e1 	mov	x1, x22
    6ad4:	b8736802 	ldr	w2, [x0, x19]
    6ad8:	aa1503e0 	mov	x0, x21
    6adc:	97fffe6e 	bl	6494 <mbedtls_mpi_mul_int>
    6ae0:	35000740 	cbnz	w0, 6bc8 <mbedtls_mpi_div_mpi+0x51c>
/home/hei/Desktop/optee-qemu/optee_os/lib/libmbedtls/mbedtls/library/bignum.c:1563
    6ae4:	d37df260 	lsl	x0, x19, #3
    6ae8:	f90057e0 	str	x0, [sp, #168]
    6aec:	aa0003e1 	mov	x1, x0
    6af0:	aa1503e0 	mov	x0, x21
    6af4:	97fffc50 	bl	5c34 <mbedtls_mpi_shift_l>
    6af8:	35000680 	cbnz	w0, 6bc8 <mbedtls_mpi_div_mpi+0x51c>
/home/hei/Desktop/optee-qemu/optee_os/lib/libmbedtls/mbedtls/library/bignum.c:1564
    6afc:	aa1503e2 	mov	x2, x21
    6b00:	aa1403e1 	mov	x1, x20
    6b04:	aa1403e0 	mov	x0, x20
    6b08:	97fffdcc 	bl	6238 <mbedtls_mpi_sub_mpi>
    6b0c:	350005e0 	cbnz	w0, 6bc8 <mbedtls_mpi_div_mpi+0x51c>
/home/hei/Desktop/optee-qemu/optee_os/lib/libmbedtls/mbedtls/library/bignum.c:1566
    6b10:	52800001 	mov	w1, #0x0                   	// #0
    6b14:	aa1403e0 	mov	x0, x20
    6b18:	97fffd16 	bl	5f70 <mbedtls_mpi_cmp_int>
    6b1c:	36f80240 	tbz	w0, #31, 6b64 <mbedtls_mpi_div_mpi+0x4b8>
/home/hei/Desktop/optee-qemu/optee_os/lib/libmbedtls/mbedtls/library/bignum.c:1568
    6b20:	aa1603e1 	mov	x1, x22
    6b24:	aa1503e0 	mov	x0, x21
    6b28:	97fffabb 	bl	5614 <mbedtls_mpi_copy>
    6b2c:	350004e0 	cbnz	w0, 6bc8 <mbedtls_mpi_div_mpi+0x51c>
/home/hei/Desktop/optee-qemu/optee_os/lib/libmbedtls/mbedtls/library/bignum.c:1569
    6b30:	d37df261 	lsl	x1, x19, #3
    6b34:	aa1503e0 	mov	x0, x21
    6b38:	97fffc3f 	bl	5c34 <mbedtls_mpi_shift_l>
    6b3c:	35000460 	cbnz	w0, 6bc8 <mbedtls_mpi_div_mpi+0x51c>
/home/hei/Desktop/optee-qemu/optee_os/lib/libmbedtls/mbedtls/library/bignum.c:1570
    6b40:	aa1503e2 	mov	x2, x21
    6b44:	aa1403e1 	mov	x1, x20
    6b48:	aa1403e0 	mov	x0, x20
    6b4c:	97fffd99 	bl	61b0 <mbedtls_mpi_add_mpi>
    6b50:	350003c0 	cbnz	w0, 6bc8 <mbedtls_mpi_div_mpi+0x51c>
/home/hei/Desktop/optee-qemu/optee_os/lib/libmbedtls/mbedtls/library/bignum.c:1571
    6b54:	f9407fe1 	ldr	x1, [sp, #248]
    6b58:	b8736820 	ldr	w0, [x1, x19]
    6b5c:	51000400 	sub	w0, w0, #0x1
    6b60:	b8336820 	str	w0, [x1, x19]
/home/hei/Desktop/optee-qemu/optee_os/lib/libmbedtls/mbedtls/library/bignum.c:1535 (discriminator 2)
    6b64:	f9403be0 	ldr	x0, [sp, #112]
    6b68:	d1001273 	sub	x19, x19, #0x4
    6b6c:	d100139c 	sub	x28, x28, #0x4
    6b70:	d1000400 	sub	x0, x0, #0x1
    6b74:	f9003be0 	str	x0, [sp, #112]
    6b78:	f9404fe0 	ldr	x0, [sp, #152]
    6b7c:	d1001000 	sub	x0, x0, #0x4
    6b80:	17ffff64 	b	6910 <mbedtls_mpi_div_mpi+0x264>
/home/hei/Desktop/optee-qemu/optee_os/lib/libmbedtls/mbedtls/library/bignum.c:1541
    6b84:	b87c6800 	ldr	w0, [x0, x28]
mbedtls_int_div_int():
/home/hei/Desktop/optee-qemu/optee_os/lib/libmbedtls/mbedtls/library/bignum.c:1404
    6b88:	34000142 	cbz	w2, 6bb0 <mbedtls_mpi_div_mpi+0x504>
/home/hei/Desktop/optee-qemu/optee_os/lib/libmbedtls/mbedtls/library/bignum.c:1413
    6b8c:	2a0003e0 	mov	w0, w0
/home/hei/Desktop/optee-qemu/optee_os/lib/libmbedtls/mbedtls/library/bignum.c:1414
    6b90:	2a0203e2 	mov	w2, w2
/home/hei/Desktop/optee-qemu/optee_os/lib/libmbedtls/mbedtls/library/bignum.c:1413
    6b94:	aa018000 	orr	x0, x0, x1, lsl #32
/home/hei/Desktop/optee-qemu/optee_os/lib/libmbedtls/mbedtls/library/bignum.c:1421
    6b98:	b2407fe1 	mov	x1, #0xffffffff            	// #4294967295
/home/hei/Desktop/optee-qemu/optee_os/lib/libmbedtls/mbedtls/library/bignum.c:1414
    6b9c:	9ac20800 	udiv	x0, x0, x2
/home/hei/Desktop/optee-qemu/optee_os/lib/libmbedtls/mbedtls/library/bignum.c:1421
    6ba0:	eb01001f 	cmp	x0, x1
    6ba4:	9a819000 	csel	x0, x0, x1, ls  // ls = plast
mbedtls_mpi_div_mpi():
/home/hei/Desktop/optee-qemu/optee_os/lib/libmbedtls/mbedtls/library/bignum.c:1541
    6ba8:	b9000080 	str	w0, [x4]
    6bac:	17ffff96 	b	6a04 <mbedtls_mpi_div_mpi+0x358>
mbedtls_int_div_int():
/home/hei/Desktop/optee-qemu/optee_os/lib/libmbedtls/mbedtls/library/bignum.c:1408
    6bb0:	12800000 	mov	w0, #0xffffffff            	// #-1
    6bb4:	17fffffd 	b	6ba8 <mbedtls_mpi_div_mpi+0x4fc>
mbedtls_mpi_div_mpi():
/home/hei/Desktop/optee-qemu/optee_os/lib/libmbedtls/mbedtls/library/bignum.c:1551
    6bb8:	52800002 	mov	w2, #0x0                   	// #0
    6bbc:	17ffffa3 	b	6a48 <mbedtls_mpi_div_mpi+0x39c>
/home/hei/Desktop/optee-qemu/optee_os/lib/libmbedtls/mbedtls/library/bignum.c:1556
    6bc0:	52800002 	mov	w2, #0x0                   	// #0
    6bc4:	17ffffb6 	b	6a9c <mbedtls_mpi_div_mpi+0x3f0>
    6bc8:	2a0003f9 	mov	w25, w0
    6bcc:	17fffeec 	b	677c <mbedtls_mpi_div_mpi+0xd0>
/home/hei/Desktop/optee-qemu/optee_os/lib/libmbedtls/mbedtls/library/bignum.c:1493
    6bd0:	12800179 	mov	w25, #0xfffffff4            	// #-12
    6bd4:	17fffedc 	b	6744 <mbedtls_mpi_div_mpi+0x98>

0000000000006bd8 <mbedtls_mpi_div_int>:
mbedtls_mpi_div_int():
/home/hei/Desktop/optee-qemu/optee_os/lib/libmbedtls/mbedtls/library/bignum.c:1605
    6bd8:	a9bd7bfd 	stp	x29, x30, [sp, #-48]!
/home/hei/Desktop/optee-qemu/optee_os/lib/libmbedtls/mbedtls/library/bignum.c:1610
    6bdc:	7100007f 	cmp	w3, #0x0
    6be0:	5a83a464 	cneg	w4, w3, lt  // lt = tstop
/home/hei/Desktop/optee-qemu/optee_os/lib/libmbedtls/mbedtls/library/bignum.c:1605
    6be4:	910003fd 	mov	x29, sp
/home/hei/Desktop/optee-qemu/optee_os/lib/libmbedtls/mbedtls/library/bignum.c:1610
    6be8:	b90013e4 	str	w4, [sp, #16]
/home/hei/Desktop/optee-qemu/optee_os/lib/libmbedtls/mbedtls/library/bignum.c:1611
    6bec:	52800024 	mov	w4, #0x1                   	// #1
    6bf0:	5a84a484 	cneg	w4, w4, lt  // lt = tstop
/home/hei/Desktop/optee-qemu/optee_os/lib/libmbedtls/mbedtls/library/bignum.c:1612
    6bf4:	d2800023 	mov	x3, #0x1                   	// #1
    6bf8:	f90013e3 	str	x3, [sp, #32]
/home/hei/Desktop/optee-qemu/optee_os/lib/libmbedtls/mbedtls/library/bignum.c:1613
    6bfc:	910043e3 	add	x3, sp, #0x10
/home/hei/Desktop/optee-qemu/optee_os/lib/libmbedtls/mbedtls/library/bignum.c:1611
    6c00:	790033e4 	strh	w4, [sp, #24]
/home/hei/Desktop/optee-qemu/optee_os/lib/libmbedtls/mbedtls/library/bignum.c:1613
    6c04:	f90017e3 	str	x3, [sp, #40]
/home/hei/Desktop/optee-qemu/optee_os/lib/libmbedtls/mbedtls/library/bignum.c:1615
    6c08:	910063e3 	add	x3, sp, #0x18
    6c0c:	97fffea8 	bl	66ac <mbedtls_mpi_div_mpi>
/home/hei/Desktop/optee-qemu/optee_os/lib/libmbedtls/mbedtls/library/bignum.c:1616
    6c10:	a8c37bfd 	ldp	x29, x30, [sp], #48
    6c14:	d65f03c0 	ret

0000000000006c18 <mbedtls_mpi_mod_mpi>:
mbedtls_mpi_mod_mpi():
/home/hei/Desktop/optee-qemu/optee_os/lib/libmbedtls/mbedtls/library/bignum.c:1622
    6c18:	a9bd7bfd 	stp	x29, x30, [sp, #-48]!
    6c1c:	910003fd 	mov	x29, sp
    6c20:	a90153f3 	stp	x19, x20, [sp, #16]
    6c24:	aa0003f3 	mov	x19, x0
    6c28:	aa0103f4 	mov	x20, x1
/home/hei/Desktop/optee-qemu/optee_os/lib/libmbedtls/mbedtls/library/bignum.c:1628
    6c2c:	aa0203e0 	mov	x0, x2
    6c30:	52800001 	mov	w1, #0x0                   	// #0
/home/hei/Desktop/optee-qemu/optee_os/lib/libmbedtls/mbedtls/library/bignum.c:1622
    6c34:	f90013f5 	str	x21, [sp, #32]
    6c38:	aa0203f5 	mov	x21, x2
/home/hei/Desktop/optee-qemu/optee_os/lib/libmbedtls/mbedtls/library/bignum.c:1628
    6c3c:	97fffccd 	bl	5f70 <mbedtls_mpi_cmp_int>
    6c40:	37f80420 	tbnz	w0, #31, 6cc4 <mbedtls_mpi_mod_mpi+0xac>
/home/hei/Desktop/optee-qemu/optee_os/lib/libmbedtls/mbedtls/library/bignum.c:1631
    6c44:	aa1403e2 	mov	x2, x20
    6c48:	aa1503e3 	mov	x3, x21
    6c4c:	aa1303e1 	mov	x1, x19
    6c50:	d2800000 	mov	x0, #0x0                   	// #0
    6c54:	97fffe96 	bl	66ac <mbedtls_mpi_div_mpi>
    6c58:	2a0003f4 	mov	w20, w0
    6c5c:	34000160 	cbz	w0, 6c88 <mbedtls_mpi_mod_mpi+0x70>
/home/hei/Desktop/optee-qemu/optee_os/lib/libmbedtls/mbedtls/library/bignum.c:1642
    6c60:	2a1403e0 	mov	w0, w20
    6c64:	a94153f3 	ldp	x19, x20, [sp, #16]
    6c68:	f94013f5 	ldr	x21, [sp, #32]
    6c6c:	a8c37bfd 	ldp	x29, x30, [sp], #48
    6c70:	d65f03c0 	ret
/home/hei/Desktop/optee-qemu/optee_os/lib/libmbedtls/mbedtls/library/bignum.c:1634
    6c74:	aa1503e2 	mov	x2, x21
    6c78:	aa1303e1 	mov	x1, x19
    6c7c:	aa1303e0 	mov	x0, x19
    6c80:	97fffd4c 	bl	61b0 <mbedtls_mpi_add_mpi>
    6c84:	350001c0 	cbnz	w0, 6cbc <mbedtls_mpi_mod_mpi+0xa4>
/home/hei/Desktop/optee-qemu/optee_os/lib/libmbedtls/mbedtls/library/bignum.c:1633
    6c88:	52800001 	mov	w1, #0x0                   	// #0
    6c8c:	aa1303e0 	mov	x0, x19
    6c90:	97fffcb8 	bl	5f70 <mbedtls_mpi_cmp_int>
    6c94:	37ffff00 	tbnz	w0, #31, 6c74 <mbedtls_mpi_mod_mpi+0x5c>
/home/hei/Desktop/optee-qemu/optee_os/lib/libmbedtls/mbedtls/library/bignum.c:1636
    6c98:	aa1503e1 	mov	x1, x21
    6c9c:	aa1303e0 	mov	x0, x19
    6ca0:	97fffc7e 	bl	5e98 <mbedtls_mpi_cmp_mpi>
    6ca4:	37fffde0 	tbnz	w0, #31, 6c60 <mbedtls_mpi_mod_mpi+0x48>
/home/hei/Desktop/optee-qemu/optee_os/lib/libmbedtls/mbedtls/library/bignum.c:1637
    6ca8:	aa1503e2 	mov	x2, x21
    6cac:	aa1303e1 	mov	x1, x19
    6cb0:	aa1303e0 	mov	x0, x19
    6cb4:	97fffd61 	bl	6238 <mbedtls_mpi_sub_mpi>
    6cb8:	34ffff00 	cbz	w0, 6c98 <mbedtls_mpi_mod_mpi+0x80>
    6cbc:	2a0003f4 	mov	w20, w0
    6cc0:	17ffffe8 	b	6c60 <mbedtls_mpi_mod_mpi+0x48>
/home/hei/Desktop/optee-qemu/optee_os/lib/libmbedtls/mbedtls/library/bignum.c:1629
    6cc4:	12800134 	mov	w20, #0xfffffff6            	// #-10
    6cc8:	17ffffe6 	b	6c60 <mbedtls_mpi_mod_mpi+0x48>

0000000000006ccc <mbedtls_mpi_mod_int>:
mbedtls_mpi_mod_int():
/home/hei/Desktop/optee-qemu/optee_os/lib/libmbedtls/mbedtls/library/bignum.c:1654
    6ccc:	7100005f 	cmp	w2, #0x0
    6cd0:	54000460 	b.eq	6d5c <mbedtls_mpi_mod_int+0x90>  // b.none
/home/hei/Desktop/optee-qemu/optee_os/lib/libmbedtls/mbedtls/library/bignum.c:1657
    6cd4:	5400048b 	b.lt	6d64 <mbedtls_mpi_mod_int+0x98>  // b.tstop
/home/hei/Desktop/optee-qemu/optee_os/lib/libmbedtls/mbedtls/library/bignum.c:1663
    6cd8:	7100045f 	cmp	w2, #0x1
    6cdc:	54000081 	b.ne	6cec <mbedtls_mpi_mod_int+0x20>  // b.any
/home/hei/Desktop/optee-qemu/optee_os/lib/libmbedtls/mbedtls/library/bignum.c:1665
    6ce0:	b900001f 	str	wzr, [x0]
/home/hei/Desktop/optee-qemu/optee_os/lib/libmbedtls/mbedtls/library/bignum.c:1698
    6ce4:	52800000 	mov	w0, #0x0                   	// #0
/home/hei/Desktop/optee-qemu/optee_os/lib/libmbedtls/mbedtls/library/bignum.c:1701
    6ce8:	d65f03c0 	ret
/home/hei/Desktop/optee-qemu/optee_os/lib/libmbedtls/mbedtls/library/bignum.c:1669
    6cec:	7100085f 	cmp	w2, #0x2
    6cf0:	540000c1 	b.ne	6d08 <mbedtls_mpi_mod_int+0x3c>  // b.any
/home/hei/Desktop/optee-qemu/optee_os/lib/libmbedtls/mbedtls/library/bignum.c:1671
    6cf4:	f9400821 	ldr	x1, [x1, #16]
    6cf8:	b9400021 	ldr	w1, [x1]
    6cfc:	12000021 	and	w1, w1, #0x1
    6d00:	b9000001 	str	w1, [x0]
/home/hei/Desktop/optee-qemu/optee_os/lib/libmbedtls/mbedtls/library/bignum.c:1672
    6d04:	17fffff8 	b	6ce4 <mbedtls_mpi_mod_int+0x18>
/home/hei/Desktop/optee-qemu/optee_os/lib/libmbedtls/mbedtls/library/bignum.c:1678
    6d08:	f9400425 	ldr	x5, [x1, #8]
    6d0c:	52800003 	mov	w3, #0x0                   	// #0
    6d10:	d10004a5 	sub	x5, x5, #0x1
    6d14:	b10004bf 	cmn	x5, #0x1
    6d18:	540000e1 	b.ne	6d34 <mbedtls_mpi_mod_int+0x68>  // b.any
/home/hei/Desktop/optee-qemu/optee_os/lib/libmbedtls/mbedtls/library/bignum.c:1695
    6d1c:	79c00021 	ldrsh	w1, [x1]
    6d20:	36f80061 	tbz	w1, #31, 6d2c <mbedtls_mpi_mod_int+0x60>
    6d24:	34000043 	cbz	w3, 6d2c <mbedtls_mpi_mod_int+0x60>
/home/hei/Desktop/optee-qemu/optee_os/lib/libmbedtls/mbedtls/library/bignum.c:1696
    6d28:	4b030043 	sub	w3, w2, w3
/home/hei/Desktop/optee-qemu/optee_os/lib/libmbedtls/mbedtls/library/bignum.c:1698
    6d2c:	b9000003 	str	w3, [x0]
    6d30:	17ffffed 	b	6ce4 <mbedtls_mpi_mod_int+0x18>
/home/hei/Desktop/optee-qemu/optee_os/lib/libmbedtls/mbedtls/library/bignum.c:1680
    6d34:	f9400824 	ldr	x4, [x1, #16]
    6d38:	b8657886 	ldr	w6, [x4, x5, lsl #2]
/home/hei/Desktop/optee-qemu/optee_os/lib/libmbedtls/mbedtls/library/bignum.c:1681
    6d3c:	13864063 	extr	w3, w3, w6, #16
/home/hei/Desktop/optee-qemu/optee_os/lib/libmbedtls/mbedtls/library/bignum.c:1686
    6d40:	1ac20864 	udiv	w4, w3, w2
    6d44:	1b028c83 	msub	w3, w4, w2, w3
    6d48:	12003cc4 	and	w4, w6, #0xffff
    6d4c:	2a034084 	orr	w4, w4, w3, lsl #16
    6d50:	1ac20883 	udiv	w3, w4, w2
    6d54:	1b029063 	msub	w3, w3, w2, w4
    6d58:	17ffffee 	b	6d10 <mbedtls_mpi_mod_int+0x44>
/home/hei/Desktop/optee-qemu/optee_os/lib/libmbedtls/mbedtls/library/bignum.c:1655
    6d5c:	12800160 	mov	w0, #0xfffffff4            	// #-12
    6d60:	17ffffe2 	b	6ce8 <mbedtls_mpi_mod_int+0x1c>
/home/hei/Desktop/optee-qemu/optee_os/lib/libmbedtls/mbedtls/library/bignum.c:1658
    6d64:	12800120 	mov	w0, #0xfffffff6            	// #-10
    6d68:	17ffffe0 	b	6ce8 <mbedtls_mpi_mod_int+0x1c>

0000000000006d6c <mpi_write_hlp>:
mpi_write_hlp():
/home/hei/Desktop/optee-qemu/optee_os/lib/libmbedtls/mbedtls/library/bignum.c:580
    6d6c:	a9bc7bfd 	stp	x29, x30, [sp, #-64]!
/home/hei/Desktop/optee-qemu/optee_os/lib/libmbedtls/mbedtls/library/bignum.c:584
    6d70:	51000823 	sub	w3, w1, #0x2
    6d74:	7100387f 	cmp	w3, #0xe
/home/hei/Desktop/optee-qemu/optee_os/lib/libmbedtls/mbedtls/library/bignum.c:580
    6d78:	910003fd 	mov	x29, sp
    6d7c:	a90153f3 	stp	x19, x20, [sp, #16]
    6d80:	a9025bf5 	stp	x21, x22, [sp, #32]
/home/hei/Desktop/optee-qemu/optee_os/lib/libmbedtls/mbedtls/library/bignum.c:584
    6d84:	540005a8 	b.hi	6e38 <mpi_write_hlp+0xcc>  // b.pmore
    6d88:	aa0203f5 	mov	x21, x2
    6d8c:	2a0103f6 	mov	w22, w1
/home/hei/Desktop/optee-qemu/optee_os/lib/libmbedtls/mbedtls/library/bignum.c:587
    6d90:	2a0103e2 	mov	w2, w1
    6d94:	aa0003f3 	mov	x19, x0
    6d98:	aa0003e1 	mov	x1, x0
    6d9c:	9100f3e0 	add	x0, sp, #0x3c
    6da0:	97ffffcb 	bl	6ccc <mbedtls_mpi_mod_int>
    6da4:	2a0003f4 	mov	w20, w0
    6da8:	350003e0 	cbnz	w0, 6e24 <mpi_write_hlp+0xb8>
/home/hei/Desktop/optee-qemu/optee_os/lib/libmbedtls/mbedtls/library/bignum.c:588
    6dac:	2a1603e3 	mov	w3, w22
    6db0:	aa1303e2 	mov	x2, x19
    6db4:	d2800001 	mov	x1, #0x0                   	// #0
    6db8:	aa1303e0 	mov	x0, x19
    6dbc:	97ffff87 	bl	6bd8 <mbedtls_mpi_div_int>
    6dc0:	2a0003f4 	mov	w20, w0
    6dc4:	35000300 	cbnz	w0, 6e24 <mpi_write_hlp+0xb8>
/home/hei/Desktop/optee-qemu/optee_os/lib/libmbedtls/mbedtls/library/bignum.c:590
    6dc8:	52800001 	mov	w1, #0x0                   	// #0
    6dcc:	aa1303e0 	mov	x0, x19
    6dd0:	97fffc68 	bl	5f70 <mbedtls_mpi_cmp_int>
    6dd4:	35000140 	cbnz	w0, 6dfc <mpi_write_hlp+0x90>
/home/hei/Desktop/optee-qemu/optee_os/lib/libmbedtls/mbedtls/library/bignum.c:593
    6dd8:	f94002a1 	ldr	x1, [x21]
    6ddc:	b9403fe3 	ldr	w3, [sp, #60]
    6de0:	91000422 	add	x2, x1, #0x1
    6de4:	12001c60 	and	w0, w3, #0xff
    6de8:	7100247f 	cmp	w3, #0x9
    6dec:	54000169 	b.ls	6e18 <mpi_write_hlp+0xac>  // b.plast
/home/hei/Desktop/optee-qemu/optee_os/lib/libmbedtls/mbedtls/library/bignum.c:596
    6df0:	1100dc00 	add	w0, w0, #0x37
    6df4:	f90002a2 	str	x2, [x21]
    6df8:	1400000a 	b	6e20 <mpi_write_hlp+0xb4>
/home/hei/Desktop/optee-qemu/optee_os/lib/libmbedtls/mbedtls/library/bignum.c:591
    6dfc:	aa1503e2 	mov	x2, x21
    6e00:	2a1603e1 	mov	w1, w22
    6e04:	aa1303e0 	mov	x0, x19
    6e08:	97ffffd9 	bl	6d6c <mpi_write_hlp>
    6e0c:	34fffe60 	cbz	w0, 6dd8 <mpi_write_hlp+0x6c>
    6e10:	2a0003f4 	mov	w20, w0
    6e14:	14000004 	b	6e24 <mpi_write_hlp+0xb8>
/home/hei/Desktop/optee-qemu/optee_os/lib/libmbedtls/mbedtls/library/bignum.c:594
    6e18:	1100c000 	add	w0, w0, #0x30
    6e1c:	f90002a2 	str	x2, [x21]
/home/hei/Desktop/optee-qemu/optee_os/lib/libmbedtls/mbedtls/library/bignum.c:596
    6e20:	39000020 	strb	w0, [x1]
/home/hei/Desktop/optee-qemu/optee_os/lib/libmbedtls/mbedtls/library/bignum.c:601
    6e24:	2a1403e0 	mov	w0, w20
    6e28:	a94153f3 	ldp	x19, x20, [sp, #16]
    6e2c:	a9425bf5 	ldp	x21, x22, [sp, #32]
    6e30:	a8c47bfd 	ldp	x29, x30, [sp], #64
    6e34:	d65f03c0 	ret
/home/hei/Desktop/optee-qemu/optee_os/lib/libmbedtls/mbedtls/library/bignum.c:585
    6e38:	12800074 	mov	w20, #0xfffffffc            	// #-4
    6e3c:	17fffffa 	b	6e24 <mpi_write_hlp+0xb8>

0000000000006e40 <mbedtls_mpi_write_string>:
mbedtls_mpi_write_string():
/home/hei/Desktop/optee-qemu/optee_os/lib/libmbedtls/mbedtls/library/bignum.c:608
    6e40:	a9ba7bfd 	stp	x29, x30, [sp, #-96]!
/home/hei/Desktop/optee-qemu/optee_os/lib/libmbedtls/mbedtls/library/bignum.c:617
    6e44:	51000825 	sub	w5, w1, #0x2
    6e48:	710038bf 	cmp	w5, #0xe
/home/hei/Desktop/optee-qemu/optee_os/lib/libmbedtls/mbedtls/library/bignum.c:608
    6e4c:	910003fd 	mov	x29, sp
    6e50:	a90153f3 	stp	x19, x20, [sp, #16]
    6e54:	a9025bf5 	stp	x21, x22, [sp, #32]
    6e58:	f9001bf7 	str	x23, [sp, #48]
/home/hei/Desktop/optee-qemu/optee_os/lib/libmbedtls/mbedtls/library/bignum.c:617
    6e5c:	54000d88 	b.hi	700c <mbedtls_mpi_write_string+0x1cc>  // b.pmore
    6e60:	2a0103f4 	mov	w20, w1
/home/hei/Desktop/optee-qemu/optee_os/lib/libmbedtls/mbedtls/library/bignum.c:620
    6e64:	aa0003f3 	mov	x19, x0
    6e68:	aa0403f5 	mov	x21, x4
    6e6c:	aa0303f6 	mov	x22, x3
    6e70:	aa0203f7 	mov	x23, x2
    6e74:	97fffaf3 	bl	5a40 <mbedtls_mpi_bitlen>
/home/hei/Desktop/optee-qemu/optee_os/lib/libmbedtls/mbedtls/library/bignum.c:621
    6e78:	71000e9f 	cmp	w20, #0x3
    6e7c:	5400004d 	b.le	6e84 <mbedtls_mpi_write_string+0x44>
/home/hei/Desktop/optee-qemu/optee_os/lib/libmbedtls/mbedtls/library/bignum.c:621 (discriminator 1)
    6e80:	d341fc00 	lsr	x0, x0, #1
/home/hei/Desktop/optee-qemu/optee_os/lib/libmbedtls/mbedtls/library/bignum.c:622
    6e84:	7100429f 	cmp	w20, #0x10
    6e88:	54000041 	b.ne	6e90 <mbedtls_mpi_write_string+0x50>  // b.any
/home/hei/Desktop/optee-qemu/optee_os/lib/libmbedtls/mbedtls/library/bignum.c:622 (discriminator 1)
    6e8c:	d341fc00 	lsr	x0, x0, #1
/home/hei/Desktop/optee-qemu/optee_os/lib/libmbedtls/mbedtls/library/bignum.c:628
    6e90:	91000401 	add	x1, x0, #0x1
    6e94:	91000c05 	add	x5, x0, #0x3
    6e98:	92400021 	and	x1, x1, #0x1
    6e9c:	8b050020 	add	x0, x1, x5
/home/hei/Desktop/optee-qemu/optee_os/lib/libmbedtls/mbedtls/library/bignum.c:630
    6ea0:	eb16001f 	cmp	x0, x22
    6ea4:	54000129 	b.ls	6ec8 <mbedtls_mpi_write_string+0x88>  // b.plast
/home/hei/Desktop/optee-qemu/optee_os/lib/libmbedtls/mbedtls/library/bignum.c:633
    6ea8:	128000f3 	mov	w19, #0xfffffff8            	// #-8
/home/hei/Desktop/optee-qemu/optee_os/lib/libmbedtls/mbedtls/library/bignum.c:632
    6eac:	f90002a0 	str	x0, [x21]
/home/hei/Desktop/optee-qemu/optee_os/lib/libmbedtls/mbedtls/library/bignum.c:680
    6eb0:	2a1303e0 	mov	w0, w19
    6eb4:	a94153f3 	ldp	x19, x20, [sp, #16]
    6eb8:	a9425bf5 	ldp	x21, x22, [sp, #32]
    6ebc:	f9401bf7 	ldr	x23, [sp, #48]
    6ec0:	a8c67bfd 	ldp	x29, x30, [sp], #96
    6ec4:	d65f03c0 	ret
/home/hei/Desktop/optee-qemu/optee_os/lib/libmbedtls/mbedtls/library/bignum.c:637
    6ec8:	910123f6 	add	x22, sp, #0x48
/home/hei/Desktop/optee-qemu/optee_os/lib/libmbedtls/mbedtls/library/bignum.c:636
    6ecc:	f90023f7 	str	x23, [sp, #64]
/home/hei/Desktop/optee-qemu/optee_os/lib/libmbedtls/mbedtls/library/bignum.c:637
    6ed0:	aa1603e0 	mov	x0, x22
    6ed4:	97fff925 	bl	5368 <mbedtls_mpi_init_mempool>
/home/hei/Desktop/optee-qemu/optee_os/lib/libmbedtls/mbedtls/library/bignum.c:639
    6ed8:	79c00260 	ldrsh	w0, [x19]
    6edc:	3100041f 	cmn	w0, #0x1
    6ee0:	540000c1 	b.ne	6ef8 <mbedtls_mpi_write_string+0xb8>  // b.any
/home/hei/Desktop/optee-qemu/optee_os/lib/libmbedtls/mbedtls/library/bignum.c:640
    6ee4:	f94023e0 	ldr	x0, [sp, #64]
    6ee8:	91000401 	add	x1, x0, #0x1
    6eec:	f90023e1 	str	x1, [sp, #64]
    6ef0:	528005a1 	mov	w1, #0x2d                  	// #45
    6ef4:	39000001 	strb	w1, [x0]
/home/hei/Desktop/optee-qemu/optee_os/lib/libmbedtls/mbedtls/library/bignum.c:642
    6ef8:	7100429f 	cmp	w20, #0x10
    6efc:	54000661 	b.ne	6fc8 <mbedtls_mpi_write_string+0x188>  // b.any
/home/hei/Desktop/optee-qemu/optee_os/lib/libmbedtls/mbedtls/library/bignum.c:647
    6f00:	f9400660 	ldr	x0, [x19, #8]
/home/hei/Desktop/optee-qemu/optee_os/lib/libmbedtls/mbedtls/library/bignum.c:656
    6f04:	b0000022 	adrp	x2, b000 <__func__.3755+0xec>
    6f08:	91124442 	add	x2, x2, #0x491
/home/hei/Desktop/optee-qemu/optee_os/lib/libmbedtls/mbedtls/library/bignum.c:647
    6f0c:	d2800005 	mov	x5, #0x0                   	// #0
/home/hei/Desktop/optee-qemu/optee_os/lib/libmbedtls/mbedtls/library/bignum.c:647 (discriminator 1)
    6f10:	b5000180 	cbnz	x0, 6f40 <mbedtls_mpi_write_string+0x100>
/home/hei/Desktop/optee-qemu/optee_os/lib/libmbedtls/mbedtls/library/bignum.c:672
    6f14:	f94023e0 	ldr	x0, [sp, #64]
/home/hei/Desktop/optee-qemu/optee_os/lib/libmbedtls/mbedtls/library/bignum.c:673
    6f18:	52800013 	mov	w19, #0x0                   	// #0
/home/hei/Desktop/optee-qemu/optee_os/lib/libmbedtls/mbedtls/library/bignum.c:672
    6f1c:	91000401 	add	x1, x0, #0x1
    6f20:	f90023e1 	str	x1, [sp, #64]
    6f24:	3900001f 	strb	wzr, [x0]
/home/hei/Desktop/optee-qemu/optee_os/lib/libmbedtls/mbedtls/library/bignum.c:673
    6f28:	f94023e2 	ldr	x2, [sp, #64]
    6f2c:	cb170057 	sub	x23, x2, x23
    6f30:	f90002b7 	str	x23, [x21]
/home/hei/Desktop/optee-qemu/optee_os/lib/libmbedtls/mbedtls/library/bignum.c:677
    6f34:	aa1603e0 	mov	x0, x22
    6f38:	97fff916 	bl	5390 <mbedtls_mpi_free>
/home/hei/Desktop/optee-qemu/optee_os/lib/libmbedtls/mbedtls/library/bignum.c:679
    6f3c:	17ffffdd 	b	6eb0 <mbedtls_mpi_write_string+0x70>
/home/hei/Desktop/optee-qemu/optee_os/lib/libmbedtls/mbedtls/library/bignum.c:651
    6f40:	d37ef404 	lsl	x4, x0, #2
/home/hei/Desktop/optee-qemu/optee_os/lib/libmbedtls/mbedtls/library/bignum.c:649
    6f44:	d2800081 	mov	x1, #0x4                   	// #4
/home/hei/Desktop/optee-qemu/optee_os/lib/libmbedtls/mbedtls/library/bignum.c:651
    6f48:	d1001084 	sub	x4, x4, #0x4
    6f4c:	f9400a67 	ldr	x7, [x19, #16]
    6f50:	531d7023 	lsl	w3, w1, #3
    6f54:	51002066 	sub	w6, w3, #0x8
/home/hei/Desktop/optee-qemu/optee_os/lib/libmbedtls/mbedtls/library/bignum.c:653
    6f58:	520000a5 	eor	w5, w5, #0x1
/home/hei/Desktop/optee-qemu/optee_os/lib/libmbedtls/mbedtls/library/bignum.c:651
    6f5c:	b86468e3 	ldr	w3, [x7, x4]
    6f60:	1ac62463 	lsr	w3, w3, w6
/home/hei/Desktop/optee-qemu/optee_os/lib/libmbedtls/mbedtls/library/bignum.c:653
    6f64:	72001c66 	ands	w6, w3, #0xff
    6f68:	1a9f00a5 	csel	w5, w5, wzr, eq  // eq = none
    6f6c:	34000085 	cbz	w5, 6f7c <mbedtls_mpi_write_string+0x13c>
/home/hei/Desktop/optee-qemu/optee_os/lib/libmbedtls/mbedtls/library/bignum.c:653 (discriminator 1)
    6f70:	8b010005 	add	x5, x0, x1
    6f74:	f10008bf 	cmp	x5, #0x2
    6f78:	54000241 	b.ne	6fc0 <mbedtls_mpi_write_string+0x180>  // b.any
/home/hei/Desktop/optee-qemu/optee_os/lib/libmbedtls/mbedtls/library/bignum.c:656
    6f7c:	f94023e7 	ldr	x7, [sp, #64]
/home/hei/Desktop/optee-qemu/optee_os/lib/libmbedtls/mbedtls/library/bignum.c:657
    6f80:	92400c63 	and	x3, x3, #0xf
/home/hei/Desktop/optee-qemu/optee_os/lib/libmbedtls/mbedtls/library/bignum.c:656
    6f84:	910004e5 	add	x5, x7, #0x1
    6f88:	f90023e5 	str	x5, [sp, #64]
    6f8c:	d3441cc5 	ubfx	x5, x6, #4, #4
/home/hei/Desktop/optee-qemu/optee_os/lib/libmbedtls/mbedtls/library/bignum.c:657
    6f90:	38636843 	ldrb	w3, [x2, x3]
/home/hei/Desktop/optee-qemu/optee_os/lib/libmbedtls/mbedtls/library/bignum.c:656
    6f94:	38656845 	ldrb	w5, [x2, x5]
    6f98:	390000e5 	strb	w5, [x7]
/home/hei/Desktop/optee-qemu/optee_os/lib/libmbedtls/mbedtls/library/bignum.c:657
    6f9c:	f94023e5 	ldr	x5, [sp, #64]
    6fa0:	910004a6 	add	x6, x5, #0x1
    6fa4:	f90023e6 	str	x6, [sp, #64]
    6fa8:	390000a3 	strb	w3, [x5]
/home/hei/Desktop/optee-qemu/optee_os/lib/libmbedtls/mbedtls/library/bignum.c:658
    6fac:	d2800025 	mov	x5, #0x1                   	// #1
/home/hei/Desktop/optee-qemu/optee_os/lib/libmbedtls/mbedtls/library/bignum.c:649 (discriminator 2)
    6fb0:	f1000421 	subs	x1, x1, #0x1
    6fb4:	54fffcc1 	b.ne	6f4c <mbedtls_mpi_write_string+0x10c>  // b.any
/home/hei/Desktop/optee-qemu/optee_os/lib/libmbedtls/mbedtls/library/bignum.c:647 (discriminator 2)
    6fb8:	d1000400 	sub	x0, x0, #0x1
    6fbc:	17ffffd5 	b	6f10 <mbedtls_mpi_write_string+0xd0>
    6fc0:	d2800005 	mov	x5, #0x0                   	// #0
    6fc4:	17fffffb 	b	6fb0 <mbedtls_mpi_write_string+0x170>
/home/hei/Desktop/optee-qemu/optee_os/lib/libmbedtls/mbedtls/library/bignum.c:664
    6fc8:	aa1303e1 	mov	x1, x19
    6fcc:	aa1603e0 	mov	x0, x22
    6fd0:	97fff991 	bl	5614 <mbedtls_mpi_copy>
    6fd4:	2a0003f3 	mov	w19, w0
    6fd8:	35fffae0 	cbnz	w0, 6f34 <mbedtls_mpi_write_string+0xf4>
/home/hei/Desktop/optee-qemu/optee_os/lib/libmbedtls/mbedtls/library/bignum.c:666
    6fdc:	79c093e0 	ldrsh	w0, [sp, #72]
    6fe0:	3100041f 	cmn	w0, #0x1
    6fe4:	54000061 	b.ne	6ff0 <mbedtls_mpi_write_string+0x1b0>  // b.any
/home/hei/Desktop/optee-qemu/optee_os/lib/libmbedtls/mbedtls/library/bignum.c:667
    6fe8:	52800020 	mov	w0, #0x1                   	// #1
    6fec:	790093e0 	strh	w0, [sp, #72]
/home/hei/Desktop/optee-qemu/optee_os/lib/libmbedtls/mbedtls/library/bignum.c:669
    6ff0:	910103e2 	add	x2, sp, #0x40
    6ff4:	2a1403e1 	mov	w1, w20
    6ff8:	aa1603e0 	mov	x0, x22
    6ffc:	97ffff5c 	bl	6d6c <mpi_write_hlp>
    7000:	2a0003f3 	mov	w19, w0
    7004:	34fff880 	cbz	w0, 6f14 <mbedtls_mpi_write_string+0xd4>
    7008:	17ffffcb 	b	6f34 <mbedtls_mpi_write_string+0xf4>
/home/hei/Desktop/optee-qemu/optee_os/lib/libmbedtls/mbedtls/library/bignum.c:618
    700c:	12800073 	mov	w19, #0xfffffffc            	// #-4
    7010:	17ffffa8 	b	6eb0 <mbedtls_mpi_write_string+0x70>

0000000000007014 <mpi_check_small_factors>:
mpi_check_small_factors():
/home/hei/Desktop/optee-qemu/optee_os/lib/libmbedtls/mbedtls/library/bignum.c:2233
    7014:	f9400801 	ldr	x1, [x0, #16]
    7018:	b9400021 	ldr	w1, [x1]
    701c:	36000441 	tbz	w1, #0, 70a4 <mpi_check_small_factors+0x90>
/home/hei/Desktop/optee-qemu/optee_os/lib/libmbedtls/mbedtls/library/bignum.c:2228
    7020:	a9bc7bfd 	stp	x29, x30, [sp, #-64]!
    7024:	910003fd 	mov	x29, sp
    7028:	a90153f3 	stp	x19, x20, [sp, #16]
    702c:	f0000013 	adrp	x19, a000 <__text_end+0x1324>
    7030:	aa0003f4 	mov	x20, x0
    7034:	9121f273 	add	x19, x19, #0x87c
    7038:	a9025bf5 	stp	x21, x22, [sp, #32]
/home/hei/Desktop/optee-qemu/optee_os/lib/libmbedtls/mbedtls/library/bignum.c:2241
    703c:	9100f3f6 	add	x22, sp, #0x3c
/home/hei/Desktop/optee-qemu/optee_os/lib/libmbedtls/mbedtls/library/bignum.c:2236
    7040:	b9400275 	ldr	w21, [x19]
    7044:	710002bf 	cmp	w21, #0x0
    7048:	540000cc 	b.gt	7060 <mpi_check_small_factors+0x4c>
    704c:	52800000 	mov	w0, #0x0                   	// #0
/home/hei/Desktop/optee-qemu/optee_os/lib/libmbedtls/mbedtls/library/bignum.c:2249
    7050:	a94153f3 	ldp	x19, x20, [sp, #16]
    7054:	a9425bf5 	ldp	x21, x22, [sp, #32]
    7058:	a8c47bfd 	ldp	x29, x30, [sp], #64
    705c:	d65f03c0 	ret
/home/hei/Desktop/optee-qemu/optee_os/lib/libmbedtls/mbedtls/library/bignum.c:2238
    7060:	2a1503e1 	mov	w1, w21
    7064:	aa1403e0 	mov	x0, x20
    7068:	97fffbc2 	bl	5f70 <mbedtls_mpi_cmp_int>
    706c:	7100001f 	cmp	w0, #0x0
    7070:	5400016d 	b.le	709c <mpi_check_small_factors+0x88>
/home/hei/Desktop/optee-qemu/optee_os/lib/libmbedtls/mbedtls/library/bignum.c:2241
    7074:	2a1503e2 	mov	w2, w21
    7078:	aa1403e1 	mov	x1, x20
    707c:	aa1603e0 	mov	x0, x22
    7080:	97ffff13 	bl	6ccc <mbedtls_mpi_mod_int>
    7084:	35fffe60 	cbnz	w0, 7050 <mpi_check_small_factors+0x3c>
/home/hei/Desktop/optee-qemu/optee_os/lib/libmbedtls/mbedtls/library/bignum.c:2243
    7088:	b9403fe0 	ldr	w0, [sp, #60]
    708c:	91001273 	add	x19, x19, #0x4
    7090:	35fffd80 	cbnz	w0, 7040 <mpi_check_small_factors+0x2c>
/home/hei/Desktop/optee-qemu/optee_os/lib/libmbedtls/mbedtls/library/bignum.c:2244
    7094:	128001a0 	mov	w0, #0xfffffff2            	// #-14
    7098:	17ffffee 	b	7050 <mpi_check_small_factors+0x3c>
/home/hei/Desktop/optee-qemu/optee_os/lib/libmbedtls/mbedtls/library/bignum.c:2239
    709c:	52800020 	mov	w0, #0x1                   	// #1
    70a0:	17ffffec 	b	7050 <mpi_check_small_factors+0x3c>
/home/hei/Desktop/optee-qemu/optee_os/lib/libmbedtls/mbedtls/library/bignum.c:2234
    70a4:	128001a0 	mov	w0, #0xfffffff2            	// #-14
/home/hei/Desktop/optee-qemu/optee_os/lib/libmbedtls/mbedtls/library/bignum.c:2249
    70a8:	d65f03c0 	ret

00000000000070ac <mbedtls_mpi_montg_init>:
mbedtls_mpi_montg_init():
/home/hei/Desktop/optee-qemu/optee_os/lib/libmbedtls/mbedtls/library/bignum.c:1708
    70ac:	f9400821 	ldr	x1, [x1, #16]
/home/hei/Desktop/optee-qemu/optee_os/lib/libmbedtls/mbedtls/library/bignum.c:1712
    70b0:	52800062 	mov	w2, #0x3                   	// #3
/home/hei/Desktop/optee-qemu/optee_os/lib/libmbedtls/mbedtls/library/bignum.c:1715
    70b4:	52800045 	mov	w5, #0x2                   	// #2
/home/hei/Desktop/optee-qemu/optee_os/lib/libmbedtls/mbedtls/library/bignum.c:1708
    70b8:	b9400023 	ldr	w3, [x1]
/home/hei/Desktop/optee-qemu/optee_os/lib/libmbedtls/mbedtls/library/bignum.c:1712
    70bc:	11000861 	add	w1, w3, #0x2
    70c0:	531f7821 	lsl	w1, w1, #1
    70c4:	121d0021 	and	w1, w1, #0x8
    70c8:	0b030021 	add	w1, w1, w3
/home/hei/Desktop/optee-qemu/optee_os/lib/libmbedtls/mbedtls/library/bignum.c:1715 (discriminator 3)
    70cc:	1b019464 	msub	w4, w3, w1, w5
/home/hei/Desktop/optee-qemu/optee_os/lib/libmbedtls/mbedtls/library/bignum.c:1714 (discriminator 3)
    70d0:	71000442 	subs	w2, w2, #0x1
/home/hei/Desktop/optee-qemu/optee_os/lib/libmbedtls/mbedtls/library/bignum.c:1715 (discriminator 3)
    70d4:	1b047c21 	mul	w1, w1, w4
/home/hei/Desktop/optee-qemu/optee_os/lib/libmbedtls/mbedtls/library/bignum.c:1714 (discriminator 3)
    70d8:	54ffffa1 	b.ne	70cc <mbedtls_mpi_montg_init+0x20>  // b.any
/home/hei/Desktop/optee-qemu/optee_os/lib/libmbedtls/mbedtls/library/bignum.c:1717
    70dc:	4b0103e1 	neg	w1, w1
    70e0:	b9000001 	str	w1, [x0]
/home/hei/Desktop/optee-qemu/optee_os/lib/libmbedtls/mbedtls/library/bignum.c:1718
    70e4:	d65f03c0 	ret

00000000000070e8 <mbedtls_mpi_montmul>:
mbedtls_mpi_montmul():
/home/hei/Desktop/optee-qemu/optee_os/lib/libmbedtls/mbedtls/library/bignum.c:1730
    70e8:	f9400445 	ldr	x5, [x2, #8]
    70ec:	f9400486 	ldr	x6, [x4, #8]
    70f0:	910004a5 	add	x5, x5, #0x1
    70f4:	eb0500df 	cmp	x6, x5
    70f8:	540008e3 	b.cc	7214 <mbedtls_mpi_montmul+0x12c>  // b.lo, b.ul, b.last
/home/hei/Desktop/optee-qemu/optee_os/lib/libmbedtls/mbedtls/library/bignum.c:1730 (discriminator 1)
    70fc:	f9400885 	ldr	x5, [x4, #16]
    7100:	b40008a5 	cbz	x5, 7214 <mbedtls_mpi_montmul+0x12c>
/home/hei/Desktop/optee-qemu/optee_os/lib/libmbedtls/mbedtls/library/bignum.c:1726
    7104:	a9bb7bfd 	stp	x29, x30, [sp, #-80]!
    7108:	910003fd 	mov	x29, sp
    710c:	a90153f3 	stp	x19, x20, [sp, #16]
    7110:	aa0203f3 	mov	x19, x2
/home/hei/Desktop/optee-qemu/optee_os/lib/libmbedtls/mbedtls/library/bignum.c:1733
    7114:	d37ef4c2 	lsl	x2, x6, #2
/home/hei/Desktop/optee-qemu/optee_os/lib/libmbedtls/mbedtls/library/bignum.c:1726
    7118:	a90363f7 	stp	x23, x24, [sp, #48]
    711c:	aa0103f8 	mov	x24, x1
    7120:	2a0303f7 	mov	w23, w3
/home/hei/Desktop/optee-qemu/optee_os/lib/libmbedtls/mbedtls/library/bignum.c:1733
    7124:	52800001 	mov	w1, #0x0                   	// #0
/home/hei/Desktop/optee-qemu/optee_os/lib/libmbedtls/mbedtls/library/bignum.c:1726
    7128:	a9025bf5 	stp	x21, x22, [sp, #32]
    712c:	aa0403f6 	mov	x22, x4
    7130:	aa0003f5 	mov	x21, x0
/home/hei/Desktop/optee-qemu/optee_os/lib/libmbedtls/mbedtls/library/bignum.c:1733
    7134:	aa0503e0 	mov	x0, x5
/home/hei/Desktop/optee-qemu/optee_os/lib/libmbedtls/mbedtls/library/bignum.c:1726
    7138:	f90023f9 	str	x25, [sp, #64]
/home/hei/Desktop/optee-qemu/optee_os/lib/libmbedtls/mbedtls/library/bignum.c:1733
    713c:	97ffe94b 	bl	1668 <memset>
/home/hei/Desktop/optee-qemu/optee_os/lib/libmbedtls/mbedtls/library/bignum.c:1736
    7140:	f940066d 	ldr	x13, [x19, #8]
/home/hei/Desktop/optee-qemu/optee_os/lib/libmbedtls/mbedtls/library/bignum.c:1739
    7144:	d2800014 	mov	x20, #0x0                   	// #0
/home/hei/Desktop/optee-qemu/optee_os/lib/libmbedtls/mbedtls/library/bignum.c:1737
    7148:	f9400700 	ldr	x0, [x24, #8]
/home/hei/Desktop/optee-qemu/optee_os/lib/libmbedtls/mbedtls/library/bignum.c:1750
    714c:	910005ac 	add	x12, x13, #0x1
/home/hei/Desktop/optee-qemu/optee_os/lib/libmbedtls/mbedtls/library/bignum.c:1735
    7150:	f9400ad9 	ldr	x25, [x22, #16]
/home/hei/Desktop/optee-qemu/optee_os/lib/libmbedtls/mbedtls/library/bignum.c:1737
    7154:	eb0d001f 	cmp	x0, x13
/home/hei/Desktop/optee-qemu/optee_os/lib/libmbedtls/mbedtls/library/bignum.c:1750
    7158:	d37ef58c 	lsl	x12, x12, #2
/home/hei/Desktop/optee-qemu/optee_os/lib/libmbedtls/mbedtls/library/bignum.c:1737
    715c:	9a8d900f 	csel	x15, x0, x13, ls  // ls = plast
/home/hei/Desktop/optee-qemu/optee_os/lib/libmbedtls/mbedtls/library/bignum.c:1735
    7160:	aa1903eb 	mov	x11, x25
/home/hei/Desktop/optee-qemu/optee_os/lib/libmbedtls/mbedtls/library/bignum.c:1739 (discriminator 1)
    7164:	eb0d029f 	cmp	x20, x13
    7168:	f9400aa0 	ldr	x0, [x21, #16]
    716c:	54000281 	b.ne	71bc <mbedtls_mpi_montmul+0xd4>  // b.any
/home/hei/Desktop/optee-qemu/optee_os/lib/libmbedtls/mbedtls/library/bignum.c:1753
    7170:	aa0c03e2 	mov	x2, x12
    7174:	d1001181 	sub	x1, x12, #0x4
    7178:	8b010321 	add	x1, x25, x1
    717c:	97ffe4e6 	bl	514 <memcpy>
/home/hei/Desktop/optee-qemu/optee_os/lib/libmbedtls/mbedtls/library/bignum.c:1755
    7180:	aa1303e1 	mov	x1, x19
    7184:	aa1503e0 	mov	x0, x21
    7188:	97fffb1d 	bl	5dfc <mbedtls_mpi_cmp_abs>
    718c:	37f803e0 	tbnz	w0, #31, 7208 <mbedtls_mpi_montmul+0x120>
/home/hei/Desktop/optee-qemu/optee_os/lib/libmbedtls/mbedtls/library/bignum.c:1756
    7190:	f9400a61 	ldr	x1, [x19, #16]
    7194:	f9400aa2 	ldr	x2, [x21, #16]
/home/hei/Desktop/optee-qemu/optee_os/lib/libmbedtls/mbedtls/library/bignum.c:1759
    7198:	aa1403e0 	mov	x0, x20
    719c:	97fff722 	bl	4e24 <mpi_sub_hlp>
/home/hei/Desktop/optee-qemu/optee_os/lib/libmbedtls/mbedtls/library/bignum.c:1761
    71a0:	52800000 	mov	w0, #0x0                   	// #0
/home/hei/Desktop/optee-qemu/optee_os/lib/libmbedtls/mbedtls/library/bignum.c:1762
    71a4:	a94153f3 	ldp	x19, x20, [sp, #16]
    71a8:	a9425bf5 	ldp	x21, x22, [sp, #32]
    71ac:	a94363f7 	ldp	x23, x24, [sp, #48]
    71b0:	f94023f9 	ldr	x25, [sp, #64]
    71b4:	a8c57bfd 	ldp	x29, x30, [sp], #80
    71b8:	d65f03c0 	ret
/home/hei/Desktop/optee-qemu/optee_os/lib/libmbedtls/mbedtls/library/bignum.c:1745 (discriminator 3)
    71bc:	f9400b01 	ldr	x1, [x24, #16]
/home/hei/Desktop/optee-qemu/optee_os/lib/libmbedtls/mbedtls/library/bignum.c:1747 (discriminator 3)
    71c0:	aa0b03e2 	mov	x2, x11
/home/hei/Desktop/optee-qemu/optee_os/lib/libmbedtls/mbedtls/library/bignum.c:1744 (discriminator 3)
    71c4:	b8747812 	ldr	w18, [x0, x20, lsl #2]
/home/hei/Desktop/optee-qemu/optee_os/lib/libmbedtls/mbedtls/library/bignum.c:1739 (discriminator 3)
    71c8:	91000694 	add	x20, x20, #0x1
/home/hei/Desktop/optee-qemu/optee_os/lib/libmbedtls/mbedtls/library/bignum.c:1745 (discriminator 3)
    71cc:	b9400160 	ldr	w0, [x11]
    71d0:	b940002e 	ldr	w14, [x1]
/home/hei/Desktop/optee-qemu/optee_os/lib/libmbedtls/mbedtls/library/bignum.c:1747 (discriminator 3)
    71d4:	2a1203e3 	mov	w3, w18
/home/hei/Desktop/optee-qemu/optee_os/lib/libmbedtls/mbedtls/library/bignum.c:1745 (discriminator 3)
    71d8:	1b0e024e 	madd	w14, w18, w14, w0
/home/hei/Desktop/optee-qemu/optee_os/lib/libmbedtls/mbedtls/library/bignum.c:1747 (discriminator 3)
    71dc:	aa0f03e0 	mov	x0, x15
/home/hei/Desktop/optee-qemu/optee_os/lib/libmbedtls/mbedtls/library/bignum.c:1745 (discriminator 3)
    71e0:	1b177dce 	mul	w14, w14, w23
/home/hei/Desktop/optee-qemu/optee_os/lib/libmbedtls/mbedtls/library/bignum.c:1747 (discriminator 3)
    71e4:	97fff728 	bl	4e84 <mpi_mul_hlp>
/home/hei/Desktop/optee-qemu/optee_os/lib/libmbedtls/mbedtls/library/bignum.c:1748 (discriminator 3)
    71e8:	aa0b03e2 	mov	x2, x11
    71ec:	f9400a61 	ldr	x1, [x19, #16]
    71f0:	2a0e03e3 	mov	w3, w14
    71f4:	aa0d03e0 	mov	x0, x13
    71f8:	97fff723 	bl	4e84 <mpi_mul_hlp>
/home/hei/Desktop/optee-qemu/optee_os/lib/libmbedtls/mbedtls/library/bignum.c:1750 (discriminator 3)
    71fc:	b8004572 	str	w18, [x11], #4
    7200:	b82c697f 	str	wzr, [x11, x12]
    7204:	17ffffd8 	b	7164 <mbedtls_mpi_montmul+0x7c>
/home/hei/Desktop/optee-qemu/optee_os/lib/libmbedtls/mbedtls/library/bignum.c:1759
    7208:	f9400aa1 	ldr	x1, [x21, #16]
    720c:	f9400ac2 	ldr	x2, [x22, #16]
    7210:	17ffffe2 	b	7198 <mbedtls_mpi_montmul+0xb0>
/home/hei/Desktop/optee-qemu/optee_os/lib/libmbedtls/mbedtls/library/bignum.c:1731
    7214:	12800060 	mov	w0, #0xfffffffc            	// #-4
/home/hei/Desktop/optee-qemu/optee_os/lib/libmbedtls/mbedtls/library/bignum.c:1762
    7218:	d65f03c0 	ret

000000000000721c <mbedtls_mpi_montred>:
mbedtls_mpi_montred():
/home/hei/Desktop/optee-qemu/optee_os/lib/libmbedtls/mbedtls/library/bignum.c:1769
    721c:	a9bd7bfd 	stp	x29, x30, [sp, #-48]!
/home/hei/Desktop/optee-qemu/optee_os/lib/libmbedtls/mbedtls/library/bignum.c:1770
    7220:	52800024 	mov	w4, #0x1                   	// #1
/home/hei/Desktop/optee-qemu/optee_os/lib/libmbedtls/mbedtls/library/bignum.c:1769
    7224:	910003fd 	mov	x29, sp
/home/hei/Desktop/optee-qemu/optee_os/lib/libmbedtls/mbedtls/library/bignum.c:1770
    7228:	b90017e4 	str	w4, [sp, #20]
/home/hei/Desktop/optee-qemu/optee_os/lib/libmbedtls/mbedtls/library/bignum.c:1773
    722c:	790033e4 	strh	w4, [sp, #24]
    7230:	d2800024 	mov	x4, #0x1                   	// #1
    7234:	f90013e4 	str	x4, [sp, #32]
/home/hei/Desktop/optee-qemu/optee_os/lib/libmbedtls/mbedtls/library/bignum.c:1774
    7238:	910053e4 	add	x4, sp, #0x14
    723c:	f90017e4 	str	x4, [sp, #40]
/home/hei/Desktop/optee-qemu/optee_os/lib/libmbedtls/mbedtls/library/bignum.c:1776
    7240:	aa0303e4 	mov	x4, x3
    7244:	2a0203e3 	mov	w3, w2
    7248:	aa0103e2 	mov	x2, x1
    724c:	910063e1 	add	x1, sp, #0x18
    7250:	97ffffa6 	bl	70e8 <mbedtls_mpi_montmul>
/home/hei/Desktop/optee-qemu/optee_os/lib/libmbedtls/mbedtls/library/bignum.c:1777
    7254:	a8c37bfd 	ldp	x29, x30, [sp], #48
    7258:	d65f03c0 	ret

000000000000725c <mbedtls_mpi_exp_mod>:
mbedtls_mpi_exp_mod():
/home/hei/Desktop/optee-qemu/optee_os/lib/libmbedtls/mbedtls/library/bignum.c:1785
    725c:	a9b07bfd 	stp	x29, x30, [sp, #-256]!
    7260:	910003fd 	mov	x29, sp
    7264:	a90153f3 	stp	x19, x20, [sp, #16]
    7268:	aa0303f3 	mov	x19, x3
    726c:	a9025bf5 	stp	x21, x22, [sp, #32]
    7270:	aa0003f5 	mov	x21, x0
/home/hei/Desktop/optee-qemu/optee_os/lib/libmbedtls/mbedtls/library/bignum.c:1801
    7274:	aa0303e0 	mov	x0, x3
/home/hei/Desktop/optee-qemu/optee_os/lib/libmbedtls/mbedtls/library/bignum.c:1785
    7278:	a90363f7 	stp	x23, x24, [sp, #48]
    727c:	a9046bf9 	stp	x25, x26, [sp, #64]
    7280:	aa0103fa 	mov	x26, x1
    7284:	aa0403f9 	mov	x25, x4
/home/hei/Desktop/optee-qemu/optee_os/lib/libmbedtls/mbedtls/library/bignum.c:1801
    7288:	52800001 	mov	w1, #0x0                   	// #0
/home/hei/Desktop/optee-qemu/optee_os/lib/libmbedtls/mbedtls/library/bignum.c:1785
    728c:	a90573fb 	stp	x27, x28, [sp, #80]
    7290:	aa0203fc 	mov	x28, x2
/home/hei/Desktop/optee-qemu/optee_os/lib/libmbedtls/mbedtls/library/bignum.c:1801
    7294:	97fffb37 	bl	5f70 <mbedtls_mpi_cmp_int>
    7298:	7100001f 	cmp	w0, #0x0
    729c:	5400014c 	b.gt	72c4 <mbedtls_mpi_exp_mod+0x68>
/home/hei/Desktop/optee-qemu/optee_os/lib/libmbedtls/mbedtls/library/bignum.c:1802
    72a0:	12800062 	mov	w2, #0xfffffffc            	// #-4
/home/hei/Desktop/optee-qemu/optee_os/lib/libmbedtls/mbedtls/library/bignum.c:2005
    72a4:	2a0203e0 	mov	w0, w2
    72a8:	a94153f3 	ldp	x19, x20, [sp, #16]
    72ac:	a9425bf5 	ldp	x21, x22, [sp, #32]
    72b0:	a94363f7 	ldp	x23, x24, [sp, #48]
    72b4:	a9446bf9 	ldp	x25, x26, [sp, #64]
    72b8:	a94573fb 	ldp	x27, x28, [sp, #80]
    72bc:	a8d07bfd 	ldp	x29, x30, [sp], #256
    72c0:	d65f03c0 	ret
/home/hei/Desktop/optee-qemu/optee_os/lib/libmbedtls/mbedtls/library/bignum.c:1801 (discriminator 1)
    72c4:	f9400a60 	ldr	x0, [x19, #16]
    72c8:	b9400000 	ldr	w0, [x0]
    72cc:	12000001 	and	w1, w0, #0x1
    72d0:	b9008fe1 	str	w1, [sp, #140]
    72d4:	3607fe60 	tbz	w0, #0, 72a0 <mbedtls_mpi_exp_mod+0x44>
/home/hei/Desktop/optee-qemu/optee_os/lib/libmbedtls/mbedtls/library/bignum.c:1804
    72d8:	52800001 	mov	w1, #0x0                   	// #0
    72dc:	aa1c03e0 	mov	x0, x28
    72e0:	97fffb24 	bl	5f70 <mbedtls_mpi_cmp_int>
    72e4:	37fffde0 	tbnz	w0, #31, 72a0 <mbedtls_mpi_exp_mod+0x44>
/home/hei/Desktop/optee-qemu/optee_os/lib/libmbedtls/mbedtls/library/bignum.c:1810
    72e8:	aa1303e1 	mov	x1, x19
    72ec:	9102d3e0 	add	x0, sp, #0xb4
/home/hei/Desktop/optee-qemu/optee_os/lib/libmbedtls/mbedtls/library/bignum.c:1811
    72f0:	9102e3f8 	add	x24, sp, #0xb8
/home/hei/Desktop/optee-qemu/optee_os/lib/libmbedtls/mbedtls/library/bignum.c:1810
    72f4:	97ffff6e 	bl	70ac <mbedtls_mpi_montg_init>
/home/hei/Desktop/optee-qemu/optee_os/lib/libmbedtls/mbedtls/library/bignum.c:1811
    72f8:	aa1803e0 	mov	x0, x24
    72fc:	910343f6 	add	x22, sp, #0xd0
    7300:	97fff81a 	bl	5368 <mbedtls_mpi_init_mempool>
    7304:	aa1603e0 	mov	x0, x22
    7308:	97fff818 	bl	5368 <mbedtls_mpi_init_mempool>
/home/hei/Desktop/optee-qemu/optee_os/lib/libmbedtls/mbedtls/library/bignum.c:1812
    730c:	9103a3e0 	add	x0, sp, #0xe8
    7310:	f9003be0 	str	x0, [sp, #112]
    7314:	97fff815 	bl	5368 <mbedtls_mpi_init_mempool>
/home/hei/Desktop/optee-qemu/optee_os/lib/libmbedtls/mbedtls/library/bignum.c:1814
    7318:	aa1c03e0 	mov	x0, x28
    731c:	97fff9c9 	bl	5a40 <mbedtls_mpi_bitlen>
/home/hei/Desktop/optee-qemu/optee_os/lib/libmbedtls/mbedtls/library/bignum.c:1816
    7320:	f10a7c1f 	cmp	x0, #0x29f
    7324:	540012c8 	b.hi	757c <mbedtls_mpi_exp_mod+0x320>  // b.pmore
/home/hei/Desktop/optee-qemu/optee_os/lib/libmbedtls/mbedtls/library/bignum.c:1816 (discriminator 1)
    7328:	f103bc1f 	cmp	x0, #0xef
    732c:	540012c8 	b.hi	7584 <mbedtls_mpi_exp_mod+0x328>  // b.pmore
/home/hei/Desktop/optee-qemu/optee_os/lib/libmbedtls/mbedtls/library/bignum.c:1816 (discriminator 3)
    7330:	f1013c1f 	cmp	x0, #0x4f
    7334:	540012c8 	b.hi	758c <mbedtls_mpi_exp_mod+0x330>  // b.pmore
/home/hei/Desktop/optee-qemu/optee_os/lib/libmbedtls/mbedtls/library/bignum.c:1816 (discriminator 5)
    7338:	f1005c1f 	cmp	x0, #0x17
    733c:	d2800077 	mov	x23, #0x3                   	// #3
    7340:	9a9f86f7 	csinc	x23, x23, xzr, hi  // hi = pmore
/home/hei/Desktop/optee-qemu/optee_os/lib/libmbedtls/mbedtls/library/bignum.c:1822
    7344:	f9400660 	ldr	x0, [x19, #8]
    7348:	91000400 	add	x0, x0, #0x1
    734c:	f9003fe0 	str	x0, [sp, #120]
/home/hei/Desktop/optee-qemu/optee_os/lib/libmbedtls/mbedtls/library/bignum.c:1823
    7350:	aa0003e1 	mov	x1, x0
    7354:	aa1503e0 	mov	x0, x21
    7358:	97fff829 	bl	53fc <mbedtls_mpi_grow>
    735c:	2a0003e2 	mov	w2, w0
    7360:	b0000020 	adrp	x0, c000 <_DYNAMIC>
    7364:	f90053e0 	str	x0, [sp, #160]
    7368:	35002b82 	cbnz	w2, 78d8 <mbedtls_mpi_exp_mod+0x67c>
/home/hei/Desktop/optee-qemu/optee_os/lib/libmbedtls/mbedtls/library/bignum.c:1825
    736c:	f9403fe0 	ldr	x0, [sp, #120]
    7370:	d37ff801 	lsl	x1, x0, #1
    7374:	aa1603e0 	mov	x0, x22
    7378:	97fff821 	bl	53fc <mbedtls_mpi_grow>
    737c:	2a0003e2 	mov	w2, w0
    7380:	35002ac0 	cbnz	w0, 78d8 <mbedtls_mpi_exp_mod+0x67c>
/home/hei/Desktop/optee-qemu/optee_os/lib/libmbedtls/mbedtls/library/bignum.c:1830
    7384:	79c00340 	ldrsh	w0, [x26]
    7388:	b9008be0 	str	w0, [sp, #136]
/home/hei/Desktop/optee-qemu/optee_os/lib/libmbedtls/mbedtls/library/bignum.c:1831
    738c:	3100041f 	cmn	w0, #0x1
    7390:	54000121 	b.ne	73b4 <mbedtls_mpi_exp_mod+0x158>  // b.any
/home/hei/Desktop/optee-qemu/optee_os/lib/libmbedtls/mbedtls/library/bignum.c:1833
    7394:	f9403be0 	ldr	x0, [sp, #112]
    7398:	aa1a03e1 	mov	x1, x26
    739c:	97fff89e 	bl	5614 <mbedtls_mpi_copy>
    73a0:	2a0003e2 	mov	w2, w0
    73a4:	350029a0 	cbnz	w0, 78d8 <mbedtls_mpi_exp_mod+0x67c>
/home/hei/Desktop/optee-qemu/optee_os/lib/libmbedtls/mbedtls/library/bignum.c:1835
    73a8:	f9403bfa 	ldr	x26, [sp, #112]
/home/hei/Desktop/optee-qemu/optee_os/lib/libmbedtls/mbedtls/library/bignum.c:1834
    73ac:	52800020 	mov	w0, #0x1                   	// #1
    73b0:	7901d3e0 	strh	w0, [sp, #232]
/home/hei/Desktop/optee-qemu/optee_os/lib/libmbedtls/mbedtls/library/bignum.c:1841
    73b4:	b4000079 	cbz	x25, 73c0 <mbedtls_mpi_exp_mod+0x164>
/home/hei/Desktop/optee-qemu/optee_os/lib/libmbedtls/mbedtls/library/bignum.c:1841 (discriminator 1)
    73b8:	f9400b20 	ldr	x0, [x25, #16]
    73bc:	b5000ec0 	cbnz	x0, 7594 <mbedtls_mpi_exp_mod+0x338>
/home/hei/Desktop/optee-qemu/optee_os/lib/libmbedtls/mbedtls/library/bignum.c:1843
    73c0:	52800021 	mov	w1, #0x1                   	// #1
    73c4:	aa1803e0 	mov	x0, x24
    73c8:	97fff941 	bl	58cc <mbedtls_mpi_lset>
    73cc:	2a0003e2 	mov	w2, w0
    73d0:	35002840 	cbnz	w0, 78d8 <mbedtls_mpi_exp_mod+0x67c>
/home/hei/Desktop/optee-qemu/optee_os/lib/libmbedtls/mbedtls/library/bignum.c:1844
    73d4:	f9400661 	ldr	x1, [x19, #8]
    73d8:	aa1803e0 	mov	x0, x24
    73dc:	d37ae421 	lsl	x1, x1, #6
    73e0:	97fffa15 	bl	5c34 <mbedtls_mpi_shift_l>
    73e4:	2a0003e2 	mov	w2, w0
    73e8:	35002780 	cbnz	w0, 78d8 <mbedtls_mpi_exp_mod+0x67c>
/home/hei/Desktop/optee-qemu/optee_os/lib/libmbedtls/mbedtls/library/bignum.c:1845
    73ec:	aa1303e2 	mov	x2, x19
    73f0:	aa1803e1 	mov	x1, x24
    73f4:	aa1803e0 	mov	x0, x24
    73f8:	97fffe08 	bl	6c18 <mbedtls_mpi_mod_mpi>
    73fc:	2a0003e2 	mov	w2, w0
    7400:	350026c0 	cbnz	w0, 78d8 <mbedtls_mpi_exp_mod+0x67c>
/home/hei/Desktop/optee-qemu/optee_os/lib/libmbedtls/mbedtls/library/bignum.c:1847
    7404:	b40000b9 	cbz	x25, 7418 <mbedtls_mpi_exp_mod+0x1bc>
/home/hei/Desktop/optee-qemu/optee_os/lib/libmbedtls/mbedtls/library/bignum.c:1848
    7408:	aa1803e1 	mov	x1, x24
    740c:	aa1903e0 	mov	x0, x25
    7410:	d2800302 	mov	x2, #0x18                  	// #24
/home/hei/Desktop/optee-qemu/optee_os/lib/libmbedtls/mbedtls/library/bignum.c:1851
    7414:	97ffe440 	bl	514 <memcpy>
/home/hei/Desktop/optee-qemu/optee_os/lib/libmbedtls/mbedtls/library/bignum.c:1853
    7418:	b0000020 	adrp	x0, c000 <_DYNAMIC>
    741c:	d2818001 	mov	x1, #0xc00                 	// #3072
    7420:	f940cc00 	ldr	x0, [x0, #408]
    7424:	f9400000 	ldr	x0, [x0]
    7428:	940005c1 	bl	8b2c <mempool_alloc>
    742c:	aa0003f4 	mov	x20, x0
/home/hei/Desktop/optee-qemu/optee_os/lib/libmbedtls/mbedtls/library/bignum.c:1855
    7430:	b4002580 	cbz	x0, 78e0 <mbedtls_mpi_exp_mod+0x684>
    7434:	aa1403fb 	mov	x27, x20
    7438:	91300000 	add	x0, x0, #0xc00
    743c:	f90037f4 	str	x20, [sp, #104]
    7440:	f9004be0 	str	x0, [sp, #144]
/home/hei/Desktop/optee-qemu/optee_os/lib/libmbedtls/mbedtls/library/bignum.c:1860 (discriminator 3)
    7444:	aa1b03e0 	mov	x0, x27
    7448:	97fff7c8 	bl	5368 <mbedtls_mpi_init_mempool>
/home/hei/Desktop/optee-qemu/optee_os/lib/libmbedtls/mbedtls/library/bignum.c:1859 (discriminator 3)
    744c:	f9404be0 	ldr	x0, [sp, #144]
    7450:	9100637b 	add	x27, x27, #0x18
    7454:	eb00037f 	cmp	x27, x0
    7458:	54ffff61 	b.ne	7444 <mbedtls_mpi_exp_mod+0x1e8>  // b.any
/home/hei/Desktop/optee-qemu/optee_os/lib/libmbedtls/mbedtls/library/bignum.c:1861
    745c:	f9403fe1 	ldr	x1, [sp, #120]
    7460:	9100629b 	add	x27, x20, #0x18
    7464:	aa1b03e0 	mov	x0, x27
    7468:	97fff7e5 	bl	53fc <mbedtls_mpi_grow>
    746c:	2a0003e2 	mov	w2, w0
    7470:	35001fa0 	cbnz	w0, 7864 <mbedtls_mpi_exp_mod+0x608>
/home/hei/Desktop/optee-qemu/optee_os/lib/libmbedtls/mbedtls/library/bignum.c:1866
    7474:	aa1303e1 	mov	x1, x19
    7478:	aa1a03e0 	mov	x0, x26
    747c:	97fffa87 	bl	5e98 <mbedtls_mpi_cmp_mpi>
    7480:	37f80920 	tbnz	w0, #31, 75a4 <mbedtls_mpi_exp_mod+0x348>
/home/hei/Desktop/optee-qemu/optee_os/lib/libmbedtls/mbedtls/library/bignum.c:1867
    7484:	aa1303e2 	mov	x2, x19
    7488:	aa1a03e1 	mov	x1, x26
    748c:	aa1b03e0 	mov	x0, x27
    7490:	97fffde2 	bl	6c18 <mbedtls_mpi_mod_mpi>
    7494:	2a0003e2 	mov	w2, w0
    7498:	35001e60 	cbnz	w0, 7864 <mbedtls_mpi_exp_mod+0x608>
/home/hei/Desktop/optee-qemu/optee_os/lib/libmbedtls/mbedtls/library/bignum.c:1871
    749c:	b940b7e3 	ldr	w3, [sp, #180]
    74a0:	aa1303e2 	mov	x2, x19
    74a4:	aa1603e4 	mov	x4, x22
    74a8:	aa1803e1 	mov	x1, x24
    74ac:	aa1b03e0 	mov	x0, x27
    74b0:	97ffff0e 	bl	70e8 <mbedtls_mpi_montmul>
    74b4:	2a0003e2 	mov	w2, w0
    74b8:	35001d60 	cbnz	w0, 7864 <mbedtls_mpi_exp_mod+0x608>
/home/hei/Desktop/optee-qemu/optee_os/lib/libmbedtls/mbedtls/library/bignum.c:1876
    74bc:	aa1803e1 	mov	x1, x24
    74c0:	aa1503e0 	mov	x0, x21
    74c4:	97fff854 	bl	5614 <mbedtls_mpi_copy>
    74c8:	2a0003e2 	mov	w2, w0
    74cc:	35001cc0 	cbnz	w0, 7864 <mbedtls_mpi_exp_mod+0x608>
/home/hei/Desktop/optee-qemu/optee_os/lib/libmbedtls/mbedtls/library/bignum.c:1877
    74d0:	b940b7e2 	ldr	w2, [sp, #180]
    74d4:	aa1603e3 	mov	x3, x22
    74d8:	aa1303e1 	mov	x1, x19
    74dc:	aa1503e0 	mov	x0, x21
    74e0:	97ffff4f 	bl	721c <mbedtls_mpi_montred>
    74e4:	2a0003e2 	mov	w2, w0
    74e8:	35001be0 	cbnz	w0, 7864 <mbedtls_mpi_exp_mod+0x608>
/home/hei/Desktop/optee-qemu/optee_os/lib/libmbedtls/mbedtls/library/bignum.c:1879
    74ec:	f10006ff 	cmp	x23, #0x1
    74f0:	54000621 	b.ne	75b4 <mbedtls_mpi_exp_mod+0x358>  // b.any
/home/hei/Desktop/optee-qemu/optee_os/lib/libmbedtls/mbedtls/library/bignum.c:1904
    74f4:	f940079a 	ldr	x26, [x28, #8]
/home/hei/Desktop/optee-qemu/optee_os/lib/libmbedtls/mbedtls/library/bignum.c:1908
    74f8:	52800003 	mov	w3, #0x0                   	// #0
/home/hei/Desktop/optee-qemu/optee_os/lib/libmbedtls/mbedtls/library/bignum.c:1906
    74fc:	d2800005 	mov	x5, #0x0                   	// #0
/home/hei/Desktop/optee-qemu/optee_os/lib/libmbedtls/mbedtls/library/bignum.c:1905
    7500:	d2800007 	mov	x7, #0x0                   	// #0
/home/hei/Desktop/optee-qemu/optee_os/lib/libmbedtls/mbedtls/library/bignum.c:1907
    7504:	d2800006 	mov	x6, #0x0                   	// #0
/home/hei/Desktop/optee-qemu/optee_os/lib/libmbedtls/mbedtls/library/bignum.c:1912
    7508:	b5000fc7 	cbnz	x7, 7700 <mbedtls_mpi_exp_mod+0x4a4>
/home/hei/Desktop/optee-qemu/optee_os/lib/libmbedtls/mbedtls/library/bignum.c:1914
    750c:	b5000f7a 	cbnz	x26, 76f8 <mbedtls_mpi_exp_mod+0x49c>
/home/hei/Desktop/optee-qemu/optee_os/lib/libmbedtls/mbedtls/library/bignum.c:1977
    7510:	d2800020 	mov	x0, #0x1                   	// #1
    7514:	9ad72017 	lsl	x23, x0, x23
/home/hei/Desktop/optee-qemu/optee_os/lib/libmbedtls/mbedtls/library/bignum.c:1971 (discriminator 1)
    7518:	eb05035f 	cmp	x26, x5
    751c:	b940b7e2 	ldr	w2, [sp, #180]
    7520:	54001701 	b.ne	7800 <mbedtls_mpi_exp_mod+0x5a4>  // b.any
/home/hei/Desktop/optee-qemu/optee_os/lib/libmbedtls/mbedtls/library/bignum.c:1984
    7524:	aa1603e3 	mov	x3, x22
    7528:	aa1303e1 	mov	x1, x19
    752c:	aa1503e0 	mov	x0, x21
    7530:	97ffff3b 	bl	721c <mbedtls_mpi_montred>
    7534:	2a0003e2 	mov	w2, w0
    7538:	35001960 	cbnz	w0, 7864 <mbedtls_mpi_exp_mod+0x608>
/home/hei/Desktop/optee-qemu/optee_os/lib/libmbedtls/mbedtls/library/bignum.c:1986
    753c:	b9408be0 	ldr	w0, [sp, #136]
    7540:	3100041f 	cmn	w0, #0x1
    7544:	54001901 	b.ne	7864 <mbedtls_mpi_exp_mod+0x608>  // b.any
/home/hei/Desktop/optee-qemu/optee_os/lib/libmbedtls/mbedtls/library/bignum.c:1986 (discriminator 1)
    7548:	f9400780 	ldr	x0, [x28, #8]
    754c:	b40018c0 	cbz	x0, 7864 <mbedtls_mpi_exp_mod+0x608>
/home/hei/Desktop/optee-qemu/optee_os/lib/libmbedtls/mbedtls/library/bignum.c:1986 (discriminator 2)
    7550:	f9400b80 	ldr	x0, [x28, #16]
    7554:	b9400000 	ldr	w0, [x0]
    7558:	36001860 	tbz	w0, #0, 7864 <mbedtls_mpi_exp_mod+0x608>
/home/hei/Desktop/optee-qemu/optee_os/lib/libmbedtls/mbedtls/library/bignum.c:1988
    755c:	794113e0 	ldrh	w0, [sp, #136]
/home/hei/Desktop/optee-qemu/optee_os/lib/libmbedtls/mbedtls/library/bignum.c:1989
    7560:	aa1503e2 	mov	x2, x21
/home/hei/Desktop/optee-qemu/optee_os/lib/libmbedtls/mbedtls/library/bignum.c:1988
    7564:	790002a0 	strh	w0, [x21]
/home/hei/Desktop/optee-qemu/optee_os/lib/libmbedtls/mbedtls/library/bignum.c:1989
    7568:	aa1303e1 	mov	x1, x19
    756c:	aa1503e0 	mov	x0, x21
    7570:	97fffb10 	bl	61b0 <mbedtls_mpi_add_mpi>
    7574:	2a0003e2 	mov	w2, w0
/home/hei/Desktop/optee-qemu/optee_os/lib/libmbedtls/mbedtls/library/bignum.c:1992
    7578:	140000bb 	b	7864 <mbedtls_mpi_exp_mod+0x608>
/home/hei/Desktop/optee-qemu/optee_os/lib/libmbedtls/mbedtls/library/bignum.c:1816
    757c:	d28000d7 	mov	x23, #0x6                   	// #6
    7580:	17ffff71 	b	7344 <mbedtls_mpi_exp_mod+0xe8>
    7584:	d28000b7 	mov	x23, #0x5                   	// #5
    7588:	17ffff6f 	b	7344 <mbedtls_mpi_exp_mod+0xe8>
    758c:	d2800097 	mov	x23, #0x4                   	// #4
    7590:	17ffff6d 	b	7344 <mbedtls_mpi_exp_mod+0xe8>
/home/hei/Desktop/optee-qemu/optee_os/lib/libmbedtls/mbedtls/library/bignum.c:1851
    7594:	d2800302 	mov	x2, #0x18                  	// #24
    7598:	aa1903e1 	mov	x1, x25
    759c:	aa1803e0 	mov	x0, x24
    75a0:	17ffff9d 	b	7414 <mbedtls_mpi_exp_mod+0x1b8>
/home/hei/Desktop/optee-qemu/optee_os/lib/libmbedtls/mbedtls/library/bignum.c:1869
    75a4:	aa1a03e1 	mov	x1, x26
    75a8:	aa1b03e0 	mov	x0, x27
    75ac:	97fff81a 	bl	5614 <mbedtls_mpi_copy>
    75b0:	17ffffb9 	b	7494 <mbedtls_mpi_exp_mod+0x238>
/home/hei/Desktop/optee-qemu/optee_os/lib/libmbedtls/mbedtls/library/bignum.c:1884
    75b4:	510006e0 	sub	w0, w23, #0x1
    75b8:	b9007be0 	str	w0, [sp, #120]
/home/hei/Desktop/optee-qemu/optee_os/lib/libmbedtls/mbedtls/library/bignum.c:1886
    75bc:	f9400661 	ldr	x1, [x19, #8]
    75c0:	d280031a 	mov	x26, #0x18                  	// #24
    75c4:	3941e3e0 	ldrb	w0, [sp, #120]
    75c8:	91000421 	add	x1, x1, #0x1
/home/hei/Desktop/optee-qemu/optee_os/lib/libmbedtls/mbedtls/library/bignum.c:1884
    75cc:	b9009bf7 	str	w23, [sp, #152]
/home/hei/Desktop/optee-qemu/optee_os/lib/libmbedtls/mbedtls/library/bignum.c:1886
    75d0:	9ac0235a 	lsl	x26, x26, x0
    75d4:	8b1a029a 	add	x26, x20, x26
    75d8:	aa1a03e0 	mov	x0, x26
    75dc:	97fff788 	bl	53fc <mbedtls_mpi_grow>
    75e0:	2a0003e2 	mov	w2, w0
    75e4:	35001400 	cbnz	w0, 7864 <mbedtls_mpi_exp_mod+0x608>
/home/hei/Desktop/optee-qemu/optee_os/lib/libmbedtls/mbedtls/library/bignum.c:1887
    75e8:	aa1b03e1 	mov	x1, x27
    75ec:	aa1a03e0 	mov	x0, x26
    75f0:	97fff809 	bl	5614 <mbedtls_mpi_copy>
    75f4:	2a0003e2 	mov	w2, w0
    75f8:	35001360 	cbnz	w0, 7864 <mbedtls_mpi_exp_mod+0x608>
/home/hei/Desktop/optee-qemu/optee_os/lib/libmbedtls/mbedtls/library/bignum.c:1889
    75fc:	d10006e6 	sub	x6, x23, #0x1
    7600:	d2800005 	mov	x5, #0x0                   	// #0
/home/hei/Desktop/optee-qemu/optee_os/lib/libmbedtls/mbedtls/library/bignum.c:1890
    7604:	b940b7e3 	ldr	w3, [sp, #180]
    7608:	aa1303e2 	mov	x2, x19
    760c:	aa1603e4 	mov	x4, x22
    7610:	aa1a03e1 	mov	x1, x26
    7614:	aa1a03e0 	mov	x0, x26
    7618:	f90043e5 	str	x5, [sp, #128]
    761c:	f90057e6 	str	x6, [sp, #168]
    7620:	97fffeb2 	bl	70e8 <mbedtls_mpi_montmul>
    7624:	2a0003e2 	mov	w2, w0
    7628:	350011e0 	cbnz	w0, 7864 <mbedtls_mpi_exp_mod+0x608>
/home/hei/Desktop/optee-qemu/optee_os/lib/libmbedtls/mbedtls/library/bignum.c:1889 (discriminator 2)
    762c:	f94043e5 	ldr	x5, [sp, #128]
    7630:	f94057e6 	ldr	x6, [sp, #168]
    7634:	910004a5 	add	x5, x5, #0x1
    7638:	eb0500df 	cmp	x6, x5
    763c:	54fffe48 	b.hi	7604 <mbedtls_mpi_exp_mod+0x3a8>  // b.pmore
/home/hei/Desktop/optee-qemu/optee_os/lib/libmbedtls/mbedtls/library/bignum.c:1884
    7640:	3941e3e1 	ldrb	w1, [sp, #120]
    7644:	d2800020 	mov	x0, #0x1                   	// #1
    7648:	d2800303 	mov	x3, #0x18                  	// #24
    764c:	9ac12001 	lsl	x1, x0, x1
/home/hei/Desktop/optee-qemu/optee_os/lib/libmbedtls/mbedtls/library/bignum.c:1895
    7650:	8b000021 	add	x1, x1, x0
    7654:	f90043e1 	str	x1, [sp, #128]
    7658:	394263e1 	ldrb	w1, [sp, #152]
    765c:	9ac12000 	lsl	x0, x0, x1
    7660:	f9004fe0 	str	x0, [sp, #152]
    7664:	3941e3e0 	ldrb	w0, [sp, #120]
    7668:	9ac02063 	lsl	x3, x3, x0
    766c:	8b030283 	add	x3, x20, x3
/home/hei/Desktop/optee-qemu/optee_os/lib/libmbedtls/mbedtls/library/bignum.c:1895 (discriminator 1)
    7670:	f94043e1 	ldr	x1, [sp, #128]
    7674:	f9404fe0 	ldr	x0, [sp, #152]
    7678:	eb01001f 	cmp	x0, x1
    767c:	54fff3c9 	b.ls	74f4 <mbedtls_mpi_exp_mod+0x298>  // b.plast
/home/hei/Desktop/optee-qemu/optee_os/lib/libmbedtls/mbedtls/library/bignum.c:1897
    7680:	f9400661 	ldr	x1, [x19, #8]
    7684:	9100607a 	add	x26, x3, #0x18
    7688:	aa1a03e0 	mov	x0, x26
    768c:	f9003fe3 	str	x3, [sp, #120]
    7690:	91000421 	add	x1, x1, #0x1
    7694:	97fff75a 	bl	53fc <mbedtls_mpi_grow>
    7698:	2a0003e2 	mov	w2, w0
    769c:	35000e40 	cbnz	w0, 7864 <mbedtls_mpi_exp_mod+0x608>
/home/hei/Desktop/optee-qemu/optee_os/lib/libmbedtls/mbedtls/library/bignum.c:1898
    76a0:	f9403fe3 	ldr	x3, [sp, #120]
    76a4:	aa1a03e0 	mov	x0, x26
    76a8:	aa0303e1 	mov	x1, x3
    76ac:	97fff7da 	bl	5614 <mbedtls_mpi_copy>
    76b0:	2a0003e2 	mov	w2, w0
    76b4:	35000d80 	cbnz	w0, 7864 <mbedtls_mpi_exp_mod+0x608>
/home/hei/Desktop/optee-qemu/optee_os/lib/libmbedtls/mbedtls/library/bignum.c:1900
    76b8:	b940b7e3 	ldr	w3, [sp, #180]
    76bc:	aa1303e2 	mov	x2, x19
    76c0:	aa1603e4 	mov	x4, x22
    76c4:	aa1b03e1 	mov	x1, x27
    76c8:	aa1a03e0 	mov	x0, x26
    76cc:	97fffe87 	bl	70e8 <mbedtls_mpi_montmul>
    76d0:	2a0003e2 	mov	w2, w0
    76d4:	35000c80 	cbnz	w0, 7864 <mbedtls_mpi_exp_mod+0x608>
/home/hei/Desktop/optee-qemu/optee_os/lib/libmbedtls/mbedtls/library/bignum.c:1895 (discriminator 2)
    76d8:	f94043e0 	ldr	x0, [sp, #128]
    76dc:	aa1a03e3 	mov	x3, x26
    76e0:	91000400 	add	x0, x0, #0x1
    76e4:	f90043e0 	str	x0, [sp, #128]
    76e8:	17ffffe2 	b	7670 <mbedtls_mpi_exp_mod+0x414>
/home/hei/Desktop/optee-qemu/optee_os/lib/libmbedtls/mbedtls/library/bignum.c:1944
    76ec:	52800040 	mov	w0, #0x2                   	// #2
/home/hei/Desktop/optee-qemu/optee_os/lib/libmbedtls/mbedtls/library/bignum.c:1964
    76f0:	2a0003e3 	mov	w3, w0
    76f4:	17ffff85 	b	7508 <mbedtls_mpi_exp_mod+0x2ac>
/home/hei/Desktop/optee-qemu/optee_os/lib/libmbedtls/mbedtls/library/bignum.c:1917
    76f8:	d100075a 	sub	x26, x26, #0x1
/home/hei/Desktop/optee-qemu/optee_os/lib/libmbedtls/mbedtls/library/bignum.c:1919
    76fc:	d2800407 	mov	x7, #0x20                  	// #32
/home/hei/Desktop/optee-qemu/optee_os/lib/libmbedtls/mbedtls/library/bignum.c:1924
    7700:	f9400b80 	ldr	x0, [x28, #16]
/home/hei/Desktop/optee-qemu/optee_os/lib/libmbedtls/mbedtls/library/bignum.c:1922
    7704:	d10004e7 	sub	x7, x7, #0x1
/home/hei/Desktop/optee-qemu/optee_os/lib/libmbedtls/mbedtls/library/bignum.c:1924
    7708:	b87a7802 	ldr	w2, [x0, x26, lsl #2]
    770c:	1ac72442 	lsr	w2, w2, w7
    7710:	12000041 	and	w1, w2, #0x1
/home/hei/Desktop/optee-qemu/optee_os/lib/libmbedtls/mbedtls/library/bignum.c:1929
    7714:	2a010060 	orr	w0, w3, w1
    7718:	34fffec0 	cbz	w0, 76f0 <mbedtls_mpi_exp_mod+0x494>
/home/hei/Desktop/optee-qemu/optee_os/lib/libmbedtls/mbedtls/library/bignum.c:1932
    771c:	7100047f 	cmp	w3, #0x1
    7720:	1a9f17e0 	cset	w0, eq  // eq = none
    7724:	6a22001f 	bics	wzr, w0, w2
    7728:	540001e0 	b.eq	7764 <mbedtls_mpi_exp_mod+0x508>  // b.none
/home/hei/Desktop/optee-qemu/optee_os/lib/libmbedtls/mbedtls/library/bignum.c:1937
    772c:	b940b7e3 	ldr	w3, [sp, #180]
    7730:	aa1303e2 	mov	x2, x19
    7734:	aa1603e4 	mov	x4, x22
    7738:	aa1503e1 	mov	x1, x21
    773c:	aa1503e0 	mov	x0, x21
    7740:	a9079fe6 	stp	x6, x7, [sp, #120]
    7744:	f9004fe5 	str	x5, [sp, #152]
    7748:	97fffe68 	bl	70e8 <mbedtls_mpi_montmul>
    774c:	2a0003e2 	mov	w2, w0
    7750:	350008a0 	cbnz	w0, 7864 <mbedtls_mpi_exp_mod+0x608>
    7754:	b9408fe0 	ldr	w0, [sp, #140]
    7758:	a9479fe6 	ldp	x6, x7, [sp, #120]
    775c:	f9404fe5 	ldr	x5, [sp, #152]
    7760:	17ffffe4 	b	76f0 <mbedtls_mpi_exp_mod+0x494>
/home/hei/Desktop/optee-qemu/optee_os/lib/libmbedtls/mbedtls/library/bignum.c:1946
    7764:	910004a5 	add	x5, x5, #0x1
/home/hei/Desktop/optee-qemu/optee_os/lib/libmbedtls/mbedtls/library/bignum.c:1947
    7768:	4b0502e0 	sub	w0, w23, w5
/home/hei/Desktop/optee-qemu/optee_os/lib/libmbedtls/mbedtls/library/bignum.c:1949
    776c:	eb0502ff 	cmp	x23, x5
/home/hei/Desktop/optee-qemu/optee_os/lib/libmbedtls/mbedtls/library/bignum.c:1947
    7770:	1ac02021 	lsl	w1, w1, w0
    7774:	aa0100c6 	orr	x6, x6, x1
/home/hei/Desktop/optee-qemu/optee_os/lib/libmbedtls/mbedtls/library/bignum.c:1949
    7778:	54fffba1 	b.ne	76ec <mbedtls_mpi_exp_mod+0x490>  // b.any
/home/hei/Desktop/optee-qemu/optee_os/lib/libmbedtls/mbedtls/library/bignum.c:1954
    777c:	d2800008 	mov	x8, #0x0                   	// #0
/home/hei/Desktop/optee-qemu/optee_os/lib/libmbedtls/mbedtls/library/bignum.c:1955
    7780:	b940b7e3 	ldr	w3, [sp, #180]
    7784:	aa1303e2 	mov	x2, x19
    7788:	aa1603e4 	mov	x4, x22
    778c:	aa1503e1 	mov	x1, x21
    7790:	aa1503e0 	mov	x0, x21
    7794:	a9079fe6 	stp	x6, x7, [sp, #120]
    7798:	f9004fe5 	str	x5, [sp, #152]
    779c:	f90057e8 	str	x8, [sp, #168]
    77a0:	97fffe52 	bl	70e8 <mbedtls_mpi_montmul>
    77a4:	2a0003e2 	mov	w2, w0
    77a8:	350005e0 	cbnz	w0, 7864 <mbedtls_mpi_exp_mod+0x608>
/home/hei/Desktop/optee-qemu/optee_os/lib/libmbedtls/mbedtls/library/bignum.c:1954 (discriminator 2)
    77ac:	f94057e8 	ldr	x8, [sp, #168]
    77b0:	f9404fe5 	ldr	x5, [sp, #152]
    77b4:	91000508 	add	x8, x8, #0x1
    77b8:	a9479fe6 	ldp	x6, x7, [sp, #120]
    77bc:	eb0800bf 	cmp	x5, x8
    77c0:	54fffe08 	b.hi	7780 <mbedtls_mpi_exp_mod+0x524>  // b.pmore
/home/hei/Desktop/optee-qemu/optee_os/lib/libmbedtls/mbedtls/library/bignum.c:1960
    77c4:	d2800300 	mov	x0, #0x18                  	// #24
    77c8:	b940b7e3 	ldr	w3, [sp, #180]
    77cc:	aa1303e2 	mov	x2, x19
    77d0:	aa1603e4 	mov	x4, x22
    77d4:	9b0050c1 	madd	x1, x6, x0, x20
    77d8:	aa1503e0 	mov	x0, x21
    77dc:	f9003fe7 	str	x7, [sp, #120]
    77e0:	97fffe42 	bl	70e8 <mbedtls_mpi_montmul>
    77e4:	2a0003e2 	mov	w2, w0
    77e8:	350003e0 	cbnz	w0, 7864 <mbedtls_mpi_exp_mod+0x608>
/home/hei/Desktop/optee-qemu/optee_os/lib/libmbedtls/mbedtls/library/bignum.c:1963
    77ec:	d2800005 	mov	x5, #0x0                   	// #0
/home/hei/Desktop/optee-qemu/optee_os/lib/libmbedtls/mbedtls/library/bignum.c:1964
    77f0:	d2800006 	mov	x6, #0x0                   	// #0
/home/hei/Desktop/optee-qemu/optee_os/lib/libmbedtls/mbedtls/library/bignum.c:1962
    77f4:	b9408fe0 	ldr	w0, [sp, #140]
    77f8:	f9403fe7 	ldr	x7, [sp, #120]
    77fc:	17ffffbd 	b	76f0 <mbedtls_mpi_exp_mod+0x494>
/home/hei/Desktop/optee-qemu/optee_os/lib/libmbedtls/mbedtls/library/bignum.c:1973
    7800:	2a0203e3 	mov	w3, w2
    7804:	aa1303e2 	mov	x2, x19
    7808:	aa1603e4 	mov	x4, x22
    780c:	aa1503e1 	mov	x1, x21
    7810:	aa1503e0 	mov	x0, x21
    7814:	a90797e6 	stp	x6, x5, [sp, #120]
    7818:	97fffe34 	bl	70e8 <mbedtls_mpi_montmul>
    781c:	2a0003e2 	mov	w2, w0
    7820:	35000220 	cbnz	w0, 7864 <mbedtls_mpi_exp_mod+0x608>
/home/hei/Desktop/optee-qemu/optee_os/lib/libmbedtls/mbedtls/library/bignum.c:1977
    7824:	a94797e6 	ldp	x6, x5, [sp, #120]
/home/hei/Desktop/optee-qemu/optee_os/lib/libmbedtls/mbedtls/library/bignum.c:1975
    7828:	d37ff8c6 	lsl	x6, x6, #1
/home/hei/Desktop/optee-qemu/optee_os/lib/libmbedtls/mbedtls/library/bignum.c:1977
    782c:	ea0602ff 	tst	x23, x6
    7830:	54000061 	b.ne	783c <mbedtls_mpi_exp_mod+0x5e0>  // b.any
/home/hei/Desktop/optee-qemu/optee_os/lib/libmbedtls/mbedtls/library/bignum.c:1971
    7834:	9100075a 	add	x26, x26, #0x1
    7838:	17ffff38 	b	7518 <mbedtls_mpi_exp_mod+0x2bc>
/home/hei/Desktop/optee-qemu/optee_os/lib/libmbedtls/mbedtls/library/bignum.c:1978
    783c:	b940b7e3 	ldr	w3, [sp, #180]
    7840:	aa1303e2 	mov	x2, x19
    7844:	aa1603e4 	mov	x4, x22
    7848:	aa1b03e1 	mov	x1, x27
    784c:	aa1503e0 	mov	x0, x21
    7850:	a90797e6 	stp	x6, x5, [sp, #120]
    7854:	97fffe25 	bl	70e8 <mbedtls_mpi_montmul>
    7858:	2a0003e2 	mov	w2, w0
    785c:	a94797e6 	ldp	x6, x5, [sp, #120]
    7860:	34fffea0 	cbz	w0, 7834 <mbedtls_mpi_exp_mod+0x5d8>
/home/hei/Desktop/optee-qemu/optee_os/lib/libmbedtls/mbedtls/library/bignum.c:1996 (discriminator 3)
    7864:	f94037e0 	ldr	x0, [sp, #104]
    7868:	b9008be2 	str	w2, [sp, #136]
    786c:	97fff6c9 	bl	5390 <mbedtls_mpi_free>
    7870:	f94037e0 	ldr	x0, [sp, #104]
/home/hei/Desktop/optee-qemu/optee_os/lib/libmbedtls/mbedtls/library/bignum.c:1995 (discriminator 3)
    7874:	f9404be1 	ldr	x1, [sp, #144]
    7878:	91006000 	add	x0, x0, #0x18
    787c:	f90037e0 	str	x0, [sp, #104]
    7880:	b9408be2 	ldr	w2, [sp, #136]
    7884:	eb01001f 	cmp	x0, x1
    7888:	54fffee1 	b.ne	7864 <mbedtls_mpi_exp_mod+0x608>  // b.any
/home/hei/Desktop/optee-qemu/optee_os/lib/libmbedtls/mbedtls/library/bignum.c:1997
    788c:	f94053e0 	ldr	x0, [sp, #160]
    7890:	aa1403e1 	mov	x1, x20
    7894:	b9006be2 	str	w2, [sp, #104]
    7898:	f940cc00 	ldr	x0, [x0, #408]
    789c:	f9400000 	ldr	x0, [x0]
    78a0:	940004e2 	bl	8c28 <mempool_free>
/home/hei/Desktop/optee-qemu/optee_os/lib/libmbedtls/mbedtls/library/bignum.c:1999
    78a4:	aa1603e0 	mov	x0, x22
    78a8:	97fff6ba 	bl	5390 <mbedtls_mpi_free>
    78ac:	f9403be0 	ldr	x0, [sp, #112]
    78b0:	97fff6b8 	bl	5390 <mbedtls_mpi_free>
/home/hei/Desktop/optee-qemu/optee_os/lib/libmbedtls/mbedtls/library/bignum.c:2001
    78b4:	b9406be2 	ldr	w2, [sp, #104]
    78b8:	b4000079 	cbz	x25, 78c4 <mbedtls_mpi_exp_mod+0x668>
/home/hei/Desktop/optee-qemu/optee_os/lib/libmbedtls/mbedtls/library/bignum.c:2001 (discriminator 1)
    78bc:	f9400b20 	ldr	x0, [x25, #16]
    78c0:	b5ffcf20 	cbnz	x0, 72a4 <mbedtls_mpi_exp_mod+0x48>
/home/hei/Desktop/optee-qemu/optee_os/lib/libmbedtls/mbedtls/library/bignum.c:2002
    78c4:	aa1803e0 	mov	x0, x24
    78c8:	b9006be2 	str	w2, [sp, #104]
    78cc:	97fff6b1 	bl	5390 <mbedtls_mpi_free>
    78d0:	b9406be2 	ldr	w2, [sp, #104]
    78d4:	17fffe74 	b	72a4 <mbedtls_mpi_exp_mod+0x48>
/home/hei/Desktop/optee-qemu/optee_os/lib/libmbedtls/mbedtls/library/bignum.c:1792
    78d8:	d2800014 	mov	x20, #0x0                   	// #0
    78dc:	17ffffec 	b	788c <mbedtls_mpi_exp_mod+0x630>
/home/hei/Desktop/optee-qemu/optee_os/lib/libmbedtls/mbedtls/library/bignum.c:1856
    78e0:	128001e2 	mov	w2, #0xfffffff0            	// #-16
    78e4:	17ffffea 	b	788c <mbedtls_mpi_exp_mod+0x630>

00000000000078e8 <mbedtls_mpi_gcd>:
mbedtls_mpi_gcd():
/home/hei/Desktop/optee-qemu/optee_os/lib/libmbedtls/mbedtls/library/bignum.c:2011
    78e8:	a9b67bfd 	stp	x29, x30, [sp, #-160]!
    78ec:	910003fd 	mov	x29, sp
    78f0:	a90363f7 	stp	x23, x24, [sp, #48]
/home/hei/Desktop/optee-qemu/optee_os/lib/libmbedtls/mbedtls/library/bignum.c:2020
    78f4:	910163f7 	add	x23, sp, #0x58
/home/hei/Desktop/optee-qemu/optee_os/lib/libmbedtls/mbedtls/library/bignum.c:2011
    78f8:	aa0003f8 	mov	x24, x0
/home/hei/Desktop/optee-qemu/optee_os/lib/libmbedtls/mbedtls/library/bignum.c:2020
    78fc:	aa1703e0 	mov	x0, x23
/home/hei/Desktop/optee-qemu/optee_os/lib/libmbedtls/mbedtls/library/bignum.c:2011
    7900:	a90153f3 	stp	x19, x20, [sp, #16]
/home/hei/Desktop/optee-qemu/optee_os/lib/libmbedtls/mbedtls/library/bignum.c:2021
    7904:	910223f4 	add	x20, sp, #0x88
/home/hei/Desktop/optee-qemu/optee_os/lib/libmbedtls/mbedtls/library/bignum.c:2011
    7908:	a9025bf5 	stp	x21, x22, [sp, #32]
/home/hei/Desktop/optee-qemu/optee_os/lib/libmbedtls/mbedtls/library/bignum.c:2020
    790c:	9101c3f5 	add	x21, sp, #0x70
/home/hei/Desktop/optee-qemu/optee_os/lib/libmbedtls/mbedtls/library/bignum.c:2011
    7910:	a90407e2 	stp	x2, x1, [sp, #64]
/home/hei/Desktop/optee-qemu/optee_os/lib/libmbedtls/mbedtls/library/bignum.c:2020
    7914:	97fff695 	bl	5368 <mbedtls_mpi_init_mempool>
    7918:	aa1503e0 	mov	x0, x21
    791c:	97fff693 	bl	5368 <mbedtls_mpi_init_mempool>
/home/hei/Desktop/optee-qemu/optee_os/lib/libmbedtls/mbedtls/library/bignum.c:2021
    7920:	aa1403e0 	mov	x0, x20
    7924:	97fff691 	bl	5368 <mbedtls_mpi_init_mempool>
/home/hei/Desktop/optee-qemu/optee_os/lib/libmbedtls/mbedtls/library/bignum.c:2023
    7928:	f94027e1 	ldr	x1, [sp, #72]
    792c:	aa1503e0 	mov	x0, x21
    7930:	97fff739 	bl	5614 <mbedtls_mpi_copy>
    7934:	2a0003f3 	mov	w19, w0
    7938:	350008c0 	cbnz	w0, 7a50 <mbedtls_mpi_gcd+0x168>
/home/hei/Desktop/optee-qemu/optee_os/lib/libmbedtls/mbedtls/library/bignum.c:2024
    793c:	f94023e2 	ldr	x2, [sp, #64]
    7940:	aa1403e0 	mov	x0, x20
    7944:	aa0203e1 	mov	x1, x2
    7948:	97fff733 	bl	5614 <mbedtls_mpi_copy>
    794c:	2a0003f3 	mov	w19, w0
    7950:	35000800 	cbnz	w0, 7a50 <mbedtls_mpi_gcd+0x168>
/home/hei/Desktop/optee-qemu/optee_os/lib/libmbedtls/mbedtls/library/bignum.c:2026
    7954:	aa1503e0 	mov	x0, x21
    7958:	97fff825 	bl	59ec <mbedtls_mpi_lsb>
    795c:	aa0003f6 	mov	x22, x0
/home/hei/Desktop/optee-qemu/optee_os/lib/libmbedtls/mbedtls/library/bignum.c:2027
    7960:	aa1403e0 	mov	x0, x20
    7964:	97fff822 	bl	59ec <mbedtls_mpi_lsb>
/home/hei/Desktop/optee-qemu/optee_os/lib/libmbedtls/mbedtls/library/bignum.c:2029
    7968:	eb0002df 	cmp	x22, x0
    796c:	9a8092d6 	csel	x22, x22, x0, ls  // ls = plast
/home/hei/Desktop/optee-qemu/optee_os/lib/libmbedtls/mbedtls/library/bignum.c:2032
    7970:	aa1503e0 	mov	x0, x21
    7974:	aa1603e1 	mov	x1, x22
    7978:	97fff8ef 	bl	5d34 <mbedtls_mpi_shift_r>
    797c:	2a0003f3 	mov	w19, w0
    7980:	35000680 	cbnz	w0, 7a50 <mbedtls_mpi_gcd+0x168>
/home/hei/Desktop/optee-qemu/optee_os/lib/libmbedtls/mbedtls/library/bignum.c:2033
    7984:	aa1603e1 	mov	x1, x22
    7988:	aa1403e0 	mov	x0, x20
    798c:	97fff8ea 	bl	5d34 <mbedtls_mpi_shift_r>
    7990:	2a0003f3 	mov	w19, w0
    7994:	350005e0 	cbnz	w0, 7a50 <mbedtls_mpi_gcd+0x168>
/home/hei/Desktop/optee-qemu/optee_os/lib/libmbedtls/mbedtls/library/bignum.c:2035
    7998:	52800020 	mov	w0, #0x1                   	// #1
    799c:	7900e3e0 	strh	w0, [sp, #112]
    79a0:	790113e0 	strh	w0, [sp, #136]
/home/hei/Desktop/optee-qemu/optee_os/lib/libmbedtls/mbedtls/library/bignum.c:2037
    79a4:	52800001 	mov	w1, #0x0                   	// #0
    79a8:	aa1503e0 	mov	x0, x21
    79ac:	97fff971 	bl	5f70 <mbedtls_mpi_cmp_int>
    79b0:	35000160 	cbnz	w0, 79dc <mbedtls_mpi_gcd+0xf4>
/home/hei/Desktop/optee-qemu/optee_os/lib/libmbedtls/mbedtls/library/bignum.c:2054
    79b4:	aa1603e1 	mov	x1, x22
    79b8:	aa1403e0 	mov	x0, x20
    79bc:	97fff89e 	bl	5c34 <mbedtls_mpi_shift_l>
    79c0:	2a0003f3 	mov	w19, w0
    79c4:	35000460 	cbnz	w0, 7a50 <mbedtls_mpi_gcd+0x168>
/home/hei/Desktop/optee-qemu/optee_os/lib/libmbedtls/mbedtls/library/bignum.c:2055
    79c8:	aa1403e1 	mov	x1, x20
    79cc:	aa1803e0 	mov	x0, x24
    79d0:	97fff711 	bl	5614 <mbedtls_mpi_copy>
    79d4:	2a0003f3 	mov	w19, w0
/home/hei/Desktop/optee-qemu/optee_os/lib/libmbedtls/mbedtls/library/bignum.c:2057
    79d8:	1400001e 	b	7a50 <mbedtls_mpi_gcd+0x168>
/home/hei/Desktop/optee-qemu/optee_os/lib/libmbedtls/mbedtls/library/bignum.c:2039
    79dc:	aa1503e0 	mov	x0, x21
    79e0:	97fff803 	bl	59ec <mbedtls_mpi_lsb>
    79e4:	aa0003e1 	mov	x1, x0
    79e8:	aa1503e0 	mov	x0, x21
    79ec:	97fff8d2 	bl	5d34 <mbedtls_mpi_shift_r>
    79f0:	2a0003f3 	mov	w19, w0
    79f4:	350002e0 	cbnz	w0, 7a50 <mbedtls_mpi_gcd+0x168>
/home/hei/Desktop/optee-qemu/optee_os/lib/libmbedtls/mbedtls/library/bignum.c:2040
    79f8:	aa1403e0 	mov	x0, x20
    79fc:	97fff7fc 	bl	59ec <mbedtls_mpi_lsb>
    7a00:	aa0003e1 	mov	x1, x0
    7a04:	aa1403e0 	mov	x0, x20
    7a08:	97fff8cb 	bl	5d34 <mbedtls_mpi_shift_r>
    7a0c:	2a0003f3 	mov	w19, w0
    7a10:	35000200 	cbnz	w0, 7a50 <mbedtls_mpi_gcd+0x168>
/home/hei/Desktop/optee-qemu/optee_os/lib/libmbedtls/mbedtls/library/bignum.c:2042
    7a14:	aa1403e1 	mov	x1, x20
    7a18:	aa1503e0 	mov	x0, x21
    7a1c:	97fff91f 	bl	5e98 <mbedtls_mpi_cmp_mpi>
    7a20:	37f80300 	tbnz	w0, #31, 7a80 <mbedtls_mpi_gcd+0x198>
/home/hei/Desktop/optee-qemu/optee_os/lib/libmbedtls/mbedtls/library/bignum.c:2044
    7a24:	aa1403e2 	mov	x2, x20
    7a28:	aa1503e1 	mov	x1, x21
    7a2c:	aa1503e0 	mov	x0, x21
    7a30:	97fff9ab 	bl	60dc <mbedtls_mpi_sub_abs>
    7a34:	2a0003f3 	mov	w19, w0
    7a38:	350000c0 	cbnz	w0, 7a50 <mbedtls_mpi_gcd+0x168>
/home/hei/Desktop/optee-qemu/optee_os/lib/libmbedtls/mbedtls/library/bignum.c:2045
    7a3c:	aa1503e0 	mov	x0, x21
    7a40:	d2800021 	mov	x1, #0x1                   	// #1
/home/hei/Desktop/optee-qemu/optee_os/lib/libmbedtls/mbedtls/library/bignum.c:2050
    7a44:	97fff8bc 	bl	5d34 <mbedtls_mpi_shift_r>
    7a48:	2a0003f3 	mov	w19, w0
    7a4c:	34fffac0 	cbz	w0, 79a4 <mbedtls_mpi_gcd+0xbc>
/home/hei/Desktop/optee-qemu/optee_os/lib/libmbedtls/mbedtls/library/bignum.c:2059
    7a50:	aa1703e0 	mov	x0, x23
    7a54:	97fff64f 	bl	5390 <mbedtls_mpi_free>
    7a58:	aa1503e0 	mov	x0, x21
    7a5c:	97fff64d 	bl	5390 <mbedtls_mpi_free>
    7a60:	aa1403e0 	mov	x0, x20
    7a64:	97fff64b 	bl	5390 <mbedtls_mpi_free>
/home/hei/Desktop/optee-qemu/optee_os/lib/libmbedtls/mbedtls/library/bignum.c:2062
    7a68:	2a1303e0 	mov	w0, w19
    7a6c:	a94153f3 	ldp	x19, x20, [sp, #16]
    7a70:	a9425bf5 	ldp	x21, x22, [sp, #32]
    7a74:	a94363f7 	ldp	x23, x24, [sp, #48]
    7a78:	a8ca7bfd 	ldp	x29, x30, [sp], #160
    7a7c:	d65f03c0 	ret
/home/hei/Desktop/optee-qemu/optee_os/lib/libmbedtls/mbedtls/library/bignum.c:2049
    7a80:	aa1503e2 	mov	x2, x21
    7a84:	aa1403e1 	mov	x1, x20
    7a88:	aa1403e0 	mov	x0, x20
    7a8c:	97fff994 	bl	60dc <mbedtls_mpi_sub_abs>
    7a90:	2a0003f3 	mov	w19, w0
    7a94:	35fffde0 	cbnz	w0, 7a50 <mbedtls_mpi_gcd+0x168>
/home/hei/Desktop/optee-qemu/optee_os/lib/libmbedtls/mbedtls/library/bignum.c:2050
    7a98:	d2800021 	mov	x1, #0x1                   	// #1
    7a9c:	aa1403e0 	mov	x0, x20
    7aa0:	17ffffe9 	b	7a44 <mbedtls_mpi_gcd+0x15c>

0000000000007aa4 <mbedtls_mpi_fill_random>:
mbedtls_mpi_fill_random():
/home/hei/Desktop/optee-qemu/optee_os/lib/libmbedtls/mbedtls/library/bignum.c:2074
    7aa4:	d110c3ff 	sub	sp, sp, #0x430
/home/hei/Desktop/optee-qemu/optee_os/lib/libmbedtls/mbedtls/library/bignum.c:2080
    7aa8:	f110003f 	cmp	x1, #0x400
/home/hei/Desktop/optee-qemu/optee_os/lib/libmbedtls/mbedtls/library/bignum.c:2074
    7aac:	a9007bfd 	stp	x29, x30, [sp]
    7ab0:	910003fd 	mov	x29, sp
    7ab4:	a90153f3 	stp	x19, x20, [sp, #16]
    7ab8:	a9025bf5 	stp	x21, x22, [sp, #32]
/home/hei/Desktop/optee-qemu/optee_os/lib/libmbedtls/mbedtls/library/bignum.c:2080
    7abc:	54000328 	b.hi	7b20 <mbedtls_mpi_fill_random+0x7c>  // b.pmore
/home/hei/Desktop/optee-qemu/optee_os/lib/libmbedtls/mbedtls/library/bignum.c:2083
    7ac0:	9100c3f5 	add	x21, sp, #0x30
    7ac4:	aa0203e4 	mov	x4, x2
    7ac8:	aa0003f6 	mov	x22, x0
    7acc:	aa0103e2 	mov	x2, x1
    7ad0:	aa0303e0 	mov	x0, x3
    7ad4:	aa0103f3 	mov	x19, x1
    7ad8:	aa1503e1 	mov	x1, x21
    7adc:	d63f0080 	blr	x4
    7ae0:	2a0003f4 	mov	w20, w0
    7ae4:	350000c0 	cbnz	w0, 7afc <mbedtls_mpi_fill_random+0x58>
/home/hei/Desktop/optee-qemu/optee_os/lib/libmbedtls/mbedtls/library/bignum.c:2084
    7ae8:	aa1303e2 	mov	x2, x19
    7aec:	aa1503e1 	mov	x1, x21
    7af0:	aa1603e0 	mov	x0, x22
    7af4:	97fff7f1 	bl	5ab8 <mbedtls_mpi_read_binary>
    7af8:	2a0003f4 	mov	w20, w0
/home/hei/Desktop/optee-qemu/optee_os/lib/libmbedtls/mbedtls/library/bignum.c:2087
    7afc:	d2808001 	mov	x1, #0x400                 	// #1024
    7b00:	aa1503e0 	mov	x0, x21
    7b04:	940003a1 	bl	8988 <mbedtls_platform_zeroize>
/home/hei/Desktop/optee-qemu/optee_os/lib/libmbedtls/mbedtls/library/bignum.c:2089
    7b08:	2a1403e0 	mov	w0, w20
    7b0c:	a9407bfd 	ldp	x29, x30, [sp]
    7b10:	a94153f3 	ldp	x19, x20, [sp, #16]
    7b14:	a9425bf5 	ldp	x21, x22, [sp, #32]
    7b18:	9110c3ff 	add	sp, sp, #0x430
    7b1c:	d65f03c0 	ret
/home/hei/Desktop/optee-qemu/optee_os/lib/libmbedtls/mbedtls/library/bignum.c:2081
    7b20:	12800074 	mov	w20, #0xfffffffc            	// #-4
    7b24:	17fffff9 	b	7b08 <mbedtls_mpi_fill_random+0x64>

0000000000007b28 <mpi_miller_rabin>:
mpi_miller_rabin():
/home/hei/Desktop/optee-qemu/optee_os/lib/libmbedtls/mbedtls/library/bignum.c:2257
    7b28:	a9b07bfd 	stp	x29, x30, [sp, #-256]!
    7b2c:	910003fd 	mov	x29, sp
    7b30:	6d0627e8 	stp	d8, d9, [sp, #96]
    7b34:	9e670048 	fmov	d8, x2
    7b38:	9e670069 	fmov	d9, x3
    7b3c:	a9025bf5 	stp	x21, x22, [sp, #32]
/home/hei/Desktop/optee-qemu/optee_os/lib/libmbedtls/mbedtls/library/bignum.c:2265
    7b40:	910223f5 	add	x21, sp, #0x88
    7b44:	910283f6 	add	x22, sp, #0xa0
/home/hei/Desktop/optee-qemu/optee_os/lib/libmbedtls/mbedtls/library/bignum.c:2257
    7b48:	a90153f3 	stp	x19, x20, [sp, #16]
/home/hei/Desktop/optee-qemu/optee_os/lib/libmbedtls/mbedtls/library/bignum.c:2266
    7b4c:	910343f3 	add	x19, sp, #0xd0
/home/hei/Desktop/optee-qemu/optee_os/lib/libmbedtls/mbedtls/library/bignum.c:2257
    7b50:	a90363f7 	stp	x23, x24, [sp, #48]
    7b54:	aa0003f7 	mov	x23, x0
/home/hei/Desktop/optee-qemu/optee_os/lib/libmbedtls/mbedtls/library/bignum.c:2265
    7b58:	aa1503e0 	mov	x0, x21
/home/hei/Desktop/optee-qemu/optee_os/lib/libmbedtls/mbedtls/library/bignum.c:2257
    7b5c:	a9046bf9 	stp	x25, x26, [sp, #64]
/home/hei/Desktop/optee-qemu/optee_os/lib/libmbedtls/mbedtls/library/bignum.c:2266
    7b60:	9102e3f8 	add	x24, sp, #0xb8
/home/hei/Desktop/optee-qemu/optee_os/lib/libmbedtls/mbedtls/library/bignum.c:2267
    7b64:	9103a3f9 	add	x25, sp, #0xe8
/home/hei/Desktop/optee-qemu/optee_os/lib/libmbedtls/mbedtls/library/bignum.c:2257
    7b68:	a90573fb 	stp	x27, x28, [sp, #80]
    7b6c:	f9003be1 	str	x1, [sp, #112]
/home/hei/Desktop/optee-qemu/optee_os/lib/libmbedtls/mbedtls/library/bignum.c:2265
    7b70:	97fff5fe 	bl	5368 <mbedtls_mpi_init_mempool>
    7b74:	aa1603e0 	mov	x0, x22
    7b78:	97fff5fc 	bl	5368 <mbedtls_mpi_init_mempool>
/home/hei/Desktop/optee-qemu/optee_os/lib/libmbedtls/mbedtls/library/bignum.c:2266
    7b7c:	aa1803e0 	mov	x0, x24
    7b80:	97fff5fa 	bl	5368 <mbedtls_mpi_init_mempool>
    7b84:	aa1303e0 	mov	x0, x19
    7b88:	97fff5f8 	bl	5368 <mbedtls_mpi_init_mempool>
/home/hei/Desktop/optee-qemu/optee_os/lib/libmbedtls/mbedtls/library/bignum.c:2267
    7b8c:	aa1903e0 	mov	x0, x25
    7b90:	97fff5f6 	bl	5368 <mbedtls_mpi_init_mempool>
/home/hei/Desktop/optee-qemu/optee_os/lib/libmbedtls/mbedtls/library/bignum.c:2273
    7b94:	52800022 	mov	w2, #0x1                   	// #1
    7b98:	aa1703e1 	mov	x1, x23
    7b9c:	aa1503e0 	mov	x0, x21
    7ba0:	97fff9d9 	bl	6304 <mbedtls_mpi_sub_int>
    7ba4:	2a0003f4 	mov	w20, w0
    7ba8:	35000660 	cbnz	w0, 7c74 <mpi_miller_rabin+0x14c>
/home/hei/Desktop/optee-qemu/optee_os/lib/libmbedtls/mbedtls/library/bignum.c:2274
    7bac:	aa1503e0 	mov	x0, x21
    7bb0:	97fff78f 	bl	59ec <mbedtls_mpi_lsb>
/home/hei/Desktop/optee-qemu/optee_os/lib/libmbedtls/mbedtls/library/bignum.c:2275
    7bb4:	aa1503e1 	mov	x1, x21
/home/hei/Desktop/optee-qemu/optee_os/lib/libmbedtls/mbedtls/library/bignum.c:2274
    7bb8:	aa0003fc 	mov	x28, x0
/home/hei/Desktop/optee-qemu/optee_os/lib/libmbedtls/mbedtls/library/bignum.c:2275
    7bbc:	aa1603e0 	mov	x0, x22
    7bc0:	97fff695 	bl	5614 <mbedtls_mpi_copy>
    7bc4:	2a0003f4 	mov	w20, w0
    7bc8:	35000560 	cbnz	w0, 7c74 <mpi_miller_rabin+0x14c>
/home/hei/Desktop/optee-qemu/optee_os/lib/libmbedtls/mbedtls/library/bignum.c:2276
    7bcc:	aa1c03e1 	mov	x1, x28
    7bd0:	aa1603e0 	mov	x0, x22
    7bd4:	97fff858 	bl	5d34 <mbedtls_mpi_shift_r>
    7bd8:	2a0003f4 	mov	w20, w0
    7bdc:	350004c0 	cbnz	w0, 7c74 <mpi_miller_rabin+0x14c>
/home/hei/Desktop/optee-qemu/optee_os/lib/libmbedtls/mbedtls/library/bignum.c:2280
    7be0:	d280001a 	mov	x26, #0x0                   	// #0
/home/hei/Desktop/optee-qemu/optee_os/lib/libmbedtls/mbedtls/library/bignum.c:2278
    7be4:	aa1703e0 	mov	x0, x23
    7be8:	97fff796 	bl	5a40 <mbedtls_mpi_bitlen>
/home/hei/Desktop/optee-qemu/optee_os/lib/libmbedtls/mbedtls/library/bignum.c:2280 (discriminator 1)
    7bec:	f9403be0 	ldr	x0, [sp, #112]
    7bf0:	eb00035f 	cmp	x26, x0
    7bf4:	54000400 	b.eq	7c74 <mpi_miller_rabin+0x14c>  // b.none
    7bf8:	528025db 	mov	w27, #0x12e                 	// #302
/home/hei/Desktop/optee-qemu/optee_os/lib/libmbedtls/mbedtls/library/bignum.c:2287
    7bfc:	9e660123 	fmov	x3, d9
    7c00:	9e660102 	fmov	x2, d8
    7c04:	f94006e1 	ldr	x1, [x23, #8]
    7c08:	aa1303e0 	mov	x0, x19
    7c0c:	d37ef421 	lsl	x1, x1, #2
    7c10:	97ffffa5 	bl	7aa4 <mbedtls_mpi_fill_random>
    7c14:	35000ca0 	cbnz	w0, 7da8 <mpi_miller_rabin+0x280>
/home/hei/Desktop/optee-qemu/optee_os/lib/libmbedtls/mbedtls/library/bignum.c:2289
    7c18:	aa1303e0 	mov	x0, x19
    7c1c:	97fff789 	bl	5a40 <mbedtls_mpi_bitlen>
    7c20:	aa0003e1 	mov	x1, x0
/home/hei/Desktop/optee-qemu/optee_os/lib/libmbedtls/mbedtls/library/bignum.c:2290
    7c24:	aa1503e0 	mov	x0, x21
/home/hei/Desktop/optee-qemu/optee_os/lib/libmbedtls/mbedtls/library/bignum.c:2289
    7c28:	f9003fe1 	str	x1, [sp, #120]
/home/hei/Desktop/optee-qemu/optee_os/lib/libmbedtls/mbedtls/library/bignum.c:2290
    7c2c:	97fff785 	bl	5a40 <mbedtls_mpi_bitlen>
/home/hei/Desktop/optee-qemu/optee_os/lib/libmbedtls/mbedtls/library/bignum.c:2291
    7c30:	f9403fe1 	ldr	x1, [sp, #120]
    7c34:	eb00003f 	cmp	x1, x0
    7c38:	54000189 	b.ls	7c68 <mpi_miller_rabin+0x140>  // b.plast
/home/hei/Desktop/optee-qemu/optee_os/lib/libmbedtls/mbedtls/library/bignum.c:2292
    7c3c:	a94d8fe1 	ldp	x1, x3, [sp, #216]
    7c40:	128003e4 	mov	w4, #0xffffffe0            	// #-32
    7c44:	d37ef422 	lsl	x2, x1, #2
    7c48:	1b010081 	madd	w1, w4, w1, w0
    7c4c:	d1001042 	sub	x2, x2, #0x4
    7c50:	12800000 	mov	w0, #0xffffffff            	// #-1
    7c54:	11007c21 	add	w1, w1, #0x1f
    7c58:	1ac12001 	lsl	w1, w0, w1
    7c5c:	b8626860 	ldr	w0, [x3, x2]
    7c60:	0a210001 	bic	w1, w0, w1
    7c64:	b8226861 	str	w1, [x3, x2]
/home/hei/Desktop/optee-qemu/optee_os/lib/libmbedtls/mbedtls/library/bignum.c:2295
    7c68:	7100077b 	subs	w27, w27, #0x1
    7c6c:	540002a1 	b.ne	7cc0 <mpi_miller_rabin+0x198>  // b.any
/home/hei/Desktop/optee-qemu/optee_os/lib/libmbedtls/mbedtls/library/bignum.c:2296
    7c70:	128001b4 	mov	w20, #0xfffffff2            	// #-14
/home/hei/Desktop/optee-qemu/optee_os/lib/libmbedtls/mbedtls/library/bignum.c:2339
    7c74:	aa1503e0 	mov	x0, x21
    7c78:	97fff5c6 	bl	5390 <mbedtls_mpi_free>
    7c7c:	aa1603e0 	mov	x0, x22
    7c80:	97fff5c4 	bl	5390 <mbedtls_mpi_free>
/home/hei/Desktop/optee-qemu/optee_os/lib/libmbedtls/mbedtls/library/bignum.c:2340
    7c84:	aa1803e0 	mov	x0, x24
    7c88:	97fff5c2 	bl	5390 <mbedtls_mpi_free>
    7c8c:	aa1303e0 	mov	x0, x19
    7c90:	97fff5c0 	bl	5390 <mbedtls_mpi_free>
/home/hei/Desktop/optee-qemu/optee_os/lib/libmbedtls/mbedtls/library/bignum.c:2341
    7c94:	aa1903e0 	mov	x0, x25
    7c98:	97fff5be 	bl	5390 <mbedtls_mpi_free>
/home/hei/Desktop/optee-qemu/optee_os/lib/libmbedtls/mbedtls/library/bignum.c:2344
    7c9c:	2a1403e0 	mov	w0, w20
    7ca0:	a94153f3 	ldp	x19, x20, [sp, #16]
    7ca4:	a9425bf5 	ldp	x21, x22, [sp, #32]
    7ca8:	a94363f7 	ldp	x23, x24, [sp, #48]
    7cac:	a9446bf9 	ldp	x25, x26, [sp, #64]
    7cb0:	a94573fb 	ldp	x27, x28, [sp, #80]
    7cb4:	6d4627e8 	ldp	d8, d9, [sp, #96]
    7cb8:	a8d07bfd 	ldp	x29, x30, [sp], #256
    7cbc:	d65f03c0 	ret
/home/hei/Desktop/optee-qemu/optee_os/lib/libmbedtls/mbedtls/library/bignum.c:2300
    7cc0:	aa1503e1 	mov	x1, x21
    7cc4:	aa1303e0 	mov	x0, x19
    7cc8:	97fff874 	bl	5e98 <mbedtls_mpi_cmp_mpi>
/home/hei/Desktop/optee-qemu/optee_os/lib/libmbedtls/mbedtls/library/bignum.c:2301
    7ccc:	36fff980 	tbz	w0, #31, 7bfc <mpi_miller_rabin+0xd4>
/home/hei/Desktop/optee-qemu/optee_os/lib/libmbedtls/mbedtls/library/bignum.c:2301 (discriminator 1)
    7cd0:	52800021 	mov	w1, #0x1                   	// #1
    7cd4:	aa1303e0 	mov	x0, x19
    7cd8:	97fff8a6 	bl	5f70 <mbedtls_mpi_cmp_int>
/home/hei/Desktop/optee-qemu/optee_os/lib/libmbedtls/mbedtls/library/bignum.c:2300 (discriminator 1)
    7cdc:	7100001f 	cmp	w0, #0x0
    7ce0:	54fff8ed 	b.le	7bfc <mpi_miller_rabin+0xd4>
/home/hei/Desktop/optee-qemu/optee_os/lib/libmbedtls/mbedtls/library/bignum.c:2306
    7ce4:	aa1903e4 	mov	x4, x25
    7ce8:	aa1703e3 	mov	x3, x23
    7cec:	aa1603e2 	mov	x2, x22
    7cf0:	aa1303e1 	mov	x1, x19
    7cf4:	aa1303e0 	mov	x0, x19
    7cf8:	97fffd59 	bl	725c <mbedtls_mpi_exp_mod>
    7cfc:	35000560 	cbnz	w0, 7da8 <mpi_miller_rabin+0x280>
/home/hei/Desktop/optee-qemu/optee_os/lib/libmbedtls/mbedtls/library/bignum.c:2308
    7d00:	aa1503e1 	mov	x1, x21
    7d04:	aa1303e0 	mov	x0, x19
    7d08:	97fff864 	bl	5e98 <mbedtls_mpi_cmp_mpi>
    7d0c:	35000060 	cbnz	w0, 7d18 <mpi_miller_rabin+0x1f0>
/home/hei/Desktop/optee-qemu/optee_os/lib/libmbedtls/mbedtls/library/bignum.c:2280
    7d10:	9100075a 	add	x26, x26, #0x1
    7d14:	17ffffb6 	b	7bec <mpi_miller_rabin+0xc4>
/home/hei/Desktop/optee-qemu/optee_os/lib/libmbedtls/mbedtls/library/bignum.c:2309 (discriminator 1)
    7d18:	52800021 	mov	w1, #0x1                   	// #1
    7d1c:	aa1303e0 	mov	x0, x19
    7d20:	97fff894 	bl	5f70 <mbedtls_mpi_cmp_int>
/home/hei/Desktop/optee-qemu/optee_os/lib/libmbedtls/mbedtls/library/bignum.c:2308 (discriminator 1)
    7d24:	34ffff60 	cbz	w0, 7d10 <mpi_miller_rabin+0x1e8>
/home/hei/Desktop/optee-qemu/optee_os/lib/libmbedtls/mbedtls/library/bignum.c:2312
    7d28:	d280003b 	mov	x27, #0x1                   	// #1
/home/hei/Desktop/optee-qemu/optee_os/lib/libmbedtls/mbedtls/library/bignum.c:2313
    7d2c:	eb1c037f 	cmp	x27, x28
    7d30:	54000262 	b.cs	7d7c <mpi_miller_rabin+0x254>  // b.hs, b.nlast
/home/hei/Desktop/optee-qemu/optee_os/lib/libmbedtls/mbedtls/library/bignum.c:2313 (discriminator 1)
    7d34:	aa1503e1 	mov	x1, x21
    7d38:	aa1303e0 	mov	x0, x19
    7d3c:	97fff857 	bl	5e98 <mbedtls_mpi_cmp_mpi>
    7d40:	340001e0 	cbz	w0, 7d7c <mpi_miller_rabin+0x254>
/home/hei/Desktop/optee-qemu/optee_os/lib/libmbedtls/mbedtls/library/bignum.c:2318
    7d44:	aa1303e2 	mov	x2, x19
    7d48:	aa1303e1 	mov	x1, x19
    7d4c:	aa1803e0 	mov	x0, x24
    7d50:	97fff97d 	bl	6344 <mbedtls_mpi_mul_mpi>
    7d54:	350002a0 	cbnz	w0, 7da8 <mpi_miller_rabin+0x280>
/home/hei/Desktop/optee-qemu/optee_os/lib/libmbedtls/mbedtls/library/bignum.c:2319
    7d58:	aa1703e2 	mov	x2, x23
    7d5c:	aa1803e1 	mov	x1, x24
    7d60:	aa1303e0 	mov	x0, x19
    7d64:	97fffbad 	bl	6c18 <mbedtls_mpi_mod_mpi>
    7d68:	35000200 	cbnz	w0, 7da8 <mpi_miller_rabin+0x280>
/home/hei/Desktop/optee-qemu/optee_os/lib/libmbedtls/mbedtls/library/bignum.c:2321
    7d6c:	52800021 	mov	w1, #0x1                   	// #1
    7d70:	aa1303e0 	mov	x0, x19
    7d74:	97fff87f 	bl	5f70 <mbedtls_mpi_cmp_int>
    7d78:	35000140 	cbnz	w0, 7da0 <mpi_miller_rabin+0x278>
/home/hei/Desktop/optee-qemu/optee_os/lib/libmbedtls/mbedtls/library/bignum.c:2330
    7d7c:	aa1503e1 	mov	x1, x21
    7d80:	aa1303e0 	mov	x0, x19
    7d84:	97fff845 	bl	5e98 <mbedtls_mpi_cmp_mpi>
    7d88:	35fff740 	cbnz	w0, 7c70 <mpi_miller_rabin+0x148>
/home/hei/Desktop/optee-qemu/optee_os/lib/libmbedtls/mbedtls/library/bignum.c:2331 (discriminator 1)
    7d8c:	52800021 	mov	w1, #0x1                   	// #1
    7d90:	aa1303e0 	mov	x0, x19
    7d94:	97fff877 	bl	5f70 <mbedtls_mpi_cmp_int>
/home/hei/Desktop/optee-qemu/optee_os/lib/libmbedtls/mbedtls/library/bignum.c:2330 (discriminator 1)
    7d98:	35fffbc0 	cbnz	w0, 7d10 <mpi_miller_rabin+0x1e8>
    7d9c:	17ffffb5 	b	7c70 <mpi_miller_rabin+0x148>
/home/hei/Desktop/optee-qemu/optee_os/lib/libmbedtls/mbedtls/library/bignum.c:2324
    7da0:	9100077b 	add	x27, x27, #0x1
    7da4:	17ffffe2 	b	7d2c <mpi_miller_rabin+0x204>
    7da8:	2a0003f4 	mov	w20, w0
    7dac:	17ffffb2 	b	7c74 <mpi_miller_rabin+0x14c>

0000000000007db0 <mbedtls_mpi_inv_mod>:
mbedtls_mpi_inv_mod():
/home/hei/Desktop/optee-qemu/optee_os/lib/libmbedtls/mbedtls/library/bignum.c:2095
    7db0:	a9aa7bfd 	stp	x29, x30, [sp, #-352]!
    7db4:	910003fd 	mov	x29, sp
    7db8:	6d0627e8 	stp	d8, d9, [sp, #96]
    7dbc:	9e670029 	fmov	d9, x1
    7dc0:	9e670048 	fmov	d8, x2
    7dc4:	fd003bea 	str	d10, [sp, #112]
    7dc8:	9e67000a 	fmov	d10, x0
/home/hei/Desktop/optee-qemu/optee_os/lib/libmbedtls/mbedtls/library/bignum.c:2102
    7dcc:	52800021 	mov	w1, #0x1                   	// #1
    7dd0:	aa0203e0 	mov	x0, x2
/home/hei/Desktop/optee-qemu/optee_os/lib/libmbedtls/mbedtls/library/bignum.c:2095
    7dd4:	a90153f3 	stp	x19, x20, [sp, #16]
    7dd8:	a9025bf5 	stp	x21, x22, [sp, #32]
    7ddc:	a90363f7 	stp	x23, x24, [sp, #48]
    7de0:	a9046bf9 	stp	x25, x26, [sp, #64]
    7de4:	a90573fb 	stp	x27, x28, [sp, #80]
/home/hei/Desktop/optee-qemu/optee_os/lib/libmbedtls/mbedtls/library/bignum.c:2102
    7de8:	97fff862 	bl	5f70 <mbedtls_mpi_cmp_int>
    7dec:	7100001f 	cmp	w0, #0x0
    7df0:	54001f8d 	b.le	81e0 <mbedtls_mpi_inv_mod+0x430>
/home/hei/Desktop/optee-qemu/optee_os/lib/libmbedtls/mbedtls/library/bignum.c:2105
    7df4:	910283fa 	add	x26, sp, #0xa0
    7df8:	9102e3f8 	add	x24, sp, #0xb8
    7dfc:	aa1a03e0 	mov	x0, x26
    7e00:	97fff55a 	bl	5368 <mbedtls_mpi_init_mempool>
    7e04:	aa1803e0 	mov	x0, x24
/home/hei/Desktop/optee-qemu/optee_os/lib/libmbedtls/mbedtls/library/bignum.c:2106
    7e08:	910343f7 	add	x23, sp, #0xd0
/home/hei/Desktop/optee-qemu/optee_os/lib/libmbedtls/mbedtls/library/bignum.c:2105
    7e0c:	97fff557 	bl	5368 <mbedtls_mpi_init_mempool>
/home/hei/Desktop/optee-qemu/optee_os/lib/libmbedtls/mbedtls/library/bignum.c:2106
    7e10:	9103a3f6 	add	x22, sp, #0xe8
    7e14:	aa1703e0 	mov	x0, x23
    7e18:	97fff554 	bl	5368 <mbedtls_mpi_init_mempool>
    7e1c:	aa1603e0 	mov	x0, x22
/home/hei/Desktop/optee-qemu/optee_os/lib/libmbedtls/mbedtls/library/bignum.c:2107
    7e20:	910223fc 	add	x28, sp, #0x88
/home/hei/Desktop/optee-qemu/optee_os/lib/libmbedtls/mbedtls/library/bignum.c:2106
    7e24:	97fff551 	bl	5368 <mbedtls_mpi_init_mempool>
/home/hei/Desktop/optee-qemu/optee_os/lib/libmbedtls/mbedtls/library/bignum.c:2107
    7e28:	910403fb 	add	x27, sp, #0x100
    7e2c:	aa1c03e0 	mov	x0, x28
    7e30:	97fff54e 	bl	5368 <mbedtls_mpi_init_mempool>
    7e34:	aa1b03e0 	mov	x0, x27
/home/hei/Desktop/optee-qemu/optee_os/lib/libmbedtls/mbedtls/library/bignum.c:2108
    7e38:	910463f9 	add	x25, sp, #0x118
/home/hei/Desktop/optee-qemu/optee_os/lib/libmbedtls/mbedtls/library/bignum.c:2107
    7e3c:	97fff54b 	bl	5368 <mbedtls_mpi_init_mempool>
/home/hei/Desktop/optee-qemu/optee_os/lib/libmbedtls/mbedtls/library/bignum.c:2108
    7e40:	9104c3f4 	add	x20, sp, #0x130
    7e44:	aa1903e0 	mov	x0, x25
    7e48:	97fff548 	bl	5368 <mbedtls_mpi_init_mempool>
    7e4c:	aa1403e0 	mov	x0, x20
/home/hei/Desktop/optee-qemu/optee_os/lib/libmbedtls/mbedtls/library/bignum.c:2109
    7e50:	910523f5 	add	x21, sp, #0x148
/home/hei/Desktop/optee-qemu/optee_os/lib/libmbedtls/mbedtls/library/bignum.c:2108
    7e54:	97fff545 	bl	5368 <mbedtls_mpi_init_mempool>
/home/hei/Desktop/optee-qemu/optee_os/lib/libmbedtls/mbedtls/library/bignum.c:2109
    7e58:	aa1503e0 	mov	x0, x21
    7e5c:	97fff543 	bl	5368 <mbedtls_mpi_init_mempool>
/home/hei/Desktop/optee-qemu/optee_os/lib/libmbedtls/mbedtls/library/bignum.c:2111
    7e60:	9e660102 	fmov	x2, d8
    7e64:	9e660121 	fmov	x1, d9
    7e68:	aa1c03e0 	mov	x0, x28
    7e6c:	97fffe9f 	bl	78e8 <mbedtls_mpi_gcd>
    7e70:	2a0003f3 	mov	w19, w0
    7e74:	35000d60 	cbnz	w0, 8020 <mbedtls_mpi_inv_mod+0x270>
/home/hei/Desktop/optee-qemu/optee_os/lib/libmbedtls/mbedtls/library/bignum.c:2113
    7e78:	52800021 	mov	w1, #0x1                   	// #1
    7e7c:	aa1c03e0 	mov	x0, x28
    7e80:	97fff83c 	bl	5f70 <mbedtls_mpi_cmp_int>
    7e84:	35001aa0 	cbnz	w0, 81d8 <mbedtls_mpi_inv_mod+0x428>
/home/hei/Desktop/optee-qemu/optee_os/lib/libmbedtls/mbedtls/library/bignum.c:2119
    7e88:	9e660102 	fmov	x2, d8
    7e8c:	9e660121 	fmov	x1, d9
    7e90:	aa1a03e0 	mov	x0, x26
    7e94:	97fffb61 	bl	6c18 <mbedtls_mpi_mod_mpi>
    7e98:	2a0003f3 	mov	w19, w0
    7e9c:	35000c20 	cbnz	w0, 8020 <mbedtls_mpi_inv_mod+0x270>
/home/hei/Desktop/optee-qemu/optee_os/lib/libmbedtls/mbedtls/library/bignum.c:2120
    7ea0:	aa1a03e1 	mov	x1, x26
    7ea4:	aa1803e0 	mov	x0, x24
    7ea8:	97fff5db 	bl	5614 <mbedtls_mpi_copy>
    7eac:	2a0003f3 	mov	w19, w0
    7eb0:	35000b80 	cbnz	w0, 8020 <mbedtls_mpi_inv_mod+0x270>
/home/hei/Desktop/optee-qemu/optee_os/lib/libmbedtls/mbedtls/library/bignum.c:2121
    7eb4:	9e660101 	fmov	x1, d8
    7eb8:	aa1b03e0 	mov	x0, x27
    7ebc:	97fff5d6 	bl	5614 <mbedtls_mpi_copy>
    7ec0:	2a0003f3 	mov	w19, w0
    7ec4:	35000ae0 	cbnz	w0, 8020 <mbedtls_mpi_inv_mod+0x270>
/home/hei/Desktop/optee-qemu/optee_os/lib/libmbedtls/mbedtls/library/bignum.c:2122
    7ec8:	9e660101 	fmov	x1, d8
    7ecc:	aa1903e0 	mov	x0, x25
    7ed0:	97fff5d1 	bl	5614 <mbedtls_mpi_copy>
    7ed4:	2a0003f3 	mov	w19, w0
    7ed8:	35000a40 	cbnz	w0, 8020 <mbedtls_mpi_inv_mod+0x270>
/home/hei/Desktop/optee-qemu/optee_os/lib/libmbedtls/mbedtls/library/bignum.c:2124
    7edc:	52800021 	mov	w1, #0x1                   	// #1
    7ee0:	aa1703e0 	mov	x0, x23
    7ee4:	97fff67a 	bl	58cc <mbedtls_mpi_lset>
    7ee8:	2a0003f3 	mov	w19, w0
    7eec:	350009a0 	cbnz	w0, 8020 <mbedtls_mpi_inv_mod+0x270>
/home/hei/Desktop/optee-qemu/optee_os/lib/libmbedtls/mbedtls/library/bignum.c:2125
    7ef0:	52800001 	mov	w1, #0x0                   	// #0
    7ef4:	aa1603e0 	mov	x0, x22
    7ef8:	97fff675 	bl	58cc <mbedtls_mpi_lset>
    7efc:	2a0003f3 	mov	w19, w0
    7f00:	35000900 	cbnz	w0, 8020 <mbedtls_mpi_inv_mod+0x270>
/home/hei/Desktop/optee-qemu/optee_os/lib/libmbedtls/mbedtls/library/bignum.c:2126
    7f04:	52800001 	mov	w1, #0x0                   	// #0
    7f08:	aa1403e0 	mov	x0, x20
    7f0c:	97fff670 	bl	58cc <mbedtls_mpi_lset>
    7f10:	2a0003f3 	mov	w19, w0
    7f14:	35000860 	cbnz	w0, 8020 <mbedtls_mpi_inv_mod+0x270>
/home/hei/Desktop/optee-qemu/optee_os/lib/libmbedtls/mbedtls/library/bignum.c:2127
    7f18:	52800021 	mov	w1, #0x1                   	// #1
    7f1c:	aa1503e0 	mov	x0, x21
    7f20:	97fff66b 	bl	58cc <mbedtls_mpi_lset>
/home/hei/Desktop/optee-qemu/optee_os/lib/libmbedtls/mbedtls/library/bignum.c:2142
    7f24:	2a0003f3 	mov	w19, w0
    7f28:	350007c0 	cbnz	w0, 8020 <mbedtls_mpi_inv_mod+0x270>
/home/hei/Desktop/optee-qemu/optee_os/lib/libmbedtls/mbedtls/library/bignum.c:2131
    7f2c:	f94067e0 	ldr	x0, [sp, #200]
    7f30:	b9400000 	ldr	w0, [x0]
    7f34:	36000560 	tbz	w0, #0, 7fe0 <mbedtls_mpi_inv_mod+0x230>
/home/hei/Desktop/optee-qemu/optee_os/lib/libmbedtls/mbedtls/library/bignum.c:2145
    7f38:	f94097e0 	ldr	x0, [sp, #296]
    7f3c:	b9400000 	ldr	w0, [x0]
    7f40:	36000ca0 	tbz	w0, #0, 80d4 <mbedtls_mpi_inv_mod+0x324>
/home/hei/Desktop/optee-qemu/optee_os/lib/libmbedtls/mbedtls/library/bignum.c:2159
    7f44:	aa1903e1 	mov	x1, x25
    7f48:	aa1803e0 	mov	x0, x24
    7f4c:	97fff7d3 	bl	5e98 <mbedtls_mpi_cmp_mpi>
    7f50:	37f81080 	tbnz	w0, #31, 8160 <mbedtls_mpi_inv_mod+0x3b0>
/home/hei/Desktop/optee-qemu/optee_os/lib/libmbedtls/mbedtls/library/bignum.c:2161
    7f54:	aa1903e2 	mov	x2, x25
    7f58:	aa1803e1 	mov	x1, x24
    7f5c:	aa1803e0 	mov	x0, x24
    7f60:	97fff8b6 	bl	6238 <mbedtls_mpi_sub_mpi>
    7f64:	2a0003f3 	mov	w19, w0
    7f68:	350005c0 	cbnz	w0, 8020 <mbedtls_mpi_inv_mod+0x270>
/home/hei/Desktop/optee-qemu/optee_os/lib/libmbedtls/mbedtls/library/bignum.c:2162
    7f6c:	aa1403e2 	mov	x2, x20
    7f70:	aa1703e1 	mov	x1, x23
    7f74:	aa1703e0 	mov	x0, x23
    7f78:	97fff8b0 	bl	6238 <mbedtls_mpi_sub_mpi>
    7f7c:	2a0003f3 	mov	w19, w0
    7f80:	35000500 	cbnz	w0, 8020 <mbedtls_mpi_inv_mod+0x270>
/home/hei/Desktop/optee-qemu/optee_os/lib/libmbedtls/mbedtls/library/bignum.c:2163
    7f84:	aa1503e2 	mov	x2, x21
    7f88:	aa1603e1 	mov	x1, x22
    7f8c:	aa1603e0 	mov	x0, x22
    7f90:	97fff8aa 	bl	6238 <mbedtls_mpi_sub_mpi>
    7f94:	2a0003f3 	mov	w19, w0
    7f98:	35000440 	cbnz	w0, 8020 <mbedtls_mpi_inv_mod+0x270>
/home/hei/Desktop/optee-qemu/optee_os/lib/libmbedtls/mbedtls/library/bignum.c:2172
    7f9c:	52800001 	mov	w1, #0x0                   	// #0
    7fa0:	aa1803e0 	mov	x0, x24
    7fa4:	97fff7f3 	bl	5f70 <mbedtls_mpi_cmp_int>
    7fa8:	35fffc20 	cbnz	w0, 7f2c <mbedtls_mpi_inv_mod+0x17c>
/home/hei/Desktop/optee-qemu/optee_os/lib/libmbedtls/mbedtls/library/bignum.c:2174
    7fac:	52800001 	mov	w1, #0x0                   	// #0
    7fb0:	aa1403e0 	mov	x0, x20
    7fb4:	97fff7ef 	bl	5f70 <mbedtls_mpi_cmp_int>
    7fb8:	37f80f40 	tbnz	w0, #31, 81a0 <mbedtls_mpi_inv_mod+0x3f0>
/home/hei/Desktop/optee-qemu/optee_os/lib/libmbedtls/mbedtls/library/bignum.c:2177
    7fbc:	9e660101 	fmov	x1, d8
    7fc0:	aa1403e0 	mov	x0, x20
    7fc4:	97fff7b5 	bl	5e98 <mbedtls_mpi_cmp_mpi>
    7fc8:	36f80fa0 	tbz	w0, #31, 81bc <mbedtls_mpi_inv_mod+0x40c>
/home/hei/Desktop/optee-qemu/optee_os/lib/libmbedtls/mbedtls/library/bignum.c:2180
    7fcc:	9e660140 	fmov	x0, d10
    7fd0:	aa1403e1 	mov	x1, x20
    7fd4:	97fff590 	bl	5614 <mbedtls_mpi_copy>
    7fd8:	2a0003f3 	mov	w19, w0
/home/hei/Desktop/optee-qemu/optee_os/lib/libmbedtls/mbedtls/library/bignum.c:2182
    7fdc:	14000011 	b	8020 <mbedtls_mpi_inv_mod+0x270>
/home/hei/Desktop/optee-qemu/optee_os/lib/libmbedtls/mbedtls/library/bignum.c:2133
    7fe0:	d2800021 	mov	x1, #0x1                   	// #1
    7fe4:	aa1803e0 	mov	x0, x24
    7fe8:	97fff753 	bl	5d34 <mbedtls_mpi_shift_r>
    7fec:	2a0003f3 	mov	w19, w0
    7ff0:	35000180 	cbnz	w0, 8020 <mbedtls_mpi_inv_mod+0x270>
/home/hei/Desktop/optee-qemu/optee_os/lib/libmbedtls/mbedtls/library/bignum.c:2135
    7ff4:	f94073e0 	ldr	x0, [sp, #224]
    7ff8:	b9400000 	ldr	w0, [x0]
    7ffc:	370004a0 	tbnz	w0, #0, 8090 <mbedtls_mpi_inv_mod+0x2e0>
/home/hei/Desktop/optee-qemu/optee_os/lib/libmbedtls/mbedtls/library/bignum.c:2135 (discriminator 1)
    8000:	f9407fe0 	ldr	x0, [sp, #248]
    8004:	b9400000 	ldr	w0, [x0]
    8008:	37000440 	tbnz	w0, #0, 8090 <mbedtls_mpi_inv_mod+0x2e0>
/home/hei/Desktop/optee-qemu/optee_os/lib/libmbedtls/mbedtls/library/bignum.c:2141
    800c:	d2800021 	mov	x1, #0x1                   	// #1
    8010:	aa1703e0 	mov	x0, x23
    8014:	97fff748 	bl	5d34 <mbedtls_mpi_shift_r>
    8018:	2a0003f3 	mov	w19, w0
    801c:	34000540 	cbz	w0, 80c4 <mbedtls_mpi_inv_mod+0x314>
/home/hei/Desktop/optee-qemu/optee_os/lib/libmbedtls/mbedtls/library/bignum.c:2184
    8020:	aa1a03e0 	mov	x0, x26
    8024:	97fff4db 	bl	5390 <mbedtls_mpi_free>
    8028:	aa1803e0 	mov	x0, x24
    802c:	97fff4d9 	bl	5390 <mbedtls_mpi_free>
    8030:	aa1703e0 	mov	x0, x23
    8034:	97fff4d7 	bl	5390 <mbedtls_mpi_free>
    8038:	aa1603e0 	mov	x0, x22
    803c:	97fff4d5 	bl	5390 <mbedtls_mpi_free>
/home/hei/Desktop/optee-qemu/optee_os/lib/libmbedtls/mbedtls/library/bignum.c:2185
    8040:	aa1c03e0 	mov	x0, x28
    8044:	97fff4d3 	bl	5390 <mbedtls_mpi_free>
    8048:	aa1b03e0 	mov	x0, x27
    804c:	97fff4d1 	bl	5390 <mbedtls_mpi_free>
    8050:	aa1903e0 	mov	x0, x25
    8054:	97fff4cf 	bl	5390 <mbedtls_mpi_free>
/home/hei/Desktop/optee-qemu/optee_os/lib/libmbedtls/mbedtls/library/bignum.c:2186
    8058:	aa1403e0 	mov	x0, x20
    805c:	97fff4cd 	bl	5390 <mbedtls_mpi_free>
    8060:	aa1503e0 	mov	x0, x21
    8064:	97fff4cb 	bl	5390 <mbedtls_mpi_free>
/home/hei/Desktop/optee-qemu/optee_os/lib/libmbedtls/mbedtls/library/bignum.c:2189
    8068:	2a1303e0 	mov	w0, w19
    806c:	fd403bea 	ldr	d10, [sp, #112]
    8070:	a94153f3 	ldp	x19, x20, [sp, #16]
    8074:	a9425bf5 	ldp	x21, x22, [sp, #32]
    8078:	a94363f7 	ldp	x23, x24, [sp, #48]
    807c:	a9446bf9 	ldp	x25, x26, [sp, #64]
    8080:	a94573fb 	ldp	x27, x28, [sp, #80]
    8084:	6d4627e8 	ldp	d8, d9, [sp, #96]
    8088:	a8d67bfd 	ldp	x29, x30, [sp], #352
    808c:	d65f03c0 	ret
/home/hei/Desktop/optee-qemu/optee_os/lib/libmbedtls/mbedtls/library/bignum.c:2137
    8090:	aa1b03e2 	mov	x2, x27
    8094:	aa1703e1 	mov	x1, x23
    8098:	aa1703e0 	mov	x0, x23
    809c:	97fff845 	bl	61b0 <mbedtls_mpi_add_mpi>
    80a0:	2a0003f3 	mov	w19, w0
    80a4:	35fffbe0 	cbnz	w0, 8020 <mbedtls_mpi_inv_mod+0x270>
/home/hei/Desktop/optee-qemu/optee_os/lib/libmbedtls/mbedtls/library/bignum.c:2138
    80a8:	aa1a03e2 	mov	x2, x26
    80ac:	aa1603e1 	mov	x1, x22
    80b0:	aa1603e0 	mov	x0, x22
    80b4:	97fff861 	bl	6238 <mbedtls_mpi_sub_mpi>
    80b8:	2a0003f3 	mov	w19, w0
    80bc:	34fffa80 	cbz	w0, 800c <mbedtls_mpi_inv_mod+0x25c>
    80c0:	17ffffd8 	b	8020 <mbedtls_mpi_inv_mod+0x270>
/home/hei/Desktop/optee-qemu/optee_os/lib/libmbedtls/mbedtls/library/bignum.c:2142
    80c4:	d2800021 	mov	x1, #0x1                   	// #1
    80c8:	aa1603e0 	mov	x0, x22
    80cc:	97fff71a 	bl	5d34 <mbedtls_mpi_shift_r>
    80d0:	17ffff95 	b	7f24 <mbedtls_mpi_inv_mod+0x174>
/home/hei/Desktop/optee-qemu/optee_os/lib/libmbedtls/mbedtls/library/bignum.c:2147
    80d4:	d2800021 	mov	x1, #0x1                   	// #1
    80d8:	aa1903e0 	mov	x0, x25
    80dc:	97fff716 	bl	5d34 <mbedtls_mpi_shift_r>
    80e0:	2a0003f3 	mov	w19, w0
    80e4:	35fff9e0 	cbnz	w0, 8020 <mbedtls_mpi_inv_mod+0x270>
/home/hei/Desktop/optee-qemu/optee_os/lib/libmbedtls/mbedtls/library/bignum.c:2149
    80e8:	f940a3e0 	ldr	x0, [sp, #320]
    80ec:	b9400000 	ldr	w0, [x0]
    80f0:	370001e0 	tbnz	w0, #0, 812c <mbedtls_mpi_inv_mod+0x37c>
/home/hei/Desktop/optee-qemu/optee_os/lib/libmbedtls/mbedtls/library/bignum.c:2149 (discriminator 1)
    80f4:	f940afe0 	ldr	x0, [sp, #344]
    80f8:	b9400000 	ldr	w0, [x0]
    80fc:	37000180 	tbnz	w0, #0, 812c <mbedtls_mpi_inv_mod+0x37c>
/home/hei/Desktop/optee-qemu/optee_os/lib/libmbedtls/mbedtls/library/bignum.c:2155
    8100:	d2800021 	mov	x1, #0x1                   	// #1
    8104:	aa1403e0 	mov	x0, x20
    8108:	97fff70b 	bl	5d34 <mbedtls_mpi_shift_r>
    810c:	2a0003f3 	mov	w19, w0
    8110:	35fff880 	cbnz	w0, 8020 <mbedtls_mpi_inv_mod+0x270>
/home/hei/Desktop/optee-qemu/optee_os/lib/libmbedtls/mbedtls/library/bignum.c:2156
    8114:	d2800021 	mov	x1, #0x1                   	// #1
    8118:	aa1503e0 	mov	x0, x21
    811c:	97fff706 	bl	5d34 <mbedtls_mpi_shift_r>
    8120:	2a0003f3 	mov	w19, w0
    8124:	34fff0a0 	cbz	w0, 7f38 <mbedtls_mpi_inv_mod+0x188>
    8128:	17ffffbe 	b	8020 <mbedtls_mpi_inv_mod+0x270>
/home/hei/Desktop/optee-qemu/optee_os/lib/libmbedtls/mbedtls/library/bignum.c:2151
    812c:	aa1b03e2 	mov	x2, x27
    8130:	aa1403e1 	mov	x1, x20
    8134:	aa1403e0 	mov	x0, x20
    8138:	97fff81e 	bl	61b0 <mbedtls_mpi_add_mpi>
    813c:	2a0003f3 	mov	w19, w0
    8140:	35fff700 	cbnz	w0, 8020 <mbedtls_mpi_inv_mod+0x270>
/home/hei/Desktop/optee-qemu/optee_os/lib/libmbedtls/mbedtls/library/bignum.c:2152
    8144:	aa1a03e2 	mov	x2, x26
    8148:	aa1503e1 	mov	x1, x21
    814c:	aa1503e0 	mov	x0, x21
    8150:	97fff83a 	bl	6238 <mbedtls_mpi_sub_mpi>
    8154:	2a0003f3 	mov	w19, w0
    8158:	34fffd40 	cbz	w0, 8100 <mbedtls_mpi_inv_mod+0x350>
    815c:	17ffffb1 	b	8020 <mbedtls_mpi_inv_mod+0x270>
/home/hei/Desktop/optee-qemu/optee_os/lib/libmbedtls/mbedtls/library/bignum.c:2167
    8160:	aa1803e2 	mov	x2, x24
    8164:	aa1903e1 	mov	x1, x25
    8168:	aa1903e0 	mov	x0, x25
    816c:	97fff833 	bl	6238 <mbedtls_mpi_sub_mpi>
    8170:	2a0003f3 	mov	w19, w0
    8174:	35fff560 	cbnz	w0, 8020 <mbedtls_mpi_inv_mod+0x270>
/home/hei/Desktop/optee-qemu/optee_os/lib/libmbedtls/mbedtls/library/bignum.c:2168
    8178:	aa1703e2 	mov	x2, x23
    817c:	aa1403e1 	mov	x1, x20
    8180:	aa1403e0 	mov	x0, x20
    8184:	97fff82d 	bl	6238 <mbedtls_mpi_sub_mpi>
    8188:	2a0003f3 	mov	w19, w0
    818c:	35fff4a0 	cbnz	w0, 8020 <mbedtls_mpi_inv_mod+0x270>
/home/hei/Desktop/optee-qemu/optee_os/lib/libmbedtls/mbedtls/library/bignum.c:2169
    8190:	aa1603e2 	mov	x2, x22
    8194:	aa1503e1 	mov	x1, x21
    8198:	aa1503e0 	mov	x0, x21
    819c:	17ffff7d 	b	7f90 <mbedtls_mpi_inv_mod+0x1e0>
/home/hei/Desktop/optee-qemu/optee_os/lib/libmbedtls/mbedtls/library/bignum.c:2175
    81a0:	9e660102 	fmov	x2, d8
    81a4:	aa1403e1 	mov	x1, x20
    81a8:	aa1403e0 	mov	x0, x20
    81ac:	97fff801 	bl	61b0 <mbedtls_mpi_add_mpi>
    81b0:	2a0003f3 	mov	w19, w0
    81b4:	34ffefc0 	cbz	w0, 7fac <mbedtls_mpi_inv_mod+0x1fc>
    81b8:	17ffff9a 	b	8020 <mbedtls_mpi_inv_mod+0x270>
/home/hei/Desktop/optee-qemu/optee_os/lib/libmbedtls/mbedtls/library/bignum.c:2178
    81bc:	9e660102 	fmov	x2, d8
    81c0:	aa1403e1 	mov	x1, x20
    81c4:	aa1403e0 	mov	x0, x20
    81c8:	97fff81c 	bl	6238 <mbedtls_mpi_sub_mpi>
    81cc:	2a0003f3 	mov	w19, w0
    81d0:	34ffef60 	cbz	w0, 7fbc <mbedtls_mpi_inv_mod+0x20c>
    81d4:	17ffff93 	b	8020 <mbedtls_mpi_inv_mod+0x270>
/home/hei/Desktop/optee-qemu/optee_os/lib/libmbedtls/mbedtls/library/bignum.c:2115
    81d8:	128001b3 	mov	w19, #0xfffffff2            	// #-14
    81dc:	17ffff91 	b	8020 <mbedtls_mpi_inv_mod+0x270>
/home/hei/Desktop/optee-qemu/optee_os/lib/libmbedtls/mbedtls/library/bignum.c:2103
    81e0:	12800073 	mov	w19, #0xfffffffc            	// #-4
    81e4:	17ffffa1 	b	8068 <mbedtls_mpi_inv_mod+0x2b8>

00000000000081e8 <mbedtls_mpi_is_prime_ext>:
mbedtls_mpi_is_prime_ext():
/home/hei/Desktop/optee-qemu/optee_os/lib/libmbedtls/mbedtls/library/bignum.c:2352
    81e8:	a9bb7bfd 	stp	x29, x30, [sp, #-80]!
    81ec:	910003fd 	mov	x29, sp
    81f0:	a90153f3 	stp	x19, x20, [sp, #16]
    81f4:	2a0103f4 	mov	w20, w1
/home/hei/Desktop/optee-qemu/optee_os/lib/libmbedtls/mbedtls/library/bignum.c:2358
    81f8:	52800021 	mov	w1, #0x1                   	// #1
    81fc:	790073e1 	strh	w1, [sp, #56]
/home/hei/Desktop/optee-qemu/optee_os/lib/libmbedtls/mbedtls/library/bignum.c:2362
    8200:	9100e3f3 	add	x19, sp, #0x38
/home/hei/Desktop/optee-qemu/optee_os/lib/libmbedtls/mbedtls/library/bignum.c:2360
    8204:	a9408001 	ldp	x1, x0, [x0, #8]
/home/hei/Desktop/optee-qemu/optee_os/lib/libmbedtls/mbedtls/library/bignum.c:2352
    8208:	a9025bf5 	stp	x21, x22, [sp, #32]
    820c:	aa0203f5 	mov	x21, x2
    8210:	aa0303f6 	mov	x22, x3
/home/hei/Desktop/optee-qemu/optee_os/lib/libmbedtls/mbedtls/library/bignum.c:2360
    8214:	a90403e1 	stp	x1, x0, [sp, #64]
/home/hei/Desktop/optee-qemu/optee_os/lib/libmbedtls/mbedtls/library/bignum.c:2362
    8218:	52800001 	mov	w1, #0x0                   	// #0
    821c:	aa1303e0 	mov	x0, x19
    8220:	97fff754 	bl	5f70 <mbedtls_mpi_cmp_int>
    8224:	350000c0 	cbnz	w0, 823c <mbedtls_mpi_is_prime_ext+0x54>
/home/hei/Desktop/optee-qemu/optee_os/lib/libmbedtls/mbedtls/library/bignum.c:2364
    8228:	128001a0 	mov	w0, #0xfffffff2            	// #-14
/home/hei/Desktop/optee-qemu/optee_os/lib/libmbedtls/mbedtls/library/bignum.c:2378
    822c:	a94153f3 	ldp	x19, x20, [sp, #16]
    8230:	a9425bf5 	ldp	x21, x22, [sp, #32]
    8234:	a8c57bfd 	ldp	x29, x30, [sp], #80
    8238:	d65f03c0 	ret
/home/hei/Desktop/optee-qemu/optee_os/lib/libmbedtls/mbedtls/library/bignum.c:2363 (discriminator 1)
    823c:	52800021 	mov	w1, #0x1                   	// #1
    8240:	aa1303e0 	mov	x0, x19
    8244:	97fff74b 	bl	5f70 <mbedtls_mpi_cmp_int>
/home/hei/Desktop/optee-qemu/optee_os/lib/libmbedtls/mbedtls/library/bignum.c:2362 (discriminator 1)
    8248:	34ffff00 	cbz	w0, 8228 <mbedtls_mpi_is_prime_ext+0x40>
/home/hei/Desktop/optee-qemu/optee_os/lib/libmbedtls/mbedtls/library/bignum.c:2366
    824c:	52800041 	mov	w1, #0x2                   	// #2
    8250:	aa1303e0 	mov	x0, x19
    8254:	97fff747 	bl	5f70 <mbedtls_mpi_cmp_int>
    8258:	340000c0 	cbz	w0, 8270 <mbedtls_mpi_is_prime_ext+0x88>
/home/hei/Desktop/optee-qemu/optee_os/lib/libmbedtls/mbedtls/library/bignum.c:2369
    825c:	aa1303e0 	mov	x0, x19
    8260:	97fffb6d 	bl	7014 <mpi_check_small_factors>
    8264:	340000a0 	cbz	w0, 8278 <mbedtls_mpi_is_prime_ext+0x90>
/home/hei/Desktop/optee-qemu/optee_os/lib/libmbedtls/mbedtls/library/bignum.c:2371
    8268:	7100041f 	cmp	w0, #0x1
    826c:	54fffe01 	b.ne	822c <mbedtls_mpi_is_prime_ext+0x44>  // b.any
/home/hei/Desktop/optee-qemu/optee_os/lib/libmbedtls/mbedtls/library/bignum.c:2372
    8270:	52800000 	mov	w0, #0x0                   	// #0
    8274:	17ffffee 	b	822c <mbedtls_mpi_is_prime_ext+0x44>
/home/hei/Desktop/optee-qemu/optee_os/lib/libmbedtls/mbedtls/library/bignum.c:2377
    8278:	aa1603e3 	mov	x3, x22
    827c:	aa1503e2 	mov	x2, x21
    8280:	93407e81 	sxtw	x1, w20
    8284:	aa1303e0 	mov	x0, x19
    8288:	97fffe28 	bl	7b28 <mpi_miller_rabin>
    828c:	17ffffe8 	b	822c <mbedtls_mpi_is_prime_ext+0x44>

0000000000008290 <mbedtls_mpi_is_prime>:
mbedtls_mpi_is_prime():
/home/hei/Desktop/optee-qemu/optee_os/lib/libmbedtls/mbedtls/library/bignum.c:2396
    8290:	aa0203e3 	mov	x3, x2
    8294:	aa0103e2 	mov	x2, x1
    8298:	52800501 	mov	w1, #0x28                  	// #40
    829c:	17ffffd3 	b	81e8 <mbedtls_mpi_is_prime_ext>

00000000000082a0 <mbedtls_mpi_gen_prime>:
mbedtls_mpi_gen_prime():
/home/hei/Desktop/optee-qemu/optee_os/lib/libmbedtls/mbedtls/library/bignum.c:2410
    82a0:	a9b67bfd 	stp	x29, x30, [sp, #-160]!
/home/hei/Desktop/optee-qemu/optee_os/lib/libmbedtls/mbedtls/library/bignum.c:2427
    82a4:	d1000c26 	sub	x6, x1, #0x3
    82a8:	d283ffa5 	mov	x5, #0x1ffd                	// #8189
/home/hei/Desktop/optee-qemu/optee_os/lib/libmbedtls/mbedtls/library/bignum.c:2410
    82ac:	910003fd 	mov	x29, sp
    82b0:	a90153f3 	stp	x19, x20, [sp, #16]
/home/hei/Desktop/optee-qemu/optee_os/lib/libmbedtls/mbedtls/library/bignum.c:2427
    82b4:	eb0500df 	cmp	x6, x5
/home/hei/Desktop/optee-qemu/optee_os/lib/libmbedtls/mbedtls/library/bignum.c:2410
    82b8:	a9025bf5 	stp	x21, x22, [sp, #32]
    82bc:	a90363f7 	stp	x23, x24, [sp, #48]
    82c0:	a9046bf9 	stp	x25, x26, [sp, #64]
    82c4:	a90573fb 	stp	x27, x28, [sp, #80]
    82c8:	6d0627e8 	stp	d8, d9, [sp, #96]
/home/hei/Desktop/optee-qemu/optee_os/lib/libmbedtls/mbedtls/library/bignum.c:2427
    82cc:	540016c8 	b.hi	85a4 <mbedtls_mpi_gen_prime+0x304>  // b.pmore
    82d0:	9e670089 	fmov	d9, x4
    82d4:	9e670068 	fmov	d8, x3
    82d8:	aa0103fa 	mov	x26, x1
/home/hei/Desktop/optee-qemu/optee_os/lib/libmbedtls/mbedtls/library/bignum.c:2430
    82dc:	910223f6 	add	x22, sp, #0x88
    82e0:	2a0203f8 	mov	w24, w2
    82e4:	aa0003f5 	mov	x21, x0
    82e8:	aa1603e0 	mov	x0, x22
    82ec:	97fff41f 	bl	5368 <mbedtls_mpi_init_mempool>
/home/hei/Desktop/optee-qemu/optee_os/lib/libmbedtls/mbedtls/library/bignum.c:2432
    82f0:	f240135f 	tst	x26, #0x1f
    82f4:	d345ff57 	lsr	x23, x26, #5
    82f8:	9a9706f7 	cinc	x23, x23, ne  // ne = any
/home/hei/Desktop/optee-qemu/optee_os/lib/libmbedtls/mbedtls/library/bignum.c:2434
    82fc:	37080cf8 	tbnz	w24, #1, 8498 <mbedtls_mpi_gen_prime+0x1f8>
/home/hei/Desktop/optee-qemu/optee_os/lib/libmbedtls/mbedtls/library/bignum.c:2439
    8300:	f1144f5f 	cmp	x26, #0x513
    8304:	54000ee8 	b.hi	84e0 <mbedtls_mpi_gen_prime+0x240>  // b.pmore
/home/hei/Desktop/optee-qemu/optee_os/lib/libmbedtls/mbedtls/library/bignum.c:2439 (discriminator 1)
    8308:	f10d475f 	cmp	x26, #0x351
    830c:	54000ee8 	b.hi	84e8 <mbedtls_mpi_gen_prime+0x248>  // b.pmore
/home/hei/Desktop/optee-qemu/optee_os/lib/libmbedtls/mbedtls/library/bignum.c:2440
    8310:	f10a275f 	cmp	x26, #0x289
    8314:	54000f28 	b.hi	84f8 <mbedtls_mpi_gen_prime+0x258>  // b.pmore
/home/hei/Desktop/optee-qemu/optee_os/lib/libmbedtls/mbedtls/library/bignum.c:2440 (discriminator 1)
    8318:	f105775f 	cmp	x26, #0x15d
    831c:	54000fe8 	b.hi	8518 <mbedtls_mpi_gen_prime+0x278>  // b.pmore
/home/hei/Desktop/optee-qemu/optee_os/lib/libmbedtls/mbedtls/library/bignum.c:2441
    8320:	f103e75f 	cmp	x26, #0xf9
    8324:	54000e68 	b.hi	84f0 <mbedtls_mpi_gen_prime+0x250>  // b.pmore
/home/hei/Desktop/optee-qemu/optee_os/lib/libmbedtls/mbedtls/library/bignum.c:2441 (discriminator 1)
    8328:	f102575f 	cmp	x26, #0x95
    832c:	d2800254 	mov	x20, #0x12                  	// #18
    8330:	d2800360 	mov	x0, #0x1b                  	// #27
/home/hei/Desktop/optee-qemu/optee_os/lib/libmbedtls/mbedtls/library/bignum.c:2452 (discriminator 1)
    8334:	9a808294 	csel	x20, x20, x0, hi  // hi = pmore
/home/hei/Desktop/optee-qemu/optee_os/lib/libmbedtls/mbedtls/library/bignum.c:2457
    8338:	d37ef6f9 	lsl	x25, x23, #2
/home/hei/Desktop/optee-qemu/optee_os/lib/libmbedtls/mbedtls/library/bignum.c:2461
    833c:	d37beaf7 	lsl	x23, x23, #5
/home/hei/Desktop/optee-qemu/optee_os/lib/libmbedtls/mbedtls/library/bignum.c:2459
    8340:	529e667c 	mov	w28, #0xf333                	// #62259
/home/hei/Desktop/optee-qemu/optee_os/lib/libmbedtls/mbedtls/library/bignum.c:2462
    8344:	cb1a02fb 	sub	x27, x23, x26
/home/hei/Desktop/optee-qemu/optee_os/lib/libmbedtls/mbedtls/library/bignum.c:2465
    8348:	12000318 	and	w24, w24, #0x1
/home/hei/Desktop/optee-qemu/optee_os/lib/libmbedtls/mbedtls/library/bignum.c:2459
    834c:	d1001320 	sub	x0, x25, #0x4
    8350:	72b6a09c 	movk	w28, #0xb504, lsl #16
    8354:	f9003fe0 	str	x0, [sp, #120]
/home/hei/Desktop/optee-qemu/optee_os/lib/libmbedtls/mbedtls/library/bignum.c:2457
    8358:	9e660123 	fmov	x3, d9
    835c:	9e660102 	fmov	x2, d8
    8360:	aa1903e1 	mov	x1, x25
    8364:	aa1503e0 	mov	x0, x21
    8368:	97fffdcf 	bl	7aa4 <mbedtls_mpi_fill_random>
    836c:	2a0003f3 	mov	w19, w0
    8370:	35000ea0 	cbnz	w0, 8544 <mbedtls_mpi_gen_prime+0x2a4>
/home/hei/Desktop/optee-qemu/optee_os/lib/libmbedtls/mbedtls/library/bignum.c:2459
    8374:	f9400aa0 	ldr	x0, [x21, #16]
    8378:	f9403fe1 	ldr	x1, [sp, #120]
    837c:	b8616800 	ldr	w0, [x0, x1]
    8380:	6b1c001f 	cmp	w0, w28
    8384:	54fffea9 	b.ls	8358 <mbedtls_mpi_gen_prime+0xb8>  // b.plast
/home/hei/Desktop/optee-qemu/optee_os/lib/libmbedtls/mbedtls/library/bignum.c:2462
    8388:	eb17035f 	cmp	x26, x23
    838c:	54000d23 	b.cc	8530 <mbedtls_mpi_gen_prime+0x290>  // b.lo, b.ul, b.last
/home/hei/Desktop/optee-qemu/optee_os/lib/libmbedtls/mbedtls/library/bignum.c:2463
    8390:	f9400aa1 	ldr	x1, [x21, #16]
    8394:	b9400020 	ldr	w0, [x1]
    8398:	32000002 	orr	w2, w0, #0x1
    839c:	b9000022 	str	w2, [x1]
/home/hei/Desktop/optee-qemu/optee_os/lib/libmbedtls/mbedtls/library/bignum.c:2465
    83a0:	34000e98 	cbz	w24, 8570 <mbedtls_mpi_gen_prime+0x2d0>
/home/hei/Desktop/optee-qemu/optee_os/lib/libmbedtls/mbedtls/library/bignum.c:2480
    83a4:	32000400 	orr	w0, w0, #0x3
    83a8:	b9000020 	str	w0, [x1]
/home/hei/Desktop/optee-qemu/optee_os/lib/libmbedtls/mbedtls/library/bignum.c:2482
    83ac:	52800062 	mov	w2, #0x3                   	// #3
    83b0:	aa1503e1 	mov	x1, x21
    83b4:	910213e0 	add	x0, sp, #0x84
    83b8:	97fffa45 	bl	6ccc <mbedtls_mpi_mod_int>
    83bc:	2a0003f3 	mov	w19, w0
    83c0:	35000c20 	cbnz	w0, 8544 <mbedtls_mpi_gen_prime+0x2a4>
/home/hei/Desktop/optee-qemu/optee_os/lib/libmbedtls/mbedtls/library/bignum.c:2483
    83c4:	b94087e0 	ldr	w0, [sp, #132]
    83c8:	35000e60 	cbnz	w0, 8594 <mbedtls_mpi_gen_prime+0x2f4>
/home/hei/Desktop/optee-qemu/optee_os/lib/libmbedtls/mbedtls/library/bignum.c:2484
    83cc:	52800102 	mov	w2, #0x8                   	// #8
    83d0:	aa1503e1 	mov	x1, x21
    83d4:	aa1503e0 	mov	x0, x21
    83d8:	97fff7bb 	bl	62c4 <mbedtls_mpi_add_int>
    83dc:	2a0003f3 	mov	w19, w0
    83e0:	35000b20 	cbnz	w0, 8544 <mbedtls_mpi_gen_prime+0x2a4>
/home/hei/Desktop/optee-qemu/optee_os/lib/libmbedtls/mbedtls/library/bignum.c:2489
    83e4:	aa1503e1 	mov	x1, x21
    83e8:	aa1603e0 	mov	x0, x22
    83ec:	97fff48a 	bl	5614 <mbedtls_mpi_copy>
    83f0:	2a0003f3 	mov	w19, w0
    83f4:	35000a80 	cbnz	w0, 8544 <mbedtls_mpi_gen_prime+0x2a4>
/home/hei/Desktop/optee-qemu/optee_os/lib/libmbedtls/mbedtls/library/bignum.c:2490
    83f8:	d2800021 	mov	x1, #0x1                   	// #1
    83fc:	aa1603e0 	mov	x0, x22
    8400:	97fff64d 	bl	5d34 <mbedtls_mpi_shift_r>
    8404:	2a0003f3 	mov	w19, w0
    8408:	350009e0 	cbnz	w0, 8544 <mbedtls_mpi_gen_prime+0x2a4>
/home/hei/Desktop/optee-qemu/optee_os/lib/libmbedtls/mbedtls/library/bignum.c:2498
    840c:	aa1503e0 	mov	x0, x21
    8410:	97fffb01 	bl	7014 <mpi_check_small_factors>
    8414:	2a0003f3 	mov	w19, w0
    8418:	35000260 	cbnz	w0, 8464 <mbedtls_mpi_gen_prime+0x1c4>
/home/hei/Desktop/optee-qemu/optee_os/lib/libmbedtls/mbedtls/library/bignum.c:2499 (discriminator 1)
    841c:	aa1603e0 	mov	x0, x22
    8420:	97fffafd 	bl	7014 <mpi_check_small_factors>
    8424:	2a0003f3 	mov	w19, w0
/home/hei/Desktop/optee-qemu/optee_os/lib/libmbedtls/mbedtls/library/bignum.c:2498 (discriminator 1)
    8428:	350001e0 	cbnz	w0, 8464 <mbedtls_mpi_gen_prime+0x1c4>
/home/hei/Desktop/optee-qemu/optee_os/lib/libmbedtls/mbedtls/library/bignum.c:2500
    842c:	9e660123 	fmov	x3, d9
    8430:	9e660102 	fmov	x2, d8
    8434:	aa1403e1 	mov	x1, x20
    8438:	aa1503e0 	mov	x0, x21
    843c:	97fffdbb 	bl	7b28 <mpi_miller_rabin>
    8440:	2a0003f3 	mov	w19, w0
/home/hei/Desktop/optee-qemu/optee_os/lib/libmbedtls/mbedtls/library/bignum.c:2499
    8444:	35000100 	cbnz	w0, 8464 <mbedtls_mpi_gen_prime+0x1c4>
/home/hei/Desktop/optee-qemu/optee_os/lib/libmbedtls/mbedtls/library/bignum.c:2502
    8448:	9e660123 	fmov	x3, d9
    844c:	9e660102 	fmov	x2, d8
    8450:	aa1403e1 	mov	x1, x20
    8454:	aa1603e0 	mov	x0, x22
    8458:	97fffdb4 	bl	7b28 <mpi_miller_rabin>
    845c:	2a0003f3 	mov	w19, w0
/home/hei/Desktop/optee-qemu/optee_os/lib/libmbedtls/mbedtls/library/bignum.c:2501
    8460:	34000720 	cbz	w0, 8544 <mbedtls_mpi_gen_prime+0x2a4>
/home/hei/Desktop/optee-qemu/optee_os/lib/libmbedtls/mbedtls/library/bignum.c:2506
    8464:	31003a7f 	cmn	w19, #0xe
    8468:	540006e1 	b.ne	8544 <mbedtls_mpi_gen_prime+0x2a4>  // b.any
/home/hei/Desktop/optee-qemu/optee_os/lib/libmbedtls/mbedtls/library/bignum.c:2514
    846c:	52800182 	mov	w2, #0xc                   	// #12
    8470:	aa1503e1 	mov	x1, x21
    8474:	aa1503e0 	mov	x0, x21
    8478:	97fff793 	bl	62c4 <mbedtls_mpi_add_int>
    847c:	2a0003f3 	mov	w19, w0
    8480:	35000620 	cbnz	w0, 8544 <mbedtls_mpi_gen_prime+0x2a4>
/home/hei/Desktop/optee-qemu/optee_os/lib/libmbedtls/mbedtls/library/bignum.c:2515
    8484:	528000c2 	mov	w2, #0x6                   	// #6
    8488:	aa1603e1 	mov	x1, x22
    848c:	aa1603e0 	mov	x0, x22
    8490:	97fff78d 	bl	62c4 <mbedtls_mpi_add_int>
    8494:	17ffffdc 	b	8404 <mbedtls_mpi_gen_prime+0x164>
/home/hei/Desktop/optee-qemu/optee_os/lib/libmbedtls/mbedtls/library/bignum.c:2449
    8498:	f116a75f 	cmp	x26, #0x5a9
    849c:	540002e8 	b.hi	84f8 <mbedtls_mpi_gen_prime+0x258>  // b.pmore
/home/hei/Desktop/optee-qemu/optee_os/lib/libmbedtls/mbedtls/library/bignum.c:2449 (discriminator 1)
    84a0:	f111f75f 	cmp	x26, #0x47d
    84a4:	540002e8 	b.hi	8500 <mbedtls_mpi_gen_prime+0x260>  // b.pmore
/home/hei/Desktop/optee-qemu/optee_os/lib/libmbedtls/mbedtls/library/bignum.c:2450
    84a8:	f10f9f5f 	cmp	x26, #0x3e7
    84ac:	540002e8 	b.hi	8508 <mbedtls_mpi_gen_prime+0x268>  // b.pmore
/home/hei/Desktop/optee-qemu/optee_os/lib/libmbedtls/mbedtls/library/bignum.c:2450 (discriminator 1)
    84b0:	f10d475f 	cmp	x26, #0x351
    84b4:	540002e8 	b.hi	8510 <mbedtls_mpi_gen_prime+0x270>  // b.pmore
/home/hei/Desktop/optee-qemu/optee_os/lib/libmbedtls/mbedtls/library/bignum.c:2451
    84b8:	f10bb75f 	cmp	x26, #0x2ed
    84bc:	540002e8 	b.hi	8518 <mbedtls_mpi_gen_prime+0x278>  // b.pmore
/home/hei/Desktop/optee-qemu/optee_os/lib/libmbedtls/mbedtls/library/bignum.c:2451 (discriminator 1)
    84c0:	f107cf5f 	cmp	x26, #0x1f3
    84c4:	540002e8 	b.hi	8520 <mbedtls_mpi_gen_prime+0x280>  // b.pmore
/home/hei/Desktop/optee-qemu/optee_os/lib/libmbedtls/mbedtls/library/bignum.c:2452
    84c8:	f103e75f 	cmp	x26, #0xf9
    84cc:	540002e8 	b.hi	8528 <mbedtls_mpi_gen_prime+0x288>  // b.pmore
/home/hei/Desktop/optee-qemu/optee_os/lib/libmbedtls/mbedtls/library/bignum.c:2452 (discriminator 1)
    84d0:	f102575f 	cmp	x26, #0x95
    84d4:	d2800514 	mov	x20, #0x28                  	// #40
    84d8:	d2800660 	mov	x0, #0x33                  	// #51
    84dc:	17ffff96 	b	8334 <mbedtls_mpi_gen_prime+0x94>
/home/hei/Desktop/optee-qemu/optee_os/lib/libmbedtls/mbedtls/library/bignum.c:2439
    84e0:	d2800054 	mov	x20, #0x2                   	// #2
    84e4:	17ffff95 	b	8338 <mbedtls_mpi_gen_prime+0x98>
    84e8:	d2800074 	mov	x20, #0x3                   	// #3
    84ec:	17ffff93 	b	8338 <mbedtls_mpi_gen_prime+0x98>
/home/hei/Desktop/optee-qemu/optee_os/lib/libmbedtls/mbedtls/library/bignum.c:2441
    84f0:	d2800194 	mov	x20, #0xc                   	// #12
    84f4:	17ffff91 	b	8338 <mbedtls_mpi_gen_prime+0x98>
/home/hei/Desktop/optee-qemu/optee_os/lib/libmbedtls/mbedtls/library/bignum.c:2440
    84f8:	d2800094 	mov	x20, #0x4                   	// #4
    84fc:	17ffff8f 	b	8338 <mbedtls_mpi_gen_prime+0x98>
/home/hei/Desktop/optee-qemu/optee_os/lib/libmbedtls/mbedtls/library/bignum.c:2449
    8500:	d28000b4 	mov	x20, #0x5                   	// #5
    8504:	17ffff8d 	b	8338 <mbedtls_mpi_gen_prime+0x98>
/home/hei/Desktop/optee-qemu/optee_os/lib/libmbedtls/mbedtls/library/bignum.c:2450
    8508:	d28000d4 	mov	x20, #0x6                   	// #6
    850c:	17ffff8b 	b	8338 <mbedtls_mpi_gen_prime+0x98>
    8510:	d28000f4 	mov	x20, #0x7                   	// #7
    8514:	17ffff89 	b	8338 <mbedtls_mpi_gen_prime+0x98>
/home/hei/Desktop/optee-qemu/optee_os/lib/libmbedtls/mbedtls/library/bignum.c:2440
    8518:	d2800114 	mov	x20, #0x8                   	// #8
    851c:	17ffff87 	b	8338 <mbedtls_mpi_gen_prime+0x98>
/home/hei/Desktop/optee-qemu/optee_os/lib/libmbedtls/mbedtls/library/bignum.c:2451
    8520:	d28001b4 	mov	x20, #0xd                   	// #13
    8524:	17ffff85 	b	8338 <mbedtls_mpi_gen_prime+0x98>
/home/hei/Desktop/optee-qemu/optee_os/lib/libmbedtls/mbedtls/library/bignum.c:2452
    8528:	d2800394 	mov	x20, #0x1c                  	// #28
    852c:	17ffff83 	b	8338 <mbedtls_mpi_gen_prime+0x98>
/home/hei/Desktop/optee-qemu/optee_os/lib/libmbedtls/mbedtls/library/bignum.c:2462 (discriminator 1)
    8530:	aa1b03e1 	mov	x1, x27
    8534:	aa1503e0 	mov	x0, x21
    8538:	97fff5ff 	bl	5d34 <mbedtls_mpi_shift_r>
    853c:	2a0003f3 	mov	w19, w0
    8540:	34fff280 	cbz	w0, 8390 <mbedtls_mpi_gen_prime+0xf0>
/home/hei/Desktop/optee-qemu/optee_os/lib/libmbedtls/mbedtls/library/bignum.c:2522
    8544:	aa1603e0 	mov	x0, x22
    8548:	97fff392 	bl	5390 <mbedtls_mpi_free>
/home/hei/Desktop/optee-qemu/optee_os/lib/libmbedtls/mbedtls/library/bignum.c:2525
    854c:	2a1303e0 	mov	w0, w19
    8550:	a94153f3 	ldp	x19, x20, [sp, #16]
    8554:	a9425bf5 	ldp	x21, x22, [sp, #32]
    8558:	a94363f7 	ldp	x23, x24, [sp, #48]
    855c:	a9446bf9 	ldp	x25, x26, [sp, #64]
    8560:	a94573fb 	ldp	x27, x28, [sp, #80]
    8564:	6d4627e8 	ldp	d8, d9, [sp, #96]
    8568:	a8ca7bfd 	ldp	x29, x30, [sp], #160
    856c:	d65f03c0 	ret
/home/hei/Desktop/optee-qemu/optee_os/lib/libmbedtls/mbedtls/library/bignum.c:2467
    8570:	9e660123 	fmov	x3, d9
    8574:	9e660102 	fmov	x2, d8
    8578:	2a1403e1 	mov	w1, w20
    857c:	aa1503e0 	mov	x0, x21
    8580:	97ffff1a 	bl	81e8 <mbedtls_mpi_is_prime_ext>
    8584:	2a0003f3 	mov	w19, w0
/home/hei/Desktop/optee-qemu/optee_os/lib/libmbedtls/mbedtls/library/bignum.c:2469
    8588:	3100381f 	cmn	w0, #0xe
    858c:	54ffee60 	b.eq	8358 <mbedtls_mpi_gen_prime+0xb8>  // b.none
    8590:	17ffffed 	b	8544 <mbedtls_mpi_gen_prime+0x2a4>
/home/hei/Desktop/optee-qemu/optee_os/lib/libmbedtls/mbedtls/library/bignum.c:2485
    8594:	7100041f 	cmp	w0, #0x1
    8598:	54fff261 	b.ne	83e4 <mbedtls_mpi_gen_prime+0x144>  // b.any
/home/hei/Desktop/optee-qemu/optee_os/lib/libmbedtls/mbedtls/library/bignum.c:2486
    859c:	52800082 	mov	w2, #0x4                   	// #4
    85a0:	17ffff8c 	b	83d0 <mbedtls_mpi_gen_prime+0x130>
/home/hei/Desktop/optee-qemu/optee_os/lib/libmbedtls/mbedtls/library/bignum.c:2428
    85a4:	12800073 	mov	w19, #0xfffffffc            	// #-4
    85a8:	17ffffe9 	b	854c <mbedtls_mpi_gen_prime+0x2ac>

00000000000085ac <mbedtls_mpi_self_test>:
mbedtls_mpi_self_test():
/home/hei/Desktop/optee-qemu/optee_os/lib/libmbedtls/mbedtls/library/bignum.c:2544
    85ac:	a9ae7bfd 	stp	x29, x30, [sp, #-288]!
    85b0:	910003fd 	mov	x29, sp
    85b4:	a9025bf5 	stp	x21, x22, [sp, #32]
/home/hei/Desktop/optee-qemu/optee_os/lib/libmbedtls/mbedtls/library/bignum.c:2548
    85b8:	9101e3f6 	add	x22, sp, #0x78
/home/hei/Desktop/optee-qemu/optee_os/lib/libmbedtls/mbedtls/library/bignum.c:2550
    85bc:	9103c3f5 	add	x21, sp, #0xf0
/home/hei/Desktop/optee-qemu/optee_os/lib/libmbedtls/mbedtls/library/bignum.c:2544
    85c0:	a90153f3 	stp	x19, x20, [sp, #16]
    85c4:	2a0003f3 	mov	w19, w0
/home/hei/Desktop/optee-qemu/optee_os/lib/libmbedtls/mbedtls/library/bignum.c:2548
    85c8:	aa1603e0 	mov	x0, x22
/home/hei/Desktop/optee-qemu/optee_os/lib/libmbedtls/mbedtls/library/bignum.c:2544
    85cc:	a90363f7 	stp	x23, x24, [sp, #48]
/home/hei/Desktop/optee-qemu/optee_os/lib/libmbedtls/mbedtls/library/bignum.c:2549
    85d0:	9102a3f8 	add	x24, sp, #0xa8
    85d4:	910303f4 	add	x20, sp, #0xc0
/home/hei/Desktop/optee-qemu/optee_os/lib/libmbedtls/mbedtls/library/bignum.c:2544
    85d8:	a9046bf9 	stp	x25, x26, [sp, #64]
/home/hei/Desktop/optee-qemu/optee_os/lib/libmbedtls/mbedtls/library/bignum.c:2550
    85dc:	910363f9 	add	x25, sp, #0xd8
/home/hei/Desktop/optee-qemu/optee_os/lib/libmbedtls/mbedtls/library/bignum.c:2544
    85e0:	a90573fb 	stp	x27, x28, [sp, #80]
/home/hei/Desktop/optee-qemu/optee_os/lib/libmbedtls/mbedtls/library/bignum.c:2548
    85e4:	97fff361 	bl	5368 <mbedtls_mpi_init_mempool>
    85e8:	910243fc 	add	x28, sp, #0x90
    85ec:	aa1c03e0 	mov	x0, x28
    85f0:	97fff35e 	bl	5368 <mbedtls_mpi_init_mempool>
/home/hei/Desktop/optee-qemu/optee_os/lib/libmbedtls/mbedtls/library/bignum.c:2549
    85f4:	aa1803e0 	mov	x0, x24
    85f8:	97fff35c 	bl	5368 <mbedtls_mpi_init_mempool>
    85fc:	aa1403e0 	mov	x0, x20
    8600:	97fff35a 	bl	5368 <mbedtls_mpi_init_mempool>
/home/hei/Desktop/optee-qemu/optee_os/lib/libmbedtls/mbedtls/library/bignum.c:2550
    8604:	aa1903e0 	mov	x0, x25
    8608:	97fff358 	bl	5368 <mbedtls_mpi_init_mempool>
    860c:	aa1503e0 	mov	x0, x21
    8610:	97fff356 	bl	5368 <mbedtls_mpi_init_mempool>
/home/hei/Desktop/optee-qemu/optee_os/lib/libmbedtls/mbedtls/library/bignum.c:2551
    8614:	910423e0 	add	x0, sp, #0x108
    8618:	f90037e0 	str	x0, [sp, #104]
    861c:	97fff353 	bl	5368 <mbedtls_mpi_init_mempool>
/home/hei/Desktop/optee-qemu/optee_os/lib/libmbedtls/mbedtls/library/bignum.c:2553
    8620:	f0000002 	adrp	x2, b000 <__func__.3755+0xec>
    8624:	52800201 	mov	w1, #0x10                  	// #16
    8628:	91128842 	add	x2, x2, #0x4a2
    862c:	aa1603e0 	mov	x0, x22
    8630:	97fff7a6 	bl	64c8 <mbedtls_mpi_read_string>
    8634:	2a0003fb 	mov	w27, w0
    8638:	350004c0 	cbnz	w0, 86d0 <mbedtls_mpi_self_test+0x124>
/home/hei/Desktop/optee-qemu/optee_os/lib/libmbedtls/mbedtls/library/bignum.c:2559
    863c:	f0000002 	adrp	x2, b000 <__func__.3755+0xec>
    8640:	52800201 	mov	w1, #0x10                  	// #16
    8644:	91148c42 	add	x2, x2, #0x523
    8648:	aa1c03e0 	mov	x0, x28
    864c:	97fff79f 	bl	64c8 <mbedtls_mpi_read_string>
    8650:	2a0003fb 	mov	w27, w0
    8654:	350003e0 	cbnz	w0, 86d0 <mbedtls_mpi_self_test+0x124>
/home/hei/Desktop/optee-qemu/optee_os/lib/libmbedtls/mbedtls/library/bignum.c:2565
    8658:	f0000002 	adrp	x2, b000 <__func__.3755+0xec>
    865c:	52800201 	mov	w1, #0x10                  	// #16
    8660:	91169042 	add	x2, x2, #0x5a4
    8664:	aa1803e0 	mov	x0, x24
    8668:	97fff798 	bl	64c8 <mbedtls_mpi_read_string>
    866c:	2a0003fb 	mov	w27, w0
    8670:	35000300 	cbnz	w0, 86d0 <mbedtls_mpi_self_test+0x124>
/home/hei/Desktop/optee-qemu/optee_os/lib/libmbedtls/mbedtls/library/bignum.c:2570
    8674:	aa1803e2 	mov	x2, x24
    8678:	aa1603e1 	mov	x1, x22
    867c:	aa1403e0 	mov	x0, x20
    8680:	97fff731 	bl	6344 <mbedtls_mpi_mul_mpi>
    8684:	2a0003fb 	mov	w27, w0
    8688:	35000240 	cbnz	w0, 86d0 <mbedtls_mpi_self_test+0x124>
/home/hei/Desktop/optee-qemu/optee_os/lib/libmbedtls/mbedtls/library/bignum.c:2572
    868c:	f0000002 	adrp	x2, b000 <__func__.3755+0xec>
    8690:	52800201 	mov	w1, #0x10                  	// #16
    8694:	91181442 	add	x2, x2, #0x605
    8698:	aa1503e0 	mov	x0, x21
    869c:	97fff78b 	bl	64c8 <mbedtls_mpi_read_string>
    86a0:	2a0003fb 	mov	w27, w0
    86a4:	35000160 	cbnz	w0, 86d0 <mbedtls_mpi_self_test+0x124>
/home/hei/Desktop/optee-qemu/optee_os/lib/libmbedtls/mbedtls/library/bignum.c:2581
    86a8:	34000093 	cbz	w19, 86b8 <mbedtls_mpi_self_test+0x10c>
/home/hei/Desktop/optee-qemu/optee_os/lib/libmbedtls/mbedtls/library/bignum.c:2582
    86ac:	f0000000 	adrp	x0, b000 <__func__.3755+0xec>
    86b0:	911b9000 	add	x0, x0, #0x6e4
    86b4:	97ffe74a 	bl	23dc <printf>
/home/hei/Desktop/optee-qemu/optee_os/lib/libmbedtls/mbedtls/library/bignum.c:2584
    86b8:	aa1503e1 	mov	x1, x21
    86bc:	aa1403e0 	mov	x0, x20
    86c0:	97fff5f6 	bl	5e98 <mbedtls_mpi_cmp_mpi>
    86c4:	340004e0 	cbz	w0, 8760 <mbedtls_mpi_self_test+0x1b4>
/home/hei/Desktop/optee-qemu/optee_os/lib/libmbedtls/mbedtls/library/bignum.c:2586
    86c8:	35000453 	cbnz	w19, 8750 <mbedtls_mpi_self_test+0x1a4>
/home/hei/Desktop/optee-qemu/optee_os/lib/libmbedtls/mbedtls/library/bignum.c:2681
    86cc:	5280003b 	mov	w27, #0x1                   	// #1
/home/hei/Desktop/optee-qemu/optee_os/lib/libmbedtls/mbedtls/library/bignum.c:2691
    86d0:	7100037f 	cmp	w27, #0x0
    86d4:	7a401a64 	ccmp	w19, #0x0, #0x4, ne  // ne = any
    86d8:	540000a0 	b.eq	86ec <mbedtls_mpi_self_test+0x140>  // b.none
/home/hei/Desktop/optee-qemu/optee_os/lib/libmbedtls/mbedtls/library/bignum.c:2692
    86dc:	f0000000 	adrp	x0, b000 <__func__.3755+0xec>
    86e0:	2a1b03e1 	mov	w1, w27
    86e4:	91232000 	add	x0, x0, #0x8c8
    86e8:	97ffe73d 	bl	23dc <printf>
/home/hei/Desktop/optee-qemu/optee_os/lib/libmbedtls/mbedtls/library/bignum.c:2694
    86ec:	aa1603e0 	mov	x0, x22
    86f0:	97fff328 	bl	5390 <mbedtls_mpi_free>
    86f4:	aa1c03e0 	mov	x0, x28
    86f8:	97fff326 	bl	5390 <mbedtls_mpi_free>
    86fc:	aa1803e0 	mov	x0, x24
    8700:	97fff324 	bl	5390 <mbedtls_mpi_free>
    8704:	aa1403e0 	mov	x0, x20
    8708:	97fff322 	bl	5390 <mbedtls_mpi_free>
/home/hei/Desktop/optee-qemu/optee_os/lib/libmbedtls/mbedtls/library/bignum.c:2695
    870c:	aa1903e0 	mov	x0, x25
    8710:	97fff320 	bl	5390 <mbedtls_mpi_free>
    8714:	aa1503e0 	mov	x0, x21
    8718:	97fff31e 	bl	5390 <mbedtls_mpi_free>
    871c:	f94037e0 	ldr	x0, [sp, #104]
    8720:	97fff31c 	bl	5390 <mbedtls_mpi_free>
/home/hei/Desktop/optee-qemu/optee_os/lib/libmbedtls/mbedtls/library/bignum.c:2697
    8724:	34000073 	cbz	w19, 8730 <mbedtls_mpi_self_test+0x184>
/home/hei/Desktop/optee-qemu/optee_os/lib/libmbedtls/mbedtls/library/bignum.c:2698
    8728:	52800140 	mov	w0, #0xa                   	// #10
    872c:	97ffe76e 	bl	24e4 <putchar>
/home/hei/Desktop/optee-qemu/optee_os/lib/libmbedtls/mbedtls/library/bignum.c:2701
    8730:	2a1b03e0 	mov	w0, w27
    8734:	a94153f3 	ldp	x19, x20, [sp, #16]
    8738:	a9425bf5 	ldp	x21, x22, [sp, #32]
    873c:	a94363f7 	ldp	x23, x24, [sp, #48]
    8740:	a9446bf9 	ldp	x25, x26, [sp, #64]
    8744:	a94573fb 	ldp	x27, x28, [sp, #80]
    8748:	a8d27bfd 	ldp	x29, x30, [sp], #288
    874c:	d65f03c0 	ret
/home/hei/Desktop/optee-qemu/optee_os/lib/libmbedtls/mbedtls/library/bignum.c:2587
    8750:	f0000000 	adrp	x0, b000 <__func__.3755+0xec>
    8754:	911bf800 	add	x0, x0, #0x6fe
    8758:	97ffe753 	bl	24a4 <puts>
    875c:	17ffffdc 	b	86cc <mbedtls_mpi_self_test+0x120>
/home/hei/Desktop/optee-qemu/optee_os/lib/libmbedtls/mbedtls/library/bignum.c:2593
    8760:	34000093 	cbz	w19, 8770 <mbedtls_mpi_self_test+0x1c4>
/home/hei/Desktop/optee-qemu/optee_os/lib/libmbedtls/mbedtls/library/bignum.c:2594
    8764:	f0000000 	adrp	x0, b000 <__func__.3755+0xec>
    8768:	911c1400 	add	x0, x0, #0x705
    876c:	97ffe74e 	bl	24a4 <puts>
/home/hei/Desktop/optee-qemu/optee_os/lib/libmbedtls/mbedtls/library/bignum.c:2596
    8770:	aa1803e3 	mov	x3, x24
    8774:	aa1603e2 	mov	x2, x22
    8778:	aa1903e1 	mov	x1, x25
    877c:	aa1403e0 	mov	x0, x20
    8780:	97fff7cb 	bl	66ac <mbedtls_mpi_div_mpi>
    8784:	2a0003fb 	mov	w27, w0
    8788:	35fffa40 	cbnz	w0, 86d0 <mbedtls_mpi_self_test+0x124>
/home/hei/Desktop/optee-qemu/optee_os/lib/libmbedtls/mbedtls/library/bignum.c:2598
    878c:	f0000002 	adrp	x2, b000 <__func__.3755+0xec>
    8790:	52800201 	mov	w1, #0x10                  	// #16
    8794:	911c3042 	add	x2, x2, #0x70c
    8798:	aa1503e0 	mov	x0, x21
    879c:	97fff74b 	bl	64c8 <mbedtls_mpi_read_string>
    87a0:	2a0003fb 	mov	w27, w0
    87a4:	35fff960 	cbnz	w0, 86d0 <mbedtls_mpi_self_test+0x124>
/home/hei/Desktop/optee-qemu/optee_os/lib/libmbedtls/mbedtls/library/bignum.c:2601
    87a8:	f94037e0 	ldr	x0, [sp, #104]
    87ac:	f0000002 	adrp	x2, b000 <__func__.3755+0xec>
    87b0:	52800201 	mov	w1, #0x10                  	// #16
    87b4:	911cc042 	add	x2, x2, #0x730
    87b8:	97fff744 	bl	64c8 <mbedtls_mpi_read_string>
    87bc:	2a0003fb 	mov	w27, w0
    87c0:	35fff880 	cbnz	w0, 86d0 <mbedtls_mpi_self_test+0x124>
/home/hei/Desktop/optee-qemu/optee_os/lib/libmbedtls/mbedtls/library/bignum.c:2606
    87c4:	34000093 	cbz	w19, 87d4 <mbedtls_mpi_self_test+0x228>
/home/hei/Desktop/optee-qemu/optee_os/lib/libmbedtls/mbedtls/library/bignum.c:2607
    87c8:	f0000000 	adrp	x0, b000 <__func__.3755+0xec>
    87cc:	911e3c00 	add	x0, x0, #0x78f
    87d0:	97ffe703 	bl	23dc <printf>
/home/hei/Desktop/optee-qemu/optee_os/lib/libmbedtls/mbedtls/library/bignum.c:2609
    87d4:	aa1503e1 	mov	x1, x21
    87d8:	aa1403e0 	mov	x0, x20
    87dc:	97fff5af 	bl	5e98 <mbedtls_mpi_cmp_mpi>
    87e0:	35fff740 	cbnz	w0, 86c8 <mbedtls_mpi_self_test+0x11c>
/home/hei/Desktop/optee-qemu/optee_os/lib/libmbedtls/mbedtls/library/bignum.c:2610 (discriminator 1)
    87e4:	f94037e1 	ldr	x1, [sp, #104]
    87e8:	aa1903e0 	mov	x0, x25
    87ec:	97fff5ab 	bl	5e98 <mbedtls_mpi_cmp_mpi>
/home/hei/Desktop/optee-qemu/optee_os/lib/libmbedtls/mbedtls/library/bignum.c:2609 (discriminator 1)
    87f0:	35fff6c0 	cbnz	w0, 86c8 <mbedtls_mpi_self_test+0x11c>
/home/hei/Desktop/optee-qemu/optee_os/lib/libmbedtls/mbedtls/library/bignum.c:2619
    87f4:	34000093 	cbz	w19, 8804 <mbedtls_mpi_self_test+0x258>
/home/hei/Desktop/optee-qemu/optee_os/lib/libmbedtls/mbedtls/library/bignum.c:2620
    87f8:	f0000000 	adrp	x0, b000 <__func__.3755+0xec>
    87fc:	911c1400 	add	x0, x0, #0x705
    8800:	97ffe729 	bl	24a4 <puts>
/home/hei/Desktop/optee-qemu/optee_os/lib/libmbedtls/mbedtls/library/bignum.c:2622
    8804:	d2800004 	mov	x4, #0x0                   	// #0
    8808:	aa1803e3 	mov	x3, x24
    880c:	aa1c03e2 	mov	x2, x28
    8810:	aa1603e1 	mov	x1, x22
    8814:	aa1403e0 	mov	x0, x20
    8818:	97fffa91 	bl	725c <mbedtls_mpi_exp_mod>
    881c:	2a0003fb 	mov	w27, w0
    8820:	35fff580 	cbnz	w0, 86d0 <mbedtls_mpi_self_test+0x124>
/home/hei/Desktop/optee-qemu/optee_os/lib/libmbedtls/mbedtls/library/bignum.c:2624
    8824:	f0000002 	adrp	x2, b000 <__func__.3755+0xec>
    8828:	52800201 	mov	w1, #0x10                  	// #16
    882c:	911ea442 	add	x2, x2, #0x7a9
    8830:	aa1503e0 	mov	x0, x21
    8834:	97fff725 	bl	64c8 <mbedtls_mpi_read_string>
    8838:	2a0003fb 	mov	w27, w0
    883c:	35fff4a0 	cbnz	w0, 86d0 <mbedtls_mpi_self_test+0x124>
/home/hei/Desktop/optee-qemu/optee_os/lib/libmbedtls/mbedtls/library/bignum.c:2629
    8840:	34000093 	cbz	w19, 8850 <mbedtls_mpi_self_test+0x2a4>
/home/hei/Desktop/optee-qemu/optee_os/lib/libmbedtls/mbedtls/library/bignum.c:2630
    8844:	f0000000 	adrp	x0, b000 <__func__.3755+0xec>
    8848:	91202000 	add	x0, x0, #0x808
    884c:	97ffe6e4 	bl	23dc <printf>
/home/hei/Desktop/optee-qemu/optee_os/lib/libmbedtls/mbedtls/library/bignum.c:2632
    8850:	aa1503e1 	mov	x1, x21
    8854:	aa1403e0 	mov	x0, x20
    8858:	97fff590 	bl	5e98 <mbedtls_mpi_cmp_mpi>
    885c:	35fff360 	cbnz	w0, 86c8 <mbedtls_mpi_self_test+0x11c>
/home/hei/Desktop/optee-qemu/optee_os/lib/libmbedtls/mbedtls/library/bignum.c:2641
    8860:	34000093 	cbz	w19, 8870 <mbedtls_mpi_self_test+0x2c4>
/home/hei/Desktop/optee-qemu/optee_os/lib/libmbedtls/mbedtls/library/bignum.c:2642
    8864:	f0000000 	adrp	x0, b000 <__func__.3755+0xec>
    8868:	911c1400 	add	x0, x0, #0x705
    886c:	97ffe70e 	bl	24a4 <puts>
/home/hei/Desktop/optee-qemu/optee_os/lib/libmbedtls/mbedtls/library/bignum.c:2644
    8870:	aa1803e2 	mov	x2, x24
    8874:	aa1603e1 	mov	x1, x22
    8878:	aa1403e0 	mov	x0, x20
    887c:	97fffd4d 	bl	7db0 <mbedtls_mpi_inv_mod>
    8880:	2a0003fb 	mov	w27, w0
    8884:	35fff260 	cbnz	w0, 86d0 <mbedtls_mpi_self_test+0x124>
/home/hei/Desktop/optee-qemu/optee_os/lib/libmbedtls/mbedtls/library/bignum.c:2646
    8888:	f0000002 	adrp	x2, b000 <__func__.3755+0xec>
    888c:	52800201 	mov	w1, #0x10                  	// #16
    8890:	91208842 	add	x2, x2, #0x822
    8894:	aa1503e0 	mov	x0, x21
    8898:	97fff70c 	bl	64c8 <mbedtls_mpi_read_string>
    889c:	2a0003fb 	mov	w27, w0
    88a0:	35fff180 	cbnz	w0, 86d0 <mbedtls_mpi_self_test+0x124>
/home/hei/Desktop/optee-qemu/optee_os/lib/libmbedtls/mbedtls/library/bignum.c:2651
    88a4:	34000093 	cbz	w19, 88b4 <mbedtls_mpi_self_test+0x308>
/home/hei/Desktop/optee-qemu/optee_os/lib/libmbedtls/mbedtls/library/bignum.c:2652
    88a8:	f0000000 	adrp	x0, b000 <__func__.3755+0xec>
    88ac:	91220c00 	add	x0, x0, #0x883
    88b0:	97ffe6cb 	bl	23dc <printf>
/home/hei/Desktop/optee-qemu/optee_os/lib/libmbedtls/mbedtls/library/bignum.c:2654
    88b4:	aa1503e1 	mov	x1, x21
    88b8:	aa1403e0 	mov	x0, x20
    88bc:	97fff577 	bl	5e98 <mbedtls_mpi_cmp_mpi>
    88c0:	2a0003fa 	mov	w26, w0
    88c4:	35fff020 	cbnz	w0, 86c8 <mbedtls_mpi_self_test+0x11c>
/home/hei/Desktop/optee-qemu/optee_os/lib/libmbedtls/mbedtls/library/bignum.c:2663
    88c8:	340000f3 	cbz	w19, 88e4 <mbedtls_mpi_self_test+0x338>
/home/hei/Desktop/optee-qemu/optee_os/lib/libmbedtls/mbedtls/library/bignum.c:2664
    88cc:	f0000000 	adrp	x0, b000 <__func__.3755+0xec>
    88d0:	911c1400 	add	x0, x0, #0x705
    88d4:	97ffe6f4 	bl	24a4 <puts>
/home/hei/Desktop/optee-qemu/optee_os/lib/libmbedtls/mbedtls/library/bignum.c:2667
    88d8:	f0000000 	adrp	x0, b000 <__func__.3755+0xec>
    88dc:	91227400 	add	x0, x0, #0x89d
    88e0:	97ffe6bf 	bl	23dc <printf>
    88e4:	d0000017 	adrp	x23, a000 <__text_end+0x1324>
    88e8:	9121f2f7 	add	x23, x23, #0x87c
    88ec:	910a82f7 	add	x23, x23, #0x2a0
/home/hei/Desktop/optee-qemu/optee_os/lib/libmbedtls/mbedtls/library/bignum.c:2671
    88f0:	b94002e1 	ldr	w1, [x23]
    88f4:	aa1403e0 	mov	x0, x20
    88f8:	97fff3f5 	bl	58cc <mbedtls_mpi_lset>
    88fc:	2a0003fb 	mov	w27, w0
    8900:	35ffee80 	cbnz	w0, 86d0 <mbedtls_mpi_self_test+0x124>
/home/hei/Desktop/optee-qemu/optee_os/lib/libmbedtls/mbedtls/library/bignum.c:2672
    8904:	b94006e1 	ldr	w1, [x23, #4]
    8908:	aa1903e0 	mov	x0, x25
    890c:	97fff3f0 	bl	58cc <mbedtls_mpi_lset>
    8910:	2a0003fb 	mov	w27, w0
    8914:	35ffede0 	cbnz	w0, 86d0 <mbedtls_mpi_self_test+0x124>
/home/hei/Desktop/optee-qemu/optee_os/lib/libmbedtls/mbedtls/library/bignum.c:2674
    8918:	aa1903e2 	mov	x2, x25
    891c:	aa1403e1 	mov	x1, x20
    8920:	aa1603e0 	mov	x0, x22
    8924:	97fffbf1 	bl	78e8 <mbedtls_mpi_gcd>
    8928:	2a0003fb 	mov	w27, w0
    892c:	35ffed20 	cbnz	w0, 86d0 <mbedtls_mpi_self_test+0x124>
/home/hei/Desktop/optee-qemu/optee_os/lib/libmbedtls/mbedtls/library/bignum.c:2676
    8930:	b9400ae1 	ldr	w1, [x23, #8]
    8934:	aa1603e0 	mov	x0, x22
    8938:	97fff58e 	bl	5f70 <mbedtls_mpi_cmp_int>
    893c:	2a0003fb 	mov	w27, w0
    8940:	340000e0 	cbz	w0, 895c <mbedtls_mpi_self_test+0x3b0>
/home/hei/Desktop/optee-qemu/optee_os/lib/libmbedtls/mbedtls/library/bignum.c:2678
    8944:	34ffec53 	cbz	w19, 86cc <mbedtls_mpi_self_test+0x120>
/home/hei/Desktop/optee-qemu/optee_os/lib/libmbedtls/mbedtls/library/bignum.c:2679
    8948:	2a1a03e1 	mov	w1, w26
    894c:	f0000000 	adrp	x0, b000 <__func__.3755+0xec>
    8950:	9122e800 	add	x0, x0, #0x8ba
    8954:	97ffe6a2 	bl	23dc <printf>
    8958:	17ffff5d 	b	86cc <mbedtls_mpi_self_test+0x120>
/home/hei/Desktop/optee-qemu/optee_os/lib/libmbedtls/mbedtls/library/bignum.c:2669 (discriminator 2)
    895c:	1100075a 	add	w26, w26, #0x1
    8960:	910032f7 	add	x23, x23, #0xc
    8964:	71000f5f 	cmp	w26, #0x3
    8968:	54fffc41 	b.ne	88f0 <mbedtls_mpi_self_test+0x344>  // b.any
/home/hei/Desktop/optee-qemu/optee_os/lib/libmbedtls/mbedtls/library/bignum.c:2686
    896c:	340000b3 	cbz	w19, 8980 <mbedtls_mpi_self_test+0x3d4>
/home/hei/Desktop/optee-qemu/optee_os/lib/libmbedtls/mbedtls/library/bignum.c:2687
    8970:	f0000000 	adrp	x0, b000 <__func__.3755+0xec>
    8974:	911c1400 	add	x0, x0, #0x705
    8978:	97ffe6cb 	bl	24a4 <puts>
    897c:	17ffff55 	b	86d0 <mbedtls_mpi_self_test+0x124>
/home/hei/Desktop/optee-qemu/optee_os/lib/libmbedtls/mbedtls/library/bignum.c:2689
    8980:	2a1303fb 	mov	w27, w19
    8984:	17ffff53 	b	86d0 <mbedtls_mpi_self_test+0x124>

0000000000008988 <mbedtls_platform_zeroize>:
mbedtls_platform_zeroize():
/home/hei/Desktop/optee-qemu/optee_os/lib/libmbedtls/mbedtls/library/platform_util.c:75
    8988:	90000022 	adrp	x2, c000 <_DYNAMIC>
    898c:	f9423043 	ldr	x3, [x2, #1120]
    8990:	aa0103e2 	mov	x2, x1
    8994:	52800001 	mov	w1, #0x0                   	// #0
    8998:	d61f0060 	br	x3

000000000000899c <snprintf>:
snprintf():
/home/hei/Desktop/optee-qemu/optee_os/lib/libutils/isoc/snprintf.c:10
    899c:	a9b07bfd 	stp	x29, x30, [sp, #-256]!
    89a0:	910003fd 	mov	x29, sp
    89a4:	a90d93e3 	stp	x3, x4, [sp, #216]
/home/hei/Desktop/optee-qemu/optee_os/lib/libutils/isoc/snprintf.c:14
    89a8:	910403e3 	add	x3, sp, #0x100
    89ac:	a9030fe3 	stp	x3, x3, [sp, #48]
    89b0:	910343e3 	add	x3, sp, #0xd0
    89b4:	f90023e3 	str	x3, [sp, #64]
    89b8:	128004e3 	mov	w3, #0xffffffd8            	// #-40
    89bc:	b9004be3 	str	w3, [sp, #72]
    89c0:	12800fe3 	mov	w3, #0xffffff80            	// #-128
    89c4:	b9004fe3 	str	w3, [sp, #76]
/home/hei/Desktop/optee-qemu/optee_os/lib/libutils/isoc/snprintf.c:15
    89c8:	910043e3 	add	x3, sp, #0x10
/home/hei/Desktop/optee-qemu/optee_os/lib/libutils/isoc/snprintf.c:10
    89cc:	a90e9be5 	stp	x5, x6, [sp, #232]
/home/hei/Desktop/optee-qemu/optee_os/lib/libutils/isoc/snprintf.c:15
    89d0:	a94317e4 	ldp	x4, x5, [sp, #48]
    89d4:	a90117e4 	stp	x4, x5, [sp, #16]
    89d8:	a94417e4 	ldp	x4, x5, [sp, #64]
    89dc:	a90217e4 	stp	x4, x5, [sp, #32]
/home/hei/Desktop/optee-qemu/optee_os/lib/libutils/isoc/snprintf.c:10
    89e0:	3d8017e0 	str	q0, [sp, #80]
/home/hei/Desktop/optee-qemu/optee_os/lib/libutils/isoc/snprintf.c:15
    89e4:	52800004 	mov	w4, #0x0                   	// #0
/home/hei/Desktop/optee-qemu/optee_os/lib/libutils/isoc/snprintf.c:10
    89e8:	3d801be1 	str	q1, [sp, #96]
    89ec:	3d801fe2 	str	q2, [sp, #112]
    89f0:	3d8023e3 	str	q3, [sp, #128]
    89f4:	3d8027e4 	str	q4, [sp, #144]
    89f8:	3d802be5 	str	q5, [sp, #160]
    89fc:	3d802fe6 	str	q6, [sp, #176]
    8a00:	3d8033e7 	str	q7, [sp, #192]
    8a04:	f9007fe7 	str	x7, [sp, #248]
/home/hei/Desktop/optee-qemu/optee_os/lib/libutils/isoc/snprintf.c:15
    8a08:	97ffe31f 	bl	1684 <__vsnprintf>
/home/hei/Desktop/optee-qemu/optee_os/lib/libutils/isoc/snprintf.c:19
    8a0c:	a8d07bfd 	ldp	x29, x30, [sp], #256
    8a10:	d65f03c0 	ret

0000000000008a14 <vsnprintf>:
vsnprintf():
/home/hei/Desktop/optee-qemu/optee_os/lib/libutils/isoc/snprintf.c:22
    8a14:	a9bb7bfd 	stp	x29, x30, [sp, #-80]!
    8a18:	910003fd 	mov	x29, sp
    8a1c:	a90153f3 	stp	x19, x20, [sp, #16]
    8a20:	aa0003f3 	mov	x19, x0
    8a24:	aa0103f4 	mov	x20, x1
/home/hei/Desktop/optee-qemu/optee_os/lib/libutils/isoc/snprintf.c:23
    8a28:	9100c3e0 	add	x0, sp, #0x30
    8a2c:	aa0303e1 	mov	x1, x3
/home/hei/Desktop/optee-qemu/optee_os/lib/libutils/isoc/snprintf.c:22
    8a30:	f90013f5 	str	x21, [sp, #32]
    8a34:	aa0203f5 	mov	x21, x2
/home/hei/Desktop/optee-qemu/optee_os/lib/libutils/isoc/snprintf.c:23
    8a38:	d2800402 	mov	x2, #0x20                  	// #32
    8a3c:	97ffdeb6 	bl	514 <memcpy>
    8a40:	aa1503e2 	mov	x2, x21
    8a44:	aa0003e3 	mov	x3, x0
    8a48:	aa1403e1 	mov	x1, x20
    8a4c:	52800004 	mov	w4, #0x0                   	// #0
    8a50:	aa1303e0 	mov	x0, x19
    8a54:	97ffe30c 	bl	1684 <__vsnprintf>
/home/hei/Desktop/optee-qemu/optee_os/lib/libutils/isoc/snprintf.c:24
    8a58:	a94153f3 	ldp	x19, x20, [sp, #16]
    8a5c:	f94013f5 	ldr	x21, [sp, #32]
    8a60:	a8c57bfd 	ldp	x29, x30, [sp], #80
    8a64:	d65f03c0 	ret

0000000000008a68 <memmove>:
memmove():
/home/hei/Desktop/optee-qemu/optee_os/lib/libutils/isoc/newlib/memmove.c:96
    8a68:	eb01001f 	cmp	x0, x1
    8a6c:	54000289 	b.ls	8abc <memmove+0x54>  // b.plast
/home/hei/Desktop/optee-qemu/optee_os/lib/libutils/isoc/newlib/memmove.c:96 (discriminator 1)
    8a70:	8b020023 	add	x3, x1, x2
    8a74:	eb00007f 	cmp	x3, x0
    8a78:	54000229 	b.ls	8abc <memmove+0x54>  // b.plast
/home/hei/Desktop/optee-qemu/optee_os/lib/libutils/isoc/newlib/memmove.c:99
    8a7c:	8b020004 	add	x4, x0, x2
/home/hei/Desktop/optee-qemu/optee_os/lib/libutils/isoc/newlib/memmove.c:100
    8a80:	aa2203e2 	mvn	x2, x2
    8a84:	d2800001 	mov	x1, #0x0                   	// #0
    8a88:	d1000421 	sub	x1, x1, #0x1
    8a8c:	eb01005f 	cmp	x2, x1
    8a90:	54000041 	b.ne	8a98 <memmove+0x30>  // b.any
/home/hei/Desktop/optee-qemu/optee_os/lib/libutils/isoc/newlib/memmove.c:157
    8a94:	d65f03c0 	ret
/home/hei/Desktop/optee-qemu/optee_os/lib/libutils/isoc/newlib/memmove.c:101
    8a98:	38616865 	ldrb	w5, [x3, x1]
    8a9c:	38216885 	strb	w5, [x4, x1]
    8aa0:	17fffffa 	b	8a88 <memmove+0x20>
/home/hei/Desktop/optee-qemu/optee_os/lib/libutils/isoc/newlib/memmove.c:104
    8aa4:	38636824 	ldrb	w4, [x1, x3]
    8aa8:	38236804 	strb	w4, [x0, x3]
    8aac:	91000463 	add	x3, x3, #0x1
/home/hei/Desktop/optee-qemu/optee_os/lib/libutils/isoc/newlib/memmove.c:103
    8ab0:	eb03005f 	cmp	x2, x3
    8ab4:	54ffff81 	b.ne	8aa4 <memmove+0x3c>  // b.any
    8ab8:	17fffff7 	b	8a94 <memmove+0x2c>
    8abc:	d2800003 	mov	x3, #0x0                   	// #0
    8ac0:	17fffffc 	b	8ab0 <memmove+0x48>

0000000000008ac4 <mempool_alloc_pool>:
mempool_alloc_pool():
/home/hei/Desktop/optee-qemu/optee_os/lib/libutils/ext/mempool.c:133
    8ac4:	a9be7bfd 	stp	x29, x30, [sp, #-32]!
    8ac8:	910003fd 	mov	x29, sp
    8acc:	a90153f3 	stp	x19, x20, [sp, #16]
    8ad0:	aa0003f3 	mov	x19, x0
    8ad4:	aa0103f4 	mov	x20, x1
/home/hei/Desktop/optee-qemu/optee_os/lib/libutils/ext/mempool.c:134
    8ad8:	d2800020 	mov	x0, #0x1                   	// #1
    8adc:	d2800301 	mov	x1, #0x18                  	// #24
    8ae0:	97ffe1da 	bl	1248 <calloc>
/home/hei/Desktop/optee-qemu/optee_os/lib/libutils/ext/mempool.c:137
    8ae4:	f2400a7f 	tst	x19, #0x7
    8ae8:	54000140 	b.eq	8b10 <mempool_alloc_pool+0x4c>  // b.none
/home/hei/Desktop/optee-qemu/optee_os/lib/libutils/ext/mempool.c:137 (discriminator 1)
    8aec:	f0000003 	adrp	x3, b000 <__func__.3755+0xec>
    8af0:	f0000001 	adrp	x1, b000 <__func__.3755+0xec>
    8af4:	9123b863 	add	x3, x3, #0x8ee
    8af8:	91243c21 	add	x1, x1, #0x90f
    8afc:	f0000000 	adrp	x0, b000 <__func__.3755+0xec>
    8b00:	9124a800 	add	x0, x0, #0x92a
    8b04:	52801122 	mov	w2, #0x89                  	// #137
    8b08:	97ffe686 	bl	2520 <_assert_log>
    8b0c:	97ffe696 	bl	2564 <_assert_break>
/home/hei/Desktop/optee-qemu/optee_os/lib/libutils/ext/mempool.c:139
    8b10:	b4000080 	cbz	x0, 8b20 <mempool_alloc_pool+0x5c>
/home/hei/Desktop/optee-qemu/optee_os/lib/libutils/ext/mempool.c:142
    8b14:	92800001 	mov	x1, #0xffffffffffffffff    	// #-1
    8b18:	a9000414 	stp	x20, x1, [x0]
/home/hei/Desktop/optee-qemu/optee_os/lib/libutils/ext/mempool.c:141
    8b1c:	f9000813 	str	x19, [x0, #16]
/home/hei/Desktop/optee-qemu/optee_os/lib/libutils/ext/mempool.c:152
    8b20:	a94153f3 	ldp	x19, x20, [sp, #16]
    8b24:	a8c27bfd 	ldp	x29, x30, [sp], #32
    8b28:	d65f03c0 	ret

0000000000008b2c <mempool_alloc>:
mempool_alloc():
/home/hei/Desktop/optee-qemu/optee_os/lib/libutils/ext/mempool.c:162
    8b2c:	a9401003 	ldp	x3, x4, [x0]
    8b30:	b7f80304 	tbnz	x4, #63, 8b90 <mempool_alloc+0x64>
/home/hei/Desktop/optee-qemu/optee_os/lib/libutils/ext/mempool.c:165
    8b34:	f9400806 	ldr	x6, [x0, #16]
/home/hei/Desktop/optee-qemu/optee_os/lib/libutils/ext/mempool.c:169
    8b38:	91001c82 	add	x2, x4, #0x7
/home/hei/Desktop/optee-qemu/optee_os/lib/libutils/ext/mempool.c:165
    8b3c:	8b060085 	add	x5, x4, x6
/home/hei/Desktop/optee-qemu/optee_os/lib/libutils/ext/mempool.c:169
    8b40:	f8666886 	ldr	x6, [x4, x6]
    8b44:	8b060042 	add	x2, x2, x6
    8b48:	927df042 	and	x2, x2, #0xfffffffffffffff8
/home/hei/Desktop/optee-qemu/optee_os/lib/libutils/ext/mempool.c:170
    8b4c:	eb02007f 	cmp	x3, x2
    8b50:	54000242 	b.cs	8b98 <mempool_alloc+0x6c>  // b.hs, b.nlast
/home/hei/Desktop/optee-qemu/optee_os/lib/libutils/ext/mempool.c:155
    8b54:	a9bf7bfd 	stp	x29, x30, [sp, #-16]!
/home/hei/Desktop/optee-qemu/optee_os/lib/libutils/ext/mempool.c:197
    8b58:	f0000000 	adrp	x0, b000 <__func__.3755+0xec>
    8b5c:	9123b800 	add	x0, x0, #0x8ee
/home/hei/Desktop/optee-qemu/optee_os/lib/libutils/ext/mempool.c:155
    8b60:	910003fd 	mov	x29, sp
/home/hei/Desktop/optee-qemu/optee_os/lib/libutils/ext/mempool.c:197
    8b64:	aa0103e5 	mov	x5, x1
    8b68:	52800023 	mov	w3, #0x1                   	// #1
    8b6c:	52800022 	mov	w2, #0x1                   	// #1
    8b70:	528018a1 	mov	w1, #0xc5                  	// #197
    8b74:	91004c00 	add	x0, x0, #0x13
    8b78:	f0000004 	adrp	x4, b000 <__func__.3755+0xec>
    8b7c:	91254484 	add	x4, x4, #0x951
    8b80:	97ffdf32 	bl	848 <trace_printf>
/home/hei/Desktop/optee-qemu/optee_os/lib/libutils/ext/mempool.c:199
    8b84:	d2800000 	mov	x0, #0x0                   	// #0
/home/hei/Desktop/optee-qemu/optee_os/lib/libutils/ext/mempool.c:200
    8b88:	a8c17bfd 	ldp	x29, x30, [sp], #16
    8b8c:	d65f03c0 	ret
/home/hei/Desktop/optee-qemu/optee_os/lib/libutils/ext/mempool.c:158
    8b90:	d2800005 	mov	x5, #0x0                   	// #0
/home/hei/Desktop/optee-qemu/optee_os/lib/libutils/ext/mempool.c:163
    8b94:	d2800002 	mov	x2, #0x0                   	// #0
/home/hei/Desktop/optee-qemu/optee_os/lib/libutils/ext/mempool.c:175
    8b98:	91007c21 	add	x1, x1, #0x1f
    8b9c:	927df021 	and	x1, x1, #0xfffffffffffffff8
/home/hei/Desktop/optee-qemu/optee_os/lib/libutils/ext/mempool.c:176
    8ba0:	8b010046 	add	x6, x2, x1
    8ba4:	eb0300df 	cmp	x6, x3
    8ba8:	54fffd68 	b.hi	8b54 <mempool_alloc+0x28>  // b.pmore
/home/hei/Desktop/optee-qemu/optee_os/lib/libutils/ext/mempool.c:179
    8bac:	f9400806 	ldr	x6, [x0, #16]
    8bb0:	8b060043 	add	x3, x2, x6
/home/hei/Desktop/optee-qemu/optee_os/lib/libutils/ext/mempool.c:180
    8bb4:	f8266841 	str	x1, [x2, x6]
/home/hei/Desktop/optee-qemu/optee_os/lib/libutils/ext/mempool.c:181
    8bb8:	f9000464 	str	x4, [x3, #8]
/home/hei/Desktop/optee-qemu/optee_os/lib/libutils/ext/mempool.c:182
    8bbc:	b4000045 	cbz	x5, 8bc4 <mempool_alloc+0x98>
/home/hei/Desktop/optee-qemu/optee_os/lib/libutils/ext/mempool.c:183
    8bc0:	f90008a2 	str	x2, [x5, #16]
/home/hei/Desktop/optee-qemu/optee_os/lib/libutils/ext/mempool.c:184
    8bc4:	92800001 	mov	x1, #0xffffffffffffffff    	// #-1
    8bc8:	f9000861 	str	x1, [x3, #16]
/home/hei/Desktop/optee-qemu/optee_os/lib/libutils/ext/mempool.c:185
    8bcc:	f9000402 	str	x2, [x0, #8]
/home/hei/Desktop/optee-qemu/optee_os/lib/libutils/ext/mempool.c:194
    8bd0:	91006060 	add	x0, x3, #0x18
/home/hei/Desktop/optee-qemu/optee_os/lib/libutils/ext/mempool.c:200
    8bd4:	d65f03c0 	ret

0000000000008bd8 <mempool_calloc>:
mempool_calloc():
/home/hei/Desktop/optee-qemu/optee_os/lib/libutils/ext/mempool.c:203
    8bd8:	a9be7bfd 	stp	x29, x30, [sp, #-32]!
    8bdc:	910003fd 	mov	x29, sp
    8be0:	a90153f3 	stp	x19, x20, [sp, #16]
/home/hei/Desktop/optee-qemu/optee_os/lib/libutils/ext/mempool.c:207
    8be4:	9b027c34 	mul	x20, x1, x2
    8be8:	9bc27c21 	umulh	x1, x1, x2
    8bec:	b5000121 	cbnz	x1, 8c10 <mempool_calloc+0x38>
/home/hei/Desktop/optee-qemu/optee_os/lib/libutils/ext/mempool.c:210
    8bf0:	aa1403e1 	mov	x1, x20
    8bf4:	97ffffce 	bl	8b2c <mempool_alloc>
    8bf8:	aa0003f3 	mov	x19, x0
/home/hei/Desktop/optee-qemu/optee_os/lib/libutils/ext/mempool.c:211
    8bfc:	b50000e0 	cbnz	x0, 8c18 <mempool_calloc+0x40>
/home/hei/Desktop/optee-qemu/optee_os/lib/libutils/ext/mempool.c:215
    8c00:	aa1303e0 	mov	x0, x19
    8c04:	a94153f3 	ldp	x19, x20, [sp, #16]
    8c08:	a8c27bfd 	ldp	x29, x30, [sp], #32
    8c0c:	d65f03c0 	ret
/home/hei/Desktop/optee-qemu/optee_os/lib/libutils/ext/mempool.c:208
    8c10:	d2800013 	mov	x19, #0x0                   	// #0
    8c14:	17fffffb 	b	8c00 <mempool_calloc+0x28>
/home/hei/Desktop/optee-qemu/optee_os/lib/libutils/ext/mempool.c:212
    8c18:	aa1403e2 	mov	x2, x20
    8c1c:	52800001 	mov	w1, #0x0                   	// #0
    8c20:	97ffe292 	bl	1668 <memset>
    8c24:	17fffff7 	b	8c00 <mempool_calloc+0x28>

0000000000008c28 <mempool_free>:
mempool_free():
/home/hei/Desktop/optee-qemu/optee_os/lib/libutils/ext/mempool.c:224
    8c28:	b40001c1 	cbz	x1, 8c60 <mempool_free+0x38>
/home/hei/Desktop/optee-qemu/optee_os/lib/libutils/ext/mempool.c:229
    8c2c:	f85f0022 	ldur	x2, [x1, #-16]
    8c30:	b7f801a2 	tbnz	x2, #63, 8c64 <mempool_free+0x3c>
/home/hei/Desktop/optee-qemu/optee_os/lib/libutils/ext/mempool.c:232
    8c34:	f9400803 	ldr	x3, [x0, #16]
    8c38:	f85f8024 	ldur	x4, [x1, #-8]
    8c3c:	8b020063 	add	x3, x3, x2
    8c40:	f9000864 	str	x4, [x3, #16]
    8c44:	aa0203e3 	mov	x3, x2
/home/hei/Desktop/optee-qemu/optee_os/lib/libutils/ext/mempool.c:236
    8c48:	f85f8024 	ldur	x4, [x1, #-8]
    8c4c:	b7f80084 	tbnz	x4, #63, 8c5c <mempool_free+0x34>
/home/hei/Desktop/optee-qemu/optee_os/lib/libutils/ext/mempool.c:239
    8c50:	a9408403 	ldp	x3, x1, [x0, #8]
    8c54:	8b040021 	add	x1, x1, x4
    8c58:	f9000422 	str	x2, [x1, #8]
/home/hei/Desktop/optee-qemu/optee_os/lib/libutils/ext/mempool.c:243
    8c5c:	f9000403 	str	x3, [x0, #8]
/home/hei/Desktop/optee-qemu/optee_os/lib/libutils/ext/mempool.c:245
    8c60:	d65f03c0 	ret
/home/hei/Desktop/optee-qemu/optee_os/lib/libutils/ext/mempool.c:222
    8c64:	92800003 	mov	x3, #0xffffffffffffffff    	// #-1
    8c68:	17fffff8 	b	8c48 <mempool_free+0x20>

0000000000008c6c <consttime_memcmp>:
consttime_memcmp():
/home/hei/Desktop/optee-qemu/optee_os/lib/libutils/ext/consttime_memcmp.c:36
    8c6c:	d10043ff 	sub	sp, sp, #0x10
/home/hei/Desktop/optee-qemu/optee_os/lib/libutils/ext/consttime_memcmp.c:41
    8c70:	52802003 	mov	w3, #0x100                 	// #256
/home/hei/Desktop/optee-qemu/optee_os/lib/libutils/ext/consttime_memcmp.c:43
    8c74:	d2800005 	mov	x5, #0x0                   	// #0
/home/hei/Desktop/optee-qemu/optee_os/lib/libutils/ext/consttime_memcmp.c:39
    8c78:	52800006 	mov	w6, #0x0                   	// #0
/home/hei/Desktop/optee-qemu/optee_os/lib/libutils/ext/consttime_memcmp.c:41
    8c7c:	b9000fe3 	str	w3, [sp, #12]
/home/hei/Desktop/optee-qemu/optee_os/lib/libutils/ext/consttime_memcmp.c:40
    8c80:	52800003 	mov	w3, #0x0                   	// #0
/home/hei/Desktop/optee-qemu/optee_os/lib/libutils/ext/consttime_memcmp.c:43 (discriminator 1)
    8c84:	eb0200bf 	cmp	x5, x2
    8c88:	540000a1 	b.ne	8c9c <consttime_memcmp+0x30>  // b.any
/home/hei/Desktop/optee-qemu/optee_os/lib/libutils/ext/consttime_memcmp.c:50
    8c8c:	53087c63 	lsr	w3, w3, #8
/home/hei/Desktop/optee-qemu/optee_os/lib/libutils/ext/consttime_memcmp.c:51
    8c90:	4b462060 	sub	w0, w3, w6, lsr #8
    8c94:	910043ff 	add	sp, sp, #0x10
    8c98:	d65f03c0 	ret
/home/hei/Desktop/optee-qemu/optee_os/lib/libutils/ext/consttime_memcmp.c:45 (discriminator 2)
    8c9c:	38656808 	ldrb	w8, [x0, x5]
    8ca0:	38656824 	ldrb	w4, [x1, x5]
    8ca4:	910004a5 	add	x5, x5, #0x1
/home/hei/Desktop/optee-qemu/optee_os/lib/libutils/ext/consttime_memcmp.c:44 (discriminator 2)
    8ca8:	b9400fe9 	ldr	w9, [sp, #12]
/home/hei/Desktop/optee-qemu/optee_os/lib/libutils/ext/consttime_memcmp.c:45 (discriminator 2)
    8cac:	4b040107 	sub	w7, w8, w4
/home/hei/Desktop/optee-qemu/optee_os/lib/libutils/ext/consttime_memcmp.c:47 (discriminator 2)
    8cb0:	4b080084 	sub	w4, w4, w8
/home/hei/Desktop/optee-qemu/optee_os/lib/libutils/ext/consttime_memcmp.c:44 (discriminator 2)
    8cb4:	0a0900e7 	and	w7, w7, w9
    8cb8:	2a0700c6 	orr	w6, w6, w7
/home/hei/Desktop/optee-qemu/optee_os/lib/libutils/ext/consttime_memcmp.c:46 (discriminator 2)
    8cbc:	b9400fe7 	ldr	w7, [sp, #12]
    8cc0:	0a070084 	and	w4, w4, w7
/home/hei/Desktop/optee-qemu/optee_os/lib/libutils/ext/consttime_memcmp.c:48 (discriminator 2)
    8cc4:	b9400fe7 	ldr	w7, [sp, #12]
/home/hei/Desktop/optee-qemu/optee_os/lib/libutils/ext/consttime_memcmp.c:46 (discriminator 2)
    8cc8:	2a040063 	orr	w3, w3, w4
/home/hei/Desktop/optee-qemu/optee_os/lib/libutils/ext/consttime_memcmp.c:48 (discriminator 2)
    8ccc:	2a0300c4 	orr	w4, w6, w3
    8cd0:	0a2400e4 	bic	w4, w7, w4
    8cd4:	b9000fe4 	str	w4, [sp, #12]
    8cd8:	17ffffeb 	b	8c84 <consttime_memcmp+0x18>
