
f823a58a-234c-11ed-861d-0242ac120002.elf:     file format elf64-littleaarch64
f823a58a-234c-11ed-861d-0242ac120002.elf
architecture: aarch64, flags 0x00000150:
HAS_SYMS, DYNAMIC, D_PAGED
start address 0x00000000000004b4

Program Header:
    LOAD off    0x0000000000001000 vaddr 0x0000000000000000 paddr 0x0000000000000000 align 2**12
         filesz 0x000000000000bc40 memsz 0x000000000000bc40 flags r-x
    LOAD off    0x000000000000d000 vaddr 0x000000000000c000 paddr 0x000000000000c000 align 2**12
         filesz 0x000000000000046c memsz 0x000000000000b4d8 flags rw-
 DYNAMIC off    0x000000000000d000 vaddr 0x000000000000c000 paddr 0x000000000000c000 align 2**3
         filesz 0x0000000000000110 memsz 0x0000000000000110 flags rw-
   STACK off    0x0000000000000000 vaddr 0x0000000000000000 paddr 0x0000000000000000 align 2**4
         filesz 0x0000000000000000 memsz 0x0000000000000000 flags rw-

Dynamic Section:
  HASH                 0x000000000000ba00
  GNU_HASH             0x000000000000b990
  STRTAB               0x000000000000b9f8
  SYMTAB               0x000000000000b9b0
  STRSZ                0x0000000000000001
  SYMENT               0x0000000000000018
  DEBUG                0x0000000000000000
  RELA                 0x000000000000ba18
  RELASZ               0x0000000000000378
  RELAENT              0x0000000000000018
  FLAGS_1              0x0000000008000000
  RELACOUNT            0x0000000000000017
private flags = 0:

Sections:
Idx Name          Size      VMA               LMA               File off  Algn
  0 .ta_head      00000020  0000000000000000  0000000000000000  00001000  2**3
                  CONTENTS, ALLOC, LOAD, READONLY, DATA
  1 .text         00008cbc  0000000000000020  0000000000000020  00001020  2**2
                  CONTENTS, ALLOC, LOAD, READONLY, CODE
  2 .eh_frame     00001b2c  0000000000008ce0  0000000000008ce0  00009ce0  2**3
                  CONTENTS, ALLOC, LOAD, READONLY, DATA
  3 .rodata       00001179  000000000000a810  000000000000a810  0000b810  2**3
                  CONTENTS, ALLOC, LOAD, READONLY, DATA
  4 .gnu.hash     0000001c  000000000000b990  000000000000b990  0000c990  2**3
                  CONTENTS, ALLOC, LOAD, READONLY, DATA
  5 .dynsym       00000048  000000000000b9b0  000000000000b9b0  0000c9b0  2**3
                  CONTENTS, ALLOC, LOAD, READONLY, DATA
  6 .dynstr       00000001  000000000000b9f8  000000000000b9f8  0000c9f8  2**0
                  CONTENTS, ALLOC, LOAD, READONLY, DATA
  7 .hash         00000018  000000000000ba00  000000000000ba00  0000ca00  2**3
                  CONTENTS, ALLOC, LOAD, READONLY, DATA
  8 .rela.dyn     00000228  000000000000ba18  000000000000ba18  0000ca18  2**3
                  CONTENTS, ALLOC, LOAD, READONLY, DATA
  9 .dynamic      00000110  000000000000c000  000000000000c000  0000d000  2**3
                  CONTENTS, ALLOC, LOAD, DATA
 10 .got          00000090  000000000000c110  000000000000c110  0000d110  2**3
                  CONTENTS, ALLOC, LOAD, DATA
 11 .rela.got     00000150  000000000000c1a0  000000000000c1a0  0000d1a0  2**3
                  CONTENTS, ALLOC, LOAD, READONLY, DATA
 12 .data         0000017c  000000000000c2f0  000000000000c2f0  0000d2f0  2**3
                  CONTENTS, ALLOC, LOAD, DATA
 13 .bss          0000b068  000000000000c470  000000000000c470  0000d46c  2**3
                  ALLOC
 14 .debug_info   00011db8  0000000000000000  0000000000000000  0000d46c  2**0
                  CONTENTS, READONLY, DEBUGGING
 15 .debug_abbrev 00002eb2  0000000000000000  0000000000000000  0001f224  2**0
                  CONTENTS, READONLY, DEBUGGING
 16 .debug_loc    000198bc  0000000000000000  0000000000000000  000220d6  2**0
                  CONTENTS, READONLY, DEBUGGING
 17 .debug_aranges 00000830  0000000000000000  0000000000000000  0003b9a0  2**4
                  CONTENTS, READONLY, DEBUGGING
 18 .debug_ranges 00001690  0000000000000000  0000000000000000  0003c1d0  2**4
                  CONTENTS, READONLY, DEBUGGING
 19 .debug_macro  0001153c  0000000000000000  0000000000000000  0003d860  2**0
                  CONTENTS, READONLY, DEBUGGING
 20 .debug_line   00009db6  0000000000000000  0000000000000000  0004ed9c  2**0
                  CONTENTS, READONLY, DEBUGGING
 21 .debug_str    00012133  0000000000000000  0000000000000000  00058b52  2**0
                  CONTENTS, READONLY, DEBUGGING
 22 .comment      00000055  0000000000000000  0000000000000000  0006ac85  2**0
                  CONTENTS, READONLY
SYMBOL TABLE:
0000000000000000 l    d  .ta_head	0000000000000000 .ta_head
0000000000000020 l    d  .text	0000000000000000 .text
0000000000008ce0 l    d  .eh_frame	0000000000000000 .eh_frame
000000000000a810 l    d  .rodata	0000000000000000 .rodata
000000000000b990 l    d  .gnu.hash	0000000000000000 .gnu.hash
000000000000b9b0 l    d  .dynsym	0000000000000000 .dynsym
000000000000b9f8 l    d  .dynstr	0000000000000000 .dynstr
000000000000ba00 l    d  .hash	0000000000000000 .hash
000000000000ba18 l    d  .rela.dyn	0000000000000000 .rela.dyn
000000000000c000 l    d  .dynamic	0000000000000000 .dynamic
000000000000c110 l    d  .got	0000000000000000 .got
000000000000c1a0 l    d  .rela.got	0000000000000000 .rela.got
000000000000c2f0 l    d  .data	0000000000000000 .data
000000000000c470 l    d  .bss	0000000000000000 .bss
0000000000000000 l    d  .debug_info	0000000000000000 .debug_info
0000000000000000 l    d  .debug_abbrev	0000000000000000 .debug_abbrev
0000000000000000 l    d  .debug_loc	0000000000000000 .debug_loc
0000000000000000 l    d  .debug_aranges	0000000000000000 .debug_aranges
0000000000000000 l    d  .debug_ranges	0000000000000000 .debug_ranges
0000000000000000 l    d  .debug_macro	0000000000000000 .debug_macro
0000000000000000 l    d  .debug_line	0000000000000000 .debug_line
0000000000000000 l    d  .debug_str	0000000000000000 .debug_str
0000000000000000 l    d  .comment	0000000000000000 .comment
0000000000000000 l    df *ABS*	0000000000000000 user_ta_header.c
000000000000a818 l     O .rodata	0000000000000004 __compound_literal.5
000000000000a81c l     O .rodata	0000000000000004 __compound_literal.4
000000000000a820 l     O .rodata	0000000000000004 __compound_literal.3
000000000000a824 l     O .rodata	0000000000000001 __compound_literal.2
000000000000a825 l     O .rodata	0000000000000001 __compound_literal.1
000000000000a826 l     O .rodata	0000000000000001 __compound_literal.0
0000000000000000 l    df *ABS*	0000000000000000 type_confusion.c
000000000000ab40 l     O .rodata	0000000000000014 __func__.4128
000000000000ab54 l     O .rodata	0000000000000015 __func__.4133
000000000000ab69 l     O .rodata	0000000000000019 __func__.4140
000000000000ab82 l     O .rodata	000000000000001a __func__.4144
000000000000ab9c l     O .rodata	000000000000000b __func__.4152
000000000000aba7 l     O .rodata	0000000000000010 __func__.4158
000000000000abb7 l     O .rodata	000000000000000d __func__.4168
0000000000000000 l    df *ABS*	0000000000000000 strdup.c
0000000000000000 l    df *ABS*	0000000000000000 memcpy.c
0000000000000000 l    df *ABS*	0000000000000000 strcpy.c
0000000000000000 l    df *ABS*	0000000000000000 strlen.c
0000000000000000 l    df *ABS*	0000000000000000 trace.c
0000000000000568 l     F .text	00000000000000c4 append
000000000000ae89 l     O .rodata	0000000000000005 lvl_strs.3494
000000000000ae8e l     O .rodata	000000000000000a __func__.3556
0000000000000000 l    df *ABS*	0000000000000000 bget_malloc.c
0000000000000a24 l     F .text	0000000000000044 raw_malloc_return_hook.constprop.21
000000000000aecf l     O .rodata	0000000000000005 __func__.3641
000000000000aed4 l     O .rodata	0000000000000006 __func__.3656
000000000000aeda l     O .rodata	0000000000000005 __func__.3674
000000000000aedf l     O .rodata	0000000000000006 __func__.3665
000000000000aee5 l     O .rodata	0000000000000006 __func__.3683
000000000000aeeb l     O .rodata	0000000000000007 __func__.3693
000000000000aef2 l     O .rodata	0000000000000014 __func__.3857
000000000000af06 l     O .rodata	000000000000000e __func__.3808
000000000000af14 l     O .rodata	0000000000000013 __func__.3755
000000000000c3d0 l     O .data	0000000000000080 malloc_ctx
0000000000000000 l    df *ABS*	0000000000000000 memset.c
0000000000000000 l    df *ABS*	0000000000000000 snprintk.c
000000000000b1e1 l     O .rodata	0000000000000011 hexdigits
000000000000b1f2 l     O .rodata	0000000000000011 HEXDIGITS
0000000000000000 l    df *ABS*	0000000000000000 memchr.c
0000000000000000 l    df *ABS*	0000000000000000 trace_ext.c
0000000000000000 l    df *ABS*	0000000000000000 assert.c
0000000000000000 l    df *ABS*	0000000000000000 tee_api.c
0000000000002578 l     F .text	00000000000000b8 update_out_param
00000000000026f0 l     F .text	00000000000001d0 copy_param.constprop.1
000000000000c470 l     O .bss	0000000000000008 tee_api_instance_data
000000000000a843 l     O .rodata	000000000000000b __func__.4702
0000000000000000 l    df *ABS*	0000000000000000 tee_api_panic.c
0000000000000000 l    df *ABS*	0000000000000000 tee_system_pta.c
0000000000002c9c l     F .text	0000000000000088 invoke_system_pta
000000000000a850 l     O .rodata	0000000000000010 uuid.4139
000000000000a860 l     O .rodata	000000000000000a __func__.4159
000000000000c478 l     O .bss	0000000000000008 sess.4138
0000000000000000 l    df *ABS*	0000000000000000 utee_syscalls_a64.o
0000000000000000 l    df *ABS*	0000000000000000 user_ta_entry.c
00000000000030d0 l     F .text	0000000000000028 ta_header_get_session
00000000000030f8 l     F .text	0000000000000078 to_utee_params
0000000000003170 l     F .text	0000000000000068 from_utee_params
00000000000031d8 l     F .text	0000000000000094 ta_header_remove_session
000000000000326c l     F .text	0000000000000014 ta_header_save_params.part.0
00000000000174d1 l     O .bss	0000000000000001 init_done
000000000000c450 l     O .data	0000000000000010 ta_sessions
0000000000000000 l    df *ABS*	0000000000000000 tee_api_arith_mpi.c
000000000000347c l     F .text	0000000000000030 api_panic
00000000000034ac l     F .text	0000000000000030 mpi_panic
00000000000034dc l     F .text	0000000000000098 get_mpi
0000000000003574 l     F .text	0000000000000064 copy_mpi_to_bigint
00000000000035d8 l     F .text	0000000000000118 bigint_binary
00000000000036f0 l     F .text	0000000000000020 mpi_is_odd
0000000000003710 l     F .text	0000000000000028 rng_read
0000000000003738 l     F .text	000000000000054c mpi_egcd
000000000000c4c8 l     O .bss	0000000000003000 data.4684
0000000000004020 l     F .text	0000000000000194 bigint_binary_mod
000000000000b29d l     O .rodata	0000000000000008 __func__.4718
000000000000b2a5 l     O .rodata	000000000000000e __func__.4815
000000000000b2b3 l     O .rodata	0000000000000009 __func__.4961
000000000000b2bc l     O .rodata	0000000000000012 __func__.4685
000000000000b2ce l     O .rodata	000000000000000f __func__.4724
000000000000b2dd l     O .rodata	000000000000001f __func__.4742
000000000000b2fc l     O .rodata	0000000000000019 __func__.4749
000000000000b315 l     O .rodata	0000000000000012 __func__.4827
000000000000b327 l     O .rodata	0000000000000015 __func__.4780
000000000000b33c l     O .rodata	000000000000000e __func__.4855
000000000000b34a l     O .rodata	000000000000000e __func__.4884
000000000000b358 l     O .rodata	000000000000000e __func__.4892
000000000000b366 l     O .rodata	0000000000000011 __func__.4921
000000000000b377 l     O .rodata	0000000000000018 __func__.4938
000000000000b38f l     O .rodata	000000000000001d __func__.5018
000000000000b3ac l     O .rodata	0000000000000019 __func__.5071
000000000000b3c5 l     O .rodata	0000000000000015 __func__.5086
0000000000000000 l    df *ABS*	0000000000000000 bignum.c
0000000000004dc0 l     F .text	0000000000000064 mpi_get_digit
0000000000004e24 l     F .text	0000000000000060 mpi_sub_hlp
0000000000004e84 l     F .text	00000000000004d4 mpi_mul_hlp
0000000000006d6c l     F .text	00000000000000d4 mpi_write_hlp
0000000000007014 l     F .text	0000000000000098 mpi_check_small_factors
0000000000007b28 l     F .text	0000000000000288 mpi_miller_rabin
000000000000a87c l     O .rodata	00000000000002a0 small_prime
000000000000ab1c l     O .rodata	0000000000000024 gcd_pairs
0000000000000000 l    df *ABS*	0000000000000000 platform_util.c
000000000000c460 l     O .data	0000000000000008 memset_func
0000000000000000 l    df *ABS*	0000000000000000 snprintf.c
0000000000000000 l    df *ABS*	0000000000000000 memmove.c
0000000000000000 l    df *ABS*	0000000000000000 mempool.c
000000000000b8ee l     O .rodata	0000000000000013 __func__.3549
000000000000b901 l     O .rodata	000000000000000e __func__.3558
0000000000000000 l    df *ABS*	0000000000000000 consttime_memcmp.c
0000000000000000 l    df *ABS*	0000000000000000 
000000000000c000 l     O *ABS*	0000000000000000 _DYNAMIC
000000000000c128 l     O *ABS*	0000000000000000 _GLOBAL_OFFSET_TABLE_
00000000000024e4 g     F .text	000000000000003c putchar
0000000000000534 g     F .text	0000000000000018 strcpy
0000000000004c08 g     F .text	0000000000000004 TEE_BigIntConvertToFMM
0000000000004764 g     F .text	000000000000000c TEE_BigIntSquareMod
00000000000041b4 g     F .text	000000000000016c TEE_BigIntShiftRight
0000000000003028 g     F .text	000000000000000c utee_storage_obj_create
00000000000053fc g     F .text	00000000000000f8 mbedtls_mpi_grow
0000000000002e30 g     F .text	000000000000000c utee_return
0000000000002c70 g     F .text	0000000000000008 TEE_Realloc
00000000000023dc g     F .text	00000000000000c8 printf
0000000000002e3c g     F .text	000000000000000c utee_log
00000000000028c0 g     F .text	0000000000000104 TEE_InvokeTACommand
0000000000005368 g     F .text	0000000000000028 mbedtls_mpi_init_mempool
0000000000005b70 g     F .text	00000000000000c4 mbedtls_mpi_write_binary
00000000000022b8 g     F .text	0000000000000054 vsnprintk
0000000000006304 g     F .text	0000000000000040 mbedtls_mpi_sub_int
0000000000008a68 g     F .text	000000000000005c memmove
000000000000899c g     F .text	0000000000000078 snprintf
0000000000003fd8 g     F .text	0000000000000048 TEE_BigIntCmpS32
00000000000054f4 g     F .text	0000000000000120 mbedtls_mpi_shrink
00000000000043ac g     F .text	000000000000000c TEE_BigIntAdd
0000000000002e60 g     F .text	000000000000000c utee_get_property_name_to_index
000000000000a828 g     O .rodata	0000000000000008 ta_heap_size
0000000000002ee4 g     F .text	000000000000000c utee_cryp_state_alloc
0000000000002fec g     F .text	000000000000000c utee_authenc_enc_final
00000000000064c8 g     F .text	00000000000001e4 mbedtls_mpi_read_string
00000000000043c4 g     F .text	00000000000000b0 TEE_BigIntNeg
0000000000000020 g       .text	0000000000000000 __text_start
0000000000005d34 g     F .text	00000000000000c8 mbedtls_mpi_shift_r
00000000000015fc g     F .text	000000000000006c malloc_buffer_overlaps_heap
000000000000474c g     F .text	000000000000000c TEE_BigIntSubMod
00000000000082a0 g     F .text	000000000000030c mbedtls_mpi_gen_prime
0000000000005934 g     F .text	000000000000002c mbedtls_mpi_get_bit
0000000000005ab8 g     F .text	00000000000000b8 mbedtls_mpi_read_binary
0000000000000848 g     F .text	0000000000000070 trace_printf
00000000000070e8 g     F .text	0000000000000134 mbedtls_mpi_montmul
0000000000000514 g     F .text	0000000000000020 memcpy
0000000000002efc g     F .text	000000000000000c utee_cryp_state_free
0000000000004c0c g     F .text	000000000000009c TEE_BigIntConvertFromFMM
0000000000002c94 g     F .text	0000000000000008 TEE_Panic
00000000000024a4 g     F .text	0000000000000040 puts
0000000000004ca8 g     F .text	0000000000000118 TEE_BigIntComputeFMM
00000000000011c0 g     F .text	0000000000000038 malloc_get_stats
0000000000002f44 g     F .text	000000000000000c utee_cipher_final
0000000000002bec g     F .text	0000000000000028 TEE_GetREETime
000000000000c2f8 g     O .data	00000000000000d8 ta_props
0000000000000144 g     F .text	0000000000000080 fibufnacci
00000000000011f8 g     F .text	0000000000000050 malloc
0000000000002f80 g     F .text	000000000000000c utee_cryp_obj_close
0000000000008a14 g     F .text	0000000000000054 vsnprintf
000000000000c468 g     O .data	0000000000000004 trace_level
000000000000f4d0 g     O .bss	0000000000000001 PRINTSECRET
0000000000003f70 g     F .text	0000000000000068 TEE_BigIntCmp
000000000000a810 g     O .rodata	0000000000000008 ta_num_props
0000000000000f70 g     F .text	00000000000000cc bgetr
0000000000002fe0 g     F .text	000000000000000c utee_authenc_update_payload
0000000000008c28 g     F .text	0000000000000044 mempool_free
0000000000003dd0 g     F .text	0000000000000094 TEE_BigIntConvertToOctetString
00000000000030c4 g     F .text	000000000000000c utee_cache_operation
0000000000005a40 g     F .text	000000000000005c mbedtls_mpi_bitlen
0000000000002fc8 g     F .text	000000000000000c utee_authenc_init
0000000000004320 g     F .text	000000000000004c TEE_BigIntGetBit
000000000000a830 g     O .rodata	0000000000000003 trace_ext_prefix
0000000000000c28 g     F .text	000000000000008c bgetz
0000000000002aac g     F .text	000000000000000c TEE_GetInstanceData
0000000000002af8 g     F .text	000000000000003c TEE_Wait
0000000000003094 g     F .text	000000000000000c utee_storage_obj_write
0000000000006344 g     F .text	0000000000000150 mbedtls_mpi_mul_mpi
0000000000002c84 g     F .text	0000000000000008 TEE_CacheFlush
0000000000000658 g     F .text	00000000000001f0 trace_vprintf
000000000000008c g     F .text	0000000000000024 TA_DestroyEntryPoint
0000000000005358 g     F .text	0000000000000010 mbedtls_mpi_init
00000000000059ec g     F .text	0000000000000054 mbedtls_mpi_lsb
0000000000002520 g     F .text	0000000000000044 _assert_log
0000000000004c00 g     F .text	0000000000000008 TEE_BigIntFMMContextSizeInU32
0000000000002d98 g     F .text	000000000000008c tee_unmap
0000000000003c84 g     F .text	0000000000000050 _TEE_MathAPI_Init
00000000000061b0 g     F .text	0000000000000088 mbedtls_mpi_add_mpi
000000000000307c g     F .text	000000000000000c utee_storage_next_enum
000000000000f4d1 g     O .bss	0000000000008000 ta_heap
0000000000004770 g     F .text	000000000000011c TEE_BigIntInvMod
0000000000000120 g     F .text	0000000000000024 TA_CloseSessionEntryPoint
0000000000006238 g     F .text	000000000000008c mbedtls_mpi_sub_mpi
0000000000008c6c g     F .text	0000000000000070 consttime_memcmp
0000000000002e48 g     F .text	000000000000000c __utee_panic
0000000000002ef0 g     F .text	000000000000000c utee_cryp_state_copy
00000000000001c4 g     F .text	00000000000002f0 TA_InvokeCommandEntryPoint
0000000000001314 g     F .text	0000000000000018 free_wipe
0000000000008b2c g     F .text	00000000000000ac mempool_alloc
0000000000002f74 g     F .text	000000000000000c utee_cryp_obj_alloc
0000000000002ed8 g     F .text	000000000000000c utee_set_ta_time
0000000000002f68 g     F .text	000000000000000c utee_cryp_obj_get_attr
0000000000008bd8 g     F .text	0000000000000050 mempool_calloc
0000000000001248 g     F .text	0000000000000064 calloc
0000000000002c14 g     F .text	000000000000005c TEE_Malloc
0000000000002eb4 g     F .text	000000000000000c utee_mask_cancellation
0000000000002f8c g     F .text	000000000000000c utee_cryp_obj_reset
00000000000026dc g     F .text	0000000000000014 TEE_CheckMemoryAccessRights
00000000000058cc g     F .text	0000000000000068 mbedtls_mpi_lset
00000000000000b0 g     F .text	0000000000000070 TA_OpenSessionEntryPoint
0000000000003070 g     F .text	000000000000000c utee_storage_start_enum
0000000000003040 g     F .text	000000000000000c utee_storage_obj_rename
00000000000174d8 g       .bss	0000000000000000 __ftrace_buf_end
000000000000c480 g     O .bss	0000000000000004 ta_param_types
0000000000006bd8 g     F .text	0000000000000040 mbedtls_mpi_div_int
00000000000081e8 g     F .text	00000000000000a8 mbedtls_mpi_is_prime_ext
0000000000004b98 g     F .text	0000000000000050 TEE_BigIntIsProbablePrime
0000000000006494 g     F .text	0000000000000034 mbedtls_mpi_mul_int
000000000000725c g     F .text	000000000000068c mbedtls_mpi_exp_mod
0000000000005728 g     F .text	00000000000000c0 mbedtls_mpi_safe_cond_assign
0000000000002e54 g     F .text	000000000000000c utee_get_property
0000000000003cd4 g     F .text	0000000000000070 TEE_BigIntInit
0000000000002ab8 g     F .text	0000000000000008 TEE_MemMove
0000000000008988 g     F .text	0000000000000014 mbedtls_platform_zeroize
0000000000003d44 g     F .text	000000000000008c TEE_BigIntConvertFromOctetString
0000000000005dfc g     F .text	000000000000009c mbedtls_mpi_cmp_abs
0000000000002380 g     F .text	000000000000002c memchr
0000000000002684 g     F .text	000000000000002c TEE_UnmaskCancellation
00000000000085ac g     F .text	00000000000003dc mbedtls_mpi_self_test
0000000000003034 g     F .text	000000000000000c utee_storage_obj_del
00000000000030ac g     F .text	000000000000000c utee_storage_obj_seek
0000000000005f70 g     F .text	0000000000000040 mbedtls_mpi_cmp_int
0000000000002f14 g     F .text	000000000000000c utee_hash_update
00000000000046dc g     F .text	0000000000000064 TEE_BigIntMod
0000000000006ccc g     F .text	00000000000000a0 mbedtls_mpi_mod_int
0000000000002e78 g     F .text	000000000000000c utee_close_ta_session
0000000000004564 g     F .text	0000000000000178 TEE_BigIntDiv
00000000000174d8 g       .bss	0000000000000000 __ftrace_buf_start
0000000000005614 g     F .text	00000000000000b4 mbedtls_mpi_copy
00000000000011a8 g     F .text	0000000000000018 malloc_reset_stats
0000000000002f38 g     F .text	000000000000000c utee_cipher_update
00000000000012ac g     F .text	0000000000000050 realloc
00000000000056c8 g     F .text	0000000000000060 mbedtls_mpi_swap
0000000000008ac4 g     F .text	0000000000000068 mempool_alloc_pool
0000000000003010 g     F .text	000000000000000c utee_asymm_verify
0000000000004474 g     F .text	00000000000000e8 TEE_BigIntMul
0000000000005c34 g     F .text	0000000000000100 mbedtls_mpi_shift_l
0000000000005e98 g     F .text	00000000000000d8 mbedtls_mpi_cmp_mpi
0000000000002ac8 g     F .text	0000000000000008 TEE_MemFill
000000000000132c g     F .text	0000000000000150 malloc_add_pool
0000000000000648 g     F .text	0000000000000010 trace_get_level
0000000000005fb0 g     F .text	000000000000012c mbedtls_mpi_add_abs
0000000000002fbc g     F .text	000000000000000c utee_cryp_random_number_generate
0000000000004bf0 g     F .text	0000000000000010 TEE_BigIntFMMSizeInU32
0000000000004be8 g     F .text	0000000000000004 TEE_BigIntInitFMM
0000000000003004 g     F .text	000000000000000c utee_asymm_operate
0000000000003280 g     F .text	00000000000001fc __utee_entry
0000000000008cdc g       .text	0000000000000000 __text_end
000000000000488c g     F .text	00000000000000d4 TEE_BigIntRelativePrime
0000000000006c18 g     F .text	00000000000000b4 mbedtls_mpi_mod_mpi
000000000000103c g     F .text	00000000000000d4 bpool
00000000000004d0 g     F .text	0000000000000044 strdup
0000000000002658 g     F .text	000000000000002c TEE_GetCancellationFlag
00000000000078e8 g     F .text	00000000000001bc mbedtls_mpi_gcd
0000000000002ba8 g     F .text	0000000000000044 TEE_SetTAPersistentTime
0000000000001668 g     F .text	000000000000001c memset
0000000000002b34 g     F .text	0000000000000074 TEE_GetTAPersistentTime
00000000000008b8 g     F .text	000000000000016c dhex_dump
00000000000026b0 g     F .text	000000000000002c TEE_MaskCancellation
0000000000003088 g     F .text	000000000000000c utee_storage_obj_read
0000000000002f98 g     F .text	000000000000000c utee_cryp_obj_populate
000000000000062c g     F .text	000000000000001c trace_set_level
0000000000002f50 g     F .text	000000000000000c utee_cryp_obj_get_info
000000000000304c g     F .text	000000000000000c utee_storage_alloc_enum
0000000000003064 g     F .text	000000000000000c utee_storage_reset_enum
00000000000030a0 g     F .text	000000000000000c utee_storage_obj_trunc
0000000000003ee8 g     F .text	0000000000000088 TEE_BigIntConvertToS32
00000000000043b8 g     F .text	000000000000000c TEE_BigIntSub
0000000000002e90 g     F .text	000000000000000c utee_get_cancellation_flag
0000000000002f08 g     F .text	000000000000000c utee_hash_init
00000000000004c8 g     F .text	0000000000000008 tahead_get_trace_level
0000000000002d24 g     F .text	0000000000000074 tee_map_zi
000000000000721c g     F .text	0000000000000040 mbedtls_mpi_montred
0000000000003e64 g     F .text	0000000000000084 TEE_BigIntConvertFromS32
00000000000062c4 g     F .text	0000000000000040 mbedtls_mpi_add_int
0000000000002f5c g     F .text	000000000000000c utee_cryp_obj_restrict_usage
000000000000c2f0 g     O .data	0000000000000008 SECRET
000000000000147c g     F .text	0000000000000180 malloc_buffer_is_within_alloced
0000000000002fa4 g     F .text	000000000000000c utee_cryp_obj_copy
0000000000004bec g     F .text	0000000000000004 TEE_BigIntInitFMMContext
0000000000002fb0 g     F .text	000000000000000c utee_cryp_derive_key
0000000000002ff8 g     F .text	000000000000000c utee_authenc_dec_final
000000000000455c g     F .text	0000000000000008 TEE_BigIntSquare
0000000000000020 g     F .text	000000000000006c TA_CreateEntryPoint
00000000000004b4 g     F .text	0000000000000014 __ta_entry
00000000000070ac g     F .text	000000000000003c mbedtls_mpi_montg_init
000000000000230c g     F .text	0000000000000074 snprintk
000000000000436c g     F .text	0000000000000040 TEE_BigIntGetBitCount
0000000000004758 g     F .text	000000000000000c TEE_BigIntMulMod
0000000000007db0 g     F .text	0000000000000438 mbedtls_mpi_inv_mod
000000000000c488 g     O .bss	0000000000000040 ta_params
00000000000066ac g     F .text	000000000000052c mbedtls_mpi_div_mpi
0000000000005a9c g     F .text	000000000000001c mbedtls_mpi_size
0000000000000a68 g     F .text	00000000000001c0 bget
0000000000005960 g     F .text	000000000000008c mbedtls_mpi_set_bit
0000000000002c78 g     F .text	0000000000000004 TEE_Free
0000000000008290 g     F .text	0000000000000010 mbedtls_mpi_is_prime
0000000000002c8c g     F .text	0000000000000008 TEE_CacheInvalidate
0000000000002f2c g     F .text	000000000000000c utee_cipher_init
0000000000002564 g     F .text	0000000000000014 _assert_break
0000000000004740 g     F .text	000000000000000c TEE_BigIntAddMod
0000000000003058 g     F .text	000000000000000c utee_storage_free_enum
0000000000002fd4 g     F .text	000000000000000c utee_authenc_update_aad
0000000000002ac0 g     F .text	0000000000000008 TEE_MemCompare
0000000000001684 g     F .text	0000000000000c34 __vsnprintf
00000000000029c4 g     F .text	00000000000000dc TEE_OpenTASession
0000000000002e24 g     F .text	000000000000000c utee_panic
00000000000023ac g     F .text	0000000000000028 trace_ext_puts
00000000000023d4 g     F .text	0000000000000008 trace_ext_get_thread_id
0000000000005390 g     F .text	000000000000006c mbedtls_mpi_free
0000000000002c7c g     F .text	0000000000000008 TEE_CacheClean
0000000000002e6c g     F .text	000000000000000c utee_open_ta_session
00000000000057e8 g     F .text	00000000000000e4 mbedtls_mpi_safe_cond_swap
0000000000002f20 g     F .text	000000000000000c utee_hash_final
000000000000054c g     F .text	000000000000001c strlen
0000000000004960 g     F .text	0000000000000238 TEE_BigIntComputeExtendedGcd
000000000000301c g     F .text	000000000000000c utee_storage_obj_open
0000000000002e84 g     F .text	000000000000000c utee_invoke_ta_command
0000000000002ec0 g     F .text	000000000000000c utee_wait
0000000000002ad0 g     F .text	0000000000000028 TEE_GetSystemTime
0000000000000000 g     O .ta_head	0000000000000020 ta_head
0000000000000cb4 g     F .text	00000000000002bc brel
00000000000060dc g     F .text	00000000000000d4 mbedtls_mpi_sub_abs
0000000000002ecc g     F .text	000000000000000c utee_get_time
0000000000007aa4 g     F .text	0000000000000084 mbedtls_mpi_fill_random
0000000000002aa0 g     F .text	000000000000000c TEE_SetInstanceData
0000000000002ea8 g     F .text	000000000000000c utee_unmask_cancellation
0000000000002e9c g     F .text	000000000000000c utee_check_access_rights
0000000000006e40 g     F .text	00000000000001d4 mbedtls_mpi_write_string
00000000000030b8 g     F .text	000000000000000c utee_cryp_obj_generate_key
0000000000002630 g     F .text	0000000000000028 TEE_CloseTASession
00000000000012fc g     F .text	0000000000000018 free
0000000000001110 g     F .text	0000000000000098 bstats
000000000000f4c8 g     O .bss	0000000000000008 mbedtls_mpi_mempool



Disassembly of section .text:

0000000000000020 <TA_CreateEntryPoint>:
TA_CreateEntryPoint():
/home/hei/Desktop/optee-qemu/optee_examples/typeConfusion/ta/type_confusion.c:15
      20:	a9bd7bfd 	stp	x29, x30, [sp, #-48]!
/home/hei/Desktop/optee-qemu/optee_examples/typeConfusion/ta/type_confusion.c:16
      24:	52800023 	mov	w3, #0x1                   	// #1
      28:	52800062 	mov	w2, #0x3                   	// #3
/home/hei/Desktop/optee-qemu/optee_examples/typeConfusion/ta/type_confusion.c:15
      2c:	910003fd 	mov	x29, sp
      30:	f9000bf3 	str	x19, [sp, #16]
/home/hei/Desktop/optee-qemu/optee_examples/typeConfusion/ta/type_confusion.c:16
      34:	d0000053 	adrp	x19, a000 <__text_end+0x1324>
      38:	912d0273 	add	x19, x19, #0xb40
      3c:	52800201 	mov	w1, #0x10                  	// #16
      40:	aa1303e0 	mov	x0, x19
      44:	d0000044 	adrp	x4, a000 <__text_end+0x1324>
      48:	912f8884 	add	x4, x4, #0xbe2
      4c:	940001ff 	bl	848 <trace_printf>
/home/hei/Desktop/optee-qemu/optee_examples/typeConfusion/ta/type_confusion.c:18
      50:	d28c0e05 	mov	x5, #0x6070                	// #24688
      54:	aa1303e0 	mov	x0, x19
      58:	f2a80a05 	movk	x5, #0x4050, lsl #16
      5c:	52800023 	mov	w3, #0x1                   	// #1
      60:	f2c40605 	movk	x5, #0x2030, lsl #32
      64:	52800062 	mov	w2, #0x3                   	// #3
      68:	f2e10205 	movk	x5, #0x810, lsl #48
      6c:	52800241 	mov	w1, #0x12                  	// #18
      70:	d0000044 	adrp	x4, a000 <__text_end+0x1324>
      74:	912f1084 	add	x4, x4, #0xbc4
      78:	940001f4 	bl	848 <trace_printf>
/home/hei/Desktop/optee-qemu/optee_examples/typeConfusion/ta/type_confusion.c:20
      7c:	52800000 	mov	w0, #0x0                   	// #0
      80:	f9400bf3 	ldr	x19, [sp, #16]
      84:	a8c37bfd 	ldp	x29, x30, [sp], #48
      88:	d65f03c0 	ret

000000000000008c <TA_DestroyEntryPoint>:
TA_DestroyEntryPoint():
/home/hei/Desktop/optee-qemu/optee_examples/typeConfusion/ta/type_confusion.c:24
      8c:	d0000040 	adrp	x0, a000 <__text_end+0x1324>
      90:	912d0000 	add	x0, x0, #0xb40
      94:	d0000044 	adrp	x4, a000 <__text_end+0x1324>
      98:	52800023 	mov	w3, #0x1                   	// #1
      9c:	912f8884 	add	x4, x4, #0xbe2
      a0:	52800062 	mov	w2, #0x3                   	// #3
      a4:	52800301 	mov	w1, #0x18                  	// #24
      a8:	91005000 	add	x0, x0, #0x14
      ac:	140001e7 	b	848 <trace_printf>

00000000000000b0 <TA_OpenSessionEntryPoint>:
TA_OpenSessionEntryPoint():
/home/hei/Desktop/optee-qemu/optee_examples/typeConfusion/ta/type_confusion.c:30
      b0:	a9be7bfd 	stp	x29, x30, [sp, #-32]!
/home/hei/Desktop/optee-qemu/optee_examples/typeConfusion/ta/type_confusion.c:36
      b4:	d0000044 	adrp	x4, a000 <__text_end+0x1324>
      b8:	52800023 	mov	w3, #0x1                   	// #1
/home/hei/Desktop/optee-qemu/optee_examples/typeConfusion/ta/type_confusion.c:30
      bc:	910003fd 	mov	x29, sp
      c0:	a90153f3 	stp	x19, x20, [sp, #16]
/home/hei/Desktop/optee-qemu/optee_examples/typeConfusion/ta/type_confusion.c:36
      c4:	d0000053 	adrp	x19, a000 <__text_end+0x1324>
      c8:	912d0273 	add	x19, x19, #0xb40
      cc:	9100a673 	add	x19, x19, #0x29
/home/hei/Desktop/optee-qemu/optee_examples/typeConfusion/ta/type_confusion.c:30
      d0:	2a0003f4 	mov	w20, w0
/home/hei/Desktop/optee-qemu/optee_examples/typeConfusion/ta/type_confusion.c:36
      d4:	912f5884 	add	x4, x4, #0xbd6
      d8:	52800062 	mov	w2, #0x3                   	// #3
      dc:	52800481 	mov	w1, #0x24                  	// #36
      e0:	aa1303e0 	mov	x0, x19
      e4:	940001d9 	bl	848 <trace_printf>
/home/hei/Desktop/optee-qemu/optee_examples/typeConfusion/ta/type_confusion.c:38
      e8:	35000194 	cbnz	w20, 118 <TA_OpenSessionEntryPoint+0x68>
/home/hei/Desktop/optee-qemu/optee_examples/typeConfusion/ta/type_confusion.c:49
      ec:	d0000044 	adrp	x4, a000 <__text_end+0x1324>
      f0:	52800023 	mov	w3, #0x1                   	// #1
      f4:	912fc884 	add	x4, x4, #0xbf2
      f8:	52800042 	mov	w2, #0x2                   	// #2
      fc:	52800621 	mov	w1, #0x31                  	// #49
     100:	aa1303e0 	mov	x0, x19
     104:	940001d1 	bl	848 <trace_printf>
/home/hei/Desktop/optee-qemu/optee_examples/typeConfusion/ta/type_confusion.c:52
     108:	2a1403e0 	mov	w0, w20
     10c:	a94153f3 	ldp	x19, x20, [sp, #16]
     110:	a8c27bfd 	ldp	x29, x30, [sp], #32
     114:	d65f03c0 	ret
/home/hei/Desktop/optee-qemu/optee_examples/typeConfusion/ta/type_confusion.c:39
     118:	129fff34 	mov	w20, #0xffff0006            	// #-65530
     11c:	17fffffb 	b	108 <TA_OpenSessionEntryPoint+0x58>

0000000000000120 <TA_CloseSessionEntryPoint>:
TA_CloseSessionEntryPoint():
/home/hei/Desktop/optee-qemu/optee_examples/typeConfusion/ta/type_confusion.c:57
     120:	d0000040 	adrp	x0, a000 <__text_end+0x1324>
     124:	912d0000 	add	x0, x0, #0xb40
     128:	d0000044 	adrp	x4, a000 <__text_end+0x1324>
     12c:	52800023 	mov	w3, #0x1                   	// #1
     130:	91300084 	add	x4, x4, #0xc00
     134:	52800042 	mov	w2, #0x2                   	// #2
     138:	52800721 	mov	w1, #0x39                  	// #57
     13c:	91010800 	add	x0, x0, #0x42
     140:	140001c2 	b	848 <trace_printf>

0000000000000144 <fibufnacci>:
fibufnacci():
/home/hei/Desktop/optee-qemu/optee_examples/typeConfusion/ta/type_confusion.c:62
     144:	a9b67bfd 	stp	x29, x30, [sp, #-160]!
     148:	aa0203e1 	mov	x1, x2
/home/hei/Desktop/optee-qemu/optee_examples/typeConfusion/ta/type_confusion.c:67
     14c:	aa0303e2 	mov	x2, x3
/home/hei/Desktop/optee-qemu/optee_examples/typeConfusion/ta/type_confusion.c:62
     150:	910003fd 	mov	x29, sp
     154:	a90153f3 	stp	x19, x20, [sp, #16]
/home/hei/Desktop/optee-qemu/optee_examples/typeConfusion/ta/type_confusion.c:67
     158:	910083f3 	add	x19, sp, #0x20
/home/hei/Desktop/optee-qemu/optee_examples/typeConfusion/ta/type_confusion.c:68
     15c:	d0000054 	adrp	x20, a000 <__text_end+0x1324>
     160:	912d0294 	add	x20, x20, #0xb40
/home/hei/Desktop/optee-qemu/optee_examples/typeConfusion/ta/type_confusion.c:67
     164:	aa1303e0 	mov	x0, x19
/home/hei/Desktop/optee-qemu/optee_examples/typeConfusion/ta/type_confusion.c:68
     168:	91017294 	add	x20, x20, #0x5c
/home/hei/Desktop/optee-qemu/optee_examples/typeConfusion/ta/type_confusion.c:67
     16c:	940000ea 	bl	514 <memcpy>
/home/hei/Desktop/optee-qemu/optee_examples/typeConfusion/ta/type_confusion.c:68
     170:	aa1303e5 	mov	x5, x19
     174:	aa1403e0 	mov	x0, x20
     178:	52800023 	mov	w3, #0x1                   	// #1
     17c:	52800062 	mov	w2, #0x3                   	// #3
     180:	52800881 	mov	w1, #0x44                  	// #68
     184:	d0000044 	adrp	x4, a000 <__text_end+0x1324>
     188:	91302884 	add	x4, x4, #0xc0a
     18c:	940001af 	bl	848 <trace_printf>
/home/hei/Desktop/optee-qemu/optee_examples/typeConfusion/ta/type_confusion.c:69
     190:	aa1303e5 	mov	x5, x19
     194:	d0000044 	adrp	x4, a000 <__text_end+0x1324>
     198:	91307484 	add	x4, x4, #0xc1d
     19c:	52800023 	mov	w3, #0x1                   	// #1
     1a0:	52800062 	mov	w2, #0x3                   	// #3
     1a4:	528008a1 	mov	w1, #0x45                  	// #69
     1a8:	aa1403e0 	mov	x0, x20
     1ac:	940001a7 	bl	848 <trace_printf>
/home/hei/Desktop/optee-qemu/optee_examples/typeConfusion/ta/type_confusion.c:70
     1b0:	aa1303e0 	mov	x0, x19
     1b4:	940000c7 	bl	4d0 <strdup>
/home/hei/Desktop/optee-qemu/optee_examples/typeConfusion/ta/type_confusion.c:71
     1b8:	a94153f3 	ldp	x19, x20, [sp, #16]
     1bc:	a8ca7bfd 	ldp	x29, x30, [sp], #160
     1c0:	d65f03c0 	ret

00000000000001c4 <TA_InvokeCommandEntryPoint>:
TA_InvokeCommandEntryPoint():
/home/hei/Desktop/optee-qemu/optee_examples/typeConfusion/ta/type_confusion.c:157
     1c4:	a9bb7bfd 	stp	x29, x30, [sp, #-80]!
     1c8:	910003fd 	mov	x29, sp
     1cc:	a90153f3 	stp	x19, x20, [sp, #16]
     1d0:	2a0103f3 	mov	w19, w1
     1d4:	a9025bf5 	stp	x21, x22, [sp, #32]
     1d8:	aa0303f6 	mov	x22, x3
     1dc:	a90363f7 	stp	x23, x24, [sp, #48]
     1e0:	f90023f9 	str	x25, [sp, #64]
     1e4:	2a0203f9 	mov	w25, w2
/home/hei/Desktop/optee-qemu/optee_examples/typeConfusion/ta/type_confusion.c:160
     1e8:	34000161 	cbz	w1, 214 <TA_InvokeCommandEntryPoint+0x50>
     1ec:	7100043f 	cmp	w1, #0x1
     1f0:	54000d80 	b.eq	3a0 <TA_InvokeCommandEntryPoint+0x1dc>  // b.none
/home/hei/Desktop/optee-qemu/optee_examples/typeConfusion/ta/type_confusion.c:167
     1f4:	129fff33 	mov	w19, #0xffff0006            	// #-65530
/home/hei/Desktop/optee-qemu/optee_examples/typeConfusion/ta/type_confusion.c:169
     1f8:	2a1303e0 	mov	w0, w19
     1fc:	a94153f3 	ldp	x19, x20, [sp, #16]
     200:	a9425bf5 	ldp	x21, x22, [sp, #32]
     204:	a94363f7 	ldp	x23, x24, [sp, #48]
     208:	f94023f9 	ldr	x25, [sp, #64]
     20c:	a8c57bfd 	ldp	x29, x30, [sp], #80
     210:	d65f03c0 	ret
call_fibufnacci():
/home/hei/Desktop/optee-qemu/optee_examples/typeConfusion/ta/type_confusion.c:83
     214:	d0000055 	adrp	x21, a000 <__text_end+0x1324>
     218:	912d02b4 	add	x20, x21, #0xb40
     21c:	91019e94 	add	x20, x20, #0x67
     220:	d0000058 	adrp	x24, a000 <__text_end+0x1324>
     224:	aa1403e0 	mov	x0, x20
     228:	9130bf04 	add	x4, x24, #0xc2f
     22c:	52800023 	mov	w3, #0x1                   	// #1
     230:	52800062 	mov	w2, #0x3                   	// #3
     234:	52800a61 	mov	w1, #0x53                  	// #83
     238:	94000184 	bl	848 <trace_printf>
/home/hei/Desktop/optee-qemu/optee_examples/typeConfusion/ta/type_confusion.c:85
     23c:	5282a6e0 	mov	w0, #0x1537                	// #5431
     240:	6b00033f 	cmp	w25, w0
     244:	54000100 	b.eq	264 <TA_InvokeCommandEntryPoint+0xa0>  // b.none
/home/hei/Desktop/optee-qemu/optee_examples/typeConfusion/ta/type_confusion.c:87
     248:	d0000044 	adrp	x4, a000 <__text_end+0x1324>
     24c:	52800023 	mov	w3, #0x1                   	// #1
     250:	91319484 	add	x4, x4, #0xc65
     254:	52800062 	mov	w2, #0x3                   	// #3
     258:	52800ae1 	mov	w1, #0x57                  	// #87
     25c:	aa1403e0 	mov	x0, x20
     260:	9400017a 	bl	848 <trace_printf>
/home/hei/Desktop/optee-qemu/optee_examples/typeConfusion/ta/type_confusion.c:89
     264:	912d02b7 	add	x23, x21, #0xb40
     268:	52800023 	mov	w3, #0x1                   	// #1
     26c:	91019ef7 	add	x23, x23, #0x67
     270:	52800062 	mov	w2, #0x3                   	// #3
     274:	52800b21 	mov	w1, #0x59                  	// #89
     278:	aa1703e0 	mov	x0, x23
     27c:	d0000044 	adrp	x4, a000 <__text_end+0x1324>
     280:	9131c084 	add	x4, x4, #0xc70
     284:	94000171 	bl	848 <trace_printf>
/home/hei/Desktop/optee-qemu/optee_examples/typeConfusion/ta/type_confusion.c:92
     288:	b9402ad9 	ldr	w25, [x22, #40]
reg_pair_to_64():
/home/hei/Desktop/optee-qemu/optee_examples/typeConfusion/ta/type_confusion.c:12
     28c:	294202d4 	ldp	w20, w0, [x22, #16]
call_fibufnacci():
/home/hei/Desktop/optee-qemu/optee_examples/typeConfusion/ta/type_confusion.c:94
     290:	aa1903e5 	mov	x5, x25
     294:	d0000044 	adrp	x4, a000 <__text_end+0x1324>
     298:	52800023 	mov	w3, #0x1                   	// #1
     29c:	91320884 	add	x4, x4, #0xc82
     2a0:	52800062 	mov	w2, #0x3                   	// #3
reg_pair_to_64():
/home/hei/Desktop/optee-qemu/optee_examples/typeConfusion/ta/type_confusion.c:12
     2a4:	aa148014 	orr	x20, x0, x20, lsl #32
call_fibufnacci():
/home/hei/Desktop/optee-qemu/optee_examples/typeConfusion/ta/type_confusion.c:94
     2a8:	52800bc1 	mov	w1, #0x5e                  	// #94
     2ac:	aa1703e0 	mov	x0, x23
     2b0:	94000166 	bl	848 <trace_printf>
/home/hei/Desktop/optee-qemu/optee_examples/typeConfusion/ta/type_confusion.c:95
     2b4:	b9400ac5 	ldr	w5, [x22, #8]
     2b8:	eb25429f 	cmp	x20, w5, uxtw
     2bc:	54000149 	b.ls	2e4 <TA_InvokeCommandEntryPoint+0x120>  // b.plast
/home/hei/Desktop/optee-qemu/optee_examples/typeConfusion/ta/type_confusion.c:97
     2c0:	d0000044 	adrp	x4, a000 <__text_end+0x1324>
     2c4:	52800023 	mov	w3, #0x1                   	// #1
     2c8:	91322c84 	add	x4, x4, #0xc8b
     2cc:	52800062 	mov	w2, #0x3                   	// #3
     2d0:	52800c21 	mov	w1, #0x61                  	// #97
     2d4:	aa1703e0 	mov	x0, x23
     2d8:	9400015c 	bl	848 <trace_printf>
/home/hei/Desktop/optee-qemu/optee_examples/typeConfusion/ta/type_confusion.c:111
     2dc:	129ffdf3 	mov	w19, #0xffff0010            	// #-65520
     2e0:	17ffffc6 	b	1f8 <TA_InvokeCommandEntryPoint+0x34>
/home/hei/Desktop/optee-qemu/optee_examples/typeConfusion/ta/type_confusion.c:101
     2e4:	f94002c0 	ldr	x0, [x22]
     2e8:	aa1403e1 	mov	x1, x20
     2ec:	f94012c2 	ldr	x2, [x22, #32]
     2f0:	aa1903e3 	mov	x3, x25
     2f4:	97ffff94 	bl	144 <fibufnacci>
     2f8:	aa0003f4 	mov	x20, x0
/home/hei/Desktop/optee-qemu/optee_examples/typeConfusion/ta/type_confusion.c:107
     2fc:	94000094 	bl	54c <strlen>
     300:	91000400 	add	x0, x0, #0x1
     304:	b9400ac1 	ldr	w1, [x22, #8]
     308:	eb01001f 	cmp	x0, x1
     30c:	54000169 	b.ls	338 <TA_InvokeCommandEntryPoint+0x174>  // b.plast
/home/hei/Desktop/optee-qemu/optee_examples/typeConfusion/ta/type_confusion.c:109
     310:	d0000044 	adrp	x4, a000 <__text_end+0x1324>
     314:	9132dc84 	add	x4, x4, #0xcb7
     318:	52800023 	mov	w3, #0x1                   	// #1
     31c:	52800062 	mov	w2, #0x3                   	// #3
     320:	52800da1 	mov	w1, #0x6d                  	// #109
     324:	aa1703e0 	mov	x0, x23
     328:	94000148 	bl	848 <trace_printf>
/home/hei/Desktop/optee-qemu/optee_examples/typeConfusion/ta/type_confusion.c:110
     32c:	aa1403e0 	mov	x0, x20
     330:	94000a52 	bl	2c78 <TEE_Free>
     334:	17ffffea 	b	2dc <TA_InvokeCommandEntryPoint+0x118>
/home/hei/Desktop/optee-qemu/optee_examples/typeConfusion/ta/type_confusion.c:113
     338:	f94002c0 	ldr	x0, [x22]
     33c:	aa1403e1 	mov	x1, x20
     340:	9400007d 	bl	534 <strcpy>
/home/hei/Desktop/optee-qemu/optee_examples/typeConfusion/ta/type_confusion.c:114
     344:	aa1403e0 	mov	x0, x20
/home/hei/Desktop/optee-qemu/optee_examples/typeConfusion/ta/type_confusion.c:115
     348:	90000074 	adrp	x20, c000 <_DYNAMIC>
/home/hei/Desktop/optee-qemu/optee_examples/typeConfusion/ta/type_confusion.c:114
     34c:	94000a4b 	bl	2c78 <TEE_Free>
/home/hei/Desktop/optee-qemu/optee_examples/typeConfusion/ta/type_confusion.c:115
     350:	f940a280 	ldr	x0, [x20, #320]
     354:	39400000 	ldrb	w0, [x0]
     358:	34000140 	cbz	w0, 380 <TA_InvokeCommandEntryPoint+0x1bc>
/home/hei/Desktop/optee-qemu/optee_examples/typeConfusion/ta/type_confusion.c:117
     35c:	f940c294 	ldr	x20, [x20, #384]
     360:	d0000044 	adrp	x4, a000 <__text_end+0x1324>
     364:	52800023 	mov	w3, #0x1                   	// #1
     368:	9130b084 	add	x4, x4, #0xc2c
     36c:	52800062 	mov	w2, #0x3                   	// #3
     370:	52800ea1 	mov	w1, #0x75                  	// #117
     374:	f9400285 	ldr	x5, [x20]
     378:	aa1703e0 	mov	x0, x23
     37c:	94000133 	bl	848 <trace_printf>
/home/hei/Desktop/optee-qemu/optee_examples/typeConfusion/ta/type_confusion.c:119
     380:	912d02a0 	add	x0, x21, #0xb40
     384:	9130bf04 	add	x4, x24, #0xc2f
     388:	52800023 	mov	w3, #0x1                   	// #1
     38c:	52800062 	mov	w2, #0x3                   	// #3
     390:	52800ee1 	mov	w1, #0x77                  	// #119
     394:	91019c00 	add	x0, x0, #0x67
     398:	9400012c 	bl	848 <trace_printf>
/home/hei/Desktop/optee-qemu/optee_examples/typeConfusion/ta/type_confusion.c:120
     39c:	17ffff97 	b	1f8 <TA_InvokeCommandEntryPoint+0x34>
show_pointer():
/home/hei/Desktop/optee-qemu/optee_examples/typeConfusion/ta/type_confusion.c:135
     3a0:	d0000055 	adrp	x21, a000 <__text_end+0x1324>
     3a4:	912d02b7 	add	x23, x21, #0xb40
     3a8:	9101def7 	add	x23, x23, #0x77
     3ac:	2a0103e3 	mov	w3, w1
     3b0:	52800062 	mov	w2, #0x3                   	// #3
     3b4:	528010e1 	mov	w1, #0x87                  	// #135
     3b8:	aa1703e0 	mov	x0, x23
     3bc:	d0000044 	adrp	x4, a000 <__text_end+0x1324>
     3c0:	9130bc84 	add	x4, x4, #0xc2f
     3c4:	94000121 	bl	848 <trace_printf>
/home/hei/Desktop/optee-qemu/optee_examples/typeConfusion/ta/type_confusion.c:136
     3c8:	d0000044 	adrp	x4, a000 <__text_end+0x1324>
     3cc:	2a1303e3 	mov	w3, w19
     3d0:	91335484 	add	x4, x4, #0xcd5
     3d4:	52800062 	mov	w2, #0x3                   	// #3
     3d8:	52801101 	mov	w1, #0x88                  	// #136
     3dc:	aa1703e0 	mov	x0, x23
     3e0:	9400011a 	bl	848 <trace_printf>
/home/hei/Desktop/optee-qemu/optee_examples/typeConfusion/ta/type_confusion.c:137
     3e4:	71000f3f 	cmp	w25, #0x3
     3e8:	54000100 	b.eq	408 <TA_InvokeCommandEntryPoint+0x244>  // b.none
/home/hei/Desktop/optee-qemu/optee_examples/typeConfusion/ta/type_confusion.c:139
     3ec:	d0000044 	adrp	x4, a000 <__text_end+0x1324>
     3f0:	2a1303e3 	mov	w3, w19
     3f4:	91319484 	add	x4, x4, #0xc65
     3f8:	52800062 	mov	w2, #0x3                   	// #3
     3fc:	52801161 	mov	w1, #0x8b                  	// #139
     400:	aa1703e0 	mov	x0, x23
     404:	94000111 	bl	848 <trace_printf>
/home/hei/Desktop/optee-qemu/optee_examples/typeConfusion/ta/type_confusion.c:141
     408:	90000074 	adrp	x20, c000 <_DYNAMIC>
     40c:	912d02b3 	add	x19, x21, #0xb40
     410:	9101de73 	add	x19, x19, #0x77
     414:	52800023 	mov	w3, #0x1                   	// #1
     418:	f940c297 	ldr	x23, [x20, #384]
     41c:	52800062 	mov	w2, #0x3                   	// #3
     420:	528011a1 	mov	w1, #0x8d                  	// #141
     424:	aa1303e0 	mov	x0, x19
     428:	d0000044 	adrp	x4, a000 <__text_end+0x1324>
     42c:	9133ac84 	add	x4, x4, #0xceb
     430:	f94002e5 	ldr	x5, [x23]
     434:	94000105 	bl	848 <trace_printf>
/home/hei/Desktop/optee-qemu/optee_examples/typeConfusion/ta/type_confusion.c:142
     438:	f94002e5 	ldr	x5, [x23]
     43c:	52800023 	mov	w3, #0x1                   	// #1
     440:	52800062 	mov	w2, #0x3                   	// #3
     444:	528011c1 	mov	w1, #0x8e                  	// #142
     448:	aa1303e0 	mov	x0, x19
     44c:	d0000044 	adrp	x4, a000 <__text_end+0x1324>
     450:	9133e084 	add	x4, x4, #0xcf8
     454:	940000fd 	bl	848 <trace_printf>
/home/hei/Desktop/optee-qemu/optee_examples/typeConfusion/ta/type_confusion.c:143
     458:	f94002e0 	ldr	x0, [x23]
     45c:	b90002c0 	str	w0, [x22]
/home/hei/Desktop/optee-qemu/optee_examples/typeConfusion/ta/type_confusion.c:144
     460:	d0000044 	adrp	x4, a000 <__text_end+0x1324>
     464:	aa1303e0 	mov	x0, x19
     468:	f94002c5 	ldr	x5, [x22]
     46c:	91342084 	add	x4, x4, #0xd08
     470:	52800023 	mov	w3, #0x1                   	// #1
     474:	52800062 	mov	w2, #0x3                   	// #3
     478:	52801201 	mov	w1, #0x90                  	// #144
     47c:	940000f3 	bl	848 <trace_printf>
/home/hei/Desktop/optee-qemu/optee_examples/typeConfusion/ta/type_confusion.c:145
     480:	f940a294 	ldr	x20, [x20, #320]
     484:	39400280 	ldrb	w0, [x20]
     488:	34000120 	cbz	w0, 4ac <TA_InvokeCommandEntryPoint+0x2e8>
/home/hei/Desktop/optee-qemu/optee_examples/typeConfusion/ta/type_confusion.c:147
     48c:	f94002e5 	ldr	x5, [x23]
     490:	d0000044 	adrp	x4, a000 <__text_end+0x1324>
     494:	52800023 	mov	w3, #0x1                   	// #1
     498:	9130b084 	add	x4, x4, #0xc2c
     49c:	52800062 	mov	w2, #0x3                   	// #3
     4a0:	52801261 	mov	w1, #0x93                  	// #147
     4a4:	aa1303e0 	mov	x0, x19
     4a8:	940000e8 	bl	848 <trace_printf>
TA_InvokeCommandEntryPoint():
/home/hei/Desktop/optee-qemu/optee_examples/typeConfusion/ta/type_confusion.c:164
     4ac:	52800013 	mov	w19, #0x0                   	// #0
     4b0:	17ffff52 	b	1f8 <TA_InvokeCommandEntryPoint+0x34>

00000000000004b4 <__ta_entry>:
__ta_entry():
/home/hei/Desktop/optee-qemu/optee_os/out/arm/export-ta_arm64/src/user_ta_header.c:47
     4b4:	a9bf7bfd 	stp	x29, x30, [sp, #-16]!
     4b8:	910003fd 	mov	x29, sp
/home/hei/Desktop/optee-qemu/optee_os/out/arm/export-ta_arm64/src/user_ta_header.c:48
     4bc:	94000b71 	bl	3280 <__utee_entry>
/home/hei/Desktop/optee-qemu/optee_os/out/arm/export-ta_arm64/src/user_ta_header.c:59
     4c0:	2a0003e0 	mov	w0, w0
     4c4:	94000a5b 	bl	2e30 <utee_return>

00000000000004c8 <tahead_get_trace_level>:
tahead_get_trace_level():
/home/hei/Desktop/optee-qemu/optee_os/out/arm/export-ta_arm64/src/user_ta_header.c:149
     4c8:	52800080 	mov	w0, #0x4                   	// #4
     4cc:	d65f03c0 	ret

00000000000004d0 <strdup>:
strdup():
/home/hei/Desktop/optee-qemu/optee_os/lib/libutils/isoc/strdup.c:9
     4d0:	a9bd7bfd 	stp	x29, x30, [sp, #-48]!
     4d4:	910003fd 	mov	x29, sp
     4d8:	a90153f3 	stp	x19, x20, [sp, #16]
     4dc:	f90017e0 	str	x0, [sp, #40]
/home/hei/Desktop/optee-qemu/optee_os/lib/libutils/isoc/strdup.c:10
     4e0:	9400001b 	bl	54c <strlen>
     4e4:	91000414 	add	x20, x0, #0x1
/home/hei/Desktop/optee-qemu/optee_os/lib/libutils/isoc/strdup.c:11
     4e8:	aa1403e0 	mov	x0, x20
     4ec:	94000343 	bl	11f8 <malloc>
     4f0:	aa0003f3 	mov	x19, x0
/home/hei/Desktop/optee-qemu/optee_os/lib/libutils/isoc/strdup.c:13
     4f4:	b4000080 	cbz	x0, 504 <strdup+0x34>
/home/hei/Desktop/optee-qemu/optee_os/lib/libutils/isoc/strdup.c:14
     4f8:	f94017e1 	ldr	x1, [sp, #40]
     4fc:	aa1403e2 	mov	x2, x20
     500:	94000005 	bl	514 <memcpy>
/home/hei/Desktop/optee-qemu/optee_os/lib/libutils/isoc/strdup.c:16
     504:	aa1303e0 	mov	x0, x19
     508:	a94153f3 	ldp	x19, x20, [sp, #16]
     50c:	a8c37bfd 	ldp	x29, x30, [sp], #48
     510:	d65f03c0 	ret

0000000000000514 <memcpy>:
memcpy():
/home/hei/Desktop/optee-qemu/optee_os/lib/libutils/isoc/newlib/memcpy.c:94
     514:	d2800003 	mov	x3, #0x0                   	// #0
     518:	eb03005f 	cmp	x2, x3
     51c:	54000041 	b.ne	524 <memcpy+0x10>  // b.any
/home/hei/Desktop/optee-qemu/optee_os/lib/libutils/isoc/newlib/memcpy.c:135
     520:	d65f03c0 	ret
/home/hei/Desktop/optee-qemu/optee_os/lib/libutils/isoc/newlib/memcpy.c:95
     524:	38636824 	ldrb	w4, [x1, x3]
     528:	38236804 	strb	w4, [x0, x3]
     52c:	91000463 	add	x3, x3, #0x1
     530:	17fffffa 	b	518 <memcpy+0x4>

0000000000000534 <strcpy>:
strcpy():
/home/hei/Desktop/optee-qemu/optee_os/lib/libutils/isoc/newlib/strcpy.c:101
     534:	d2800002 	mov	x2, #0x0                   	// #0
/home/hei/Desktop/optee-qemu/optee_os/lib/libutils/isoc/newlib/strcpy.c:101 (discriminator 1)
     538:	38626823 	ldrb	w3, [x1, x2]
     53c:	38226803 	strb	w3, [x0, x2]
     540:	91000442 	add	x2, x2, #0x1
     544:	35ffffa3 	cbnz	w3, 538 <strcpy+0x4>
/home/hei/Desktop/optee-qemu/optee_os/lib/libutils/isoc/newlib/strcpy.c:132
     548:	d65f03c0 	ret

000000000000054c <strlen>:
strlen():
/home/hei/Desktop/optee-qemu/optee_os/lib/libutils/isoc/newlib/strlen.c:117
     54c:	aa0003e1 	mov	x1, x0
     550:	39400022 	ldrb	w2, [x1]
     554:	35000062 	cbnz	w2, 560 <strlen+0x14>
/home/hei/Desktop/optee-qemu/optee_os/lib/libutils/isoc/newlib/strlen.c:120
     558:	cb000020 	sub	x0, x1, x0
     55c:	d65f03c0 	ret
/home/hei/Desktop/optee-qemu/optee_os/lib/libutils/isoc/newlib/strlen.c:118
     560:	91000421 	add	x1, x1, #0x1
     564:	17fffffb 	b	550 <strlen+0x4>

0000000000000568 <append>:
append():
/home/hei/Desktop/optee-qemu/optee_os/lib/libutils/ext/trace.c:204
     568:	a9af7bfd 	stp	x29, x30, [sp, #-272]!
     56c:	910003fd 	mov	x29, sp
     570:	3d801be0 	str	q0, [sp, #96]
     574:	3d801fe1 	str	q1, [sp, #112]
     578:	3d8023e2 	str	q2, [sp, #128]
     57c:	3d8027e3 	str	q3, [sp, #144]
     580:	3d802be4 	str	q4, [sp, #160]
     584:	3d802fe5 	str	q5, [sp, #176]
     588:	3d8033e6 	str	q6, [sp, #192]
     58c:	3d8037e7 	str	q7, [sp, #208]
     590:	a90e0fe2 	stp	x2, x3, [sp, #224]
     594:	a90f17e4 	stp	x4, x5, [sp, #240]
     598:	a9101fe6 	stp	x6, x7, [sp, #256]
     59c:	a90153f3 	stp	x19, x20, [sp, #16]
     5a0:	aa0003f3 	mov	x19, x0
/home/hei/Desktop/optee-qemu/optee_os/lib/libutils/ext/trace.c:209
     5a4:	f9408000 	ldr	x0, [x0, #256]
     5a8:	b5000040 	cbnz	x0, 5b0 <append+0x48>
/home/hei/Desktop/optee-qemu/optee_os/lib/libutils/ext/trace.c:210
     5ac:	f9008273 	str	x19, [x19, #256]
/home/hei/Desktop/optee-qemu/optee_os/lib/libutils/ext/trace.c:212
     5b0:	910443e2 	add	x2, sp, #0x110
     5b4:	a9040be2 	stp	x2, x2, [sp, #64]
     5b8:	910383e2 	add	x2, sp, #0xe0
     5bc:	f9002be2 	str	x2, [sp, #80]
     5c0:	128005e2 	mov	w2, #0xffffffd0            	// #-48
/home/hei/Desktop/optee-qemu/optee_os/lib/libutils/ext/trace.c:211
     5c4:	f9408260 	ldr	x0, [x19, #256]
/home/hei/Desktop/optee-qemu/optee_os/lib/libutils/ext/trace.c:212
     5c8:	b9005be2 	str	w2, [sp, #88]
     5cc:	12800fe2 	mov	w2, #0xffffff80            	// #-128
     5d0:	b9005fe2 	str	w2, [sp, #92]
/home/hei/Desktop/optee-qemu/optee_os/lib/libutils/ext/trace.c:213
     5d4:	a9440fe2 	ldp	x2, x3, [sp, #64]
/home/hei/Desktop/optee-qemu/optee_os/lib/libutils/ext/trace.c:211
     5d8:	4b000274 	sub	w20, w19, w0
/home/hei/Desktop/optee-qemu/optee_os/lib/libutils/ext/trace.c:213
     5dc:	a9020fe2 	stp	x2, x3, [sp, #32]
/home/hei/Desktop/optee-qemu/optee_os/lib/libutils/ext/trace.c:211
     5e0:	11040294 	add	w20, w20, #0x100
/home/hei/Desktop/optee-qemu/optee_os/lib/libutils/ext/trace.c:213
     5e4:	a9450fe2 	ldp	x2, x3, [sp, #80]
     5e8:	a9030fe2 	stp	x2, x3, [sp, #48]
     5ec:	aa0103e2 	mov	x2, x1
     5f0:	910083e3 	add	x3, sp, #0x20
     5f4:	93407e81 	sxtw	x1, w20
     5f8:	94000730 	bl	22b8 <vsnprintk>
/home/hei/Desktop/optee-qemu/optee_os/lib/libutils/ext/trace.c:215
     5fc:	37f80140 	tbnz	w0, #31, 624 <append+0xbc>
/home/hei/Desktop/optee-qemu/optee_os/lib/libutils/ext/trace.c:219
     600:	6b00029f 	cmp	w20, w0
     604:	5400010d 	b.le	624 <append+0xbc>
/home/hei/Desktop/optee-qemu/optee_os/lib/libutils/ext/trace.c:223
     608:	f9408261 	ldr	x1, [x19, #256]
     60c:	8b20c020 	add	x0, x1, w0, sxtw
     610:	f9008260 	str	x0, [x19, #256]
/home/hei/Desktop/optee-qemu/optee_os/lib/libutils/ext/trace.c:224
     614:	52800020 	mov	w0, #0x1                   	// #1
/home/hei/Desktop/optee-qemu/optee_os/lib/libutils/ext/trace.c:225
     618:	a94153f3 	ldp	x19, x20, [sp, #16]
     61c:	a8d17bfd 	ldp	x29, x30, [sp], #272
     620:	d65f03c0 	ret
/home/hei/Desktop/optee-qemu/optee_os/lib/libutils/ext/trace.c:217
     624:	52800000 	mov	w0, #0x0                   	// #0
     628:	17fffffc 	b	618 <append+0xb0>

000000000000062c <trace_set_level>:
trace_set_level():
/home/hei/Desktop/optee-qemu/optee_os/lib/libutils/ext/trace.c:29
     62c:	7100141f 	cmp	w0, #0x5
     630:	52800081 	mov	w1, #0x4                   	// #4
     634:	1a813000 	csel	w0, w0, w1, cc  // cc = lo, ul, last
     638:	90000061 	adrp	x1, c000 <_DYNAMIC>
     63c:	f9409c21 	ldr	x1, [x1, #312]
     640:	b9000020 	str	w0, [x1]
/home/hei/Desktop/optee-qemu/optee_os/lib/libutils/ext/trace.c:30
     644:	d65f03c0 	ret

0000000000000648 <trace_get_level>:
trace_get_level():
/home/hei/Desktop/optee-qemu/optee_os/lib/libutils/ext/trace.c:34
     648:	90000060 	adrp	x0, c000 <_DYNAMIC>
/home/hei/Desktop/optee-qemu/optee_os/lib/libutils/ext/trace.c:35
     64c:	f9409c00 	ldr	x0, [x0, #312]
     650:	b9400000 	ldr	w0, [x0]
     654:	d65f03c0 	ret

0000000000000658 <trace_vprintf>:
trace_vprintf():
/home/hei/Desktop/optee-qemu/optee_os/lib/libutils/ext/trace.c:106
     658:	a9a87bfd 	stp	x29, x30, [sp, #-384]!
     65c:	910003fd 	mov	x29, sp
     660:	a90153f3 	stp	x19, x20, [sp, #16]
     664:	a9025bf5 	stp	x21, x22, [sp, #32]
     668:	a90363f7 	stp	x23, x24, [sp, #48]
/home/hei/Desktop/optee-qemu/optee_os/lib/libutils/ext/trace.c:111
     66c:	72001c77 	ands	w23, w3, #0xff
/home/hei/Desktop/optee-qemu/optee_os/lib/libutils/ext/trace.c:106
     670:	a9046bf9 	stp	x25, x26, [sp, #64]
     674:	f9002bfb 	str	x27, [sp, #80]
/home/hei/Desktop/optee-qemu/optee_os/lib/libutils/ext/trace.c:111
     678:	54000c00 	b.eq	7f8 <trace_vprintf+0x1a0>  // b.none
/home/hei/Desktop/optee-qemu/optee_os/lib/libutils/ext/trace.c:111 (discriminator 1)
     67c:	90000063 	adrp	x3, c000 <_DYNAMIC>
     680:	f9409c63 	ldr	x3, [x3, #312]
     684:	b9400063 	ldr	w3, [x3]
     688:	6b02007f 	cmp	w3, w2
     68c:	54000a8b 	b.lt	7dc <trace_vprintf+0x184>  // b.tstop
trace_level_to_string():
/home/hei/Desktop/optee-qemu/optee_os/lib/libutils/ext/trace.c:52
     690:	7100105f 	cmp	w2, #0x4
/home/hei/Desktop/optee-qemu/optee_os/lib/libutils/ext/trace.c:55
     694:	d0000043 	adrp	x3, a000 <__text_end+0x1324>
/home/hei/Desktop/optee-qemu/optee_os/lib/libutils/ext/trace.c:52
     698:	1a9f9046 	csel	w6, w2, wzr, ls  // ls = plast
/home/hei/Desktop/optee-qemu/optee_os/lib/libutils/ext/trace.c:55
     69c:	913a2463 	add	x3, x3, #0xe89
     6a0:	3866c863 	ldrb	w3, [x3, w6, sxtw]
trace_vprintf():
/home/hei/Desktop/optee-qemu/optee_os/lib/libutils/ext/trace.c:115
     6a4:	910203f4 	add	x20, sp, #0x80
     6a8:	2a0203f8 	mov	w24, w2
     6ac:	2a0103fb 	mov	w27, w1
     6b0:	aa0003f6 	mov	x22, x0
     6b4:	d0000042 	adrp	x2, a000 <__text_end+0x1324>
     6b8:	aa0503fa 	mov	x26, x5
     6bc:	aa0403f9 	mov	x25, x4
     6c0:	913a6042 	add	x2, x2, #0xe98
     6c4:	d2802001 	mov	x1, #0x100                 	// #256
     6c8:	aa1403e0 	mov	x0, x20
     6cc:	94000710 	bl	230c <snprintk>
/home/hei/Desktop/optee-qemu/optee_os/lib/libutils/ext/trace.c:117
     6d0:	37f80860 	tbnz	w0, #31, 7dc <trace_vprintf+0x184>
/home/hei/Desktop/optee-qemu/optee_os/lib/libutils/ext/trace.c:122
     6d4:	90000063 	adrp	x3, c000 <_DYNAMIC>
/home/hei/Desktop/optee-qemu/optee_os/lib/libutils/ext/trace.c:119
     6d8:	93407c15 	sxtw	x21, w0
/home/hei/Desktop/optee-qemu/optee_os/lib/libutils/ext/trace.c:122
     6dc:	d2802013 	mov	x19, #0x100                 	// #256
     6e0:	d0000042 	adrp	x2, a000 <__text_end+0x1324>
     6e4:	f940a463 	ldr	x3, [x3, #328]
     6e8:	913a7042 	add	x2, x2, #0xe9c
     6ec:	cb150261 	sub	x1, x19, x21
     6f0:	8b150280 	add	x0, x20, x21
     6f4:	94000706 	bl	230c <snprintk>
/home/hei/Desktop/optee-qemu/optee_os/lib/libutils/ext/trace.c:124
     6f8:	37f80720 	tbnz	w0, #31, 7dc <trace_vprintf+0x184>
/home/hei/Desktop/optee-qemu/optee_os/lib/libutils/ext/trace.c:126
     6fc:	8b20c2b5 	add	x21, x21, w0, sxtw
/home/hei/Desktop/optee-qemu/optee_os/lib/libutils/ext/trace.c:128
     700:	34000937 	cbz	w23, 824 <trace_vprintf+0x1cc>
/home/hei/Desktop/optee-qemu/optee_os/lib/libutils/ext/trace.c:128 (discriminator 1)
     704:	52800342 	mov	w2, #0x1a                  	// #26
     708:	1ad82442 	lsr	w2, w2, w24
     70c:	360008c2 	tbz	w2, #0, 824 <trace_vprintf+0x1cc>
/home/hei/Desktop/optee-qemu/optee_os/lib/libutils/ext/trace.c:130
     710:	8b150297 	add	x23, x20, x21
     714:	cb150273 	sub	x19, x19, x21
print_thread_id():
/home/hei/Desktop/optee-qemu/optee_os/lib/libutils/ext/trace.c:65
     718:	9400072f 	bl	23d4 <trace_ext_get_thread_id>
/home/hei/Desktop/optee-qemu/optee_os/lib/libutils/ext/trace.c:67
     71c:	37f80720 	tbnz	w0, #31, 800 <trace_vprintf+0x1a8>
/home/hei/Desktop/optee-qemu/optee_os/lib/libutils/ext/trace.c:68
     720:	2a0003e4 	mov	w4, w0
     724:	d0000042 	adrp	x2, a000 <__text_end+0x1324>
     728:	52800023 	mov	w3, #0x1                   	// #1
     72c:	913a8042 	add	x2, x2, #0xea0
     730:	aa1303e1 	mov	x1, x19
     734:	aa1703e0 	mov	x0, x23
     738:	940006f5 	bl	230c <snprintk>
trace_vprintf():
/home/hei/Desktop/optee-qemu/optee_os/lib/libutils/ext/trace.c:137
     73c:	37f80500 	tbnz	w0, #31, 7dc <trace_vprintf+0x184>
/home/hei/Desktop/optee-qemu/optee_os/lib/libutils/ext/trace.c:139
     740:	8b20c2b3 	add	x19, x21, w0, sxtw
/home/hei/Desktop/optee-qemu/optee_os/lib/libutils/ext/trace.c:141
     744:	b4000176 	cbz	x22, 770 <trace_vprintf+0x118>
/home/hei/Desktop/optee-qemu/optee_os/lib/libutils/ext/trace.c:142
     748:	d0000042 	adrp	x2, a000 <__text_end+0x1324>
     74c:	d2802001 	mov	x1, #0x100                 	// #256
     750:	2a1b03e4 	mov	w4, w27
     754:	aa1603e3 	mov	x3, x22
     758:	913aac42 	add	x2, x2, #0xeab
     75c:	cb130021 	sub	x1, x1, x19
     760:	8b130280 	add	x0, x20, x19
     764:	940006ea 	bl	230c <snprintk>
/home/hei/Desktop/optee-qemu/optee_os/lib/libutils/ext/trace.c:144
     768:	37f803a0 	tbnz	w0, #31, 7dc <trace_vprintf+0x184>
/home/hei/Desktop/optee-qemu/optee_os/lib/libutils/ext/trace.c:146
     76c:	8b20c273 	add	x19, x19, w0, sxtw
/home/hei/Desktop/optee-qemu/optee_os/lib/libutils/ext/trace.c:156
     770:	910183e3 	add	x3, sp, #0x60
     774:	d2800402 	mov	x2, #0x20                  	// #32
     778:	aa1a03e1 	mov	x1, x26
     77c:	aa0303e0 	mov	x0, x3
     780:	97ffff65 	bl	514 <memcpy>
     784:	aa0003e3 	mov	x3, x0
     788:	aa1903e2 	mov	x2, x25
     78c:	d2802001 	mov	x1, #0x100                 	// #256
     790:	8b130280 	add	x0, x20, x19
     794:	cb130021 	sub	x1, x1, x19
     798:	940006c8 	bl	22b8 <vsnprintk>
/home/hei/Desktop/optee-qemu/optee_os/lib/libutils/ext/trace.c:157
     79c:	7100001f 	cmp	w0, #0x0
     7a0:	5400004d 	b.le	7a8 <trace_vprintf+0x150>
/home/hei/Desktop/optee-qemu/optee_os/lib/libutils/ext/trace.c:158
     7a4:	8b20c273 	add	x19, x19, w0, sxtw
/home/hei/Desktop/optee-qemu/optee_os/lib/libutils/ext/trace.c:160
     7a8:	f103fa7f 	cmp	x19, #0xfe
     7ac:	d2801fc0 	mov	x0, #0xfe                  	// #254
     7b0:	9a809273 	csel	x19, x19, x0, ls  // ls = plast
/home/hei/Desktop/optee-qemu/optee_os/lib/libutils/ext/trace.c:163
     7b4:	52800140 	mov	w0, #0xa                   	// #10
     7b8:	38336a80 	strb	w0, [x20, x19]
/home/hei/Desktop/optee-qemu/optee_os/lib/libutils/ext/trace.c:164
     7bc:	b4000093 	cbz	x19, 7cc <trace_vprintf+0x174>
/home/hei/Desktop/optee-qemu/optee_os/lib/libutils/ext/trace.c:164 (discriminator 1)
     7c0:	38736a80 	ldrb	w0, [x20, x19]
     7c4:	7100281f 	cmp	w0, #0xa
     7c8:	540003c0 	b.eq	840 <trace_vprintf+0x1e8>  // b.none
/home/hei/Desktop/optee-qemu/optee_os/lib/libutils/ext/trace.c:167
     7cc:	91020be0 	add	x0, sp, #0x82
     7d0:	3833681f 	strb	wzr, [x0, x19]
/home/hei/Desktop/optee-qemu/optee_os/lib/libutils/ext/trace.c:169
     7d4:	aa1403e0 	mov	x0, x20
     7d8:	940006f5 	bl	23ac <trace_ext_puts>
/home/hei/Desktop/optee-qemu/optee_os/lib/libutils/ext/trace.c:170
     7dc:	a94153f3 	ldp	x19, x20, [sp, #16]
     7e0:	a9425bf5 	ldp	x21, x22, [sp, #32]
     7e4:	a94363f7 	ldp	x23, x24, [sp, #48]
     7e8:	a9446bf9 	ldp	x25, x26, [sp, #64]
     7ec:	f9402bfb 	ldr	x27, [sp, #80]
     7f0:	a8d87bfd 	ldp	x29, x30, [sp], #384
     7f4:	d65f03c0 	ret
trace_level_to_string():
/home/hei/Desktop/optee-qemu/optee_os/lib/libutils/ext/trace.c:50
     7f8:	528009a3 	mov	w3, #0x4d                  	// #77
     7fc:	17ffffaa 	b	6a4 <trace_vprintf+0x4c>
print_thread_id():
/home/hei/Desktop/optee-qemu/optee_os/lib/libutils/ext/trace.c:70
     800:	d0000044 	adrp	x4, a000 <__text_end+0x1324>
     804:	52800023 	mov	w3, #0x1                   	// #1
     808:	91320484 	add	x4, x4, #0xc81
     80c:	d0000042 	adrp	x2, a000 <__text_end+0x1324>
     810:	aa1303e1 	mov	x1, x19
     814:	913a9842 	add	x2, x2, #0xea6
     818:	aa1703e0 	mov	x0, x23
     81c:	940006bc 	bl	230c <snprintk>
     820:	17ffffc7 	b	73c <trace_vprintf+0xe4>
trace_vprintf():
/home/hei/Desktop/optee-qemu/optee_os/lib/libutils/ext/trace.c:150
     824:	f103fabf 	cmp	x21, #0xfe
     828:	54fffda8 	b.hi	7dc <trace_vprintf+0x184>  // b.pmore
/home/hei/Desktop/optee-qemu/optee_os/lib/libutils/ext/trace.c:152
     82c:	910006b3 	add	x19, x21, #0x1
     830:	52800400 	mov	w0, #0x20                  	// #32
     834:	38356a80 	strb	w0, [x20, x21]
/home/hei/Desktop/optee-qemu/optee_os/lib/libutils/ext/trace.c:153
     838:	38336a9f 	strb	wzr, [x20, x19]
     83c:	17ffffcd 	b	770 <trace_vprintf+0x118>
/home/hei/Desktop/optee-qemu/optee_os/lib/libutils/ext/trace.c:165
     840:	d1000673 	sub	x19, x19, #0x1
     844:	17ffffde 	b	7bc <trace_vprintf+0x164>

0000000000000848 <trace_printf>:
trace_printf():
/home/hei/Desktop/optee-qemu/optee_os/lib/libutils/ext/trace.c:97
     848:	a9b17bfd 	stp	x29, x30, [sp, #-240]!
     84c:	910003fd 	mov	x29, sp
     850:	a90d9be5 	stp	x5, x6, [sp, #216]
/home/hei/Desktop/optee-qemu/optee_os/lib/libutils/ext/trace.c:100
     854:	9103c3e5 	add	x5, sp, #0xf0
     858:	a90317e5 	stp	x5, x5, [sp, #48]
     85c:	910343e5 	add	x5, sp, #0xd0
     860:	f90023e5 	str	x5, [sp, #64]
     864:	128002e5 	mov	w5, #0xffffffe8            	// #-24
     868:	b9004be5 	str	w5, [sp, #72]
     86c:	12800fe5 	mov	w5, #0xffffff80            	// #-128
     870:	b9004fe5 	str	w5, [sp, #76]
/home/hei/Desktop/optee-qemu/optee_os/lib/libutils/ext/trace.c:101
     874:	910043e5 	add	x5, sp, #0x10
/home/hei/Desktop/optee-qemu/optee_os/lib/libutils/ext/trace.c:97
     878:	f90077e7 	str	x7, [sp, #232]
/home/hei/Desktop/optee-qemu/optee_os/lib/libutils/ext/trace.c:101
     87c:	a9431fe6 	ldp	x6, x7, [sp, #48]
     880:	a9011fe6 	stp	x6, x7, [sp, #16]
     884:	a9441fe6 	ldp	x6, x7, [sp, #64]
     888:	a9021fe6 	stp	x6, x7, [sp, #32]
/home/hei/Desktop/optee-qemu/optee_os/lib/libutils/ext/trace.c:97
     88c:	3d8017e0 	str	q0, [sp, #80]
     890:	3d801be1 	str	q1, [sp, #96]
     894:	3d801fe2 	str	q2, [sp, #112]
     898:	3d8023e3 	str	q3, [sp, #128]
     89c:	3d8027e4 	str	q4, [sp, #144]
     8a0:	3d802be5 	str	q5, [sp, #160]
     8a4:	3d802fe6 	str	q6, [sp, #176]
     8a8:	3d8033e7 	str	q7, [sp, #192]
/home/hei/Desktop/optee-qemu/optee_os/lib/libutils/ext/trace.c:101
     8ac:	97ffff6b 	bl	658 <trace_vprintf>
/home/hei/Desktop/optee-qemu/optee_os/lib/libutils/ext/trace.c:103
     8b0:	a8cf7bfd 	ldp	x29, x30, [sp], #240
     8b4:	d65f03c0 	ret

00000000000008b8 <dhex_dump>:
dhex_dump():
/home/hei/Desktop/optee-qemu/optee_os/lib/libutils/ext/trace.c:235
     8b8:	90000065 	adrp	x5, c000 <_DYNAMIC>
     8bc:	f9409ca5 	ldr	x5, [x5, #312]
     8c0:	b94000a5 	ldr	w5, [x5]
     8c4:	6b0200bf 	cmp	w5, w2
     8c8:	54000acb 	b.lt	a20 <dhex_dump+0x168>  // b.tstop
/home/hei/Desktop/optee-qemu/optee_os/lib/libutils/ext/trace.c:229
     8cc:	a9a97bfd 	stp	x29, x30, [sp, #-368]!
     8d0:	910003fd 	mov	x29, sp
     8d4:	a90153f3 	stp	x19, x20, [sp, #16]
     8d8:	2a0203f4 	mov	w20, w2
/home/hei/Desktop/optee-qemu/optee_os/lib/libutils/ext/trace.c:237
     8dc:	d2800013 	mov	x19, #0x0                   	// #0
/home/hei/Desktop/optee-qemu/optee_os/lib/libutils/ext/trace.c:229
     8e0:	a9025bf5 	stp	x21, x22, [sp, #32]
     8e4:	2a0103f6 	mov	w22, w1
     8e8:	aa0003f5 	mov	x21, x0
     8ec:	a90363f7 	stp	x23, x24, [sp, #48]
     8f0:	aa0303f8 	mov	x24, x3
     8f4:	9101a3f7 	add	x23, sp, #0x68
     8f8:	a9046bf9 	stp	x25, x26, [sp, #64]
/home/hei/Desktop/optee-qemu/optee_os/lib/libutils/ext/trace.c:239
     8fc:	d000005a 	adrp	x26, a000 <__text_end+0x1324>
     900:	2a0403f9 	mov	w25, w4
     904:	913ae35a 	add	x26, x26, #0xeb8
/home/hei/Desktop/optee-qemu/optee_os/lib/libutils/ext/trace.c:229
     908:	a90573fb 	stp	x27, x28, [sp, #80]
/home/hei/Desktop/optee-qemu/optee_os/lib/libutils/ext/trace.c:244
     90c:	d000005b 	adrp	x27, a000 <__text_end+0x1324>
     910:	913acb7b 	add	x27, x27, #0xeb2
/home/hei/Desktop/optee-qemu/optee_os/lib/libutils/ext/trace.c:236
     914:	f900b7ff 	str	xzr, [sp, #360]
/home/hei/Desktop/optee-qemu/optee_os/lib/libutils/ext/trace.c:237
     918:	2a1303fc 	mov	w28, w19
/home/hei/Desktop/optee-qemu/optee_os/lib/libutils/ext/trace.c:237 (discriminator 1)
     91c:	6b13033f 	cmp	w25, w19
     920:	5400024c 	b.gt	968 <dhex_dump+0xb0>
/home/hei/Desktop/optee-qemu/optee_os/lib/libutils/ext/trace.c:257
     924:	f940b7e0 	ldr	x0, [sp, #360]
     928:	b4000120 	cbz	x0, 94c <dhex_dump+0x94>
/home/hei/Desktop/optee-qemu/optee_os/lib/libutils/ext/trace.c:259
     92c:	d0000044 	adrp	x4, a000 <__text_end+0x1324>
     930:	9101a3e5 	add	x5, sp, #0x68
     934:	9130b084 	add	x4, x4, #0xc2c
     938:	52800023 	mov	w3, #0x1                   	// #1
     93c:	2a1403e2 	mov	w2, w20
     940:	2a1603e1 	mov	w1, w22
     944:	aa1503e0 	mov	x0, x21
     948:	97ffffc0 	bl	848 <trace_printf>
/home/hei/Desktop/optee-qemu/optee_os/lib/libutils/ext/trace.c:267
     94c:	a94153f3 	ldp	x19, x20, [sp, #16]
     950:	a9425bf5 	ldp	x21, x22, [sp, #32]
     954:	a94363f7 	ldp	x23, x24, [sp, #48]
     958:	a9446bf9 	ldp	x25, x26, [sp, #64]
     95c:	a94573fb 	ldp	x27, x28, [sp, #80]
     960:	a8d77bfd 	ldp	x29, x30, [sp], #368
     964:	d65f03c0 	ret
/home/hei/Desktop/optee-qemu/optee_os/lib/libutils/ext/trace.c:238
     968:	f2400e7f 	tst	x19, #0xf
     96c:	54000200 	b.eq	9ac <dhex_dump+0xf4>  // b.none
/home/hei/Desktop/optee-qemu/optee_os/lib/libutils/ext/trace.c:244
     970:	38736b02 	ldrb	w2, [x24, x19]
     974:	aa1b03e1 	mov	x1, x27
     978:	aa1703e0 	mov	x0, x23
     97c:	97fffefb 	bl	568 <append>
/home/hei/Desktop/optee-qemu/optee_os/lib/libutils/ext/trace.c:245
     980:	35000240 	cbnz	w0, 9c8 <dhex_dump+0x110>
/home/hei/Desktop/optee-qemu/optee_os/lib/libutils/ext/trace.c:266
     984:	d0000040 	adrp	x0, a000 <__text_end+0x1324>
     988:	913a2400 	add	x0, x0, #0xe89
     98c:	d0000044 	adrp	x4, a000 <__text_end+0x1324>
     990:	52800023 	mov	w3, #0x1                   	// #1
     994:	913b0084 	add	x4, x4, #0xec0
     998:	52800062 	mov	w2, #0x3                   	// #3
     99c:	52802141 	mov	w1, #0x10a                 	// #266
     9a0:	91001400 	add	x0, x0, #0x5
     9a4:	97ffffa9 	bl	848 <trace_printf>
     9a8:	17ffffe9 	b	94c <dhex_dump+0x94>
/home/hei/Desktop/optee-qemu/optee_os/lib/libutils/ext/trace.c:239
     9ac:	8b130303 	add	x3, x24, x19
     9b0:	52800202 	mov	w2, #0x10                  	// #16
     9b4:	aa1a03e1 	mov	x1, x26
     9b8:	aa1703e0 	mov	x0, x23
     9bc:	97fffeeb 	bl	568 <append>
/home/hei/Desktop/optee-qemu/optee_os/lib/libutils/ext/trace.c:241
     9c0:	35fffd80 	cbnz	w0, 970 <dhex_dump+0xb8>
     9c4:	17fffff0 	b	984 <dhex_dump+0xcc>
/home/hei/Desktop/optee-qemu/optee_os/lib/libutils/ext/trace.c:247
     9c8:	12000f80 	and	w0, w28, #0xf
     9cc:	71001c1f 	cmp	w0, #0x7
     9d0:	54000101 	b.ne	9f0 <dhex_dump+0x138>  // b.any
/home/hei/Desktop/optee-qemu/optee_os/lib/libutils/ext/trace.c:248
     9d4:	d0000041 	adrp	x1, a000 <__text_end+0x1324>
     9d8:	aa1703e0 	mov	x0, x23
     9dc:	913af821 	add	x1, x1, #0xebe
     9e0:	97fffee2 	bl	568 <append>
/home/hei/Desktop/optee-qemu/optee_os/lib/libutils/ext/trace.c:249
     9e4:	34fffd00 	cbz	w0, 984 <dhex_dump+0xcc>
     9e8:	91000673 	add	x19, x19, #0x1
     9ec:	17ffffcb 	b	918 <dhex_dump+0x60>
/home/hei/Desktop/optee-qemu/optee_os/lib/libutils/ext/trace.c:251
     9f0:	71003c1f 	cmp	w0, #0xf
     9f4:	54ffffa1 	b.ne	9e8 <dhex_dump+0x130>  // b.any
/home/hei/Desktop/optee-qemu/optee_os/lib/libutils/ext/trace.c:252
     9f8:	aa1703e5 	mov	x5, x23
     9fc:	d0000044 	adrp	x4, a000 <__text_end+0x1324>
     a00:	52800023 	mov	w3, #0x1                   	// #1
     a04:	9130b084 	add	x4, x4, #0xc2c
     a08:	2a1403e2 	mov	w2, w20
     a0c:	2a1603e1 	mov	w1, w22
     a10:	aa1503e0 	mov	x0, x21
     a14:	97ffff8d 	bl	848 <trace_printf>
/home/hei/Desktop/optee-qemu/optee_os/lib/libutils/ext/trace.c:254
     a18:	f900b7ff 	str	xzr, [sp, #360]
     a1c:	17fffff3 	b	9e8 <dhex_dump+0x130>
     a20:	d65f03c0 	ret

0000000000000a24 <raw_malloc_return_hook.constprop.21>:
raw_malloc_return_hook():
/home/hei/Desktop/optee-qemu/optee_os/lib/libutils/isoc/bget_malloc.c:210
     a24:	90000062 	adrp	x2, c000 <_DYNAMIC>
     a28:	910f4044 	add	x4, x2, #0x3d0
     a2c:	f9401083 	ldr	x3, [x4, #32]
     a30:	b9406c85 	ldr	w5, [x4, #108]
     a34:	eb05007f 	cmp	x3, x5
     a38:	5400004d 	b.le	a40 <raw_malloc_return_hook.constprop.21+0x1c>
/home/hei/Desktop/optee-qemu/optee_os/lib/libutils/isoc/bget_malloc.c:211
     a3c:	b9006c83 	str	w3, [x4, #108]
/home/hei/Desktop/optee-qemu/optee_os/lib/libutils/isoc/bget_malloc.c:213
     a40:	b5000120 	cbnz	x0, a64 <raw_malloc_return_hook.constprop.21+0x40>
/home/hei/Desktop/optee-qemu/optee_os/lib/libutils/isoc/bget_malloc.c:214
     a44:	910f4040 	add	x0, x2, #0x3d0
     a48:	b9407402 	ldr	w2, [x0, #116]
     a4c:	11000442 	add	w2, w2, #0x1
     a50:	b9007402 	str	w2, [x0, #116]
/home/hei/Desktop/optee-qemu/optee_os/lib/libutils/isoc/bget_malloc.c:216
     a54:	b9407802 	ldr	w2, [x0, #120]
     a58:	eb01005f 	cmp	x2, x1
     a5c:	54000042 	b.cs	a64 <raw_malloc_return_hook.constprop.21+0x40>  // b.hs, b.nlast
/home/hei/Desktop/optee-qemu/optee_os/lib/libutils/isoc/bget_malloc.c:218
     a60:	290f0c01 	stp	w1, w3, [x0, #120]
/home/hei/Desktop/optee-qemu/optee_os/lib/libutils/isoc/bget_malloc.c:222
     a64:	d65f03c0 	ret

0000000000000a68 <bget>:
bget():
/home/hei/Desktop/optee-qemu/optee_os/lib/libutils/isoc/bget.c:583
     a68:	a9bf7bfd 	stp	x29, x30, [sp, #-16]!
/home/hei/Desktop/optee-qemu/optee_os/lib/libutils/isoc/bget.c:594
     a6c:	f100001f 	cmp	x0, #0x0
/home/hei/Desktop/optee-qemu/optee_os/lib/libutils/isoc/bget.c:583
     a70:	910003fd 	mov	x29, sp
/home/hei/Desktop/optee-qemu/optee_os/lib/libutils/isoc/bget.c:594
     a74:	5400014c 	b.gt	a9c <bget+0x34>
/home/hei/Desktop/optee-qemu/optee_os/lib/libutils/isoc/bget.c:594 (discriminator 1)
     a78:	d0000043 	adrp	x3, a000 <__text_end+0x1324>
     a7c:	d0000041 	adrp	x1, a000 <__text_end+0x1324>
     a80:	f0000040 	adrp	x0, b000 <__func__.3755+0xec>
     a84:	913b3c63 	add	x3, x3, #0xecf
     a88:	913c9c21 	add	x1, x1, #0xf27
     a8c:	91065000 	add	x0, x0, #0x194
     a90:	52804a42 	mov	w2, #0x252                 	// #594
/home/hei/Desktop/optee-qemu/optee_os/lib/libutils/isoc/bget.c:658 (discriminator 1)
     a94:	940006a3 	bl	2520 <_assert_log>
     a98:	940006b3 	bl	2564 <_assert_break>
/home/hei/Desktop/optee-qemu/optee_os/lib/libutils/isoc/bget.c:601
     a9c:	f100401f 	cmp	x0, #0x10
     aa0:	d2800202 	mov	x2, #0x10                  	// #16
     aa4:	9a82a000 	csel	x0, x0, x2, ge  // ge = tcont
     aa8:	b1003c02 	adds	x2, x0, #0xf
     aac:	54000144 	b.mi	ad4 <bget+0x6c>  // b.first
     ab0:	eb00005f 	cmp	x2, x0
     ab4:	54000103 	b.cc	ad4 <bget+0x6c>  // b.lo, b.ul, b.last
/home/hei/Desktop/optee-qemu/optee_os/lib/libutils/isoc/bget.c:604
     ab8:	927cec40 	and	x0, x2, #0xfffffffffffffff0
/home/hei/Desktop/optee-qemu/optee_os/lib/libutils/isoc/bget.c:609
     abc:	91004003 	add	x3, x0, #0x10
     ac0:	eb00007f 	cmp	x3, x0
     ac4:	5400008b 	b.lt	ad4 <bget+0x6c>  // b.tstop
/home/hei/Desktop/optee-qemu/optee_os/lib/libutils/isoc/bget.c:619
     ac8:	f9400820 	ldr	x0, [x1, #16]
/home/hei/Desktop/optee-qemu/optee_os/lib/libutils/isoc/bget.c:641
     acc:	eb00003f 	cmp	x1, x0
     ad0:	54000061 	b.ne	adc <bget+0x74>  // b.any
/home/hei/Desktop/optee-qemu/optee_os/lib/libutils/isoc/bget.c:602
     ad4:	d2800000 	mov	x0, #0x0                   	// #0
     ad8:	1400001e 	b	b50 <bget+0xe8>
/home/hei/Desktop/optee-qemu/optee_os/lib/libutils/isoc/bget.c:642
     adc:	f9400402 	ldr	x2, [x0, #8]
     ae0:	eb02007f 	cmp	x3, x2
     ae4:	540009ec 	b.gt	c20 <bget+0x1b8>
/home/hei/Desktop/optee-qemu/optee_os/lib/libutils/isoc/bget.c:653
     ae8:	cb030044 	sub	x4, x2, x3
     aec:	f100809f 	cmp	x4, #0x20
     af0:	5400034d 	b.le	b58 <bget+0xf0>
/home/hei/Desktop/optee-qemu/optee_os/lib/libutils/isoc/bget.c:656
     af4:	8b040005 	add	x5, x0, x4
/home/hei/Desktop/optee-qemu/optee_os/lib/libutils/isoc/bget.c:658
     af8:	f86368a6 	ldr	x6, [x5, x3]
     afc:	eb06005f 	cmp	x2, x6
     b00:	54000120 	b.eq	b24 <bget+0xbc>  // b.none
/home/hei/Desktop/optee-qemu/optee_os/lib/libutils/isoc/bget.c:658 (discriminator 1)
     b04:	d0000043 	adrp	x3, a000 <__text_end+0x1324>
     b08:	d0000041 	adrp	x1, a000 <__text_end+0x1324>
     b0c:	d0000040 	adrp	x0, a000 <__text_end+0x1324>
     b10:	913b3c63 	add	x3, x3, #0xecf
     b14:	52805242 	mov	w2, #0x292                 	// #658
     b18:	913c9c21 	add	x1, x1, #0xf27
     b1c:	913d0000 	add	x0, x0, #0xf40
     b20:	17ffffdd 	b	a94 <bget+0x2c>
/home/hei/Desktop/optee-qemu/optee_os/lib/libutils/isoc/bget.c:660
     b24:	f9000404 	str	x4, [x0, #8]
/home/hei/Desktop/optee-qemu/optee_os/lib/libutils/isoc/bget.c:662
     b28:	f8246804 	str	x4, [x0, x4]
/home/hei/Desktop/optee-qemu/optee_os/lib/libutils/isoc/bget.c:664
     b2c:	cb0303e0 	neg	x0, x3
     b30:	f90004a0 	str	x0, [x5, #8]
/home/hei/Desktop/optee-qemu/optee_os/lib/libutils/isoc/bget.c:669
     b34:	f9401020 	ldr	x0, [x1, #32]
/home/hei/Desktop/optee-qemu/optee_os/lib/libutils/isoc/bget.c:666
     b38:	f82368bf 	str	xzr, [x5, x3]
/home/hei/Desktop/optee-qemu/optee_os/lib/libutils/isoc/bget.c:669
     b3c:	8b030003 	add	x3, x0, x3
/home/hei/Desktop/optee-qemu/optee_os/lib/libutils/isoc/bget.c:670
     b40:	f9401420 	ldr	x0, [x1, #40]
     b44:	91000400 	add	x0, x0, #0x1
     b48:	a9020023 	stp	x3, x0, [x1, #32]
/home/hei/Desktop/optee-qemu/optee_os/lib/libutils/isoc/bget.c:672
     b4c:	910040a0 	add	x0, x5, #0x10
/home/hei/Desktop/optee-qemu/optee_os/lib/libutils/isoc/bget.c:770
     b50:	a8c17bfd 	ldp	x29, x30, [sp], #16
     b54:	d65f03c0 	ret
/home/hei/Desktop/optee-qemu/optee_os/lib/libutils/isoc/bget.c:679
     b58:	f8626803 	ldr	x3, [x0, x2]
/home/hei/Desktop/optee-qemu/optee_os/lib/libutils/isoc/bget.c:678
     b5c:	8b020005 	add	x5, x0, x2
/home/hei/Desktop/optee-qemu/optee_os/lib/libutils/isoc/bget.c:679
     b60:	eb03005f 	cmp	x2, x3
     b64:	54000120 	b.eq	b88 <bget+0x120>  // b.none
/home/hei/Desktop/optee-qemu/optee_os/lib/libutils/isoc/bget.c:679 (discriminator 1)
     b68:	d0000043 	adrp	x3, a000 <__text_end+0x1324>
     b6c:	d0000041 	adrp	x1, a000 <__text_end+0x1324>
     b70:	d0000040 	adrp	x0, a000 <__text_end+0x1324>
     b74:	913b3c63 	add	x3, x3, #0xecf
     b78:	528054e2 	mov	w2, #0x2a7                 	// #679
     b7c:	913c9c21 	add	x1, x1, #0xf27
     b80:	913d7000 	add	x0, x0, #0xf5c
     b84:	17ffffc4 	b	a94 <bget+0x2c>
/home/hei/Desktop/optee-qemu/optee_os/lib/libutils/isoc/bget.c:684
     b88:	f9400c03 	ldr	x3, [x0, #24]
     b8c:	f9400864 	ldr	x4, [x3, #16]
     b90:	eb00009f 	cmp	x4, x0
     b94:	54000120 	b.eq	bb8 <bget+0x150>  // b.none
/home/hei/Desktop/optee-qemu/optee_os/lib/libutils/isoc/bget.c:684 (discriminator 1)
     b98:	d0000043 	adrp	x3, a000 <__text_end+0x1324>
     b9c:	d0000041 	adrp	x1, a000 <__text_end+0x1324>
     ba0:	d0000040 	adrp	x0, a000 <__text_end+0x1324>
     ba4:	913b3c63 	add	x3, x3, #0xecf
     ba8:	52805582 	mov	w2, #0x2ac                 	// #684
     bac:	913c9c21 	add	x1, x1, #0xf27
     bb0:	913de000 	add	x0, x0, #0xf78
     bb4:	17ffffb8 	b	a94 <bget+0x2c>
/home/hei/Desktop/optee-qemu/optee_os/lib/libutils/isoc/bget.c:685
     bb8:	f9400804 	ldr	x4, [x0, #16]
     bbc:	f9400c86 	ldr	x6, [x4, #24]
     bc0:	eb0000df 	cmp	x6, x0
     bc4:	54000120 	b.eq	be8 <bget+0x180>  // b.none
/home/hei/Desktop/optee-qemu/optee_os/lib/libutils/isoc/bget.c:685 (discriminator 1)
     bc8:	d0000043 	adrp	x3, a000 <__text_end+0x1324>
     bcc:	d0000041 	adrp	x1, a000 <__text_end+0x1324>
     bd0:	d0000040 	adrp	x0, a000 <__text_end+0x1324>
     bd4:	913b3c63 	add	x3, x3, #0xecf
     bd8:	528055a2 	mov	w2, #0x2ad                 	// #685
     bdc:	913c9c21 	add	x1, x1, #0xf27
     be0:	913e4c00 	add	x0, x0, #0xf93
     be4:	17ffffac 	b	a94 <bget+0x2c>
/home/hei/Desktop/optee-qemu/optee_os/lib/libutils/isoc/bget.c:686
     be8:	f9000864 	str	x4, [x3, #16]
/home/hei/Desktop/optee-qemu/optee_os/lib/libutils/isoc/bget.c:701
     bec:	91004000 	add	x0, x0, #0x10
/home/hei/Desktop/optee-qemu/optee_os/lib/libutils/isoc/bget.c:687
     bf0:	f9400004 	ldr	x4, [x0]
     bf4:	f9000c83 	str	x3, [x4, #24]
/home/hei/Desktop/optee-qemu/optee_os/lib/libutils/isoc/bget.c:690
     bf8:	f9401023 	ldr	x3, [x1, #32]
     bfc:	8b020063 	add	x3, x3, x2
     c00:	f9001023 	str	x3, [x1, #32]
/home/hei/Desktop/optee-qemu/optee_os/lib/libutils/isoc/bget.c:691
     c04:	f9401423 	ldr	x3, [x1, #40]
/home/hei/Desktop/optee-qemu/optee_os/lib/libutils/isoc/bget.c:694
     c08:	cb0203e2 	neg	x2, x2
/home/hei/Desktop/optee-qemu/optee_os/lib/libutils/isoc/bget.c:691
     c0c:	91000463 	add	x3, x3, #0x1
     c10:	f9001423 	str	x3, [x1, #40]
/home/hei/Desktop/optee-qemu/optee_os/lib/libutils/isoc/bget.c:694
     c14:	f81f8002 	stur	x2, [x0, #-8]
/home/hei/Desktop/optee-qemu/optee_os/lib/libutils/isoc/bget.c:698
     c18:	f90000bf 	str	xzr, [x5]
/home/hei/Desktop/optee-qemu/optee_os/lib/libutils/isoc/bget.c:703
     c1c:	17ffffcd 	b	b50 <bget+0xe8>
/home/hei/Desktop/optee-qemu/optee_os/lib/libutils/isoc/bget.c:706
     c20:	f9400800 	ldr	x0, [x0, #16]
     c24:	17ffffaa 	b	acc <bget+0x64>

0000000000000c28 <bgetz>:
bgetz():
/home/hei/Desktop/optee-qemu/optee_os/lib/libutils/isoc/bget.c:779
     c28:	a9be7bfd 	stp	x29, x30, [sp, #-32]!
     c2c:	910003fd 	mov	x29, sp
     c30:	f9000bf3 	str	x19, [sp, #16]
     c34:	aa0003f3 	mov	x19, x0
/home/hei/Desktop/optee-qemu/optee_os/lib/libutils/isoc/bget.c:780
     c38:	97ffff8c 	bl	a68 <bget>
     c3c:	aa0003e3 	mov	x3, x0
/home/hei/Desktop/optee-qemu/optee_os/lib/libutils/isoc/bget.c:782
     c40:	b4000320 	cbz	x0, ca4 <bgetz+0x7c>
/home/hei/Desktop/optee-qemu/optee_os/lib/libutils/isoc/bget.c:787
     c44:	f85f8000 	ldur	x0, [x0, #-8]
/home/hei/Desktop/optee-qemu/optee_os/lib/libutils/isoc/bget.c:788
     c48:	b50001e0 	cbnz	x0, c84 <bgetz+0x5c>
/home/hei/Desktop/optee-qemu/optee_os/lib/libutils/isoc/bget.c:792
     c4c:	f85e8062 	ldur	x2, [x3, #-24]
     c50:	d1006042 	sub	x2, x2, #0x18
/home/hei/Desktop/optee-qemu/optee_os/lib/libutils/isoc/bget.c:796
     c54:	eb13005f 	cmp	x2, x19
     c58:	540001ca 	b.ge	c90 <bgetz+0x68>  // b.tcont
     c5c:	d0000043 	adrp	x3, a000 <__text_end+0x1324>
     c60:	913b3c63 	add	x3, x3, #0xecf
     c64:	91001463 	add	x3, x3, #0x5
     c68:	d0000041 	adrp	x1, a000 <__text_end+0x1324>
     c6c:	d0000040 	adrp	x0, a000 <__text_end+0x1324>
     c70:	913c9c21 	add	x1, x1, #0xf27
     c74:	913eb800 	add	x0, x0, #0xfae
     c78:	52806382 	mov	w2, #0x31c                 	// #796
     c7c:	94000629 	bl	2520 <_assert_log>
     c80:	94000639 	bl	2564 <_assert_break>
/home/hei/Desktop/optee-qemu/optee_os/lib/libutils/isoc/bget.c:794
     c84:	928001e2 	mov	x2, #0xfffffffffffffff0    	// #-16
     c88:	cb000042 	sub	x2, x2, x0
     c8c:	17fffff2 	b	c54 <bgetz+0x2c>
memset_unchecked():
/home/hei/Desktop/optee-qemu/optee_os/lib/libutils/isoc/bget_malloc.c:130
     c90:	aa0303e0 	mov	x0, x3
     c94:	93407c42 	sxtw	x2, w2
     c98:	52800001 	mov	w1, #0x0                   	// #0
     c9c:	94000273 	bl	1668 <memset>
     ca0:	aa0003e3 	mov	x3, x0
bgetz():
/home/hei/Desktop/optee-qemu/optee_os/lib/libutils/isoc/bget.c:800
     ca4:	aa0303e0 	mov	x0, x3
     ca8:	f9400bf3 	ldr	x19, [sp, #16]
     cac:	a8c27bfd 	ldp	x29, x30, [sp], #32
     cb0:	d65f03c0 	ret

0000000000000cb4 <brel>:
brel():
/home/hei/Desktop/optee-qemu/optee_os/lib/libutils/isoc/bget.c:852
     cb4:	a9be7bfd 	stp	x29, x30, [sp, #-32]!
     cb8:	910003fd 	mov	x29, sp
/home/hei/Desktop/optee-qemu/optee_os/lib/libutils/isoc/bget.c:858
     cbc:	f9401823 	ldr	x3, [x1, #48]
/home/hei/Desktop/optee-qemu/optee_os/lib/libutils/isoc/bget.c:852
     cc0:	a90153f3 	stp	x19, x20, [sp, #16]
/home/hei/Desktop/optee-qemu/optee_os/lib/libutils/isoc/bget.c:858
     cc4:	91000463 	add	x3, x3, #0x1
     cc8:	f9001823 	str	x3, [x1, #48]
/home/hei/Desktop/optee-qemu/optee_os/lib/libutils/isoc/bget.c:860
     ccc:	b5000160 	cbnz	x0, cf8 <brel+0x44>
/home/hei/Desktop/optee-qemu/optee_os/lib/libutils/isoc/bget.c:860 (discriminator 1)
     cd0:	d0000043 	adrp	x3, a000 <__text_end+0x1324>
     cd4:	913b3c63 	add	x3, x3, #0xecf
     cd8:	d0000041 	adrp	x1, a000 <__text_end+0x1324>
     cdc:	d0000040 	adrp	x0, a000 <__text_end+0x1324>
     ce0:	91002c63 	add	x3, x3, #0xb
     ce4:	913c9c21 	add	x1, x1, #0xf27
     ce8:	913ef000 	add	x0, x0, #0xfbc
     cec:	52806b82 	mov	w2, #0x35c                 	// #860
/home/hei/Desktop/optee-qemu/optee_os/lib/libutils/isoc/bget.c:895 (discriminator 1)
     cf0:	9400060c 	bl	2520 <_assert_log>
     cf4:	9400061c 	bl	2564 <_assert_break>
/home/hei/Desktop/optee-qemu/optee_os/lib/libutils/isoc/bget.c:892
     cf8:	f85f8003 	ldur	x3, [x0, #-8]
/home/hei/Desktop/optee-qemu/optee_os/lib/libutils/isoc/bget.c:895
     cfc:	b7f80143 	tbnz	x3, #63, d24 <brel+0x70>
/home/hei/Desktop/optee-qemu/optee_os/lib/libutils/isoc/bget.c:895 (discriminator 1)
     d00:	d0000043 	adrp	x3, a000 <__text_end+0x1324>
     d04:	913b3c63 	add	x3, x3, #0xecf
     d08:	d0000041 	adrp	x1, a000 <__text_end+0x1324>
     d0c:	d0000040 	adrp	x0, a000 <__text_end+0x1324>
     d10:	91002c63 	add	x3, x3, #0xb
     d14:	52806fe2 	mov	w2, #0x37f                 	// #895
     d18:	913c9c21 	add	x1, x1, #0xf27
     d1c:	913f2000 	add	x0, x0, #0xfc8
     d20:	17fffff4 	b	cf0 <brel+0x3c>
     d24:	d1004013 	sub	x19, x0, #0x10
/home/hei/Desktop/optee-qemu/optee_os/lib/libutils/isoc/bget.c:901
     d28:	cb030264 	sub	x4, x19, x3
     d2c:	f9400084 	ldr	x4, [x4]
     d30:	b4000144 	cbz	x4, d58 <brel+0xa4>
/home/hei/Desktop/optee-qemu/optee_os/lib/libutils/isoc/bget.c:901 (discriminator 1)
     d34:	d0000043 	adrp	x3, a000 <__text_end+0x1324>
     d38:	913b3c63 	add	x3, x3, #0xecf
     d3c:	d0000041 	adrp	x1, a000 <__text_end+0x1324>
     d40:	d0000040 	adrp	x0, a000 <__text_end+0x1324>
     d44:	91002c63 	add	x3, x3, #0xb
     d48:	528070a2 	mov	w2, #0x385                 	// #901
     d4c:	913c9c21 	add	x1, x1, #0xf27
     d50:	913f6000 	add	x0, x0, #0xfd8
     d54:	17ffffe7 	b	cf0 <brel+0x3c>
/home/hei/Desktop/optee-qemu/optee_os/lib/libutils/isoc/bget.c:904
     d58:	f9401024 	ldr	x4, [x1, #32]
     d5c:	8b040064 	add	x4, x3, x4
     d60:	f9001024 	str	x4, [x1, #32]
/home/hei/Desktop/optee-qemu/optee_os/lib/libutils/isoc/bget.c:905
     d64:	b6f80144 	tbz	x4, #63, d8c <brel+0xd8>
/home/hei/Desktop/optee-qemu/optee_os/lib/libutils/isoc/bget.c:905 (discriminator 1)
     d68:	d0000043 	adrp	x3, a000 <__text_end+0x1324>
     d6c:	913b3c63 	add	x3, x3, #0xecf
     d70:	d0000041 	adrp	x1, a000 <__text_end+0x1324>
     d74:	f0000040 	adrp	x0, b000 <__func__.3755+0xec>
     d78:	91002c63 	add	x3, x3, #0xb
     d7c:	52807122 	mov	w2, #0x389                 	// #905
     d80:	913c9c21 	add	x1, x1, #0xf27
     d84:	91001000 	add	x0, x0, #0x4
     d88:	17ffffda 	b	cf0 <brel+0x3c>
/home/hei/Desktop/optee-qemu/optee_os/lib/libutils/isoc/bget.c:910
     d8c:	f85f0004 	ldur	x4, [x0, #-16]
     d90:	b4000424 	cbz	x4, e14 <brel+0x160>
/home/hei/Desktop/optee-qemu/optee_os/lib/libutils/isoc/bget.c:921
     d94:	cb040273 	sub	x19, x19, x4
     d98:	f9400660 	ldr	x0, [x19, #8]
     d9c:	eb00009f 	cmp	x4, x0
     da0:	54000140 	b.eq	dc8 <brel+0x114>  // b.none
/home/hei/Desktop/optee-qemu/optee_os/lib/libutils/isoc/bget.c:921 (discriminator 1)
     da4:	d0000043 	adrp	x3, a000 <__text_end+0x1324>
     da8:	913b3c63 	add	x3, x3, #0xecf
     dac:	d0000041 	adrp	x1, a000 <__text_end+0x1324>
     db0:	f0000040 	adrp	x0, b000 <__func__.3755+0xec>
     db4:	91002c63 	add	x3, x3, #0xb
     db8:	52807322 	mov	w2, #0x399                 	// #921
     dbc:	913c9c21 	add	x1, x1, #0xf27
     dc0:	91006c00 	add	x0, x0, #0x1b
     dc4:	17ffffcb 	b	cf0 <brel+0x3c>
/home/hei/Desktop/optee-qemu/optee_os/lib/libutils/isoc/bget.c:923
     dc8:	cb030083 	sub	x3, x4, x3
     dcc:	f9000663 	str	x3, [x19, #8]
/home/hei/Desktop/optee-qemu/optee_os/lib/libutils/isoc/bget.c:943
     dd0:	f9400660 	ldr	x0, [x19, #8]
     dd4:	8b000274 	add	x20, x19, x0
/home/hei/Desktop/optee-qemu/optee_os/lib/libutils/isoc/bget.c:944
     dd8:	f9400681 	ldr	x1, [x20, #8]
     ddc:	f100003f 	cmp	x1, #0x0
     de0:	540009ad 	b.le	f14 <brel+0x260>
/home/hei/Desktop/optee-qemu/optee_os/lib/libutils/isoc/bget.c:949
     de4:	f8616a83 	ldr	x3, [x20, x1]
     de8:	eb03003f 	cmp	x1, x3
     dec:	54000560 	b.eq	e98 <brel+0x1e4>  // b.none
/home/hei/Desktop/optee-qemu/optee_os/lib/libutils/isoc/bget.c:949 (discriminator 1)
     df0:	d0000043 	adrp	x3, a000 <__text_end+0x1324>
     df4:	913b3c63 	add	x3, x3, #0xecf
     df8:	d0000041 	adrp	x1, a000 <__text_end+0x1324>
     dfc:	f0000040 	adrp	x0, b000 <__func__.3755+0xec>
     e00:	91002c63 	add	x3, x3, #0xb
     e04:	528076a2 	mov	w2, #0x3b5                 	// #949
     e08:	913c9c21 	add	x1, x1, #0xf27
     e0c:	91032800 	add	x0, x0, #0xca
     e10:	17ffffb8 	b	cf0 <brel+0x3c>
/home/hei/Desktop/optee-qemu/optee_os/lib/libutils/isoc/bget.c:929
     e14:	f9400c25 	ldr	x5, [x1, #24]
     e18:	f94008a4 	ldr	x4, [x5, #16]
     e1c:	eb01009f 	cmp	x4, x1
     e20:	54000140 	b.eq	e48 <brel+0x194>  // b.none
/home/hei/Desktop/optee-qemu/optee_os/lib/libutils/isoc/bget.c:929 (discriminator 1)
     e24:	d0000043 	adrp	x3, a000 <__text_end+0x1324>
     e28:	913b3c63 	add	x3, x3, #0xecf
     e2c:	d0000041 	adrp	x1, a000 <__text_end+0x1324>
     e30:	f0000040 	adrp	x0, b000 <__func__.3755+0xec>
     e34:	91002c63 	add	x3, x3, #0xb
     e38:	52807422 	mov	w2, #0x3a1                 	// #929
     e3c:	913c9c21 	add	x1, x1, #0xf27
     e40:	91015000 	add	x0, x0, #0x54
     e44:	17ffffab 	b	cf0 <brel+0x3c>
/home/hei/Desktop/optee-qemu/optee_os/lib/libutils/isoc/bget.c:930
     e48:	f9400881 	ldr	x1, [x4, #16]
     e4c:	f9400c21 	ldr	x1, [x1, #24]
     e50:	eb01009f 	cmp	x4, x1
     e54:	54000140 	b.eq	e7c <brel+0x1c8>  // b.none
/home/hei/Desktop/optee-qemu/optee_os/lib/libutils/isoc/bget.c:930 (discriminator 1)
     e58:	d0000043 	adrp	x3, a000 <__text_end+0x1324>
     e5c:	913b3c63 	add	x3, x3, #0xecf
     e60:	d0000041 	adrp	x1, a000 <__text_end+0x1324>
     e64:	f0000040 	adrp	x0, b000 <__func__.3755+0xec>
     e68:	91002c63 	add	x3, x3, #0xb
     e6c:	52807442 	mov	w2, #0x3a2                 	// #930
     e70:	913c9c21 	add	x1, x1, #0xf27
     e74:	91023c00 	add	x0, x0, #0x8f
     e78:	17ffff9e 	b	cf0 <brel+0x3c>
/home/hei/Desktop/optee-qemu/optee_os/lib/libutils/isoc/bget.c:932
     e7c:	a9011664 	stp	x4, x5, [x19, #16]
/home/hei/Desktop/optee-qemu/optee_os/lib/libutils/isoc/bget.c:896
     e80:	cb0303e3 	neg	x3, x3
/home/hei/Desktop/optee-qemu/optee_os/lib/libutils/isoc/bget.c:933
     e84:	f9000c93 	str	x19, [x4, #24]
/home/hei/Desktop/optee-qemu/optee_os/lib/libutils/isoc/bget.c:934
     e88:	f9400e61 	ldr	x1, [x19, #24]
     e8c:	f9000833 	str	x19, [x1, #16]
/home/hei/Desktop/optee-qemu/optee_os/lib/libutils/isoc/bget.c:935
     e90:	f81f8003 	stur	x3, [x0, #-8]
     e94:	17ffffcf 	b	dd0 <brel+0x11c>
/home/hei/Desktop/optee-qemu/optee_os/lib/libutils/isoc/bget.c:950
     e98:	f9400e84 	ldr	x4, [x20, #24]
     e9c:	f9400885 	ldr	x5, [x4, #16]
     ea0:	eb1400bf 	cmp	x5, x20
     ea4:	54000140 	b.eq	ecc <brel+0x218>  // b.none
/home/hei/Desktop/optee-qemu/optee_os/lib/libutils/isoc/bget.c:950 (discriminator 1)
     ea8:	d0000043 	adrp	x3, a000 <__text_end+0x1324>
     eac:	913b3c63 	add	x3, x3, #0xecf
     eb0:	d0000041 	adrp	x1, a000 <__text_end+0x1324>
     eb4:	f0000040 	adrp	x0, b000 <__func__.3755+0xec>
     eb8:	91002c63 	add	x3, x3, #0xb
     ebc:	528076c2 	mov	w2, #0x3b6                 	// #950
     ec0:	913c9c21 	add	x1, x1, #0xf27
     ec4:	91040c00 	add	x0, x0, #0x103
     ec8:	17ffff8a 	b	cf0 <brel+0x3c>
/home/hei/Desktop/optee-qemu/optee_os/lib/libutils/isoc/bget.c:951
     ecc:	f94008a3 	ldr	x3, [x5, #16]
     ed0:	f9400c66 	ldr	x6, [x3, #24]
     ed4:	eb0500df 	cmp	x6, x5
     ed8:	54000140 	b.eq	f00 <brel+0x24c>  // b.none
/home/hei/Desktop/optee-qemu/optee_os/lib/libutils/isoc/bget.c:951 (discriminator 1)
     edc:	d0000043 	adrp	x3, a000 <__text_end+0x1324>
     ee0:	913b3c63 	add	x3, x3, #0xecf
     ee4:	d0000041 	adrp	x1, a000 <__text_end+0x1324>
     ee8:	f0000040 	adrp	x0, b000 <__func__.3755+0xec>
     eec:	91002c63 	add	x3, x3, #0xb
     ef0:	528076e2 	mov	w2, #0x3b7                 	// #951
     ef4:	913c9c21 	add	x1, x1, #0xf27
     ef8:	91048000 	add	x0, x0, #0x120
     efc:	17ffff7d 	b	cf0 <brel+0x3c>
/home/hei/Desktop/optee-qemu/optee_os/lib/libutils/isoc/bget.c:952
     f00:	f9000883 	str	x3, [x4, #16]
/home/hei/Desktop/optee-qemu/optee_os/lib/libutils/isoc/bget.c:954
     f04:	8b010014 	add	x20, x0, x1
/home/hei/Desktop/optee-qemu/optee_os/lib/libutils/isoc/bget.c:953
     f08:	f9000c64 	str	x4, [x3, #24]
/home/hei/Desktop/optee-qemu/optee_os/lib/libutils/isoc/bget.c:954
     f0c:	f9000674 	str	x20, [x19, #8]
/home/hei/Desktop/optee-qemu/optee_os/lib/libutils/isoc/bget.c:963
     f10:	8b140274 	add	x20, x19, x20
/home/hei/Desktop/optee-qemu/optee_os/lib/libutils/isoc/bget.c:965
     f14:	340000e2 	cbz	w2, f30 <brel+0x27c>
/home/hei/Desktop/optee-qemu/optee_os/lib/libutils/isoc/bget.c:967
     f18:	f9400662 	ldr	x2, [x19, #8]
memset_unchecked():
/home/hei/Desktop/optee-qemu/optee_os/lib/libutils/isoc/bget_malloc.c:130
     f1c:	52800aa1 	mov	w1, #0x55                  	// #85
     f20:	91008260 	add	x0, x19, #0x20
brel():
/home/hei/Desktop/optee-qemu/optee_os/lib/libutils/isoc/bget.c:967
     f24:	51008042 	sub	w2, w2, #0x20
memset_unchecked():
/home/hei/Desktop/optee-qemu/optee_os/lib/libutils/isoc/bget_malloc.c:130
     f28:	93407c42 	sxtw	x2, w2
     f2c:	940001cf 	bl	1668 <memset>
brel():
/home/hei/Desktop/optee-qemu/optee_os/lib/libutils/isoc/bget.c:969
     f30:	f9400680 	ldr	x0, [x20, #8]
     f34:	b7f80140 	tbnz	x0, #63, f5c <brel+0x2a8>
/home/hei/Desktop/optee-qemu/optee_os/lib/libutils/isoc/bget.c:969 (discriminator 1)
     f38:	d0000043 	adrp	x3, a000 <__text_end+0x1324>
     f3c:	913b3c63 	add	x3, x3, #0xecf
     f40:	d0000041 	adrp	x1, a000 <__text_end+0x1324>
     f44:	f0000040 	adrp	x0, b000 <__func__.3755+0xec>
     f48:	91002c63 	add	x3, x3, #0xb
     f4c:	52807922 	mov	w2, #0x3c9                 	// #969
     f50:	913c9c21 	add	x1, x1, #0xf27
     f54:	9104f400 	add	x0, x0, #0x13d
     f58:	17ffff66 	b	cf0 <brel+0x3c>
/home/hei/Desktop/optee-qemu/optee_os/lib/libutils/isoc/bget.c:974
     f5c:	f9400660 	ldr	x0, [x19, #8]
     f60:	f9000280 	str	x0, [x20]
/home/hei/Desktop/optee-qemu/optee_os/lib/libutils/isoc/bget.c:1002
     f64:	a94153f3 	ldp	x19, x20, [sp, #16]
     f68:	a8c27bfd 	ldp	x29, x30, [sp], #32
     f6c:	d65f03c0 	ret

0000000000000f70 <bgetr>:
bgetr():
/home/hei/Desktop/optee-qemu/optee_os/lib/libutils/isoc/bget.c:811
     f70:	a9bc7bfd 	stp	x29, x30, [sp, #-64]!
     f74:	910003fd 	mov	x29, sp
     f78:	a90153f3 	stp	x19, x20, [sp, #16]
     f7c:	aa0103f4 	mov	x20, x1
/home/hei/Desktop/optee-qemu/optee_os/lib/libutils/isoc/bget.c:816
     f80:	aa0203e1 	mov	x1, x2
/home/hei/Desktop/optee-qemu/optee_os/lib/libutils/isoc/bget.c:811
     f84:	a9025bf5 	stp	x21, x22, [sp, #32]
     f88:	aa0003f5 	mov	x21, x0
/home/hei/Desktop/optee-qemu/optee_os/lib/libutils/isoc/bget.c:816
     f8c:	aa1403e0 	mov	x0, x20
/home/hei/Desktop/optee-qemu/optee_os/lib/libutils/isoc/bget.c:811
     f90:	f9001bf7 	str	x23, [sp, #48]
     f94:	aa0203f7 	mov	x23, x2
/home/hei/Desktop/optee-qemu/optee_os/lib/libutils/isoc/bget.c:816
     f98:	97fffeb4 	bl	a68 <bget>
     f9c:	aa0003f6 	mov	x22, x0
     fa0:	b4000420 	cbz	x0, 1024 <bgetr+0xb4>
/home/hei/Desktop/optee-qemu/optee_os/lib/libutils/isoc/bget.c:819
     fa4:	b4000415 	cbz	x21, 1024 <bgetr+0xb4>
/home/hei/Desktop/optee-qemu/optee_os/lib/libutils/isoc/bget.c:833
     fa8:	f85f82a1 	ldur	x1, [x21, #-8]
     fac:	928001f3 	mov	x19, #0xfffffffffffffff0    	// #-16
     fb0:	cb010273 	sub	x19, x19, x1
/home/hei/Desktop/optee-qemu/optee_os/lib/libutils/isoc/bget.c:834
     fb4:	f100027f 	cmp	x19, #0x0
     fb8:	5400016c 	b.gt	fe4 <bgetr+0x74>
     fbc:	d0000043 	adrp	x3, a000 <__text_end+0x1324>
     fc0:	913b3c63 	add	x3, x3, #0xecf
     fc4:	91004063 	add	x3, x3, #0x10
     fc8:	d0000041 	adrp	x1, a000 <__text_end+0x1324>
     fcc:	f0000040 	adrp	x0, b000 <__func__.3755+0xec>
     fd0:	913c9c21 	add	x1, x1, #0xf27
     fd4:	91053800 	add	x0, x0, #0x14e
     fd8:	52806842 	mov	w2, #0x342                 	// #834
     fdc:	94000551 	bl	2520 <_assert_log>
     fe0:	94000561 	bl	2564 <_assert_break>
/home/hei/Desktop/optee-qemu/optee_os/lib/libutils/isoc/bget.c:835
     fe4:	eb13029f 	cmp	x20, x19
     fe8:	93407e81 	sxtw	x1, w20
     fec:	93407e62 	sxtw	x2, w19
     ff0:	9a81a042 	csel	x2, x2, x1, ge  // ge = tcont
     ff4:	aa1503e1 	mov	x1, x21
     ff8:	97fffd47 	bl	514 <memcpy>
/home/hei/Desktop/optee-qemu/optee_os/lib/libutils/isoc/bget.c:839
     ffc:	eb13029f 	cmp	x20, x19
    1000:	540000ad 	b.le	1014 <bgetr+0xa4>
/home/hei/Desktop/optee-qemu/optee_os/lib/libutils/isoc/bget.c:840
    1004:	cb130282 	sub	x2, x20, x19
    1008:	52800001 	mov	w1, #0x0                   	// #0
    100c:	8b1302c0 	add	x0, x22, x19
    1010:	94000196 	bl	1668 <memset>
/home/hei/Desktop/optee-qemu/optee_os/lib/libutils/isoc/bget.c:842
    1014:	52800002 	mov	w2, #0x0                   	// #0
    1018:	aa1703e1 	mov	x1, x23
    101c:	aa1503e0 	mov	x0, x21
    1020:	97ffff25 	bl	cb4 <brel>
/home/hei/Desktop/optee-qemu/optee_os/lib/libutils/isoc/bget.c:844
    1024:	aa1603e0 	mov	x0, x22
    1028:	a94153f3 	ldp	x19, x20, [sp, #16]
    102c:	a9425bf5 	ldp	x21, x22, [sp, #32]
    1030:	f9401bf7 	ldr	x23, [sp, #48]
    1034:	a8c47bfd 	ldp	x29, x30, [sp], #64
    1038:	d65f03c0 	ret

000000000000103c <bpool>:
bpool():
/home/hei/Desktop/optee-qemu/optee_os/lib/libutils/isoc/bget.c:1028
    103c:	a9bf7bfd 	stp	x29, x30, [sp, #-16]!
/home/hei/Desktop/optee-qemu/optee_os/lib/libutils/isoc/bget.c:1033
    1040:	927cec21 	and	x1, x1, #0xfffffffffffffff0
/home/hei/Desktop/optee-qemu/optee_os/lib/libutils/isoc/bget.c:1052
    1044:	f1004021 	subs	x1, x1, #0x10
/home/hei/Desktop/optee-qemu/optee_os/lib/libutils/isoc/bget.c:1028
    1048:	910003fd 	mov	x29, sp
/home/hei/Desktop/optee-qemu/optee_os/lib/libutils/isoc/bget.c:1052
    104c:	54000165 	b.pl	1078 <bpool+0x3c>  // b.nfrst
/home/hei/Desktop/optee-qemu/optee_os/lib/libutils/isoc/bget.c:1052 (discriminator 1)
    1050:	b0000043 	adrp	x3, a000 <__text_end+0x1324>
    1054:	913b3c63 	add	x3, x3, #0xecf
    1058:	b0000041 	adrp	x1, a000 <__text_end+0x1324>
    105c:	d0000040 	adrp	x0, b000 <__func__.3755+0xec>
    1060:	91005863 	add	x3, x3, #0x16
    1064:	913c9c21 	add	x1, x1, #0xf27
    1068:	91056000 	add	x0, x0, #0x158
    106c:	52808382 	mov	w2, #0x41c                 	// #1052
/home/hei/Desktop/optee-qemu/optee_os/lib/libutils/isoc/bget.c:1062 (discriminator 1)
    1070:	9400052c 	bl	2520 <_assert_log>
    1074:	9400053c 	bl	2564 <_assert_break>
/home/hei/Desktop/optee-qemu/optee_os/lib/libutils/isoc/bget.c:1062
    1078:	f9400c44 	ldr	x4, [x2, #24]
    107c:	f9400883 	ldr	x3, [x4, #16]
/home/hei/Desktop/optee-qemu/optee_os/lib/libutils/isoc/bget.c:1058
    1080:	f900001f 	str	xzr, [x0]
/home/hei/Desktop/optee-qemu/optee_os/lib/libutils/isoc/bget.c:1062
    1084:	eb02007f 	cmp	x3, x2
    1088:	54000140 	b.eq	10b0 <bpool+0x74>  // b.none
/home/hei/Desktop/optee-qemu/optee_os/lib/libutils/isoc/bget.c:1062 (discriminator 1)
    108c:	b0000043 	adrp	x3, a000 <__text_end+0x1324>
    1090:	913b3c63 	add	x3, x3, #0xecf
    1094:	b0000041 	adrp	x1, a000 <__text_end+0x1324>
    1098:	d0000040 	adrp	x0, b000 <__func__.3755+0xec>
    109c:	91005863 	add	x3, x3, #0x16
    10a0:	528084c2 	mov	w2, #0x426                 	// #1062
    10a4:	913c9c21 	add	x1, x1, #0xf27
    10a8:	91015000 	add	x0, x0, #0x54
    10ac:	17fffff1 	b	1070 <bpool+0x34>
/home/hei/Desktop/optee-qemu/optee_os/lib/libutils/isoc/bget.c:1063
    10b0:	f9400862 	ldr	x2, [x3, #16]
    10b4:	f9400c42 	ldr	x2, [x2, #24]
    10b8:	eb02007f 	cmp	x3, x2
    10bc:	54000140 	b.eq	10e4 <bpool+0xa8>  // b.none
    10c0:	b0000043 	adrp	x3, a000 <__text_end+0x1324>
    10c4:	913b3c63 	add	x3, x3, #0xecf
    10c8:	b0000041 	adrp	x1, a000 <__text_end+0x1324>
    10cc:	d0000040 	adrp	x0, b000 <__func__.3755+0xec>
    10d0:	91005863 	add	x3, x3, #0x16
    10d4:	528084e2 	mov	w2, #0x427                 	// #1063
    10d8:	913c9c21 	add	x1, x1, #0xf27
    10dc:	91023c00 	add	x0, x0, #0x8f
    10e0:	17ffffe4 	b	1070 <bpool+0x34>
/home/hei/Desktop/optee-qemu/optee_os/lib/libutils/isoc/bget.c:1065
    10e4:	a9011003 	stp	x3, x4, [x0, #16]
/home/hei/Desktop/optee-qemu/optee_os/lib/libutils/isoc/bget.c:1066
    10e8:	f9000c60 	str	x0, [x3, #24]
/home/hei/Desktop/optee-qemu/optee_os/lib/libutils/isoc/bget.c:1067
    10ec:	f9400c02 	ldr	x2, [x0, #24]
    10f0:	f9000840 	str	x0, [x2, #16]
/home/hei/Desktop/optee-qemu/optee_os/lib/libutils/isoc/bget.c:1083
    10f4:	8b010002 	add	x2, x0, x1
/home/hei/Desktop/optee-qemu/optee_os/lib/libutils/isoc/bget.c:1078
    10f8:	f9000401 	str	x1, [x0, #8]
/home/hei/Desktop/optee-qemu/optee_os/lib/libutils/isoc/bget.c:1084
    10fc:	f8216801 	str	x1, [x0, x1]
/home/hei/Desktop/optee-qemu/optee_os/lib/libutils/isoc/bget.c:1087
    1100:	d2f00000 	mov	x0, #0x8000000000000000    	// #-9223372036854775808
    1104:	f9000440 	str	x0, [x2, #8]
/home/hei/Desktop/optee-qemu/optee_os/lib/libutils/isoc/bget.c:1088
    1108:	a8c17bfd 	ldp	x29, x30, [sp], #16
    110c:	d65f03c0 	ret

0000000000001110 <bstats>:
bstats():
/home/hei/Desktop/optee-qemu/optee_os/lib/libutils/isoc/bget.c:1101
    1110:	f94014a7 	ldr	x7, [x5, #40]
/home/hei/Desktop/optee-qemu/optee_os/lib/libutils/isoc/bget.c:1099
    1114:	f94008a6 	ldr	x6, [x5, #16]
/home/hei/Desktop/optee-qemu/optee_os/lib/libutils/isoc/bget.c:1101
    1118:	f9000067 	str	x7, [x3]
/home/hei/Desktop/optee-qemu/optee_os/lib/libutils/isoc/bget.c:1102
    111c:	f94018a3 	ldr	x3, [x5, #48]
    1120:	f9000083 	str	x3, [x4]
/home/hei/Desktop/optee-qemu/optee_os/lib/libutils/isoc/bget.c:1103
    1124:	f94010a3 	ldr	x3, [x5, #32]
    1128:	f9000003 	str	x3, [x0]
/home/hei/Desktop/optee-qemu/optee_os/lib/libutils/isoc/bget.c:1104
    112c:	f900003f 	str	xzr, [x1]
/home/hei/Desktop/optee-qemu/optee_os/lib/libutils/isoc/bget.c:1105
    1130:	92800000 	mov	x0, #0xffffffffffffffff    	// #-1
    1134:	f9000040 	str	x0, [x2]
/home/hei/Desktop/optee-qemu/optee_os/lib/libutils/isoc/bget.c:1106
    1138:	eb0600bf 	cmp	x5, x6
    113c:	54000041 	b.ne	1144 <bstats+0x34>  // b.any
    1140:	d65f03c0 	ret
/home/hei/Desktop/optee-qemu/optee_os/lib/libutils/isoc/bget.c:1107
    1144:	f94004c3 	ldr	x3, [x6, #8]
    1148:	f100007f 	cmp	x3, #0x0
    114c:	540001ac 	b.gt	1180 <bstats+0x70>
/home/hei/Desktop/optee-qemu/optee_os/lib/libutils/isoc/bget.c:1107 (discriminator 1)
    1150:	b0000043 	adrp	x3, a000 <__text_end+0x1324>
    1154:	913b3c63 	add	x3, x3, #0xecf
    1158:	91007063 	add	x3, x3, #0x1c
    115c:	b0000041 	adrp	x1, a000 <__text_end+0x1324>
    1160:	d0000040 	adrp	x0, b000 <__func__.3755+0xec>
    1164:	913c9c21 	add	x1, x1, #0xf27
    1168:	91063400 	add	x0, x0, #0x18d
/home/hei/Desktop/optee-qemu/optee_os/lib/libutils/isoc/bget.c:1098 (discriminator 1)
    116c:	a9bf7bfd 	stp	x29, x30, [sp, #-16]!
/home/hei/Desktop/optee-qemu/optee_os/lib/libutils/isoc/bget.c:1107 (discriminator 1)
    1170:	52808a62 	mov	w2, #0x453                 	// #1107
/home/hei/Desktop/optee-qemu/optee_os/lib/libutils/isoc/bget.c:1098 (discriminator 1)
    1174:	910003fd 	mov	x29, sp
/home/hei/Desktop/optee-qemu/optee_os/lib/libutils/isoc/bget.c:1107 (discriminator 1)
    1178:	940004ea 	bl	2520 <_assert_log>
    117c:	940004fa 	bl	2564 <_assert_break>
/home/hei/Desktop/optee-qemu/optee_os/lib/libutils/isoc/bget.c:1108
    1180:	f9400020 	ldr	x0, [x1]
    1184:	8b030000 	add	x0, x0, x3
    1188:	f9000020 	str	x0, [x1]
/home/hei/Desktop/optee-qemu/optee_os/lib/libutils/isoc/bget.c:1109
    118c:	f9400043 	ldr	x3, [x2]
    1190:	f94004c0 	ldr	x0, [x6, #8]
    1194:	eb03001f 	cmp	x0, x3
    1198:	5400004d 	b.le	11a0 <bstats+0x90>
/home/hei/Desktop/optee-qemu/optee_os/lib/libutils/isoc/bget.c:1110
    119c:	f9000040 	str	x0, [x2]
/home/hei/Desktop/optee-qemu/optee_os/lib/libutils/isoc/bget.c:1112
    11a0:	f94008c6 	ldr	x6, [x6, #16]
    11a4:	17ffffe5 	b	1138 <bstats+0x28>

00000000000011a8 <malloc_reset_stats>:
gen_malloc_reset_stats():
/home/hei/Desktop/optee-qemu/optee_os/lib/libutils/isoc/bget_malloc.c:228
    11a8:	f0000040 	adrp	x0, c000 <_DYNAMIC>
    11ac:	910f4000 	add	x0, x0, #0x3d0
    11b0:	b9006c1f 	str	wzr, [x0, #108]
/home/hei/Desktop/optee-qemu/optee_os/lib/libutils/isoc/bget_malloc.c:229
    11b4:	b900741f 	str	wzr, [x0, #116]
/home/hei/Desktop/optee-qemu/optee_os/lib/libutils/isoc/bget_malloc.c:230
    11b8:	f9003c1f 	str	xzr, [x0, #120]
malloc_reset_stats():
/home/hei/Desktop/optee-qemu/optee_os/lib/libutils/isoc/bget_malloc.c:238
    11bc:	d65f03c0 	ret

00000000000011c0 <malloc_get_stats>:
malloc_get_stats():
/home/hei/Desktop/optee-qemu/optee_os/lib/libutils/isoc/bget_malloc.c:251
    11c0:	a9be7bfd 	stp	x29, x30, [sp, #-32]!
memcpy_unchecked():
/home/hei/Desktop/optee-qemu/optee_os/lib/libutils/isoc/bget_malloc.c:136
    11c4:	d2800702 	mov	x2, #0x38                  	// #56
malloc_get_stats():
/home/hei/Desktop/optee-qemu/optee_os/lib/libutils/isoc/bget_malloc.c:251
    11c8:	910003fd 	mov	x29, sp
    11cc:	f9000bf3 	str	x19, [sp, #16]
memcpy_unchecked():
/home/hei/Desktop/optee-qemu/optee_os/lib/libutils/isoc/bget_malloc.c:136
    11d0:	f0000053 	adrp	x19, c000 <_DYNAMIC>
    11d4:	910f4273 	add	x19, x19, #0x3d0
    11d8:	91012261 	add	x1, x19, #0x48
    11dc:	97fffcce 	bl	514 <memcpy>
    11e0:	aa0003e3 	mov	x3, x0
gen_malloc_get_stats():
/home/hei/Desktop/optee-qemu/optee_os/lib/libutils/isoc/bget_malloc.c:246
    11e4:	f9401260 	ldr	x0, [x19, #32]
malloc_get_stats():
/home/hei/Desktop/optee-qemu/optee_os/lib/libutils/isoc/bget_malloc.c:253
    11e8:	f9400bf3 	ldr	x19, [sp, #16]
gen_malloc_get_stats():
/home/hei/Desktop/optee-qemu/optee_os/lib/libutils/isoc/bget_malloc.c:246
    11ec:	b9002060 	str	w0, [x3, #32]
malloc_get_stats():
/home/hei/Desktop/optee-qemu/optee_os/lib/libutils/isoc/bget_malloc.c:253
    11f0:	a8c27bfd 	ldp	x29, x30, [sp], #32
    11f4:	d65f03c0 	ret

00000000000011f8 <malloc>:
malloc():
/home/hei/Desktop/optee-qemu/optee_os/lib/libutils/isoc/bget_malloc.c:668
    11f8:	a9be7bfd 	stp	x29, x30, [sp, #-32]!
    11fc:	910003fd 	mov	x29, sp
    1200:	f9000bf3 	str	x19, [sp, #16]
    1204:	aa0003f3 	mov	x19, x0
raw_malloc():
/home/hei/Desktop/optee-qemu/optee_os/lib/libutils/isoc/bget_malloc.c:364
    1208:	b7f801c0 	tbnz	x0, #63, 1240 <malloc+0x48>
/home/hei/Desktop/optee-qemu/optee_os/lib/libutils/isoc/bget_malloc.c:371
    120c:	f100001f 	cmp	x0, #0x0
/home/hei/Desktop/optee-qemu/optee_os/lib/libutils/isoc/bget_malloc.c:373
    1210:	f0000041 	adrp	x1, c000 <_DYNAMIC>
    1214:	9a9f1400 	csinc	x0, x0, xzr, ne  // ne = any
    1218:	910f4021 	add	x1, x1, #0x3d0
    121c:	97fffe13 	bl	a68 <bget>
    1220:	aa0003e6 	mov	x6, x0
/home/hei/Desktop/optee-qemu/optee_os/lib/libutils/isoc/bget_malloc.c:375
    1224:	aa1303e1 	mov	x1, x19
    1228:	aa0603e0 	mov	x0, x6
    122c:	97fffdfe 	bl	a24 <raw_malloc_return_hook.constprop.21>
malloc():
/home/hei/Desktop/optee-qemu/optee_os/lib/libutils/isoc/bget_malloc.c:675
    1230:	aa0603e0 	mov	x0, x6
    1234:	f9400bf3 	ldr	x19, [sp, #16]
    1238:	a8c27bfd 	ldp	x29, x30, [sp], #32
    123c:	d65f03c0 	ret
raw_malloc():
/home/hei/Desktop/optee-qemu/optee_os/lib/libutils/isoc/bget_malloc.c:351
    1240:	d2800006 	mov	x6, #0x0                   	// #0
    1244:	17fffff8 	b	1224 <malloc+0x2c>

0000000000001248 <calloc>:
calloc():
/home/hei/Desktop/optee-qemu/optee_os/lib/libutils/isoc/bget_malloc.c:686
    1248:	a9be7bfd 	stp	x29, x30, [sp, #-32]!
    124c:	910003fd 	mov	x29, sp
    1250:	f9000bf3 	str	x19, [sp, #16]
raw_calloc():
/home/hei/Desktop/optee-qemu/optee_os/lib/libutils/isoc/bget_malloc.c:397
    1254:	9b017c13 	mul	x19, x0, x1
    1258:	9bc17c00 	umulh	x0, x0, x1
    125c:	f100001f 	cmp	x0, #0x0
    1260:	d2800020 	mov	x0, #0x1                   	// #1
    1264:	9a9f07e1 	cset	x1, ne  // ne = any
    1268:	f100027f 	cmp	x19, #0x0
    126c:	9a80a021 	csel	x1, x1, x0, ge  // ge = tcont
    1270:	b50001a1 	cbnz	x1, 12a4 <calloc+0x5c>
/home/hei/Desktop/optee-qemu/optee_os/lib/libutils/isoc/bget_malloc.c:408
    1274:	f0000041 	adrp	x1, c000 <_DYNAMIC>
    1278:	9a801260 	csel	x0, x19, x0, ne  // ne = any
    127c:	910f4021 	add	x1, x1, #0x3d0
    1280:	97fffe6a 	bl	c28 <bgetz>
    1284:	aa0003e6 	mov	x6, x0
/home/hei/Desktop/optee-qemu/optee_os/lib/libutils/isoc/bget_malloc.c:410
    1288:	aa1303e1 	mov	x1, x19
    128c:	aa0603e0 	mov	x0, x6
    1290:	97fffde5 	bl	a24 <raw_malloc_return_hook.constprop.21>
calloc():
/home/hei/Desktop/optee-qemu/optee_os/lib/libutils/isoc/bget_malloc.c:693
    1294:	aa0603e0 	mov	x0, x6
    1298:	f9400bf3 	ldr	x19, [sp, #16]
    129c:	a8c27bfd 	ldp	x29, x30, [sp], #32
    12a0:	d65f03c0 	ret
raw_calloc():
/home/hei/Desktop/optee-qemu/optee_os/lib/libutils/isoc/bget_malloc.c:391
    12a4:	d2800006 	mov	x6, #0x0                   	// #0
    12a8:	17fffff8 	b	1288 <calloc+0x40>

00000000000012ac <realloc>:
realloc():
/home/hei/Desktop/optee-qemu/optee_os/lib/libutils/isoc/bget_malloc.c:702
    12ac:	a9be7bfd 	stp	x29, x30, [sp, #-32]!
    12b0:	910003fd 	mov	x29, sp
    12b4:	f9000bf3 	str	x19, [sp, #16]
    12b8:	aa0103f3 	mov	x19, x1
raw_realloc():
/home/hei/Desktop/optee-qemu/optee_os/lib/libutils/isoc/bget_malloc.c:422
    12bc:	b7f801c1 	tbnz	x1, #63, 12f4 <realloc+0x48>
/home/hei/Desktop/optee-qemu/optee_os/lib/libutils/isoc/bget_malloc.c:431
    12c0:	f100003f 	cmp	x1, #0x0
/home/hei/Desktop/optee-qemu/optee_os/lib/libutils/isoc/bget_malloc.c:433
    12c4:	f0000042 	adrp	x2, c000 <_DYNAMIC>
    12c8:	9a9f1421 	csinc	x1, x1, xzr, ne  // ne = any
    12cc:	910f4042 	add	x2, x2, #0x3d0
    12d0:	97ffff28 	bl	f70 <bgetr>
    12d4:	aa0003e6 	mov	x6, x0
/home/hei/Desktop/optee-qemu/optee_os/lib/libutils/isoc/bget_malloc.c:435
    12d8:	aa1303e1 	mov	x1, x19
    12dc:	aa0603e0 	mov	x0, x6
    12e0:	97fffdd1 	bl	a24 <raw_malloc_return_hook.constprop.21>
realloc():
/home/hei/Desktop/optee-qemu/optee_os/lib/libutils/isoc/bget_malloc.c:709
    12e4:	aa0603e0 	mov	x0, x6
    12e8:	f9400bf3 	ldr	x19, [sp, #16]
    12ec:	a8c27bfd 	ldp	x29, x30, [sp], #32
    12f0:	d65f03c0 	ret
raw_realloc():
/home/hei/Desktop/optee-qemu/optee_os/lib/libutils/isoc/bget_malloc.c:418
    12f4:	d2800006 	mov	x6, #0x0                   	// #0
    12f8:	17fffff8 	b	12d8 <realloc+0x2c>

00000000000012fc <free>:
raw_free():
/home/hei/Desktop/optee-qemu/optee_os/lib/libutils/isoc/bget_malloc.c:384
    12fc:	b40000a0 	cbz	x0, 1310 <free+0x14>
/home/hei/Desktop/optee-qemu/optee_os/lib/libutils/isoc/bget_malloc.c:385
    1300:	52800002 	mov	w2, #0x0                   	// #0
    1304:	f0000041 	adrp	x1, c000 <_DYNAMIC>
    1308:	910f4021 	add	x1, x1, #0x3d0
    130c:	17fffe6a 	b	cb4 <brel>
free():
/home/hei/Desktop/optee-qemu/optee_os/lib/libutils/isoc/bget_malloc.c:722
    1310:	d65f03c0 	ret

0000000000001314 <free_wipe>:
raw_free():
/home/hei/Desktop/optee-qemu/optee_os/lib/libutils/isoc/bget_malloc.c:384
    1314:	b40000a0 	cbz	x0, 1328 <free_wipe+0x14>
/home/hei/Desktop/optee-qemu/optee_os/lib/libutils/isoc/bget_malloc.c:385
    1318:	52800022 	mov	w2, #0x1                   	// #1
    131c:	f0000041 	adrp	x1, c000 <_DYNAMIC>
    1320:	910f4021 	add	x1, x1, #0x3d0
    1324:	17fffe64 	b	cb4 <brel>
free_wipe():
/home/hei/Desktop/optee-qemu/optee_os/lib/libutils/isoc/bget_malloc.c:727
    1328:	d65f03c0 	ret

000000000000132c <malloc_add_pool>:
malloc_add_pool():
/home/hei/Desktop/optee-qemu/optee_os/lib/libutils/isoc/bget_malloc.c:835
    132c:	a9bc7bfd 	stp	x29, x30, [sp, #-64]!
    1330:	910003fd 	mov	x29, sp
    1334:	a90153f3 	stp	x19, x20, [sp, #16]
gen_malloc_add_pool():
/home/hei/Desktop/optee-qemu/optee_os/lib/libutils/isoc/bget_malloc.c:735
    1338:	8b010014 	add	x20, x0, x1
/home/hei/Desktop/optee-qemu/optee_os/lib/libutils/isoc/bget_malloc.c:741
    133c:	91003c00 	add	x0, x0, #0xf
malloc_add_pool():
/home/hei/Desktop/optee-qemu/optee_os/lib/libutils/isoc/bget_malloc.c:835
    1340:	a9025bf5 	stp	x21, x22, [sp, #32]
gen_malloc_add_pool():
/home/hei/Desktop/optee-qemu/optee_os/lib/libutils/isoc/bget_malloc.c:742
    1344:	927cee94 	and	x20, x20, #0xfffffffffffffff0
/home/hei/Desktop/optee-qemu/optee_os/lib/libutils/isoc/bget_malloc.c:741
    1348:	927cec16 	and	x22, x0, #0xfffffffffffffff0
malloc_add_pool():
/home/hei/Desktop/optee-qemu/optee_os/lib/libutils/isoc/bget_malloc.c:835
    134c:	a90363f7 	stp	x23, x24, [sp, #48]
gen_malloc_add_pool():
/home/hei/Desktop/optee-qemu/optee_os/lib/libutils/isoc/bget_malloc.c:743
    1350:	eb1402df 	cmp	x22, x20
    1354:	54000163 	b.cc	1380 <malloc_add_pool+0x54>  // b.lo, b.ul, b.last
    1358:	b0000043 	adrp	x3, a000 <__text_end+0x1324>
    135c:	913b3c63 	add	x3, x3, #0xecf
    1360:	d0000041 	adrp	x1, b000 <__func__.3755+0xec>
    1364:	d0000040 	adrp	x0, b000 <__func__.3755+0xec>
    1368:	91008c63 	add	x3, x3, #0x23
    136c:	91067421 	add	x1, x1, #0x19d
    1370:	9106f400 	add	x0, x0, #0x1bd
    1374:	52805ce2 	mov	w2, #0x2e7                 	// #743
/home/hei/Desktop/optee-qemu/optee_os/lib/libutils/isoc/bget_malloc.c:756
    1378:	9400046a 	bl	2520 <_assert_log>
    137c:	9400047a 	bl	2564 <_assert_break>
/home/hei/Desktop/optee-qemu/optee_os/lib/libutils/isoc/bget_malloc.c:745
    1380:	cb160294 	sub	x20, x20, x22
    1384:	f100be9f 	cmp	x20, #0x2f
    1388:	540001c8 	b.hi	13c0 <malloc_add_pool+0x94>  // b.pmore
malloc_add_pool():
/home/hei/Desktop/optee-qemu/optee_os/lib/libutils/isoc/bget_malloc.c:837
    138c:	a94153f3 	ldp	x19, x20, [sp, #16]
gen_malloc_add_pool():
/home/hei/Desktop/optee-qemu/optee_os/lib/libutils/isoc/bget_malloc.c:746
    1390:	b0000040 	adrp	x0, a000 <__text_end+0x1324>
malloc_add_pool():
/home/hei/Desktop/optee-qemu/optee_os/lib/libutils/isoc/bget_malloc.c:837
    1394:	a9425bf5 	ldp	x21, x22, [sp, #32]
gen_malloc_add_pool():
/home/hei/Desktop/optee-qemu/optee_os/lib/libutils/isoc/bget_malloc.c:746
    1398:	913b3c00 	add	x0, x0, #0xecf
malloc_add_pool():
/home/hei/Desktop/optee-qemu/optee_os/lib/libutils/isoc/bget_malloc.c:837
    139c:	a94363f7 	ldp	x23, x24, [sp, #48]
gen_malloc_add_pool():
/home/hei/Desktop/optee-qemu/optee_os/lib/libutils/isoc/bget_malloc.c:746
    13a0:	d0000044 	adrp	x4, b000 <__func__.3755+0xec>
malloc_add_pool():
/home/hei/Desktop/optee-qemu/optee_os/lib/libutils/isoc/bget_malloc.c:837
    13a4:	a8c47bfd 	ldp	x29, x30, [sp], #64
gen_malloc_add_pool():
/home/hei/Desktop/optee-qemu/optee_os/lib/libutils/isoc/bget_malloc.c:746
    13a8:	91072484 	add	x4, x4, #0x1c9
    13ac:	52800023 	mov	w3, #0x1                   	// #1
    13b0:	52800062 	mov	w2, #0x3                   	// #3
    13b4:	52805d41 	mov	w1, #0x2ea                 	// #746
    13b8:	91008c00 	add	x0, x0, #0x23
    13bc:	17fffd23 	b	848 <trace_printf>
/home/hei/Desktop/optee-qemu/optee_os/lib/libutils/isoc/bget_malloc.c:753
    13c0:	f0000053 	adrp	x19, c000 <_DYNAMIC>
    13c4:	910f4278 	add	x24, x19, #0x3d0
    13c8:	aa1803e2 	mov	x2, x24
    13cc:	aa1403e1 	mov	x1, x20
    13d0:	aa1603e0 	mov	x0, x22
    13d4:	97ffff1a 	bl	103c <bpool>
/home/hei/Desktop/optee-qemu/optee_os/lib/libutils/isoc/bget_malloc.c:754
    13d8:	f9402317 	ldr	x23, [x24, #64]
    13dc:	910006f7 	add	x23, x23, #0x1
/home/hei/Desktop/optee-qemu/optee_os/lib/libutils/isoc/bget_malloc.c:755
    13e0:	d37ceef5 	lsl	x21, x23, #4
raw_realloc():
/home/hei/Desktop/optee-qemu/optee_os/lib/libutils/isoc/bget_malloc.c:422
    13e4:	b7f80295 	tbnz	x21, #63, 1434 <malloc_add_pool+0x108>
/home/hei/Desktop/optee-qemu/optee_os/lib/libutils/isoc/bget_malloc.c:433
    13e8:	f9401f00 	ldr	x0, [x24, #56]
/home/hei/Desktop/optee-qemu/optee_os/lib/libutils/isoc/bget_malloc.c:431
    13ec:	f10002bf 	cmp	x21, #0x0
/home/hei/Desktop/optee-qemu/optee_os/lib/libutils/isoc/bget_malloc.c:433
    13f0:	aa1803e2 	mov	x2, x24
    13f4:	9a9f16a1 	csinc	x1, x21, xzr, ne  // ne = any
    13f8:	97fffede 	bl	f70 <bgetr>
    13fc:	aa0003e6 	mov	x6, x0
/home/hei/Desktop/optee-qemu/optee_os/lib/libutils/isoc/bget_malloc.c:435
    1400:	aa1503e1 	mov	x1, x21
    1404:	aa0603e0 	mov	x0, x6
    1408:	97fffd87 	bl	a24 <raw_malloc_return_hook.constprop.21>
gen_malloc_add_pool():
/home/hei/Desktop/optee-qemu/optee_os/lib/libutils/isoc/bget_malloc.c:756
    140c:	b5000186 	cbnz	x6, 143c <malloc_add_pool+0x110>
    1410:	b0000043 	adrp	x3, a000 <__text_end+0x1324>
    1414:	913b3c63 	add	x3, x3, #0xecf
    1418:	d0000041 	adrp	x1, b000 <__func__.3755+0xec>
    141c:	b0000040 	adrp	x0, a000 <__text_end+0x1324>
    1420:	91008c63 	add	x3, x3, #0x23
    1424:	52805e82 	mov	w2, #0x2f4                 	// #756
    1428:	91067421 	add	x1, x1, #0x19d
    142c:	912f5000 	add	x0, x0, #0xbd4
    1430:	17ffffd2 	b	1378 <malloc_add_pool+0x4c>
raw_realloc():
/home/hei/Desktop/optee-qemu/optee_os/lib/libutils/isoc/bget_malloc.c:418
    1434:	d2800006 	mov	x6, #0x0                   	// #0
    1438:	17fffff2 	b	1400 <malloc_add_pool+0xd4>
gen_malloc_add_pool():
/home/hei/Desktop/optee-qemu/optee_os/lib/libutils/isoc/bget_malloc.c:757
    143c:	910f4260 	add	x0, x19, #0x3d0
/home/hei/Desktop/optee-qemu/optee_os/lib/libutils/isoc/bget_malloc.c:758
    1440:	f9402001 	ldr	x1, [x0, #64]
/home/hei/Desktop/optee-qemu/optee_os/lib/libutils/isoc/bget_malloc.c:757
    1444:	f9001c06 	str	x6, [x0, #56]
/home/hei/Desktop/optee-qemu/optee_os/lib/libutils/isoc/bget_malloc.c:758
    1448:	d37cec21 	lsl	x1, x1, #4
    144c:	8b0100c2 	add	x2, x6, x1
    1450:	f82168d6 	str	x22, [x6, x1]
/home/hei/Desktop/optee-qemu/optee_os/lib/libutils/isoc/bget_malloc.c:761
    1454:	b9407001 	ldr	w1, [x0, #112]
malloc_add_pool():
/home/hei/Desktop/optee-qemu/optee_os/lib/libutils/isoc/bget_malloc.c:837
    1458:	a9425bf5 	ldp	x21, x22, [sp, #32]
gen_malloc_add_pool():
/home/hei/Desktop/optee-qemu/optee_os/lib/libutils/isoc/bget_malloc.c:759
    145c:	f9000454 	str	x20, [x2, #8]
/home/hei/Desktop/optee-qemu/optee_os/lib/libutils/isoc/bget_malloc.c:761
    1460:	0b140034 	add	w20, w1, w20
/home/hei/Desktop/optee-qemu/optee_os/lib/libutils/isoc/bget_malloc.c:763
    1464:	f9002017 	str	x23, [x0, #64]
/home/hei/Desktop/optee-qemu/optee_os/lib/libutils/isoc/bget_malloc.c:761
    1468:	b9007014 	str	w20, [x0, #112]
malloc_add_pool():
/home/hei/Desktop/optee-qemu/optee_os/lib/libutils/isoc/bget_malloc.c:837
    146c:	a94153f3 	ldp	x19, x20, [sp, #16]
    1470:	a94363f7 	ldp	x23, x24, [sp, #48]
    1474:	a8c47bfd 	ldp	x29, x30, [sp], #64
    1478:	d65f03c0 	ret

000000000000147c <malloc_buffer_is_within_alloced>:
gen_malloc_buffer_is_within_alloced():
/home/hei/Desktop/optee-qemu/optee_os/lib/libutils/isoc/bget_malloc.c:773
    147c:	8b010001 	add	x1, x0, x1
/home/hei/Desktop/optee-qemu/optee_os/lib/libutils/isoc/bget_malloc.c:780
    1480:	eb01001f 	cmp	x0, x1
    1484:	54000b88 	b.hi	15f4 <malloc_buffer_is_within_alloced+0x178>  // b.pmore
    1488:	aa0003e4 	mov	x4, x0
/home/hei/Desktop/optee-qemu/optee_os/lib/libutils/isoc/bget_malloc.c:783
    148c:	f0000040 	adrp	x0, c000 <_DYNAMIC>
    1490:	910f4000 	add	x0, x0, #0x3d0
bpool_foreach_iterator_init():
/home/hei/Desktop/optee-qemu/optee_os/lib/libutils/isoc/bget_malloc.c:288
    1494:	d2800005 	mov	x5, #0x0                   	// #0
bpool_foreach_pool():
/home/hei/Desktop/optee-qemu/optee_os/lib/libutils/isoc/bget_malloc.c:298
    1498:	d2f0000a 	mov	x10, #0x8000000000000000    	// #-9223372036854775808
    149c:	928001eb 	mov	x11, #0xfffffffffffffff0    	// #-16
bpool_foreach():
/home/hei/Desktop/optee-qemu/optee_os/lib/libutils/isoc/bget_malloc.c:335
    14a0:	a943a406 	ldp	x6, x9, [x0, #56]
bpool_foreach_iterator_init():
/home/hei/Desktop/optee-qemu/optee_os/lib/libutils/isoc/bget_malloc.c:289
    14a4:	f94000c3 	ldr	x3, [x6]
/home/hei/Desktop/optee-qemu/optee_os/lib/libutils/isoc/bget_malloc.c:288
    14a8:	aa0303e0 	mov	x0, x3
bpool_foreach_pool():
/home/hei/Desktop/optee-qemu/optee_os/lib/libutils/isoc/bget_malloc.c:296
    14ac:	f9400462 	ldr	x2, [x3, #8]
/home/hei/Desktop/optee-qemu/optee_os/lib/libutils/isoc/bget_malloc.c:298
    14b0:	eb0a005f 	cmp	x2, x10
    14b4:	540009a0 	b.eq	15e8 <malloc_buffer_is_within_alloced+0x16c>  // b.none
malloc_buffer_is_within_alloced():
/home/hei/Desktop/optee-qemu/optee_os/lib/libutils/isoc/bget_malloc.c:840
    14b8:	a9bf7bfd 	stp	x29, x30, [sp, #-16]!
    14bc:	910003fd 	mov	x29, sp
    14c0:	1400000d 	b	14f4 <malloc_buffer_is_within_alloced+0x78>
bpool_foreach_pool():
/home/hei/Desktop/optee-qemu/optee_os/lib/libutils/isoc/bget_malloc.c:315
    14c4:	91004000 	add	x0, x0, #0x10
gen_malloc_buffer_is_within_alloced():
/home/hei/Desktop/optee-qemu/optee_os/lib/libutils/isoc/bget_malloc.c:789
    14c8:	8b020002 	add	x2, x0, x2
/home/hei/Desktop/optee-qemu/optee_os/lib/libutils/isoc/bget_malloc.c:791
    14cc:	eb02003f 	cmp	x1, x2
    14d0:	1a9f87e2 	cset	w2, ls  // ls = plast
    14d4:	eb00009f 	cmp	x4, x0
    14d8:	1a9f37e0 	cset	w0, cs  // cs = hs, nlast
    14dc:	6a000040 	ands	w0, w2, w0
    14e0:	540007a1 	b.ne	15d4 <malloc_buffer_is_within_alloced+0x158>  // b.any
bpool_foreach_pool():
/home/hei/Desktop/optee-qemu/optee_os/lib/libutils/isoc/bget_malloc.c:296
    14e4:	f9400462 	ldr	x2, [x3, #8]
bpool_foreach_iterator_init():
/home/hei/Desktop/optee-qemu/optee_os/lib/libutils/isoc/bget_malloc.c:288
    14e8:	aa0303e0 	mov	x0, x3
bpool_foreach_pool():
/home/hei/Desktop/optee-qemu/optee_os/lib/libutils/isoc/bget_malloc.c:298
    14ec:	eb0a005f 	cmp	x2, x10
    14f0:	540006a0 	b.eq	15c4 <malloc_buffer_is_within_alloced+0x148>  // b.none
/home/hei/Desktop/optee-qemu/optee_os/lib/libutils/isoc/bget_malloc.c:301
    14f4:	b6f80242 	tbz	x2, #63, 153c <malloc_buffer_is_within_alloced+0xc0>
/home/hei/Desktop/optee-qemu/optee_os/lib/libutils/isoc/bget_malloc.c:303
    14f8:	cb0203e8 	neg	x8, x2
/home/hei/Desktop/optee-qemu/optee_os/lib/libutils/isoc/bget_malloc.c:305
    14fc:	52800007 	mov	w7, #0x0                   	// #0
/home/hei/Desktop/optee-qemu/optee_os/lib/libutils/isoc/bget_malloc.c:318
    1500:	8b080063 	add	x3, x3, x8
bpool_foreach():
/home/hei/Desktop/optee-qemu/optee_os/lib/libutils/isoc/bget_malloc.c:330
    1504:	35ffff07 	cbnz	w7, 14e4 <malloc_buffer_is_within_alloced+0x68>
bget_buf_size():
/home/hei/Desktop/optee-qemu/optee_os/lib/libutils/isoc/bget_malloc.c:457
    1508:	cb020162 	sub	x2, x11, x2
/home/hei/Desktop/optee-qemu/optee_os/lib/libutils/isoc/bget_malloc.c:458
    150c:	f100005f 	cmp	x2, #0x0
    1510:	54fffdac 	b.gt	14c4 <malloc_buffer_is_within_alloced+0x48>
    1514:	b0000043 	adrp	x3, a000 <__text_end+0x1324>
    1518:	913b3c63 	add	x3, x3, #0xecf
    151c:	9100dc63 	add	x3, x3, #0x37
    1520:	d0000041 	adrp	x1, b000 <__func__.3755+0xec>
    1524:	d0000040 	adrp	x0, b000 <__func__.3755+0xec>
    1528:	91067421 	add	x1, x1, #0x19d
    152c:	91053800 	add	x0, x0, #0x14e
    1530:	52803942 	mov	w2, #0x1ca                 	// #458
    1534:	940003fb 	bl	2520 <_assert_log>
    1538:	9400040b 	bl	2564 <_assert_break>
bpool_foreach_pool():
/home/hei/Desktop/optee-qemu/optee_os/lib/libutils/isoc/bget_malloc.c:311
    153c:	f9400c67 	ldr	x7, [x3, #24]
    1540:	f94008e7 	ldr	x7, [x7, #16]
    1544:	eb0300ff 	cmp	x7, x3
    1548:	54000160 	b.eq	1574 <malloc_buffer_is_within_alloced+0xf8>  // b.none
    154c:	b0000043 	adrp	x3, a000 <__text_end+0x1324>
    1550:	913b3c63 	add	x3, x3, #0xecf
    1554:	91011463 	add	x3, x3, #0x45
    1558:	d0000041 	adrp	x1, b000 <__func__.3755+0xec>
    155c:	b0000040 	adrp	x0, a000 <__text_end+0x1324>
    1560:	91067421 	add	x1, x1, #0x19d
    1564:	913de000 	add	x0, x0, #0xf78
    1568:	528026e2 	mov	w2, #0x137                 	// #311
    156c:	940003ed 	bl	2520 <_assert_log>
    1570:	940003fd 	bl	2564 <_assert_break>
/home/hei/Desktop/optee-qemu/optee_os/lib/libutils/isoc/bget_malloc.c:312
    1574:	f9400867 	ldr	x7, [x3, #16]
    1578:	f9400ce7 	ldr	x7, [x7, #24]
    157c:	eb0300ff 	cmp	x7, x3
    1580:	54000160 	b.eq	15ac <malloc_buffer_is_within_alloced+0x130>  // b.none
    1584:	b0000043 	adrp	x3, a000 <__text_end+0x1324>
    1588:	913b3c63 	add	x3, x3, #0xecf
    158c:	91011463 	add	x3, x3, #0x45
    1590:	d0000041 	adrp	x1, b000 <__func__.3755+0xec>
    1594:	b0000040 	adrp	x0, a000 <__text_end+0x1324>
    1598:	91067421 	add	x1, x1, #0x19d
    159c:	913e4c00 	add	x0, x0, #0xf93
    15a0:	52802702 	mov	w2, #0x138                 	// #312
    15a4:	940003df 	bl	2520 <_assert_log>
    15a8:	940003ef 	bl	2564 <_assert_break>
    15ac:	aa0203e8 	mov	x8, x2
/home/hei/Desktop/optee-qemu/optee_os/lib/libutils/isoc/bget_malloc.c:308
    15b0:	52800027 	mov	w7, #0x1                   	// #1
    15b4:	17ffffd3 	b	1500 <malloc_buffer_is_within_alloced+0x84>
bpool_foreach():
/home/hei/Desktop/optee-qemu/optee_os/lib/libutils/isoc/bget_malloc.c:339
    15b8:	d37ceca0 	lsl	x0, x5, #4
    15bc:	f86068c3 	ldr	x3, [x6, x0]
    15c0:	17ffffc9 	b	14e4 <malloc_buffer_is_within_alloced+0x68>
/home/hei/Desktop/optee-qemu/optee_os/lib/libutils/isoc/bget_malloc.c:335
    15c4:	910004a5 	add	x5, x5, #0x1
    15c8:	eb0900bf 	cmp	x5, x9
    15cc:	54ffff63 	b.cc	15b8 <malloc_buffer_is_within_alloced+0x13c>  // b.lo, b.ul, b.last
gen_malloc_buffer_is_within_alloced():
/home/hei/Desktop/optee-qemu/optee_os/lib/libutils/isoc/bget_malloc.c:774
    15d0:	52800000 	mov	w0, #0x0                   	// #0
malloc_buffer_is_within_alloced():
/home/hei/Desktop/optee-qemu/optee_os/lib/libutils/isoc/bget_malloc.c:842
    15d4:	a8c17bfd 	ldp	x29, x30, [sp], #16
    15d8:	d65f03c0 	ret
bpool_foreach():
/home/hei/Desktop/optee-qemu/optee_os/lib/libutils/isoc/bget_malloc.c:339
    15dc:	d37ceca0 	lsl	x0, x5, #4
    15e0:	f86068c3 	ldr	x3, [x6, x0]
    15e4:	17ffffb1 	b	14a8 <malloc_buffer_is_within_alloced+0x2c>
/home/hei/Desktop/optee-qemu/optee_os/lib/libutils/isoc/bget_malloc.c:335
    15e8:	910004a5 	add	x5, x5, #0x1
    15ec:	eb0900bf 	cmp	x5, x9
    15f0:	54ffff63 	b.cc	15dc <malloc_buffer_is_within_alloced+0x160>  // b.lo, b.ul, b.last
gen_malloc_buffer_is_within_alloced():
/home/hei/Desktop/optee-qemu/optee_os/lib/libutils/isoc/bget_malloc.c:774
    15f4:	52800000 	mov	w0, #0x0                   	// #0
malloc_buffer_is_within_alloced():
/home/hei/Desktop/optee-qemu/optee_os/lib/libutils/isoc/bget_malloc.c:842
    15f8:	d65f03c0 	ret

00000000000015fc <malloc_buffer_overlaps_heap>:
gen_malloc_buffer_overlaps_heap():
/home/hei/Desktop/optee-qemu/optee_os/lib/libutils/isoc/bget_malloc.c:814
    15fc:	f0000042 	adrp	x2, c000 <_DYNAMIC>
    1600:	910f4042 	add	x2, x2, #0x3d0
/home/hei/Desktop/optee-qemu/optee_os/lib/libutils/isoc/bget_malloc.c:807
    1604:	8b010001 	add	x1, x0, x1
/home/hei/Desktop/optee-qemu/optee_os/lib/libutils/isoc/bget_malloc.c:814
    1608:	d2800005 	mov	x5, #0x0                   	// #0
    160c:	a9439c43 	ldp	x3, x7, [x2, #56]
    1610:	eb0700bf 	cmp	x5, x7
    1614:	54000081 	b.ne	1624 <malloc_buffer_overlaps_heap+0x28>  // b.any
/home/hei/Desktop/optee-qemu/optee_os/lib/libutils/isoc/bget_malloc.c:809
    1618:	52800002 	mov	w2, #0x0                   	// #0
malloc_buffer_overlaps_heap():
/home/hei/Desktop/optee-qemu/optee_os/lib/libutils/isoc/bget_malloc.c:847
    161c:	2a0203e0 	mov	w0, w2
    1620:	d65f03c0 	ret
gen_malloc_buffer_overlaps_heap():
/home/hei/Desktop/optee-qemu/optee_os/lib/libutils/isoc/bget_malloc.c:816
    1624:	a9401066 	ldp	x6, x4, [x3]
/home/hei/Desktop/optee-qemu/optee_os/lib/libutils/isoc/bget_malloc.c:818
    1628:	eb01001f 	cmp	x0, x1
    162c:	1a9f97e2 	cset	w2, hi  // hi = pmore
/home/hei/Desktop/optee-qemu/optee_os/lib/libutils/isoc/bget_malloc.c:816
    1630:	8b0400c4 	add	x4, x6, x4
/home/hei/Desktop/optee-qemu/optee_os/lib/libutils/isoc/bget_malloc.c:818
    1634:	eb0400df 	cmp	x6, x4
    1638:	1a9f97e8 	cset	w8, hi  // hi = pmore
    163c:	2a080042 	orr	w2, w2, w8
    1640:	35fffee2 	cbnz	w2, 161c <malloc_buffer_overlaps_heap+0x20>
/home/hei/Desktop/optee-qemu/optee_os/lib/libutils/isoc/bget_malloc.c:823
    1644:	eb06003f 	cmp	x1, x6
    1648:	91004063 	add	x3, x3, #0x10
    164c:	1a9f97e2 	cset	w2, hi  // hi = pmore
    1650:	eb04001f 	cmp	x0, x4
    1654:	1a9f27e4 	cset	w4, cc  // cc = lo, ul, last
    1658:	2a040042 	orr	w2, w2, w4
    165c:	35fffe02 	cbnz	w2, 161c <malloc_buffer_overlaps_heap+0x20>
/home/hei/Desktop/optee-qemu/optee_os/lib/libutils/isoc/bget_malloc.c:814
    1660:	910004a5 	add	x5, x5, #0x1
    1664:	17ffffeb 	b	1610 <malloc_buffer_overlaps_heap+0x14>

0000000000001668 <memset>:
memset():
/home/hei/Desktop/optee-qemu/optee_os/lib/libutils/isoc/newlib/memset.c:125
    1668:	d2800003 	mov	x3, #0x0                   	// #0
    166c:	eb03005f 	cmp	x2, x3
    1670:	54000041 	b.ne	1678 <memset+0x10>  // b.any
/home/hei/Desktop/optee-qemu/optee_os/lib/libutils/isoc/newlib/memset.c:129
    1674:	d65f03c0 	ret
/home/hei/Desktop/optee-qemu/optee_os/lib/libutils/isoc/newlib/memset.c:126
    1678:	38236801 	strb	w1, [x0, x3]
    167c:	91000463 	add	x3, x3, #0x1
    1680:	17fffffb 	b	166c <memset+0x4>

0000000000001684 <__vsnprintf>:
__vsnprintf():
/home/hei/Desktop/optee-qemu/optee_os/lib/libutils/ext/snprintk.c:137
    1684:	d10403ff 	sub	sp, sp, #0x100
    1688:	aa0203e9 	mov	x9, x2
kprintf():
/home/hei/Desktop/optee-qemu/optee_os/lib/libutils/ext/snprintk.c:537
    168c:	910363ed 	add	x13, sp, #0xd8
__vsnprintf():
/home/hei/Desktop/optee-qemu/optee_os/lib/libutils/ext/snprintk.c:137
    1690:	a9037bfd 	stp	x29, x30, [sp, #48]
    1694:	9100c3fd 	add	x29, sp, #0x30
    1698:	a90987e0 	stp	x0, x1, [sp, #152]
    169c:	12001c80 	and	w0, w4, #0xff
    16a0:	a90453f3 	stp	x19, x20, [sp, #64]
    16a4:	b9401874 	ldr	w20, [x3, #24]
    16a8:	a90873fb 	stp	x27, x28, [sp, #128]
    16ac:	b900afe0 	str	w0, [sp, #172]
    16b0:	a9407073 	ldp	x19, x28, [x3]
    16b4:	a9076bf9 	stp	x25, x26, [sp, #112]
kprintf():
/home/hei/Desktop/optee-qemu/optee_os/lib/libutils/ext/snprintk.c:267
    16b8:	5280001a 	mov	w26, #0x0                   	// #0
__vsnprintf():
/home/hei/Desktop/optee-qemu/optee_os/lib/libutils/ext/snprintk.c:141
    16bc:	f9404fe0 	ldr	x0, [sp, #152]
/home/hei/Desktop/optee-qemu/optee_os/lib/libutils/ext/snprintk.c:137
    16c0:	a9055bf5 	stp	x21, x22, [sp, #80]
kprintf():
/home/hei/Desktop/optee-qemu/optee_os/lib/libutils/ext/snprintk.c:269
    16c4:	d2800016 	mov	x22, #0x0                   	// #0
__vsnprintf():
/home/hei/Desktop/optee-qemu/optee_os/lib/libutils/ext/snprintk.c:141
    16c8:	8b010019 	add	x25, x0, x1
    16cc:	aa0003fb 	mov	x27, x0
/home/hei/Desktop/optee-qemu/optee_os/lib/libutils/ext/snprintk.c:137
    16d0:	a90663f7 	stp	x23, x24, [sp, #96]
kprintf():
/home/hei/Desktop/optee-qemu/optee_os/lib/libutils/ext/snprintk.c:275
    16d4:	39400120 	ldrb	w0, [x9]
    16d8:	7100941f 	cmp	w0, #0x25
    16dc:	7a401804 	ccmp	w0, #0x0, #0x4, ne  // ne = any
    16e0:	540003c1 	b.ne	1758 <__vsnprintf+0xd4>  // b.any
/home/hei/Desktop/optee-qemu/optee_os/lib/libutils/ext/snprintk.c:279
    16e4:	34005be0 	cbz	w0, 2260 <__vsnprintf+0xbdc>
/home/hei/Desktop/optee-qemu/optee_os/lib/libutils/ext/snprintk.c:287
    16e8:	12800003 	mov	w3, #0xffffffff            	// #-1
/home/hei/Desktop/optee-qemu/optee_os/lib/libutils/ext/snprintk.c:282
    16ec:	91000529 	add	x9, x9, #0x1
    16f0:	2a1403e1 	mov	w1, w20
    16f4:	aa1303e0 	mov	x0, x19
/home/hei/Desktop/optee-qemu/optee_os/lib/libutils/ext/snprintk.c:324
    16f8:	2a0303e6 	mov	w6, w3
/home/hei/Desktop/optee-qemu/optee_os/lib/libutils/ext/snprintk.c:288
    16fc:	52800002 	mov	w2, #0x0                   	// #0
/home/hei/Desktop/optee-qemu/optee_os/lib/libutils/ext/snprintk.c:286
    1700:	52800017 	mov	w23, #0x0                   	// #0
/home/hei/Desktop/optee-qemu/optee_os/lib/libutils/ext/snprintk.c:284
    1704:	52800015 	mov	w21, #0x0                   	// #0
/home/hei/Desktop/optee-qemu/optee_os/lib/libutils/ext/snprintk.c:299
    1708:	52800407 	mov	w7, #0x20                  	// #32
/home/hei/Desktop/optee-qemu/optee_os/lib/libutils/ext/snprintk.c:290
    170c:	38401538 	ldrb	w24, [x9], #1
/home/hei/Desktop/optee-qemu/optee_os/lib/libutils/ext/snprintk.c:291
    1710:	71018f1f 	cmp	w24, #0x63
    1714:	540019e0 	b.eq	1a50 <__vsnprintf+0x3cc>  // b.none
    1718:	540007ec 	b.gt	1814 <__vsnprintf+0x190>
    171c:	7100c31f 	cmp	w24, #0x30
    1720:	540017c0 	b.eq	1a18 <__vsnprintf+0x394>  // b.none
    1724:	5400038c 	b.gt	1794 <__vsnprintf+0x110>
    1728:	7100ab1f 	cmp	w24, #0x2a
    172c:	54001100 	b.eq	194c <__vsnprintf+0x2c8>  // b.none
    1730:	5400022c 	b.gt	1774 <__vsnprintf+0xf0>
    1734:	7100831f 	cmp	w24, #0x20
    1738:	54001000 	b.eq	1938 <__vsnprintf+0x2b4>  // b.none
    173c:	71008f1f 	cmp	w24, #0x23
    1740:	54001020 	b.eq	1944 <__vsnprintf+0x2c0>  // b.none
/home/hei/Desktop/optee-qemu/optee_os/lib/libutils/ext/snprintk.c:541
    1744:	340058f8 	cbz	w24, 2260 <__vsnprintf+0xbdc>
/home/hei/Desktop/optee-qemu/optee_os/lib/libutils/ext/snprintk.c:545
    1748:	2a0103f4 	mov	w20, w1
    174c:	aa0003f3 	mov	x19, x0
    1750:	390363f8 	strb	w24, [sp, #216]
/home/hei/Desktop/optee-qemu/optee_os/lib/libutils/ext/snprintk.c:548
    1754:	140000c5 	b	1a68 <__vsnprintf+0x3e4>
/home/hei/Desktop/optee-qemu/optee_os/lib/libutils/ext/snprintk.c:276
    1758:	1100075a 	add	w26, w26, #0x1
/home/hei/Desktop/optee-qemu/optee_os/lib/libutils/ext/snprintk.c:277
    175c:	b400009b 	cbz	x27, 176c <__vsnprintf+0xe8>
    1760:	eb1b033f 	cmp	x25, x27
    1764:	54000049 	b.ls	176c <__vsnprintf+0xe8>  // b.plast
    1768:	38001760 	strb	w0, [x27], #1
/home/hei/Desktop/optee-qemu/optee_os/lib/libutils/ext/snprintk.c:275
    176c:	91000529 	add	x9, x9, #0x1
    1770:	17ffffd9 	b	16d4 <__vsnprintf+0x50>
/home/hei/Desktop/optee-qemu/optee_os/lib/libutils/ext/snprintk.c:291
    1774:	7100b71f 	cmp	w24, #0x2d
    1778:	54000f80 	b.eq	1968 <__vsnprintf+0x2e4>  // b.none
    177c:	7100bb1f 	cmp	w24, #0x2e
    1780:	540010e0 	b.eq	199c <__vsnprintf+0x318>  // b.none
    1784:	7100af1f 	cmp	w24, #0x2b
    1788:	54fffde1 	b.ne	1744 <__vsnprintf+0xc0>  // b.any
/home/hei/Desktop/optee-qemu/optee_os/lib/libutils/ext/snprintk.c:319
    178c:	2a1803e2 	mov	w2, w24
    1790:	17ffffdf 	b	170c <__vsnprintf+0x88>
/home/hei/Desktop/optee-qemu/optee_os/lib/libutils/ext/snprintk.c:291
    1794:	7101131f 	cmp	w24, #0x44
    1798:	54001840 	b.eq	1aa0 <__vsnprintf+0x41c>  // b.none
    179c:	5400018c 	b.gt	17cc <__vsnprintf+0x148>
    17a0:	7100e71f 	cmp	w24, #0x39
    17a4:	54fffd0c 	b.gt	1744 <__vsnprintf+0xc0>
/home/hei/Desktop/optee-qemu/optee_os/lib/libutils/ext/snprintk.c:344
    17a8:	52800017 	mov	w23, #0x0                   	// #0
/home/hei/Desktop/optee-qemu/optee_os/lib/libutils/ext/snprintk.c:346
    17ac:	5100c308 	sub	w8, w24, #0x30
    17b0:	52800144 	mov	w4, #0xa                   	// #10
/home/hei/Desktop/optee-qemu/optee_os/lib/libutils/ext/snprintk.c:347
    17b4:	38401538 	ldrb	w24, [x9], #1
/home/hei/Desktop/optee-qemu/optee_os/lib/libutils/ext/snprintk.c:346
    17b8:	1b0422f7 	madd	w23, w23, w4, w8
/home/hei/Desktop/optee-qemu/optee_os/lib/libutils/ext/snprintk.c:348
    17bc:	5100c304 	sub	w4, w24, #0x30
    17c0:	7100249f 	cmp	w4, #0x9
    17c4:	54ffff49 	b.ls	17ac <__vsnprintf+0x128>  // b.plast
    17c8:	17ffffd2 	b	1710 <__vsnprintf+0x8c>
/home/hei/Desktop/optee-qemu/optee_os/lib/libutils/ext/snprintk.c:291
    17cc:	7101571f 	cmp	w24, #0x55
    17d0:	54003e20 	b.eq	1f94 <__vsnprintf+0x910>  // b.none
    17d4:	7101631f 	cmp	w24, #0x58
    17d8:	540043a0 	b.eq	204c <__vsnprintf+0x9c8>  // b.none
    17dc:	71013f1f 	cmp	w24, #0x4f
    17e0:	54fffb21 	b.ne	1744 <__vsnprintf+0xc0>  // b.any
/home/hei/Desktop/optee-qemu/optee_os/lib/libutils/ext/snprintk.c:408
    17e4:	321c02b5 	orr	w21, w21, #0x10
/home/hei/Desktop/optee-qemu/optee_os/lib/libutils/ext/snprintk.c:411
    17e8:	36382675 	tbz	w21, #7, 1cb4 <__vsnprintf+0x630>
    17ec:	37f827a1 	tbnz	w1, #31, 1ce0 <__vsnprintf+0x65c>
    17f0:	91003c13 	add	x19, x0, #0xf
    17f4:	2a0103f4 	mov	w20, w1
    17f8:	927df273 	and	x19, x19, #0xfffffffffffffff8
    17fc:	f9400000 	ldr	x0, [x0]
/home/hei/Desktop/optee-qemu/optee_os/lib/libutils/ext/snprintk.c:488
    1800:	52800002 	mov	w2, #0x0                   	// #0
    1804:	3100047f 	cmn	w3, #0x1
    1808:	540016e0 	b.eq	1ae4 <__vsnprintf+0x460>  // b.none
    180c:	52800001 	mov	w1, #0x0                   	// #0
    1810:	1400024e 	b	2148 <__vsnprintf+0xac4>
/home/hei/Desktop/optee-qemu/optee_os/lib/libutils/ext/snprintk.c:291
    1814:	7101bf1f 	cmp	w24, #0x6f
    1818:	54fffe80 	b.eq	17e8 <__vsnprintf+0x164>  // b.none
    181c:	5400024c 	b.gt	1864 <__vsnprintf+0x1e0>
    1820:	7101a71f 	cmp	w24, #0x69
    1824:	54001400 	b.eq	1aa4 <__vsnprintf+0x420>  // b.none
    1828:	540000ec 	b.gt	1844 <__vsnprintf+0x1c0>
    182c:	7101931f 	cmp	w24, #0x64
    1830:	540013a0 	b.eq	1aa4 <__vsnprintf+0x420>  // b.none
    1834:	7101a31f 	cmp	w24, #0x68
    1838:	54fff861 	b.ne	1744 <__vsnprintf+0xc0>  // b.any
/home/hei/Desktop/optee-qemu/optee_os/lib/libutils/ext/snprintk.c:352
    183c:	321a02b5 	orr	w21, w21, #0x40
/home/hei/Desktop/optee-qemu/optee_os/lib/libutils/ext/snprintk.c:353
    1840:	17ffffb3 	b	170c <__vsnprintf+0x88>
/home/hei/Desktop/optee-qemu/optee_os/lib/libutils/ext/snprintk.c:291
    1844:	7101b31f 	cmp	w24, #0x6c
    1848:	54000ec0 	b.eq	1a20 <__vsnprintf+0x39c>  // b.none
    184c:	7101bb1f 	cmp	w24, #0x6e
    1850:	54001c40 	b.eq	1bd8 <__vsnprintf+0x554>  // b.none
    1854:	7101ab1f 	cmp	w24, #0x6a
    1858:	54fff761 	b.ne	1744 <__vsnprintf+0xc0>  // b.any
/home/hei/Desktop/optee-qemu/optee_os/lib/libutils/ext/snprintk.c:355
    185c:	321902b5 	orr	w21, w21, #0x80
/home/hei/Desktop/optee-qemu/optee_os/lib/libutils/ext/snprintk.c:356
    1860:	17ffffab 	b	170c <__vsnprintf+0x88>
/home/hei/Desktop/optee-qemu/optee_os/lib/libutils/ext/snprintk.c:291
    1864:	7101d31f 	cmp	w24, #0x74
    1868:	54000ec0 	b.eq	1a40 <__vsnprintf+0x3bc>  // b.none
    186c:	5400042c 	b.gt	18f0 <__vsnprintf+0x26c>
    1870:	7101c71f 	cmp	w24, #0x71
    1874:	54000de0 	b.eq	1a30 <__vsnprintf+0x3ac>  // b.none
    1878:	5400276b 	b.lt	1d64 <__vsnprintf+0x6e0>  // b.tstop
    187c:	7101cf1f 	cmp	w24, #0x73
    1880:	54fff621 	b.ne	1744 <__vsnprintf+0xc0>  // b.any
/home/hei/Desktop/optee-qemu/optee_os/lib/libutils/ext/snprintk.c:442
    1884:	37f83621 	tbnz	w1, #31, 1f48 <__vsnprintf+0x8c4>
    1888:	91003c13 	add	x19, x0, #0xf
    188c:	2a0103f4 	mov	w20, w1
    1890:	927df273 	and	x19, x19, #0xfffffffffffffff8
    1894:	f9400004 	ldr	x4, [x0]
    1898:	b5000064 	cbnz	x4, 18a4 <__vsnprintf+0x220>
/home/hei/Desktop/optee-qemu/optee_os/lib/libutils/ext/snprintk.c:444
    189c:	d0000044 	adrp	x4, b000 <__func__.3755+0xec>
    18a0:	91080c84 	add	x4, x4, #0x203
/home/hei/Desktop/optee-qemu/optee_os/lib/libutils/ext/snprintk.c:445
    18a4:	3100047f 	cmn	w3, #0x1
    18a8:	54003620 	b.eq	1f6c <__vsnprintf+0x8e8>  // b.none
/home/hei/Desktop/optee-qemu/optee_os/lib/libutils/ext/snprintk.c:451
    18ac:	93407c62 	sxtw	x2, w3
    18b0:	aa0403e0 	mov	x0, x4
    18b4:	52800001 	mov	w1, #0x0                   	// #0
    18b8:	f9005be4 	str	x4, [sp, #176]
    18bc:	b900bbe3 	str	w3, [sp, #184]
    18c0:	a90c37e9 	stp	x9, x13, [sp, #192]
    18c4:	940002af 	bl	2380 <memchr>
/home/hei/Desktop/optee-qemu/optee_os/lib/libutils/ext/snprintk.c:453
    18c8:	b940bbe3 	ldr	w3, [sp, #184]
    18cc:	f9405be4 	ldr	x4, [sp, #176]
    18d0:	a94c37e9 	ldp	x9, x13, [sp, #192]
    18d4:	b4000080 	cbz	x0, 18e4 <__vsnprintf+0x260>
/home/hei/Desktop/optee-qemu/optee_os/lib/libutils/ext/snprintk.c:454
    18d8:	cb040000 	sub	x0, x0, x4
    18dc:	6b00007f 	cmp	w3, w0
    18e0:	1a80d063 	csel	w3, w3, w0, le
/home/hei/Desktop/optee-qemu/optee_os/lib/libutils/ext/snprintk.c:285
    18e4:	52800001 	mov	w1, #0x0                   	// #0
/home/hei/Desktop/optee-qemu/optee_os/lib/libutils/ext/snprintk.c:461
    18e8:	52800002 	mov	w2, #0x0                   	// #0
    18ec:	14000148 	b	1e0c <__vsnprintf+0x788>
/home/hei/Desktop/optee-qemu/optee_os/lib/libutils/ext/snprintk.c:291
    18f0:	7101e31f 	cmp	w24, #0x78
    18f4:	54003ca0 	b.eq	2088 <__vsnprintf+0xa04>  // b.none
    18f8:	7101eb1f 	cmp	w24, #0x7a
    18fc:	54000a60 	b.eq	1a48 <__vsnprintf+0x3c4>  // b.none
    1900:	7101d71f 	cmp	w24, #0x75
    1904:	54fff201 	b.ne	1744 <__vsnprintf+0xc0>  // b.any
/home/hei/Desktop/optee-qemu/optee_os/lib/libutils/ext/snprintk.c:467
    1908:	363834b5 	tbz	w21, #7, 1f9c <__vsnprintf+0x918>
    190c:	37f835e1 	tbnz	w1, #31, 1fc8 <__vsnprintf+0x944>
    1910:	91003c13 	add	x19, x0, #0xf
    1914:	2a0103f4 	mov	w20, w1
    1918:	927df273 	and	x19, x19, #0xfffffffffffffff8
    191c:	f9400000 	ldr	x0, [x0]
/home/hei/Desktop/optee-qemu/optee_os/lib/libutils/ext/snprintk.c:482
    1920:	52800002 	mov	w2, #0x0                   	// #0
/home/hei/Desktop/optee-qemu/optee_os/lib/libutils/ext/snprintk.c:488
    1924:	3100047f 	cmn	w3, #0x1
    1928:	540041e1 	b.ne	2164 <__vsnprintf+0xae0>  // b.any
/home/hei/Desktop/optee-qemu/optee_os/lib/libutils/ext/snprintk.c:508
    192c:	910095a1 	add	x1, x13, #0x25
/home/hei/Desktop/optee-qemu/optee_os/lib/libutils/ext/snprintk.c:517
    1930:	d2800145 	mov	x5, #0xa                   	// #10
    1934:	14000216 	b	218c <__vsnprintf+0xb08>
/home/hei/Desktop/optee-qemu/optee_os/lib/libutils/ext/snprintk.c:299
    1938:	7100005f 	cmp	w2, #0x0
    193c:	1a871042 	csel	w2, w2, w7, ne  // ne = any
    1940:	17ffff73 	b	170c <__vsnprintf+0x88>
/home/hei/Desktop/optee-qemu/optee_os/lib/libutils/ext/snprintk.c:302
    1944:	320002b5 	orr	w21, w21, #0x1
/home/hei/Desktop/optee-qemu/optee_os/lib/libutils/ext/snprintk.c:303
    1948:	17ffff71 	b	170c <__vsnprintf+0x88>
/home/hei/Desktop/optee-qemu/optee_os/lib/libutils/ext/snprintk.c:311
    194c:	37f80121 	tbnz	w1, #31, 1970 <__vsnprintf+0x2ec>
    1950:	91002c05 	add	x5, x0, #0xb
    1954:	aa0003e4 	mov	x4, x0
    1958:	927df0a0 	and	x0, x5, #0xfffffffffffffff8
    195c:	b9400097 	ldr	w23, [x4]
    1960:	36ffed77 	tbz	w23, #31, 170c <__vsnprintf+0x88>
/home/hei/Desktop/optee-qemu/optee_os/lib/libutils/ext/snprintk.c:313
    1964:	4b1703f7 	neg	w23, w23
/home/hei/Desktop/optee-qemu/optee_os/lib/libutils/ext/snprintk.c:316
    1968:	321e02b5 	orr	w21, w21, #0x4
/home/hei/Desktop/optee-qemu/optee_os/lib/libutils/ext/snprintk.c:317
    196c:	17ffff68 	b	170c <__vsnprintf+0x88>
/home/hei/Desktop/optee-qemu/optee_os/lib/libutils/ext/snprintk.c:311
    1970:	11002025 	add	w5, w1, #0x8
    1974:	710000bf 	cmp	w5, #0x0
    1978:	540000cd 	b.le	1990 <__vsnprintf+0x30c>
    197c:	91002c08 	add	x8, x0, #0xb
    1980:	aa0003e4 	mov	x4, x0
    1984:	2a0503e1 	mov	w1, w5
    1988:	927df100 	and	x0, x8, #0xfffffffffffffff8
    198c:	17fffff4 	b	195c <__vsnprintf+0x2d8>
    1990:	8b21c384 	add	x4, x28, w1, sxtw
    1994:	2a0503e1 	mov	w1, w5
    1998:	17fffff1 	b	195c <__vsnprintf+0x2d8>
/home/hei/Desktop/optee-qemu/optee_os/lib/libutils/ext/snprintk.c:322
    199c:	38401538 	ldrb	w24, [x9], #1
    19a0:	7100ab1f 	cmp	w24, #0x2a
    19a4:	54000361 	b.ne	1a10 <__vsnprintf+0x38c>  // b.any
/home/hei/Desktop/optee-qemu/optee_os/lib/libutils/ext/snprintk.c:323
    19a8:	37f80141 	tbnz	w1, #31, 19d0 <__vsnprintf+0x34c>
    19ac:	91002c04 	add	x4, x0, #0xb
    19b0:	2a0103e5 	mov	w5, w1
    19b4:	927df084 	and	x4, x4, #0xfffffffffffffff8
/home/hei/Desktop/optee-qemu/optee_os/lib/libutils/ext/snprintk.c:324
    19b8:	b9400003 	ldr	w3, [x0]
    19bc:	2a0503e1 	mov	w1, w5
    19c0:	aa0403e0 	mov	x0, x4
    19c4:	7100007f 	cmp	w3, #0x0
    19c8:	1a86a063 	csel	w3, w3, w6, ge  // ge = tcont
/home/hei/Desktop/optee-qemu/optee_os/lib/libutils/ext/snprintk.c:325
    19cc:	17ffff50 	b	170c <__vsnprintf+0x88>
/home/hei/Desktop/optee-qemu/optee_os/lib/libutils/ext/snprintk.c:323
    19d0:	11002025 	add	w5, w1, #0x8
    19d4:	710000bf 	cmp	w5, #0x0
    19d8:	5400008d 	b.le	19e8 <__vsnprintf+0x364>
    19dc:	91002c04 	add	x4, x0, #0xb
    19e0:	927df084 	and	x4, x4, #0xfffffffffffffff8
    19e4:	17fffff5 	b	19b8 <__vsnprintf+0x334>
    19e8:	aa0003e4 	mov	x4, x0
    19ec:	8b21c380 	add	x0, x28, w1, sxtw
    19f0:	17fffff2 	b	19b8 <__vsnprintf+0x334>
/home/hei/Desktop/optee-qemu/optee_os/lib/libutils/ext/snprintk.c:329
    19f4:	52800145 	mov	w5, #0xa                   	// #10
/home/hei/Desktop/optee-qemu/optee_os/lib/libutils/ext/snprintk.c:330
    19f8:	38401538 	ldrb	w24, [x9], #1
/home/hei/Desktop/optee-qemu/optee_os/lib/libutils/ext/snprintk.c:329
    19fc:	1b051063 	madd	w3, w3, w5, w4
/home/hei/Desktop/optee-qemu/optee_os/lib/libutils/ext/snprintk.c:328
    1a00:	5100c304 	sub	w4, w24, #0x30
    1a04:	7100249f 	cmp	w4, #0x9
    1a08:	54ffff69 	b.ls	19f4 <__vsnprintf+0x370>  // b.plast
    1a0c:	17ffff41 	b	1710 <__vsnprintf+0x8c>
/home/hei/Desktop/optee-qemu/optee_os/lib/libutils/ext/snprintk.c:327
    1a10:	52800003 	mov	w3, #0x0                   	// #0
    1a14:	17fffffb 	b	1a00 <__vsnprintf+0x37c>
/home/hei/Desktop/optee-qemu/optee_os/lib/libutils/ext/snprintk.c:340
    1a18:	321602b5 	orr	w21, w21, #0x400
/home/hei/Desktop/optee-qemu/optee_os/lib/libutils/ext/snprintk.c:341
    1a1c:	17ffff3c 	b	170c <__vsnprintf+0x88>
/home/hei/Desktop/optee-qemu/optee_os/lib/libutils/ext/snprintk.c:358
    1a20:	39400124 	ldrb	w4, [x9]
    1a24:	7101b09f 	cmp	w4, #0x6c
    1a28:	54000081 	b.ne	1a38 <__vsnprintf+0x3b4>  // b.any
    1a2c:	91000529 	add	x9, x9, #0x1
/home/hei/Desktop/optee-qemu/optee_os/lib/libutils/ext/snprintk.c:366
    1a30:	321b02b5 	orr	w21, w21, #0x20
/home/hei/Desktop/optee-qemu/optee_os/lib/libutils/ext/snprintk.c:367
    1a34:	17ffff36 	b	170c <__vsnprintf+0x88>
/home/hei/Desktop/optee-qemu/optee_os/lib/libutils/ext/snprintk.c:362
    1a38:	321c02b5 	orr	w21, w21, #0x10
    1a3c:	17ffff34 	b	170c <__vsnprintf+0x88>
/home/hei/Desktop/optee-qemu/optee_os/lib/libutils/ext/snprintk.c:369
    1a40:	321802b5 	orr	w21, w21, #0x100
/home/hei/Desktop/optee-qemu/optee_os/lib/libutils/ext/snprintk.c:370
    1a44:	17ffff32 	b	170c <__vsnprintf+0x88>
/home/hei/Desktop/optee-qemu/optee_os/lib/libutils/ext/snprintk.c:372
    1a48:	321702b5 	orr	w21, w21, #0x200
/home/hei/Desktop/optee-qemu/optee_os/lib/libutils/ext/snprintk.c:373
    1a4c:	17ffff30 	b	170c <__vsnprintf+0x88>
/home/hei/Desktop/optee-qemu/optee_os/lib/libutils/ext/snprintk.c:375
    1a50:	37f80161 	tbnz	w1, #31, 1a7c <__vsnprintf+0x3f8>
    1a54:	91002c13 	add	x19, x0, #0xb
    1a58:	2a0103f4 	mov	w20, w1
    1a5c:	927df273 	and	x19, x19, #0xfffffffffffffff8
    1a60:	b9400000 	ldr	w0, [x0]
    1a64:	390363e0 	strb	w0, [sp, #216]
/home/hei/Desktop/optee-qemu/optee_os/lib/libutils/ext/snprintk.c:546
    1a68:	52800023 	mov	w3, #0x1                   	// #1
/home/hei/Desktop/optee-qemu/optee_os/lib/libutils/ext/snprintk.c:285
    1a6c:	52800001 	mov	w1, #0x0                   	// #0
/home/hei/Desktop/optee-qemu/optee_os/lib/libutils/ext/snprintk.c:547
    1a70:	52800002 	mov	w2, #0x0                   	// #0
/home/hei/Desktop/optee-qemu/optee_os/lib/libutils/ext/snprintk.c:544
    1a74:	910363e4 	add	x4, sp, #0xd8
    1a78:	140000e5 	b	1e0c <__vsnprintf+0x788>
/home/hei/Desktop/optee-qemu/optee_os/lib/libutils/ext/snprintk.c:375
    1a7c:	11002034 	add	w20, w1, #0x8
    1a80:	7100029f 	cmp	w20, #0x0
    1a84:	5400008d 	b.le	1a94 <__vsnprintf+0x410>
    1a88:	91002c13 	add	x19, x0, #0xb
    1a8c:	927df273 	and	x19, x19, #0xfffffffffffffff8
    1a90:	17fffff4 	b	1a60 <__vsnprintf+0x3dc>
    1a94:	aa0003f3 	mov	x19, x0
    1a98:	8b21c380 	add	x0, x28, w1, sxtw
    1a9c:	17fffff1 	b	1a60 <__vsnprintf+0x3dc>
/home/hei/Desktop/optee-qemu/optee_os/lib/libutils/ext/snprintk.c:380
    1aa0:	321c02b5 	orr	w21, w21, #0x10
/home/hei/Desktop/optee-qemu/optee_os/lib/libutils/ext/snprintk.c:384
    1aa4:	36380435 	tbz	w21, #7, 1b28 <__vsnprintf+0x4a4>
    1aa8:	37f80561 	tbnz	w1, #31, 1b54 <__vsnprintf+0x4d0>
    1aac:	91003c13 	add	x19, x0, #0xf
    1ab0:	2a0103f4 	mov	w20, w1
    1ab4:	927df273 	and	x19, x19, #0xfffffffffffffff8
    1ab8:	f9400000 	ldr	x0, [x0]
/home/hei/Desktop/optee-qemu/optee_os/lib/libutils/ext/snprintk.c:385
    1abc:	b6fff340 	tbz	x0, #63, 1924 <__vsnprintf+0x2a0>
/home/hei/Desktop/optee-qemu/optee_os/lib/libutils/ext/snprintk.c:386
    1ac0:	cb0003e0 	neg	x0, x0
/home/hei/Desktop/optee-qemu/optee_os/lib/libutils/ext/snprintk.c:389
    1ac4:	52800021 	mov	w1, #0x1                   	// #1
/home/hei/Desktop/optee-qemu/optee_os/lib/libutils/ext/snprintk.c:387
    1ac8:	528005a2 	mov	w2, #0x2d                  	// #45
/home/hei/Desktop/optee-qemu/optee_os/lib/libutils/ext/snprintk.c:488
    1acc:	3100047f 	cmn	w3, #0x1
    1ad0:	540033c1 	b.ne	2148 <__vsnprintf+0xac4>  // b.any
/home/hei/Desktop/optee-qemu/optee_os/lib/libutils/ext/snprintk.c:503
    1ad4:	7100043f 	cmp	w1, #0x1
    1ad8:	54fff2a0 	b.eq	192c <__vsnprintf+0x2a8>  // b.none
    1adc:	7100083f 	cmp	w1, #0x2
    1ae0:	54002140 	b.eq	1f08 <__vsnprintf+0x884>  // b.none
/home/hei/Desktop/optee-qemu/optee_os/lib/libutils/ext/snprintk.c:488
    1ae4:	910095a1 	add	x1, x13, #0x25
/home/hei/Desktop/optee-qemu/optee_os/lib/libutils/ext/snprintk.c:506
    1ae8:	12000805 	and	w5, w0, #0x7
    1aec:	d1000424 	sub	x4, x1, #0x1
    1af0:	1100c0a5 	add	w5, w5, #0x30
    1af4:	381ff025 	sturb	w5, [x1, #-1]
/home/hei/Desktop/optee-qemu/optee_os/lib/libutils/ext/snprintk.c:507
    1af8:	d343fc00 	lsr	x0, x0, #3
/home/hei/Desktop/optee-qemu/optee_os/lib/libutils/ext/snprintk.c:508
    1afc:	b5003380 	cbnz	x0, 216c <__vsnprintf+0xae8>
/home/hei/Desktop/optee-qemu/optee_os/lib/libutils/ext/snprintk.c:510
    1b00:	360000d5 	tbz	w21, #0, 1b18 <__vsnprintf+0x494>
    1b04:	7100c0bf 	cmp	w5, #0x30
    1b08:	54000080 	b.eq	1b18 <__vsnprintf+0x494>  // b.none
/home/hei/Desktop/optee-qemu/optee_os/lib/libutils/ext/snprintk.c:511
    1b0c:	52800600 	mov	w0, #0x30                  	// #48
    1b10:	381ff080 	sturb	w0, [x4, #-1]
    1b14:	d1000824 	sub	x4, x1, #0x2
/home/hei/Desktop/optee-qemu/optee_os/lib/libutils/ext/snprintk.c:537
    1b18:	910095a0 	add	x0, x13, #0x25
    1b1c:	2a0303e1 	mov	w1, w3
    1b20:	4b040003 	sub	w3, w0, w4
    1b24:	140000ba 	b	1e0c <__vsnprintf+0x788>
/home/hei/Desktop/optee-qemu/optee_os/lib/libutils/ext/snprintk.c:384
    1b28:	3747fc15 	tbnz	w21, #8, 1aa8 <__vsnprintf+0x424>
    1b2c:	374ffbf5 	tbnz	w21, #9, 1aa8 <__vsnprintf+0x424>
    1b30:	372ffbd5 	tbnz	w21, #5, 1aa8 <__vsnprintf+0x424>
    1b34:	3727fbb5 	tbnz	w21, #4, 1aa8 <__vsnprintf+0x424>
    1b38:	36300335 	tbz	w21, #6, 1b9c <__vsnprintf+0x518>
    1b3c:	37f801e1 	tbnz	w1, #31, 1b78 <__vsnprintf+0x4f4>
    1b40:	91002c13 	add	x19, x0, #0xb
    1b44:	2a0103f4 	mov	w20, w1
    1b48:	927df273 	and	x19, x19, #0xfffffffffffffff8
    1b4c:	79800000 	ldrsh	x0, [x0]
    1b50:	17ffffdb 	b	1abc <__vsnprintf+0x438>
    1b54:	11002034 	add	w20, w1, #0x8
    1b58:	7100029f 	cmp	w20, #0x0
    1b5c:	5400008d 	b.le	1b6c <__vsnprintf+0x4e8>
    1b60:	91003c13 	add	x19, x0, #0xf
    1b64:	927df273 	and	x19, x19, #0xfffffffffffffff8
    1b68:	17ffffd4 	b	1ab8 <__vsnprintf+0x434>
    1b6c:	aa0003f3 	mov	x19, x0
    1b70:	8b21c380 	add	x0, x28, w1, sxtw
    1b74:	17ffffd1 	b	1ab8 <__vsnprintf+0x434>
    1b78:	11002034 	add	w20, w1, #0x8
    1b7c:	7100029f 	cmp	w20, #0x0
    1b80:	5400008d 	b.le	1b90 <__vsnprintf+0x50c>
    1b84:	91002c13 	add	x19, x0, #0xb
    1b88:	927df273 	and	x19, x19, #0xfffffffffffffff8
    1b8c:	17fffff0 	b	1b4c <__vsnprintf+0x4c8>
    1b90:	aa0003f3 	mov	x19, x0
    1b94:	8b21c380 	add	x0, x28, w1, sxtw
    1b98:	17ffffed 	b	1b4c <__vsnprintf+0x4c8>
    1b9c:	37f800c1 	tbnz	w1, #31, 1bb4 <__vsnprintf+0x530>
    1ba0:	91002c13 	add	x19, x0, #0xb
    1ba4:	2a0103f4 	mov	w20, w1
    1ba8:	927df273 	and	x19, x19, #0xfffffffffffffff8
    1bac:	b9800000 	ldrsw	x0, [x0]
    1bb0:	17ffffc3 	b	1abc <__vsnprintf+0x438>
    1bb4:	11002034 	add	w20, w1, #0x8
    1bb8:	7100029f 	cmp	w20, #0x0
    1bbc:	5400008d 	b.le	1bcc <__vsnprintf+0x548>
    1bc0:	91002c13 	add	x19, x0, #0xb
    1bc4:	927df273 	and	x19, x19, #0xfffffffffffffff8
    1bc8:	17fffff9 	b	1bac <__vsnprintf+0x528>
    1bcc:	aa0003f3 	mov	x19, x0
    1bd0:	8b21c380 	add	x0, x28, w1, sxtw
    1bd4:	17fffff6 	b	1bac <__vsnprintf+0x528>
/home/hei/Desktop/optee-qemu/optee_os/lib/libutils/ext/snprintk.c:392
    1bd8:	36380135 	tbz	w21, #7, 1bfc <__vsnprintf+0x578>
/home/hei/Desktop/optee-qemu/optee_os/lib/libutils/ext/snprintk.c:401
    1bdc:	37f80281 	tbnz	w1, #31, 1c2c <__vsnprintf+0x5a8>
    1be0:	91003c13 	add	x19, x0, #0xf
    1be4:	2a0103f4 	mov	w20, w1
    1be8:	927df273 	and	x19, x19, #0xfffffffffffffff8
    1bec:	f9400000 	ldr	x0, [x0]
    1bf0:	93407f41 	sxtw	x1, w26
    1bf4:	f9000001 	str	x1, [x0]
    1bf8:	17fffeb7 	b	16d4 <__vsnprintf+0x50>
/home/hei/Desktop/optee-qemu/optee_os/lib/libutils/ext/snprintk.c:394
    1bfc:	3747ff15 	tbnz	w21, #8, 1bdc <__vsnprintf+0x558>
/home/hei/Desktop/optee-qemu/optee_os/lib/libutils/ext/snprintk.c:396
    1c00:	374ffef5 	tbnz	w21, #9, 1bdc <__vsnprintf+0x558>
/home/hei/Desktop/optee-qemu/optee_os/lib/libutils/ext/snprintk.c:398
    1c04:	372ffed5 	tbnz	w21, #5, 1bdc <__vsnprintf+0x558>
/home/hei/Desktop/optee-qemu/optee_os/lib/libutils/ext/snprintk.c:400
    1c08:	3727feb5 	tbnz	w21, #4, 1bdc <__vsnprintf+0x558>
/home/hei/Desktop/optee-qemu/optee_os/lib/libutils/ext/snprintk.c:402
    1c0c:	36300355 	tbz	w21, #6, 1c74 <__vsnprintf+0x5f0>
/home/hei/Desktop/optee-qemu/optee_os/lib/libutils/ext/snprintk.c:403
    1c10:	37f80201 	tbnz	w1, #31, 1c50 <__vsnprintf+0x5cc>
    1c14:	91003c13 	add	x19, x0, #0xf
    1c18:	2a0103f4 	mov	w20, w1
    1c1c:	927df273 	and	x19, x19, #0xfffffffffffffff8
    1c20:	f9400000 	ldr	x0, [x0]
    1c24:	7900001a 	strh	w26, [x0]
    1c28:	17fffeab 	b	16d4 <__vsnprintf+0x50>
/home/hei/Desktop/optee-qemu/optee_os/lib/libutils/ext/snprintk.c:401
    1c2c:	11002034 	add	w20, w1, #0x8
    1c30:	7100029f 	cmp	w20, #0x0
    1c34:	5400008d 	b.le	1c44 <__vsnprintf+0x5c0>
    1c38:	91003c13 	add	x19, x0, #0xf
    1c3c:	927df273 	and	x19, x19, #0xfffffffffffffff8
    1c40:	17ffffeb 	b	1bec <__vsnprintf+0x568>
    1c44:	aa0003f3 	mov	x19, x0
    1c48:	8b21c380 	add	x0, x28, w1, sxtw
    1c4c:	17ffffe8 	b	1bec <__vsnprintf+0x568>
/home/hei/Desktop/optee-qemu/optee_os/lib/libutils/ext/snprintk.c:403
    1c50:	11002034 	add	w20, w1, #0x8
    1c54:	7100029f 	cmp	w20, #0x0
    1c58:	5400008d 	b.le	1c68 <__vsnprintf+0x5e4>
    1c5c:	91003c13 	add	x19, x0, #0xf
    1c60:	927df273 	and	x19, x19, #0xfffffffffffffff8
    1c64:	17ffffef 	b	1c20 <__vsnprintf+0x59c>
    1c68:	aa0003f3 	mov	x19, x0
    1c6c:	8b21c380 	add	x0, x28, w1, sxtw
    1c70:	17ffffec 	b	1c20 <__vsnprintf+0x59c>
/home/hei/Desktop/optee-qemu/optee_os/lib/libutils/ext/snprintk.c:405
    1c74:	37f800e1 	tbnz	w1, #31, 1c90 <__vsnprintf+0x60c>
    1c78:	91003c13 	add	x19, x0, #0xf
    1c7c:	2a0103f4 	mov	w20, w1
    1c80:	927df273 	and	x19, x19, #0xfffffffffffffff8
    1c84:	f9400000 	ldr	x0, [x0]
    1c88:	b900001a 	str	w26, [x0]
    1c8c:	17fffe92 	b	16d4 <__vsnprintf+0x50>
    1c90:	11002034 	add	w20, w1, #0x8
    1c94:	7100029f 	cmp	w20, #0x0
    1c98:	5400008d 	b.le	1ca8 <__vsnprintf+0x624>
    1c9c:	91003c13 	add	x19, x0, #0xf
    1ca0:	927df273 	and	x19, x19, #0xfffffffffffffff8
    1ca4:	17fffff8 	b	1c84 <__vsnprintf+0x600>
    1ca8:	aa0003f3 	mov	x19, x0
    1cac:	8b21c380 	add	x0, x28, w1, sxtw
    1cb0:	17fffff5 	b	1c84 <__vsnprintf+0x600>
/home/hei/Desktop/optee-qemu/optee_os/lib/libutils/ext/snprintk.c:411
    1cb4:	3747d9d5 	tbnz	w21, #8, 17ec <__vsnprintf+0x168>
    1cb8:	374fd9b5 	tbnz	w21, #9, 17ec <__vsnprintf+0x168>
    1cbc:	372fd995 	tbnz	w21, #5, 17ec <__vsnprintf+0x168>
    1cc0:	3727d975 	tbnz	w21, #4, 17ec <__vsnprintf+0x168>
    1cc4:	36300335 	tbz	w21, #6, 1d28 <__vsnprintf+0x6a4>
    1cc8:	37f801e1 	tbnz	w1, #31, 1d04 <__vsnprintf+0x680>
    1ccc:	91002c13 	add	x19, x0, #0xb
    1cd0:	2a0103f4 	mov	w20, w1
    1cd4:	927df273 	and	x19, x19, #0xfffffffffffffff8
    1cd8:	79400000 	ldrh	w0, [x0]
    1cdc:	17fffec9 	b	1800 <__vsnprintf+0x17c>
    1ce0:	11002034 	add	w20, w1, #0x8
    1ce4:	7100029f 	cmp	w20, #0x0
    1ce8:	5400008d 	b.le	1cf8 <__vsnprintf+0x674>
    1cec:	91003c13 	add	x19, x0, #0xf
    1cf0:	927df273 	and	x19, x19, #0xfffffffffffffff8
    1cf4:	17fffec2 	b	17fc <__vsnprintf+0x178>
    1cf8:	aa0003f3 	mov	x19, x0
    1cfc:	8b21c380 	add	x0, x28, w1, sxtw
    1d00:	17fffebf 	b	17fc <__vsnprintf+0x178>
    1d04:	11002034 	add	w20, w1, #0x8
    1d08:	7100029f 	cmp	w20, #0x0
    1d0c:	5400008d 	b.le	1d1c <__vsnprintf+0x698>
    1d10:	91002c13 	add	x19, x0, #0xb
    1d14:	927df273 	and	x19, x19, #0xfffffffffffffff8
    1d18:	17fffff0 	b	1cd8 <__vsnprintf+0x654>
    1d1c:	aa0003f3 	mov	x19, x0
    1d20:	8b21c380 	add	x0, x28, w1, sxtw
    1d24:	17ffffed 	b	1cd8 <__vsnprintf+0x654>
    1d28:	37f800c1 	tbnz	w1, #31, 1d40 <__vsnprintf+0x6bc>
    1d2c:	91002c13 	add	x19, x0, #0xb
    1d30:	2a0103f4 	mov	w20, w1
    1d34:	927df273 	and	x19, x19, #0xfffffffffffffff8
    1d38:	b9400000 	ldr	w0, [x0]
    1d3c:	17fffeb1 	b	1800 <__vsnprintf+0x17c>
    1d40:	11002034 	add	w20, w1, #0x8
    1d44:	7100029f 	cmp	w20, #0x0
    1d48:	5400008d 	b.le	1d58 <__vsnprintf+0x6d4>
    1d4c:	91002c13 	add	x19, x0, #0xb
    1d50:	927df273 	and	x19, x19, #0xfffffffffffffff8
    1d54:	17fffff9 	b	1d38 <__vsnprintf+0x6b4>
    1d58:	aa0003f3 	mov	x19, x0
    1d5c:	8b21c380 	add	x0, x28, w1, sxtw
    1d60:	17fffff6 	b	1d38 <__vsnprintf+0x6b4>
/home/hei/Desktop/optee-qemu/optee_os/lib/libutils/ext/snprintk.c:415
    1d64:	b940afe2 	ldr	w2, [sp, #172]
    1d68:	34000b82 	cbz	w2, 1ed8 <__vsnprintf+0x854>
    1d6c:	39400122 	ldrb	w2, [x9]
    1d70:	7101545f 	cmp	w2, #0x55
    1d74:	54000b21 	b.ne	1ed8 <__vsnprintf+0x854>  // b.any
    1d78:	39400522 	ldrb	w2, [x9, #1]
    1d7c:	7101b05f 	cmp	w2, #0x6c
    1d80:	54000ac1 	b.ne	1ed8 <__vsnprintf+0x854>  // b.any
/home/hei/Desktop/optee-qemu/optee_os/lib/libutils/ext/snprintk.c:420
    1d84:	91000929 	add	x9, x9, #0x2
/home/hei/Desktop/optee-qemu/optee_os/lib/libutils/ext/snprintk.c:421
    1d88:	37f80961 	tbnz	w1, #31, 1eb4 <__vsnprintf+0x830>
    1d8c:	91003c13 	add	x19, x0, #0xf
    1d90:	2a0103f4 	mov	w20, w1
    1d94:	927df273 	and	x19, x19, #0xfffffffffffffff8
    1d98:	f9400000 	ldr	x0, [x0]
uuid2str():
/home/hei/Desktop/optee-qemu/optee_os/lib/libutils/ext/snprintk.c:223
    1d9c:	d0000042 	adrp	x2, b000 <__func__.3755+0xec>
    1da0:	91082842 	add	x2, x2, #0x20a
    1da4:	a90b27ed 	stp	x13, x9, [sp, #176]
    1da8:	39403c01 	ldrb	w1, [x0, #15]
    1dac:	79400804 	ldrh	w4, [x0, #4]
    1db0:	39402407 	ldrb	w7, [x0, #9]
    1db4:	39402006 	ldrb	w6, [x0, #8]
    1db8:	79400c05 	ldrh	w5, [x0, #6]
    1dbc:	b9002be1 	str	w1, [sp, #40]
    1dc0:	39403801 	ldrb	w1, [x0, #14]
    1dc4:	b90023e1 	str	w1, [sp, #32]
    1dc8:	39403401 	ldrb	w1, [x0, #13]
    1dcc:	b9001be1 	str	w1, [sp, #24]
    1dd0:	39403001 	ldrb	w1, [x0, #12]
    1dd4:	b90013e1 	str	w1, [sp, #16]
    1dd8:	39402c01 	ldrb	w1, [x0, #11]
    1ddc:	b9000be1 	str	w1, [sp, #8]
    1de0:	39402801 	ldrb	w1, [x0, #10]
    1de4:	b90003e1 	str	w1, [sp]
    1de8:	d28004a1 	mov	x1, #0x25                  	// #37
    1dec:	b9400003 	ldr	w3, [x0]
    1df0:	aa0d03e0 	mov	x0, x13
    1df4:	94000146 	bl	230c <snprintk>
    1df8:	2a0003e3 	mov	w3, w0
kprintf():
/home/hei/Desktop/optee-qemu/optee_os/lib/libutils/ext/snprintk.c:425
    1dfc:	a94b27ed 	ldp	x13, x9, [sp, #176]
/home/hei/Desktop/optee-qemu/optee_os/lib/libutils/ext/snprintk.c:285
    1e00:	52800001 	mov	w1, #0x0                   	// #0
/home/hei/Desktop/optee-qemu/optee_os/lib/libutils/ext/snprintk.c:424
    1e04:	52800002 	mov	w2, #0x0                   	// #0
/home/hei/Desktop/optee-qemu/optee_os/lib/libutils/ext/snprintk.c:423
    1e08:	aa0d03e4 	mov	x4, x13
/home/hei/Desktop/optee-qemu/optee_os/lib/libutils/ext/snprintk.c:565
    1e0c:	6b03003f 	cmp	w1, w3
    1e10:	1a83a020 	csel	w0, w1, w3, ge  // ge = tcont
/home/hei/Desktop/optee-qemu/optee_os/lib/libutils/ext/snprintk.c:566
    1e14:	34001c82 	cbz	w2, 21a4 <__vsnprintf+0xb20>
/home/hei/Desktop/optee-qemu/optee_os/lib/libutils/ext/snprintk.c:567
    1e18:	11000400 	add	w0, w0, #0x1
/home/hei/Desktop/optee-qemu/optee_os/lib/libutils/ext/snprintk.c:572
    1e1c:	6b17001f 	cmp	w0, w23
    1e20:	1a97a005 	csel	w5, w0, w23, ge  // ge = tcont
    1e24:	0b05035a 	add	w26, w26, w5
/home/hei/Desktop/optee-qemu/optee_os/lib/libutils/ext/snprintk.c:575
    1e28:	52808085 	mov	w5, #0x404                 	// #1028
    1e2c:	6a0502a5 	ands	w5, w21, w5
    1e30:	540000a1 	b.ne	1e44 <__vsnprintf+0x7c0>  // b.any
/home/hei/Desktop/optee-qemu/optee_os/lib/libutils/ext/snprintk.c:576
    1e34:	4b0002e6 	sub	w6, w23, w0
/home/hei/Desktop/optee-qemu/optee_os/lib/libutils/ext/snprintk.c:578
    1e38:	52800407 	mov	w7, #0x20                  	// #32
/home/hei/Desktop/optee-qemu/optee_os/lib/libutils/ext/snprintk.c:577
    1e3c:	710000df 	cmp	w6, #0x0
    1e40:	54001b8c 	b.gt	21b0 <__vsnprintf+0xb2c>
/home/hei/Desktop/optee-qemu/optee_os/lib/libutils/ext/snprintk.c:582
    1e44:	34001ca2 	cbz	w2, 21d8 <__vsnprintf+0xb54>
/home/hei/Desktop/optee-qemu/optee_os/lib/libutils/ext/snprintk.c:583
    1e48:	b5001c1b 	cbnz	x27, 21c8 <__vsnprintf+0xb44>
/home/hei/Desktop/optee-qemu/optee_os/lib/libutils/ext/snprintk.c:586
    1e4c:	d280001b 	mov	x27, #0x0                   	// #0
/home/hei/Desktop/optee-qemu/optee_os/lib/libutils/ext/snprintk.c:590
    1e50:	711000bf 	cmp	w5, #0x400
    1e54:	540000a1 	b.ne	1e68 <__vsnprintf+0x7e4>  // b.any
/home/hei/Desktop/optee-qemu/optee_os/lib/libutils/ext/snprintk.c:591
    1e58:	4b0002e2 	sub	w2, w23, w0
/home/hei/Desktop/optee-qemu/optee_os/lib/libutils/ext/snprintk.c:593
    1e5c:	52800605 	mov	w5, #0x30                  	// #48
/home/hei/Desktop/optee-qemu/optee_os/lib/libutils/ext/snprintk.c:592
    1e60:	7100005f 	cmp	w2, #0x0
    1e64:	54001d8c 	b.gt	2214 <__vsnprintf+0xb90>
/home/hei/Desktop/optee-qemu/optee_os/lib/libutils/ext/snprintk.c:597
    1e68:	4b030021 	sub	w1, w1, w3
/home/hei/Desktop/optee-qemu/optee_os/lib/libutils/ext/snprintk.c:599
    1e6c:	52800602 	mov	w2, #0x30                  	// #48
/home/hei/Desktop/optee-qemu/optee_os/lib/libutils/ext/snprintk.c:598
    1e70:	7100003f 	cmp	w1, #0x0
    1e74:	54001dcc 	b.gt	222c <__vsnprintf+0xba8>
    1e78:	2a0303e3 	mov	w3, w3
    1e7c:	d2800001 	mov	x1, #0x0                   	// #0
/home/hei/Desktop/optee-qemu/optee_os/lib/libutils/ext/snprintk.c:602
    1e80:	eb01007f 	cmp	x3, x1
    1e84:	54001e01 	b.ne	2244 <__vsnprintf+0xbc0>  // b.any
/home/hei/Desktop/optee-qemu/optee_os/lib/libutils/ext/snprintk.c:605
    1e88:	3617c275 	tbz	w21, #2, 16d4 <__vsnprintf+0x50>
/home/hei/Desktop/optee-qemu/optee_os/lib/libutils/ext/snprintk.c:606
    1e8c:	4b0002eb 	sub	w11, w23, w0
/home/hei/Desktop/optee-qemu/optee_os/lib/libutils/ext/snprintk.c:608
    1e90:	52800400 	mov	w0, #0x20                  	// #32
/home/hei/Desktop/optee-qemu/optee_os/lib/libutils/ext/snprintk.c:607
    1e94:	7100017f 	cmp	w11, #0x0
    1e98:	54ffc1ed 	b.le	16d4 <__vsnprintf+0x50>
/home/hei/Desktop/optee-qemu/optee_os/lib/libutils/ext/snprintk.c:608
    1e9c:	b400009b 	cbz	x27, 1eac <__vsnprintf+0x828>
    1ea0:	eb1b033f 	cmp	x25, x27
    1ea4:	54000049 	b.ls	1eac <__vsnprintf+0x828>  // b.plast
    1ea8:	38001760 	strb	w0, [x27], #1
    1eac:	5100056b 	sub	w11, w11, #0x1
    1eb0:	17fffff9 	b	1e94 <__vsnprintf+0x810>
/home/hei/Desktop/optee-qemu/optee_os/lib/libutils/ext/snprintk.c:421
    1eb4:	11002034 	add	w20, w1, #0x8
    1eb8:	7100029f 	cmp	w20, #0x0
    1ebc:	5400008d 	b.le	1ecc <__vsnprintf+0x848>
    1ec0:	91003c13 	add	x19, x0, #0xf
    1ec4:	927df273 	and	x19, x19, #0xfffffffffffffff8
    1ec8:	17ffffb4 	b	1d98 <__vsnprintf+0x714>
    1ecc:	aa0003f3 	mov	x19, x0
    1ed0:	8b21c380 	add	x0, x28, w1, sxtw
    1ed4:	17ffffb1 	b	1d98 <__vsnprintf+0x714>
/home/hei/Desktop/optee-qemu/optee_os/lib/libutils/ext/snprintk.c:435
    1ed8:	37f80261 	tbnz	w1, #31, 1f24 <__vsnprintf+0x8a0>
    1edc:	91003c13 	add	x19, x0, #0xf
    1ee0:	2a0103f4 	mov	w20, w1
    1ee4:	927df273 	and	x19, x19, #0xfffffffffffffff8
    1ee8:	f9400000 	ldr	x0, [x0]
/home/hei/Desktop/optee-qemu/optee_os/lib/libutils/ext/snprintk.c:437
    1eec:	d0000056 	adrp	x22, b000 <__func__.3755+0xec>
/home/hei/Desktop/optee-qemu/optee_os/lib/libutils/ext/snprintk.c:438
    1ef0:	321f02b5 	orr	w21, w21, #0x2
/home/hei/Desktop/optee-qemu/optee_os/lib/libutils/ext/snprintk.c:437
    1ef4:	910786d6 	add	x22, x22, #0x1e1
/home/hei/Desktop/optee-qemu/optee_os/lib/libutils/ext/snprintk.c:439
    1ef8:	52800f18 	mov	w24, #0x78                  	// #120
/home/hei/Desktop/optee-qemu/optee_os/lib/libutils/ext/snprintk.c:488
    1efc:	52800002 	mov	w2, #0x0                   	// #0
    1f00:	3100047f 	cmn	w3, #0x1
    1f04:	54001201 	b.ne	2144 <__vsnprintf+0xac0>  // b.any
    1f08:	910095a4 	add	x4, x13, #0x25
/home/hei/Desktop/optee-qemu/optee_os/lib/libutils/ext/snprintk.c:525
    1f0c:	92400c01 	and	x1, x0, #0xf
/home/hei/Desktop/optee-qemu/optee_os/lib/libutils/ext/snprintk.c:526
    1f10:	d344fc00 	lsr	x0, x0, #4
/home/hei/Desktop/optee-qemu/optee_os/lib/libutils/ext/snprintk.c:525
    1f14:	38616ac1 	ldrb	w1, [x22, x1]
    1f18:	381ffc81 	strb	w1, [x4, #-1]!
/home/hei/Desktop/optee-qemu/optee_os/lib/libutils/ext/snprintk.c:527
    1f1c:	b5ffff80 	cbnz	x0, 1f0c <__vsnprintf+0x888>
    1f20:	17fffefe 	b	1b18 <__vsnprintf+0x494>
/home/hei/Desktop/optee-qemu/optee_os/lib/libutils/ext/snprintk.c:435
    1f24:	11002034 	add	w20, w1, #0x8
    1f28:	7100029f 	cmp	w20, #0x0
    1f2c:	5400008d 	b.le	1f3c <__vsnprintf+0x8b8>
    1f30:	91003c13 	add	x19, x0, #0xf
    1f34:	927df273 	and	x19, x19, #0xfffffffffffffff8
    1f38:	17ffffec 	b	1ee8 <__vsnprintf+0x864>
    1f3c:	aa0003f3 	mov	x19, x0
    1f40:	8b21c380 	add	x0, x28, w1, sxtw
    1f44:	17ffffe9 	b	1ee8 <__vsnprintf+0x864>
/home/hei/Desktop/optee-qemu/optee_os/lib/libutils/ext/snprintk.c:442
    1f48:	11002034 	add	w20, w1, #0x8
    1f4c:	7100029f 	cmp	w20, #0x0
    1f50:	5400008d 	b.le	1f60 <__vsnprintf+0x8dc>
    1f54:	91003c13 	add	x19, x0, #0xf
    1f58:	927df273 	and	x19, x19, #0xfffffffffffffff8
    1f5c:	17fffe4e 	b	1894 <__vsnprintf+0x210>
    1f60:	aa0003f3 	mov	x19, x0
    1f64:	8b21c380 	add	x0, x28, w1, sxtw
    1f68:	17fffe4b 	b	1894 <__vsnprintf+0x210>
/home/hei/Desktop/optee-qemu/optee_os/lib/libutils/ext/snprintk.c:460
    1f6c:	aa0403e0 	mov	x0, x4
    1f70:	a90b27e4 	stp	x4, x9, [sp, #176]
    1f74:	f90063ed 	str	x13, [sp, #192]
    1f78:	97fff975 	bl	54c <strlen>
/home/hei/Desktop/optee-qemu/optee_os/lib/libutils/ext/snprintk.c:285
    1f7c:	52800001 	mov	w1, #0x0                   	// #0
/home/hei/Desktop/optee-qemu/optee_os/lib/libutils/ext/snprintk.c:460
    1f80:	2a0003e3 	mov	w3, w0
/home/hei/Desktop/optee-qemu/optee_os/lib/libutils/ext/snprintk.c:461
    1f84:	52800002 	mov	w2, #0x0                   	// #0
    1f88:	a94b27e4 	ldp	x4, x9, [sp, #176]
    1f8c:	f94063ed 	ldr	x13, [sp, #192]
    1f90:	17ffff9f 	b	1e0c <__vsnprintf+0x788>
/home/hei/Desktop/optee-qemu/optee_os/lib/libutils/ext/snprintk.c:464
    1f94:	321c02b5 	orr	w21, w21, #0x10
    1f98:	17fffe5c 	b	1908 <__vsnprintf+0x284>
/home/hei/Desktop/optee-qemu/optee_os/lib/libutils/ext/snprintk.c:467
    1f9c:	3747cb95 	tbnz	w21, #8, 190c <__vsnprintf+0x288>
    1fa0:	374fcb75 	tbnz	w21, #9, 190c <__vsnprintf+0x288>
    1fa4:	372fcb55 	tbnz	w21, #5, 190c <__vsnprintf+0x288>
    1fa8:	3727cb35 	tbnz	w21, #4, 190c <__vsnprintf+0x288>
    1fac:	36300335 	tbz	w21, #6, 2010 <__vsnprintf+0x98c>
    1fb0:	37f801e1 	tbnz	w1, #31, 1fec <__vsnprintf+0x968>
    1fb4:	91002c13 	add	x19, x0, #0xb
    1fb8:	2a0103f4 	mov	w20, w1
    1fbc:	927df273 	and	x19, x19, #0xfffffffffffffff8
    1fc0:	79400000 	ldrh	w0, [x0]
    1fc4:	17fffe57 	b	1920 <__vsnprintf+0x29c>
    1fc8:	11002034 	add	w20, w1, #0x8
    1fcc:	7100029f 	cmp	w20, #0x0
    1fd0:	5400008d 	b.le	1fe0 <__vsnprintf+0x95c>
    1fd4:	91003c13 	add	x19, x0, #0xf
    1fd8:	927df273 	and	x19, x19, #0xfffffffffffffff8
    1fdc:	17fffe50 	b	191c <__vsnprintf+0x298>
    1fe0:	aa0003f3 	mov	x19, x0
    1fe4:	8b21c380 	add	x0, x28, w1, sxtw
    1fe8:	17fffe4d 	b	191c <__vsnprintf+0x298>
    1fec:	11002034 	add	w20, w1, #0x8
    1ff0:	7100029f 	cmp	w20, #0x0
    1ff4:	5400008d 	b.le	2004 <__vsnprintf+0x980>
    1ff8:	91002c13 	add	x19, x0, #0xb
    1ffc:	927df273 	and	x19, x19, #0xfffffffffffffff8
    2000:	17fffff0 	b	1fc0 <__vsnprintf+0x93c>
    2004:	aa0003f3 	mov	x19, x0
    2008:	8b21c380 	add	x0, x28, w1, sxtw
    200c:	17ffffed 	b	1fc0 <__vsnprintf+0x93c>
    2010:	37f800c1 	tbnz	w1, #31, 2028 <__vsnprintf+0x9a4>
    2014:	91002c13 	add	x19, x0, #0xb
    2018:	2a0103f4 	mov	w20, w1
    201c:	927df273 	and	x19, x19, #0xfffffffffffffff8
    2020:	b9400000 	ldr	w0, [x0]
    2024:	17fffe3f 	b	1920 <__vsnprintf+0x29c>
    2028:	11002034 	add	w20, w1, #0x8
    202c:	7100029f 	cmp	w20, #0x0
    2030:	5400008d 	b.le	2040 <__vsnprintf+0x9bc>
    2034:	91002c13 	add	x19, x0, #0xb
    2038:	927df273 	and	x19, x19, #0xfffffffffffffff8
    203c:	17fffff9 	b	2020 <__vsnprintf+0x99c>
    2040:	aa0003f3 	mov	x19, x0
    2044:	8b21c380 	add	x0, x28, w1, sxtw
    2048:	17fffff6 	b	2020 <__vsnprintf+0x99c>
/home/hei/Desktop/optee-qemu/optee_os/lib/libutils/ext/snprintk.c:471
    204c:	b0000056 	adrp	x22, b000 <__func__.3755+0xec>
    2050:	910786d6 	add	x22, x22, #0x1e1
    2054:	910046d6 	add	x22, x22, #0x11
/home/hei/Desktop/optee-qemu/optee_os/lib/libutils/ext/snprintk.c:475
    2058:	363801f5 	tbz	w21, #7, 2094 <__vsnprintf+0xa10>
    205c:	37f80321 	tbnz	w1, #31, 20c0 <__vsnprintf+0xa3c>
    2060:	91003c13 	add	x19, x0, #0xf
    2064:	2a0103f4 	mov	w20, w1
    2068:	927df273 	and	x19, x19, #0xfffffffffffffff8
    206c:	f9400000 	ldr	x0, [x0]
/home/hei/Desktop/optee-qemu/optee_os/lib/libutils/ext/snprintk.c:478
    2070:	3607f475 	tbz	w21, #0, 1efc <__vsnprintf+0x878>
    2074:	b4fff440 	cbz	x0, 1efc <__vsnprintf+0x878>
/home/hei/Desktop/optee-qemu/optee_os/lib/libutils/ext/snprintk.c:479
    2078:	321f02b5 	orr	w21, w21, #0x2
/home/hei/Desktop/optee-qemu/optee_os/lib/libutils/ext/snprintk.c:476
    207c:	52800041 	mov	w1, #0x2                   	// #2
/home/hei/Desktop/optee-qemu/optee_os/lib/libutils/ext/snprintk.c:482
    2080:	52800002 	mov	w2, #0x0                   	// #0
    2084:	17fffe92 	b	1acc <__vsnprintf+0x448>
/home/hei/Desktop/optee-qemu/optee_os/lib/libutils/ext/snprintk.c:474
    2088:	b0000056 	adrp	x22, b000 <__func__.3755+0xec>
    208c:	910786d6 	add	x22, x22, #0x1e1
    2090:	17fffff2 	b	2058 <__vsnprintf+0x9d4>
/home/hei/Desktop/optee-qemu/optee_os/lib/libutils/ext/snprintk.c:475
    2094:	3747fe55 	tbnz	w21, #8, 205c <__vsnprintf+0x9d8>
    2098:	374ffe35 	tbnz	w21, #9, 205c <__vsnprintf+0x9d8>
    209c:	372ffe15 	tbnz	w21, #5, 205c <__vsnprintf+0x9d8>
    20a0:	3727fdf5 	tbnz	w21, #4, 205c <__vsnprintf+0x9d8>
    20a4:	36300335 	tbz	w21, #6, 2108 <__vsnprintf+0xa84>
    20a8:	37f801e1 	tbnz	w1, #31, 20e4 <__vsnprintf+0xa60>
    20ac:	91002c13 	add	x19, x0, #0xb
    20b0:	2a0103f4 	mov	w20, w1
    20b4:	927df273 	and	x19, x19, #0xfffffffffffffff8
    20b8:	79400000 	ldrh	w0, [x0]
    20bc:	17ffffed 	b	2070 <__vsnprintf+0x9ec>
    20c0:	11002034 	add	w20, w1, #0x8
    20c4:	7100029f 	cmp	w20, #0x0
    20c8:	5400008d 	b.le	20d8 <__vsnprintf+0xa54>
    20cc:	91003c13 	add	x19, x0, #0xf
    20d0:	927df273 	and	x19, x19, #0xfffffffffffffff8
    20d4:	17ffffe6 	b	206c <__vsnprintf+0x9e8>
    20d8:	aa0003f3 	mov	x19, x0
    20dc:	8b21c380 	add	x0, x28, w1, sxtw
    20e0:	17ffffe3 	b	206c <__vsnprintf+0x9e8>
    20e4:	11002034 	add	w20, w1, #0x8
    20e8:	7100029f 	cmp	w20, #0x0
    20ec:	5400008d 	b.le	20fc <__vsnprintf+0xa78>
    20f0:	91002c13 	add	x19, x0, #0xb
    20f4:	927df273 	and	x19, x19, #0xfffffffffffffff8
    20f8:	17fffff0 	b	20b8 <__vsnprintf+0xa34>
    20fc:	aa0003f3 	mov	x19, x0
    2100:	8b21c380 	add	x0, x28, w1, sxtw
    2104:	17ffffed 	b	20b8 <__vsnprintf+0xa34>
    2108:	37f800c1 	tbnz	w1, #31, 2120 <__vsnprintf+0xa9c>
    210c:	91002c13 	add	x19, x0, #0xb
    2110:	2a0103f4 	mov	w20, w1
    2114:	927df273 	and	x19, x19, #0xfffffffffffffff8
    2118:	b9400000 	ldr	w0, [x0]
    211c:	17ffffd5 	b	2070 <__vsnprintf+0x9ec>
    2120:	11002034 	add	w20, w1, #0x8
    2124:	7100029f 	cmp	w20, #0x0
    2128:	5400008d 	b.le	2138 <__vsnprintf+0xab4>
    212c:	91002c13 	add	x19, x0, #0xb
    2130:	927df273 	and	x19, x19, #0xfffffffffffffff8
    2134:	17fffff9 	b	2118 <__vsnprintf+0xa94>
    2138:	aa0003f3 	mov	x19, x0
    213c:	8b21c380 	add	x0, x28, w1, sxtw
    2140:	17fffff6 	b	2118 <__vsnprintf+0xa94>
/home/hei/Desktop/optee-qemu/optee_os/lib/libutils/ext/snprintk.c:488
    2144:	52800041 	mov	w1, #0x2                   	// #2
/home/hei/Desktop/optee-qemu/optee_os/lib/libutils/ext/snprintk.c:497
    2148:	f100001f 	cmp	x0, #0x0
/home/hei/Desktop/optee-qemu/optee_os/lib/libutils/ext/snprintk.c:489
    214c:	12157ab5 	and	w21, w21, #0xfffffbff
/home/hei/Desktop/optee-qemu/optee_os/lib/libutils/ext/snprintk.c:497
    2150:	7a400860 	ccmp	w3, #0x0, #0x0, eq  // eq = none
    2154:	54ffcc01 	b.ne	1ad4 <__vsnprintf+0x450>  // b.any
    2158:	52800003 	mov	w3, #0x0                   	// #0
/home/hei/Desktop/optee-qemu/optee_os/lib/libutils/ext/snprintk.c:496
    215c:	910095a4 	add	x4, x13, #0x25
    2160:	17fffe6e 	b	1b18 <__vsnprintf+0x494>
/home/hei/Desktop/optee-qemu/optee_os/lib/libutils/ext/snprintk.c:488
    2164:	52800021 	mov	w1, #0x1                   	// #1
    2168:	17fffff8 	b	2148 <__vsnprintf+0xac4>
/home/hei/Desktop/optee-qemu/optee_os/lib/libutils/ext/snprintk.c:508
    216c:	aa0403e1 	mov	x1, x4
    2170:	17fffe5e 	b	1ae8 <__vsnprintf+0x464>
/home/hei/Desktop/optee-qemu/optee_os/lib/libutils/ext/snprintk.c:517
    2174:	9ac50806 	udiv	x6, x0, x5
    2178:	9b0580c0 	msub	x0, x6, x5, x0
    217c:	1100c000 	add	w0, w0, #0x30
    2180:	381ff020 	sturb	w0, [x1, #-1]
/home/hei/Desktop/optee-qemu/optee_os/lib/libutils/ext/snprintk.c:518
    2184:	aa0603e0 	mov	x0, x6
    2188:	aa0403e1 	mov	x1, x4
    218c:	d1000424 	sub	x4, x1, #0x1
/home/hei/Desktop/optee-qemu/optee_os/lib/libutils/ext/snprintk.c:516
    2190:	f100241f 	cmp	x0, #0x9
    2194:	54ffff08 	b.hi	2174 <__vsnprintf+0xaf0>  // b.pmore
/home/hei/Desktop/optee-qemu/optee_os/lib/libutils/ext/snprintk.c:520
    2198:	1100c000 	add	w0, w0, #0x30
    219c:	381ff020 	sturb	w0, [x1, #-1]
/home/hei/Desktop/optee-qemu/optee_os/lib/libutils/ext/snprintk.c:521
    21a0:	17fffe5e 	b	1b18 <__vsnprintf+0x494>
/home/hei/Desktop/optee-qemu/optee_os/lib/libutils/ext/snprintk.c:568
    21a4:	360fe3d5 	tbz	w21, #1, 1e1c <__vsnprintf+0x798>
/home/hei/Desktop/optee-qemu/optee_os/lib/libutils/ext/snprintk.c:569
    21a8:	11000800 	add	w0, w0, #0x2
    21ac:	17ffff1c 	b	1e1c <__vsnprintf+0x798>
/home/hei/Desktop/optee-qemu/optee_os/lib/libutils/ext/snprintk.c:578
    21b0:	b400009b 	cbz	x27, 21c0 <__vsnprintf+0xb3c>
    21b4:	eb1b033f 	cmp	x25, x27
    21b8:	54000049 	b.ls	21c0 <__vsnprintf+0xb3c>  // b.plast
    21bc:	38001767 	strb	w7, [x27], #1
    21c0:	510004c6 	sub	w6, w6, #0x1
    21c4:	17ffff1e 	b	1e3c <__vsnprintf+0x7b8>
/home/hei/Desktop/optee-qemu/optee_os/lib/libutils/ext/snprintk.c:583
    21c8:	eb1b033f 	cmp	x25, x27
    21cc:	54ffe429 	b.ls	1e50 <__vsnprintf+0x7cc>  // b.plast
    21d0:	38001762 	strb	w2, [x27], #1
    21d4:	17ffff1f 	b	1e50 <__vsnprintf+0x7cc>
/home/hei/Desktop/optee-qemu/optee_os/lib/libutils/ext/snprintk.c:584
    21d8:	360fe3d5 	tbz	w21, #1, 1e50 <__vsnprintf+0x7cc>
/home/hei/Desktop/optee-qemu/optee_os/lib/libutils/ext/snprintk.c:585
    21dc:	b4ffe39b 	cbz	x27, 1e4c <__vsnprintf+0x7c8>
    21e0:	eb1b033f 	cmp	x25, x27
    21e4:	54ffe369 	b.ls	1e50 <__vsnprintf+0x7cc>  // b.plast
    21e8:	aa1b03e2 	mov	x2, x27
    21ec:	52800606 	mov	w6, #0x30                  	// #48
    21f0:	38001446 	strb	w6, [x2], #1
/home/hei/Desktop/optee-qemu/optee_os/lib/libutils/ext/snprintk.c:586
    21f4:	b4ffe2c2 	cbz	x2, 1e4c <__vsnprintf+0x7c8>
    21f8:	eb02033f 	cmp	x25, x2
    21fc:	54000089 	b.ls	220c <__vsnprintf+0xb88>  // b.plast
    2200:	91000b7b 	add	x27, x27, #0x2
    2204:	381ff378 	sturb	w24, [x27, #-1]
    2208:	17ffff12 	b	1e50 <__vsnprintf+0x7cc>
    220c:	aa0203fb 	mov	x27, x2
    2210:	17ffff10 	b	1e50 <__vsnprintf+0x7cc>
/home/hei/Desktop/optee-qemu/optee_os/lib/libutils/ext/snprintk.c:593
    2214:	b400009b 	cbz	x27, 2224 <__vsnprintf+0xba0>
    2218:	eb1b033f 	cmp	x25, x27
    221c:	54000049 	b.ls	2224 <__vsnprintf+0xba0>  // b.plast
    2220:	38001765 	strb	w5, [x27], #1
    2224:	51000442 	sub	w2, w2, #0x1
    2228:	17ffff0e 	b	1e60 <__vsnprintf+0x7dc>
/home/hei/Desktop/optee-qemu/optee_os/lib/libutils/ext/snprintk.c:599
    222c:	b400009b 	cbz	x27, 223c <__vsnprintf+0xbb8>
    2230:	eb1b033f 	cmp	x25, x27
    2234:	54000049 	b.ls	223c <__vsnprintf+0xbb8>  // b.plast
    2238:	38001762 	strb	w2, [x27], #1
    223c:	51000421 	sub	w1, w1, #0x1
    2240:	17ffff0c 	b	1e70 <__vsnprintf+0x7ec>
/home/hei/Desktop/optee-qemu/optee_os/lib/libutils/ext/snprintk.c:603
    2244:	b40000bb 	cbz	x27, 2258 <__vsnprintf+0xbd4>
    2248:	eb1b033f 	cmp	x25, x27
    224c:	54000069 	b.ls	2258 <__vsnprintf+0xbd4>  // b.plast
    2250:	38616882 	ldrb	w2, [x4, x1]
    2254:	38001762 	strb	w2, [x27], #1
    2258:	91000421 	add	x1, x1, #0x1
    225c:	17ffff09 	b	1e80 <__vsnprintf+0x7fc>
__vsnprintf():
/home/hei/Desktop/optee-qemu/optee_os/lib/libutils/ext/snprintk.c:143
    2260:	f9404fe0 	ldr	x0, [sp, #152]
    2264:	f100001f 	cmp	x0, #0x0
    2268:	f94053e0 	ldr	x0, [sp, #160]
    226c:	fa401804 	ccmp	x0, #0x0, #0x4, ne  // ne = any
    2270:	540000c0 	b.eq	2288 <__vsnprintf+0xc04>  // b.none
/home/hei/Desktop/optee-qemu/optee_os/lib/libutils/ext/snprintk.c:145
    2274:	f94053e1 	ldr	x1, [sp, #160]
    2278:	93407f40 	sxtw	x0, w26
    227c:	eb01001f 	cmp	x0, x1
    2280:	54000163 	b.cc	22ac <__vsnprintf+0xc28>  // b.lo, b.ul, b.last
/home/hei/Desktop/optee-qemu/optee_os/lib/libutils/ext/snprintk.c:146
    2284:	381ff33f 	sturb	wzr, [x25, #-1]
/home/hei/Desktop/optee-qemu/optee_os/lib/libutils/ext/snprintk.c:151
    2288:	2a1a03e0 	mov	w0, w26
    228c:	a9437bfd 	ldp	x29, x30, [sp, #48]
    2290:	a94453f3 	ldp	x19, x20, [sp, #64]
    2294:	a9455bf5 	ldp	x21, x22, [sp, #80]
    2298:	a94663f7 	ldp	x23, x24, [sp, #96]
    229c:	a9476bf9 	ldp	x25, x26, [sp, #112]
    22a0:	a94873fb 	ldp	x27, x28, [sp, #128]
    22a4:	910403ff 	add	sp, sp, #0x100
    22a8:	d65f03c0 	ret
/home/hei/Desktop/optee-qemu/optee_os/lib/libutils/ext/snprintk.c:148
    22ac:	f9404fe1 	ldr	x1, [sp, #152]
    22b0:	3820683f 	strb	wzr, [x1, x0]
/home/hei/Desktop/optee-qemu/optee_os/lib/libutils/ext/snprintk.c:150
    22b4:	17fffff5 	b	2288 <__vsnprintf+0xc04>

00000000000022b8 <vsnprintk>:
vsnprintk():
/home/hei/Desktop/optee-qemu/optee_os/lib/libutils/ext/snprintk.c:129
    22b8:	a9bb7bfd 	stp	x29, x30, [sp, #-80]!
    22bc:	910003fd 	mov	x29, sp
    22c0:	a90153f3 	stp	x19, x20, [sp, #16]
    22c4:	aa0003f3 	mov	x19, x0
    22c8:	aa0103f4 	mov	x20, x1
/home/hei/Desktop/optee-qemu/optee_os/lib/libutils/ext/snprintk.c:130
    22cc:	9100c3e0 	add	x0, sp, #0x30
    22d0:	aa0303e1 	mov	x1, x3
/home/hei/Desktop/optee-qemu/optee_os/lib/libutils/ext/snprintk.c:129
    22d4:	f90013f5 	str	x21, [sp, #32]
    22d8:	aa0203f5 	mov	x21, x2
/home/hei/Desktop/optee-qemu/optee_os/lib/libutils/ext/snprintk.c:130
    22dc:	d2800402 	mov	x2, #0x20                  	// #32
    22e0:	97fff88d 	bl	514 <memcpy>
    22e4:	aa1503e2 	mov	x2, x21
    22e8:	aa0003e3 	mov	x3, x0
    22ec:	aa1403e1 	mov	x1, x20
    22f0:	52800024 	mov	w4, #0x1                   	// #1
    22f4:	aa1303e0 	mov	x0, x19
    22f8:	97fffce3 	bl	1684 <__vsnprintf>
/home/hei/Desktop/optee-qemu/optee_os/lib/libutils/ext/snprintk.c:131
    22fc:	a94153f3 	ldp	x19, x20, [sp, #16]
    2300:	f94013f5 	ldr	x21, [sp, #32]
    2304:	a8c57bfd 	ldp	x29, x30, [sp], #80
    2308:	d65f03c0 	ret

000000000000230c <snprintk>:
snprintk():
/home/hei/Desktop/optee-qemu/optee_os/lib/libutils/ext/snprintk.c:112
    230c:	a9b07bfd 	stp	x29, x30, [sp, #-256]!
    2310:	910003fd 	mov	x29, sp
    2314:	a90d93e3 	stp	x3, x4, [sp, #216]
/home/hei/Desktop/optee-qemu/optee_os/lib/libutils/ext/snprintk.c:116
    2318:	910403e3 	add	x3, sp, #0x100
    231c:	a9030fe3 	stp	x3, x3, [sp, #48]
    2320:	910343e3 	add	x3, sp, #0xd0
    2324:	f90023e3 	str	x3, [sp, #64]
    2328:	128004e3 	mov	w3, #0xffffffd8            	// #-40
    232c:	b9004be3 	str	w3, [sp, #72]
    2330:	12800fe3 	mov	w3, #0xffffff80            	// #-128
    2334:	b9004fe3 	str	w3, [sp, #76]
/home/hei/Desktop/optee-qemu/optee_os/lib/libutils/ext/snprintk.c:117
    2338:	910043e3 	add	x3, sp, #0x10
/home/hei/Desktop/optee-qemu/optee_os/lib/libutils/ext/snprintk.c:112
    233c:	a90e9be5 	stp	x5, x6, [sp, #232]
/home/hei/Desktop/optee-qemu/optee_os/lib/libutils/ext/snprintk.c:117
    2340:	a94317e4 	ldp	x4, x5, [sp, #48]
    2344:	a90117e4 	stp	x4, x5, [sp, #16]
    2348:	a94417e4 	ldp	x4, x5, [sp, #64]
    234c:	a90217e4 	stp	x4, x5, [sp, #32]
/home/hei/Desktop/optee-qemu/optee_os/lib/libutils/ext/snprintk.c:112
    2350:	3d8017e0 	str	q0, [sp, #80]
    2354:	3d801be1 	str	q1, [sp, #96]
    2358:	3d801fe2 	str	q2, [sp, #112]
    235c:	3d8023e3 	str	q3, [sp, #128]
    2360:	3d8027e4 	str	q4, [sp, #144]
    2364:	3d802be5 	str	q5, [sp, #160]
    2368:	3d802fe6 	str	q6, [sp, #176]
    236c:	3d8033e7 	str	q7, [sp, #192]
    2370:	f9007fe7 	str	x7, [sp, #248]
/home/hei/Desktop/optee-qemu/optee_os/lib/libutils/ext/snprintk.c:117
    2374:	97ffffd1 	bl	22b8 <vsnprintk>
/home/hei/Desktop/optee-qemu/optee_os/lib/libutils/ext/snprintk.c:121
    2378:	a8d07bfd 	ldp	x29, x30, [sp], #256
    237c:	d65f03c0 	ret

0000000000002380 <memchr>:
memchr():
/home/hei/Desktop/optee-qemu/optee_os/lib/libutils/isoc/newlib/memchr.c:109
    2380:	12001c21 	and	w1, w1, #0xff
/home/hei/Desktop/optee-qemu/optee_os/lib/libutils/isoc/newlib/memchr.c:153
    2384:	8b020002 	add	x2, x0, x2
    2388:	eb02001f 	cmp	x0, x2
    238c:	54000061 	b.ne	2398 <memchr+0x18>  // b.any
/home/hei/Desktop/optee-qemu/optee_os/lib/libutils/isoc/newlib/memchr.c:159
    2390:	d2800000 	mov	x0, #0x0                   	// #0
/home/hei/Desktop/optee-qemu/optee_os/lib/libutils/isoc/newlib/memchr.c:160
    2394:	d65f03c0 	ret
/home/hei/Desktop/optee-qemu/optee_os/lib/libutils/isoc/newlib/memchr.c:154
    2398:	39400003 	ldrb	w3, [x0]
    239c:	6b01007f 	cmp	w3, w1
    23a0:	54ffffa0 	b.eq	2394 <memchr+0x14>  // b.none
/home/hei/Desktop/optee-qemu/optee_os/lib/libutils/isoc/newlib/memchr.c:156
    23a4:	91000400 	add	x0, x0, #0x1
    23a8:	17fffff8 	b	2388 <memchr+0x8>

00000000000023ac <trace_ext_puts>:
trace_ext_puts():
/home/hei/Desktop/optee-qemu/optee_os/lib/libutee/trace_ext.c:17
    23ac:	a9be7bfd 	stp	x29, x30, [sp, #-32]!
    23b0:	910003fd 	mov	x29, sp
    23b4:	f9000bf3 	str	x19, [sp, #16]
    23b8:	aa0003f3 	mov	x19, x0
/home/hei/Desktop/optee-qemu/optee_os/lib/libutee/trace_ext.c:18
    23bc:	97fff864 	bl	54c <strlen>
    23c0:	aa0003e1 	mov	x1, x0
    23c4:	aa1303e0 	mov	x0, x19
/home/hei/Desktop/optee-qemu/optee_os/lib/libutee/trace_ext.c:19
    23c8:	f9400bf3 	ldr	x19, [sp, #16]
    23cc:	a8c27bfd 	ldp	x29, x30, [sp], #32
/home/hei/Desktop/optee-qemu/optee_os/lib/libutee/trace_ext.c:18
    23d0:	1400029b 	b	2e3c <utee_log>

00000000000023d4 <trace_ext_get_thread_id>:
trace_ext_get_thread_id():
/home/hei/Desktop/optee-qemu/optee_os/lib/libutee/trace_ext.c:24
    23d4:	12800000 	mov	w0, #0xffffffff            	// #-1
    23d8:	d65f03c0 	ret

00000000000023dc <printf>:
printf():
/home/hei/Desktop/optee-qemu/optee_os/lib/libutee/trace_ext.c:32
    23dc:	d10883ff 	sub	sp, sp, #0x220
    23e0:	a9007bfd 	stp	x29, x30, [sp]
    23e4:	910003fd 	mov	x29, sp
    23e8:	a90153f3 	stp	x19, x20, [sp, #16]
    23ec:	aa0003f3 	mov	x19, x0
    23f0:	3d805be0 	str	q0, [sp, #352]
    23f4:	3d805fe1 	str	q1, [sp, #368]
    23f8:	3d8063e2 	str	q2, [sp, #384]
    23fc:	3d8067e3 	str	q3, [sp, #400]
    2400:	3d806be4 	str	q4, [sp, #416]
    2404:	3d806fe5 	str	q5, [sp, #432]
    2408:	3d8073e6 	str	q6, [sp, #448]
    240c:	3d8077e7 	str	q7, [sp, #464]
    2410:	a91e8be1 	stp	x1, x2, [sp, #488]
    2414:	a91f93e3 	stp	x3, x4, [sp, #504]
    2418:	f90107e5 	str	x5, [sp, #520]
    241c:	f9010be6 	str	x6, [sp, #528]
    2420:	f9010fe7 	str	x7, [sp, #536]
/home/hei/Desktop/optee-qemu/optee_os/lib/libutee/trace_ext.c:37
    2424:	97fff889 	bl	648 <trace_get_level>
    2428:	7100001f 	cmp	w0, #0x0
    242c:	5400038d 	b.le	249c <printf+0xc0>
/home/hei/Desktop/optee-qemu/optee_os/lib/libutee/trace_ext.c:40
    2430:	910883e0 	add	x0, sp, #0x220
    2434:	a90403e0 	stp	x0, x0, [sp, #64]
    2438:	910783e0 	add	x0, sp, #0x1e0
    243c:	f9002be0 	str	x0, [sp, #80]
    2440:	128006e0 	mov	w0, #0xffffffc8            	// #-56
    2444:	b9005be0 	str	w0, [sp, #88]
    2448:	12800fe0 	mov	w0, #0xffffff80            	// #-128
    244c:	b9005fe0 	str	w0, [sp, #92]
/home/hei/Desktop/optee-qemu/optee_os/lib/libutee/trace_ext.c:41
    2450:	910183f4 	add	x20, sp, #0x60
    2454:	a94407e0 	ldp	x0, x1, [sp, #64]
    2458:	a90207e0 	stp	x0, x1, [sp, #32]
    245c:	aa1303e2 	mov	x2, x19
    2460:	a94507e0 	ldp	x0, x1, [sp, #80]
    2464:	910083e3 	add	x3, sp, #0x20
    2468:	a90307e0 	stp	x0, x1, [sp, #48]
    246c:	aa1403e0 	mov	x0, x20
    2470:	d2802001 	mov	x1, #0x100                 	// #256
    2474:	94001968 	bl	8a14 <vsnprintf>
    2478:	2a0003f3 	mov	w19, w0
/home/hei/Desktop/optee-qemu/optee_os/lib/libutee/trace_ext.c:44
    247c:	37f80060 	tbnz	w0, #31, 2488 <printf+0xac>
/home/hei/Desktop/optee-qemu/optee_os/lib/libutee/trace_ext.c:47
    2480:	aa1403e0 	mov	x0, x20
    2484:	97ffffca 	bl	23ac <trace_ext_puts>
/home/hei/Desktop/optee-qemu/optee_os/lib/libutee/trace_ext.c:50
    2488:	2a1303e0 	mov	w0, w19
    248c:	a9407bfd 	ldp	x29, x30, [sp]
    2490:	a94153f3 	ldp	x19, x20, [sp, #16]
    2494:	910883ff 	add	sp, sp, #0x220
    2498:	d65f03c0 	ret
/home/hei/Desktop/optee-qemu/optee_os/lib/libutee/trace_ext.c:38
    249c:	52800013 	mov	w19, #0x0                   	// #0
    24a0:	17fffffa 	b	2488 <printf+0xac>

00000000000024a4 <puts>:
puts():
/home/hei/Desktop/optee-qemu/optee_os/lib/libutee/trace_ext.c:53
    24a4:	a9be7bfd 	stp	x29, x30, [sp, #-32]!
    24a8:	910003fd 	mov	x29, sp
    24ac:	f9000bf3 	str	x19, [sp, #16]
    24b0:	aa0003f3 	mov	x19, x0
/home/hei/Desktop/optee-qemu/optee_os/lib/libutee/trace_ext.c:54
    24b4:	97fff865 	bl	648 <trace_get_level>
    24b8:	7100001f 	cmp	w0, #0x0
    24bc:	540000cd 	b.le	24d4 <puts+0x30>
/home/hei/Desktop/optee-qemu/optee_os/lib/libutee/trace_ext.c:55
    24c0:	aa1303e0 	mov	x0, x19
    24c4:	97ffffba 	bl	23ac <trace_ext_puts>
/home/hei/Desktop/optee-qemu/optee_os/lib/libutee/trace_ext.c:56
    24c8:	90000040 	adrp	x0, a000 <__text_end+0x1324>
    24cc:	91320000 	add	x0, x0, #0xc80
    24d0:	97ffffb7 	bl	23ac <trace_ext_puts>
/home/hei/Desktop/optee-qemu/optee_os/lib/libutee/trace_ext.c:59
    24d4:	52800020 	mov	w0, #0x1                   	// #1
    24d8:	f9400bf3 	ldr	x19, [sp, #16]
    24dc:	a8c27bfd 	ldp	x29, x30, [sp], #32
    24e0:	d65f03c0 	ret

00000000000024e4 <putchar>:
putchar():
/home/hei/Desktop/optee-qemu/optee_os/lib/libutee/trace_ext.c:62
    24e4:	a9bd7bfd 	stp	x29, x30, [sp, #-48]!
    24e8:	910003fd 	mov	x29, sp
    24ec:	f9000bf3 	str	x19, [sp, #16]
    24f0:	2a0003f3 	mov	w19, w0
/home/hei/Desktop/optee-qemu/optee_os/lib/libutee/trace_ext.c:63
    24f4:	3900a3e0 	strb	w0, [sp, #40]
    24f8:	3900a7ff 	strb	wzr, [sp, #41]
/home/hei/Desktop/optee-qemu/optee_os/lib/libutee/trace_ext.c:65
    24fc:	97fff853 	bl	648 <trace_get_level>
    2500:	7100001f 	cmp	w0, #0x0
    2504:	5400006d 	b.le	2510 <putchar+0x2c>
/home/hei/Desktop/optee-qemu/optee_os/lib/libutee/trace_ext.c:66
    2508:	9100a3e0 	add	x0, sp, #0x28
    250c:	97ffffa8 	bl	23ac <trace_ext_puts>
/home/hei/Desktop/optee-qemu/optee_os/lib/libutee/trace_ext.c:73
    2510:	12001e60 	and	w0, w19, #0xff
    2514:	f9400bf3 	ldr	x19, [sp, #16]
    2518:	a8c37bfd 	ldp	x29, x30, [sp], #48
    251c:	d65f03c0 	ret

0000000000002520 <_assert_log>:
_assert_log():
/home/hei/Desktop/optee-qemu/optee_os/lib/libutee/assert.c:17
    2520:	d10083ff 	sub	sp, sp, #0x20
/home/hei/Desktop/optee-qemu/optee_os/lib/libutee/assert.c:18
    2524:	2a0203e7 	mov	w7, w2
    2528:	aa0103e6 	mov	x6, x1
    252c:	aa0003e5 	mov	x5, x0
    2530:	52800022 	mov	w2, #0x1                   	// #1
    2534:	52800001 	mov	w1, #0x0                   	// #0
/home/hei/Desktop/optee-qemu/optee_os/lib/libutee/assert.c:17
    2538:	a9017bfd 	stp	x29, x30, [sp, #16]
    253c:	910043fd 	add	x29, sp, #0x10
/home/hei/Desktop/optee-qemu/optee_os/lib/libutee/assert.c:18
    2540:	d2800000 	mov	x0, #0x0                   	// #0
    2544:	b0000044 	adrp	x4, b000 <__func__.3755+0xec>
    2548:	f90003e3 	str	x3, [sp]
    254c:	9108ec84 	add	x4, x4, #0x23b
    2550:	52800023 	mov	w3, #0x1                   	// #1
    2554:	97fff8bd 	bl	848 <trace_printf>
/home/hei/Desktop/optee-qemu/optee_os/lib/libutee/assert.c:20
    2558:	a9417bfd 	ldp	x29, x30, [sp, #16]
    255c:	910083ff 	add	sp, sp, #0x20
    2560:	d65f03c0 	ret

0000000000002564 <_assert_break>:
_assert_break():
/home/hei/Desktop/optee-qemu/optee_os/lib/libutee/assert.c:23
    2564:	a9bf7bfd 	stp	x29, x30, [sp, #-16]!
/home/hei/Desktop/optee-qemu/optee_os/lib/libutee/assert.c:24
    2568:	d2bfffe0 	mov	x0, #0xffff0000            	// #4294901760
/home/hei/Desktop/optee-qemu/optee_os/lib/libutee/assert.c:23
    256c:	910003fd 	mov	x29, sp
/home/hei/Desktop/optee-qemu/optee_os/lib/libutee/assert.c:24
    2570:	9400022d 	bl	2e24 <utee_panic>
/home/hei/Desktop/optee-qemu/optee_os/lib/libutee/assert.c:27 (discriminator 1)
    2574:	14000000 	b	2574 <_assert_break+0x10>

0000000000002578 <update_out_param>:
update_out_param():
/home/hei/Desktop/optee-qemu/optee_os/lib/libutee/tee_api.c:115
    2578:	a9bb7bfd 	stp	x29, x30, [sp, #-80]!
    257c:	910003fd 	mov	x29, sp
    2580:	a90153f3 	stp	x19, x20, [sp, #16]
/home/hei/Desktop/optee-qemu/optee_os/lib/libutee/tee_api.c:117
    2584:	aa0203f4 	mov	x20, x2
    2588:	aa0003f3 	mov	x19, x0
/home/hei/Desktop/optee-qemu/optee_os/lib/libutee/tee_api.c:115
    258c:	a90363f7 	stp	x23, x24, [sp, #48]
/home/hei/Desktop/optee-qemu/optee_os/lib/libutee/tee_api.c:123
    2590:	90000058 	adrp	x24, a000 <__text_end+0x1324>
    2594:	9120d318 	add	x24, x24, #0x834
/home/hei/Desktop/optee-qemu/optee_os/lib/libutee/tee_api.c:117
    2598:	f8408697 	ldr	x23, [x20], #8
/home/hei/Desktop/optee-qemu/optee_os/lib/libutee/tee_api.c:115
    259c:	f90023f9 	str	x25, [sp, #64]
    25a0:	aa0103f9 	mov	x25, x1
    25a4:	a9025bf5 	stp	x21, x22, [sp, #32]
/home/hei/Desktop/optee-qemu/optee_os/lib/libutee/tee_api.c:119
    25a8:	d2800015 	mov	x21, #0x0                   	// #0
/home/hei/Desktop/optee-qemu/optee_os/lib/libutee/tee_api.c:123
    25ac:	531e76a0 	lsl	w0, w21, #2
/home/hei/Desktop/optee-qemu/optee_os/lib/libutee/tee_api.c:121
    25b0:	f9400696 	ldr	x22, [x20, #8]
/home/hei/Desktop/optee-qemu/optee_os/lib/libutee/tee_api.c:123
    25b4:	1ac026e0 	lsr	w0, w23, w0
    25b8:	12000c00 	and	w0, w0, #0xf
    25bc:	51000800 	sub	w0, w0, #0x2
    25c0:	7100141f 	cmp	w0, #0x5
    25c4:	540000e8 	b.hi	25e0 <update_out_param+0x68>  // b.pmore
    25c8:	38604b00 	ldrb	w0, [x24, w0, uxtw]
    25cc:	10000061 	adr	x1, 25d8 <update_out_param+0x60>
    25d0:	8b208820 	add	x0, x1, w0, sxtb #2
    25d4:	d61f0000 	br	x0
/home/hei/Desktop/optee-qemu/optee_os/lib/libutee/tee_api.c:126
    25d8:	f9400280 	ldr	x0, [x20]
/home/hei/Desktop/optee-qemu/optee_os/lib/libutee/tee_api.c:127
    25dc:	29005a60 	stp	w0, w22, [x19]
/home/hei/Desktop/optee-qemu/optee_os/lib/libutee/tee_api.c:119 (discriminator 2)
    25e0:	910006b5 	add	x21, x21, #0x1
    25e4:	91004294 	add	x20, x20, #0x10
    25e8:	91004273 	add	x19, x19, #0x10
    25ec:	f10012bf 	cmp	x21, #0x4
    25f0:	54fffde1 	b.ne	25ac <update_out_param+0x34>  // b.any
/home/hei/Desktop/optee-qemu/optee_os/lib/libutee/tee_api.c:140
    25f4:	a94153f3 	ldp	x19, x20, [sp, #16]
    25f8:	a9425bf5 	ldp	x21, x22, [sp, #32]
    25fc:	a94363f7 	ldp	x23, x24, [sp, #48]
    2600:	f94023f9 	ldr	x25, [sp, #64]
    2604:	a8c57bfd 	ldp	x29, x30, [sp], #80
    2608:	d65f03c0 	ret
/home/hei/Desktop/optee-qemu/optee_os/lib/libutee/tee_api.c:131
    260c:	f8757b21 	ldr	x1, [x25, x21, lsl #3]
    2610:	b40000c1 	cbz	x1, 2628 <update_out_param+0xb0>
/home/hei/Desktop/optee-qemu/optee_os/lib/libutee/tee_api.c:133
    2614:	b9400a62 	ldr	w2, [x19, #8]
/home/hei/Desktop/optee-qemu/optee_os/lib/libutee/tee_api.c:132
    2618:	f9400260 	ldr	x0, [x19]
/home/hei/Desktop/optee-qemu/optee_os/lib/libutee/tee_api.c:133
    261c:	eb16005f 	cmp	x2, x22
/home/hei/Desktop/optee-qemu/optee_os/lib/libutee/tee_api.c:132
    2620:	9a969042 	csel	x2, x2, x22, ls  // ls = plast
    2624:	97fff7bc 	bl	514 <memcpy>
/home/hei/Desktop/optee-qemu/optee_os/lib/libutee/tee_api.c:134
    2628:	b9000a76 	str	w22, [x19, #8]
/home/hei/Desktop/optee-qemu/optee_os/lib/libutee/tee_api.c:135
    262c:	17ffffed 	b	25e0 <update_out_param+0x68>

0000000000002630 <TEE_CloseTASession>:
TEE_CloseTASession():
/home/hei/Desktop/optee-qemu/optee_os/lib/libutee/tee_api.c:184
    2630:	b4000120 	cbz	x0, 2654 <TEE_CloseTASession+0x24>
/home/hei/Desktop/optee-qemu/optee_os/lib/libutee/tee_api.c:183
    2634:	a9bf7bfd 	stp	x29, x30, [sp, #-16]!
    2638:	910003fd 	mov	x29, sp
/home/hei/Desktop/optee-qemu/optee_os/lib/libutee/tee_api.c:185
    263c:	9400020f 	bl	2e78 <utee_close_ta_session>
/home/hei/Desktop/optee-qemu/optee_os/lib/libutee/tee_api.c:187
    2640:	34000060 	cbz	w0, 264c <TEE_CloseTASession+0x1c>
/home/hei/Desktop/optee-qemu/optee_os/lib/libutee/tee_api.c:190
    2644:	a8c17bfd 	ldp	x29, x30, [sp], #16
/home/hei/Desktop/optee-qemu/optee_os/lib/libutee/tee_api.c:188
    2648:	14000193 	b	2c94 <TEE_Panic>
/home/hei/Desktop/optee-qemu/optee_os/lib/libutee/tee_api.c:190
    264c:	a8c17bfd 	ldp	x29, x30, [sp], #16
    2650:	d65f03c0 	ret
    2654:	d65f03c0 	ret

0000000000002658 <TEE_GetCancellationFlag>:
TEE_GetCancellationFlag():
/home/hei/Desktop/optee-qemu/optee_os/lib/libutee/tee_api.c:237
    2658:	a9be7bfd 	stp	x29, x30, [sp, #-32]!
    265c:	910003fd 	mov	x29, sp
/home/hei/Desktop/optee-qemu/optee_os/lib/libutee/tee_api.c:239
    2660:	910073e0 	add	x0, sp, #0x1c
    2664:	9400020b 	bl	2e90 <utee_get_cancellation_flag>
/home/hei/Desktop/optee-qemu/optee_os/lib/libutee/tee_api.c:241
    2668:	34000040 	cbz	w0, 2670 <TEE_GetCancellationFlag+0x18>
/home/hei/Desktop/optee-qemu/optee_os/lib/libutee/tee_api.c:242
    266c:	b9001fff 	str	wzr, [sp, #28]
/home/hei/Desktop/optee-qemu/optee_os/lib/libutee/tee_api.c:243
    2670:	b9401fe0 	ldr	w0, [sp, #28]
/home/hei/Desktop/optee-qemu/optee_os/lib/libutee/tee_api.c:244
    2674:	a8c27bfd 	ldp	x29, x30, [sp], #32
/home/hei/Desktop/optee-qemu/optee_os/lib/libutee/tee_api.c:243
    2678:	7100001f 	cmp	w0, #0x0
/home/hei/Desktop/optee-qemu/optee_os/lib/libutee/tee_api.c:244
    267c:	1a9f07e0 	cset	w0, ne  // ne = any
    2680:	d65f03c0 	ret

0000000000002684 <TEE_UnmaskCancellation>:
TEE_UnmaskCancellation():
/home/hei/Desktop/optee-qemu/optee_os/lib/libutee/tee_api.c:247
    2684:	a9be7bfd 	stp	x29, x30, [sp, #-32]!
    2688:	910003fd 	mov	x29, sp
/home/hei/Desktop/optee-qemu/optee_os/lib/libutee/tee_api.c:249
    268c:	910073e0 	add	x0, sp, #0x1c
    2690:	94000206 	bl	2ea8 <utee_unmask_cancellation>
/home/hei/Desktop/optee-qemu/optee_os/lib/libutee/tee_api.c:251
    2694:	34000040 	cbz	w0, 269c <TEE_UnmaskCancellation+0x18>
/home/hei/Desktop/optee-qemu/optee_os/lib/libutee/tee_api.c:252
    2698:	9400017f 	bl	2c94 <TEE_Panic>
/home/hei/Desktop/optee-qemu/optee_os/lib/libutee/tee_api.c:253
    269c:	b9401fe0 	ldr	w0, [sp, #28]
/home/hei/Desktop/optee-qemu/optee_os/lib/libutee/tee_api.c:254
    26a0:	a8c27bfd 	ldp	x29, x30, [sp], #32
/home/hei/Desktop/optee-qemu/optee_os/lib/libutee/tee_api.c:253
    26a4:	7100001f 	cmp	w0, #0x0
/home/hei/Desktop/optee-qemu/optee_os/lib/libutee/tee_api.c:254
    26a8:	1a9f07e0 	cset	w0, ne  // ne = any
    26ac:	d65f03c0 	ret

00000000000026b0 <TEE_MaskCancellation>:
TEE_MaskCancellation():
/home/hei/Desktop/optee-qemu/optee_os/lib/libutee/tee_api.c:257
    26b0:	a9be7bfd 	stp	x29, x30, [sp, #-32]!
    26b4:	910003fd 	mov	x29, sp
/home/hei/Desktop/optee-qemu/optee_os/lib/libutee/tee_api.c:259
    26b8:	910073e0 	add	x0, sp, #0x1c
    26bc:	940001fe 	bl	2eb4 <utee_mask_cancellation>
/home/hei/Desktop/optee-qemu/optee_os/lib/libutee/tee_api.c:261
    26c0:	34000040 	cbz	w0, 26c8 <TEE_MaskCancellation+0x18>
/home/hei/Desktop/optee-qemu/optee_os/lib/libutee/tee_api.c:262
    26c4:	94000174 	bl	2c94 <TEE_Panic>
/home/hei/Desktop/optee-qemu/optee_os/lib/libutee/tee_api.c:263
    26c8:	b9401fe0 	ldr	w0, [sp, #28]
/home/hei/Desktop/optee-qemu/optee_os/lib/libutee/tee_api.c:264
    26cc:	a8c27bfd 	ldp	x29, x30, [sp], #32
/home/hei/Desktop/optee-qemu/optee_os/lib/libutee/tee_api.c:263
    26d0:	7100001f 	cmp	w0, #0x0
/home/hei/Desktop/optee-qemu/optee_os/lib/libutee/tee_api.c:264
    26d4:	1a9f07e0 	cset	w0, ne  // ne = any
    26d8:	d65f03c0 	ret

00000000000026dc <TEE_CheckMemoryAccessRights>:
TEE_CheckMemoryAccessRights():
/home/hei/Desktop/optee-qemu/optee_os/lib/libutee/tee_api.c:273
    26dc:	34000062 	cbz	w2, 26e8 <TEE_CheckMemoryAccessRights+0xc>
/home/hei/Desktop/optee-qemu/optee_os/lib/libutee/tee_api.c:277
    26e0:	2a0203e2 	mov	w2, w2
    26e4:	140001ee 	b	2e9c <utee_check_access_rights>
/home/hei/Desktop/optee-qemu/optee_os/lib/libutee/tee_api.c:289
    26e8:	52800000 	mov	w0, #0x0                   	// #0
    26ec:	d65f03c0 	ret

00000000000026f0 <copy_param.constprop.1>:
copy_param():
/home/hei/Desktop/optee-qemu/optee_os/lib/libutee/tee_api.c:19
    26f0:	a9b87bfd 	stp	x29, x30, [sp, #-128]!
    26f4:	910003fd 	mov	x29, sp
    26f8:	a9046bf9 	stp	x25, x26, [sp, #64]
    26fc:	aa0303f9 	mov	x25, x3
/home/hei/Desktop/optee-qemu/optee_os/lib/libutee/tee_api.c:60
    2700:	9101e3e3 	add	x3, sp, #0x78
/home/hei/Desktop/optee-qemu/optee_os/lib/libutee/tee_api.c:19
    2704:	a90363f7 	stp	x23, x24, [sp, #48]
    2708:	aa0403f8 	mov	x24, x4
    270c:	aa0503f7 	mov	x23, x5
    2710:	a90153f3 	stp	x19, x20, [sp, #16]
    2714:	aa0003f3 	mov	x19, x0
    2718:	aa0203f4 	mov	x20, x2
    271c:	a9025bf5 	stp	x21, x22, [sp, #32]
    2720:	2a0103f6 	mov	w22, w1
/home/hei/Desktop/optee-qemu/optee_os/lib/libutee/tee_api.c:41
    2724:	d2800015 	mov	x21, #0x0                   	// #0
/home/hei/Desktop/optee-qemu/optee_os/lib/libutee/tee_api.c:19
    2728:	a90573fb 	stp	x27, x28, [sp, #80]
/home/hei/Desktop/optee-qemu/optee_os/lib/libutee/tee_api.c:48
    272c:	9100205c 	add	x28, x2, #0x8
/home/hei/Desktop/optee-qemu/optee_os/lib/libutee/tee_api.c:26
    2730:	d280001b 	mov	x27, #0x0                   	// #0
/home/hei/Desktop/optee-qemu/optee_os/lib/libutee/tee_api.c:39
    2734:	f900033f 	str	xzr, [x25]
/home/hei/Desktop/optee-qemu/optee_os/lib/libutee/tee_api.c:60
    2738:	52800024 	mov	w4, #0x1                   	// #1
/home/hei/Desktop/optee-qemu/optee_os/lib/libutee/tee_api.c:40
    273c:	f900031f 	str	xzr, [x24]
/home/hei/Desktop/optee-qemu/optee_os/lib/libutee/tee_api.c:28
    2740:	b9007bff 	str	wzr, [sp, #120]
/home/hei/Desktop/optee-qemu/optee_os/lib/libutee/tee_api.c:43
    2744:	531e76a0 	lsl	w0, w21, #2
/home/hei/Desktop/optee-qemu/optee_os/lib/libutee/tee_api.c:42
    2748:	f8357aff 	str	xzr, [x23, x21, lsl #3]
/home/hei/Desktop/optee-qemu/optee_os/lib/libutee/tee_api.c:43
    274c:	1ac026c0 	lsr	w0, w22, w0
    2750:	12000c00 	and	w0, w0, #0xf
    2754:	51001400 	sub	w0, w0, #0x5
    2758:	7100081f 	cmp	w0, #0x2
    275c:	54000268 	b.hi	27a8 <copy_param.constprop.1+0xb8>  // b.pmore
/home/hei/Desktop/optee-qemu/optee_os/lib/libutee/tee_api.c:47
    2760:	d37ceea0 	lsl	x0, x21, #4
/home/hei/Desktop/optee-qemu/optee_os/lib/libutee/tee_api.c:48
    2764:	b8606b82 	ldr	w2, [x28, x0]
/home/hei/Desktop/optee-qemu/optee_os/lib/libutee/tee_api.c:47
    2768:	f8606a81 	ldr	x1, [x20, x0]
/home/hei/Desktop/optee-qemu/optee_os/lib/libutee/tee_api.c:48
    276c:	2a0203fa 	mov	w26, w2
/home/hei/Desktop/optee-qemu/optee_os/lib/libutee/tee_api.c:58
    2770:	f100003f 	cmp	x1, #0x0
    2774:	fa401b44 	ccmp	x26, #0x0, #0x4, ne  // ne = any
    2778:	54000180 	b.eq	27a8 <copy_param.constprop.1+0xb8>  // b.none
/home/hei/Desktop/optee-qemu/optee_os/lib/libutee/tee_api.c:59
    277c:	52800020 	mov	w0, #0x1                   	// #1
    2780:	f90033e3 	str	x3, [sp, #96]
    2784:	b9006fe4 	str	w4, [sp, #108]
    2788:	97ffffd5 	bl	26dc <TEE_CheckMemoryAccessRights>
/home/hei/Desktop/optee-qemu/optee_os/lib/libutee/tee_api.c:58
    278c:	b9406fe4 	ldr	w4, [sp, #108]
    2790:	f94033e3 	ldr	x3, [sp, #96]
    2794:	350000a0 	cbnz	w0, 27a8 <copy_param.constprop.1+0xb8>
/home/hei/Desktop/optee-qemu/optee_os/lib/libutee/tee_api.c:61
    2798:	91003f5a 	add	x26, x26, #0xf
/home/hei/Desktop/optee-qemu/optee_os/lib/libutee/tee_api.c:60
    279c:	38236aa4 	strb	w4, [x21, x3]
/home/hei/Desktop/optee-qemu/optee_os/lib/libutee/tee_api.c:61
    27a0:	927cef5a 	and	x26, x26, #0xfffffffffffffff0
    27a4:	8b1a037b 	add	x27, x27, x26
/home/hei/Desktop/optee-qemu/optee_os/lib/libutee/tee_api.c:41
    27a8:	910006b5 	add	x21, x21, #0x1
    27ac:	f10012bf 	cmp	x21, #0x4
    27b0:	54fffca1 	b.ne	2744 <copy_param.constprop.1+0x54>  // b.any
/home/hei/Desktop/optee-qemu/optee_os/lib/libutee/tee_api.c:69
    27b4:	b400031b 	cbz	x27, 2814 <copy_param.constprop.1+0x124>
/home/hei/Desktop/optee-qemu/optee_os/lib/libutee/tee_api.c:70
    27b8:	2a1503e1 	mov	w1, w21
    27bc:	aa1b03e0 	mov	x0, x27
    27c0:	94000159 	bl	2d24 <tee_map_zi>
    27c4:	aa0003e3 	mov	x3, x0
/home/hei/Desktop/optee-qemu/optee_os/lib/libutee/tee_api.c:71
    27c8:	b4000780 	cbz	x0, 28b8 <copy_param.constprop.1+0x1c8>
/home/hei/Desktop/optee-qemu/optee_os/lib/libutee/tee_api.c:73
    27cc:	f9000320 	str	x0, [x25]
/home/hei/Desktop/optee-qemu/optee_os/lib/libutee/tee_api.c:74
    27d0:	f900031b 	str	x27, [x24]
/home/hei/Desktop/optee-qemu/optee_os/lib/libutee/tee_api.c:79
    27d4:	90000059 	adrp	x25, a000 <__text_end+0x1324>
/home/hei/Desktop/optee-qemu/optee_os/lib/libutee/tee_api.c:89
    27d8:	9101e3fb 	add	x27, sp, #0x78
/home/hei/Desktop/optee-qemu/optee_os/lib/libutee/tee_api.c:79
    27dc:	9120f339 	add	x25, x25, #0x83c
/home/hei/Desktop/optee-qemu/optee_os/lib/libutee/tee_api.c:77
    27e0:	2a1603e0 	mov	w0, w22
/home/hei/Desktop/optee-qemu/optee_os/lib/libutee/tee_api.c:78
    27e4:	d2800015 	mov	x21, #0x0                   	// #0
/home/hei/Desktop/optee-qemu/optee_os/lib/libutee/tee_api.c:77
    27e8:	f8008660 	str	x0, [x19], #8
/home/hei/Desktop/optee-qemu/optee_os/lib/libutee/tee_api.c:79
    27ec:	531e76a0 	lsl	w0, w21, #2
    27f0:	1ac026c0 	lsr	w0, w22, w0
    27f4:	12000c00 	and	w0, w0, #0xf
    27f8:	51000401 	sub	w1, w0, #0x1
    27fc:	7100183f 	cmp	w1, #0x6
    2800:	54000588 	b.hi	28b0 <copy_param.constprop.1+0x1c0>  // b.pmore
    2804:	38614b21 	ldrb	w1, [x25, w1, uxtw]
    2808:	10000062 	adr	x2, 2814 <copy_param.constprop.1+0x124>
    280c:	8b218841 	add	x1, x2, w1, sxtb #2
    2810:	d61f0020 	br	x1
/home/hei/Desktop/optee-qemu/optee_os/lib/libutee/tee_api.c:25
    2814:	d2800003 	mov	x3, #0x0                   	// #0
    2818:	17ffffef 	b	27d4 <copy_param.constprop.1+0xe4>
/home/hei/Desktop/optee-qemu/optee_os/lib/libutee/tee_api.c:82
    281c:	b9400280 	ldr	w0, [x20]
    2820:	f9000260 	str	x0, [x19]
/home/hei/Desktop/optee-qemu/optee_os/lib/libutee/tee_api.c:83
    2824:	b9400680 	ldr	w0, [x20, #4]
    2828:	f9000660 	str	x0, [x19, #8]
/home/hei/Desktop/optee-qemu/optee_os/lib/libutee/tee_api.c:78
    282c:	910006b5 	add	x21, x21, #0x1
    2830:	91004294 	add	x20, x20, #0x10
    2834:	91004273 	add	x19, x19, #0x10
    2838:	f10012bf 	cmp	x21, #0x4
    283c:	54fffd81 	b.ne	27ec <copy_param.constprop.1+0xfc>  // b.any
/home/hei/Desktop/optee-qemu/optee_os/lib/libutee/tee_api.c:109
    2840:	52800000 	mov	w0, #0x0                   	// #0
/home/hei/Desktop/optee-qemu/optee_os/lib/libutee/tee_api.c:110
    2844:	a94153f3 	ldp	x19, x20, [sp, #16]
    2848:	a9425bf5 	ldp	x21, x22, [sp, #32]
    284c:	a94363f7 	ldp	x23, x24, [sp, #48]
    2850:	a9446bf9 	ldp	x25, x26, [sp, #64]
    2854:	a94573fb 	ldp	x27, x28, [sp, #80]
    2858:	a8c87bfd 	ldp	x29, x30, [sp], #128
    285c:	d65f03c0 	ret
/home/hei/Desktop/optee-qemu/optee_os/lib/libutee/tee_api.c:89
    2860:	387b6aa1 	ldrb	w1, [x21, x27]
/home/hei/Desktop/optee-qemu/optee_os/lib/libutee/tee_api.c:88
    2864:	b9400a9a 	ldr	w26, [x20, #8]
/home/hei/Desktop/optee-qemu/optee_os/lib/libutee/tee_api.c:89
    2868:	340001e1 	cbz	w1, 28a4 <copy_param.constprop.1+0x1b4>
/home/hei/Desktop/optee-qemu/optee_os/lib/libutee/tee_api.c:92
    286c:	91003f58 	add	x24, x26, #0xf
/home/hei/Desktop/optee-qemu/optee_os/lib/libutee/tee_api.c:91
    2870:	f8357ae3 	str	x3, [x23, x21, lsl #3]
/home/hei/Desktop/optee-qemu/optee_os/lib/libutee/tee_api.c:92
    2874:	927cef18 	and	x24, x24, #0xfffffffffffffff0
/home/hei/Desktop/optee-qemu/optee_os/lib/libutee/tee_api.c:93
    2878:	7100181f 	cmp	w0, #0x6
/home/hei/Desktop/optee-qemu/optee_os/lib/libutee/tee_api.c:92
    287c:	8b180078 	add	x24, x3, x24
/home/hei/Desktop/optee-qemu/optee_os/lib/libutee/tee_api.c:93
    2880:	540000c0 	b.eq	2898 <copy_param.constprop.1+0x1a8>  // b.none
/home/hei/Desktop/optee-qemu/optee_os/lib/libutee/tee_api.c:95
    2884:	f9400281 	ldr	x1, [x20]
    2888:	aa0303e0 	mov	x0, x3
    288c:	aa1a03e2 	mov	x2, x26
    2890:	97fff721 	bl	514 <memcpy>
    2894:	aa0003e3 	mov	x3, x0
/home/hei/Desktop/optee-qemu/optee_os/lib/libutee/tee_api.c:100
    2898:	a9006a63 	stp	x3, x26, [x19]
    289c:	aa1803e3 	mov	x3, x24
    28a0:	17ffffe3 	b	282c <copy_param.constprop.1+0x13c>
/home/hei/Desktop/optee-qemu/optee_os/lib/libutee/tee_api.c:97
    28a4:	aa0303f8 	mov	x24, x3
    28a8:	f9400283 	ldr	x3, [x20]
    28ac:	17fffffb 	b	2898 <copy_param.constprop.1+0x1a8>
/home/hei/Desktop/optee-qemu/optee_os/lib/libutee/tee_api.c:104
    28b0:	a9007e7f 	stp	xzr, xzr, [x19]
/home/hei/Desktop/optee-qemu/optee_os/lib/libutee/tee_api.c:105
    28b4:	17ffffde 	b	282c <copy_param.constprop.1+0x13c>
/home/hei/Desktop/optee-qemu/optee_os/lib/libutee/tee_api.c:72
    28b8:	129ffe60 	mov	w0, #0xffff000c            	// #-65524
    28bc:	17ffffe2 	b	2844 <copy_param.constprop.1+0x154>

00000000000028c0 <TEE_InvokeTACommand>:
TEE_InvokeTACommand():
/home/hei/Desktop/optee-qemu/optee_os/lib/libutee/tee_api.c:197
    28c0:	a9b37bfd 	stp	x29, x30, [sp, #-208]!
    28c4:	910003fd 	mov	x29, sp
    28c8:	a90153f3 	stp	x19, x20, [sp, #16]
/home/hei/Desktop/optee-qemu/optee_os/lib/libutee/tee_api.c:205
    28cc:	910223f4 	add	x20, sp, #0x88
/home/hei/Desktop/optee-qemu/optee_os/lib/libutee/tee_api.c:197
    28d0:	a9025bf5 	stp	x21, x22, [sp, #32]
    28d4:	aa0403f6 	mov	x22, x4
    28d8:	aa0503f5 	mov	x21, x5
    28dc:	a90363f7 	stp	x23, x24, [sp, #48]
    28e0:	aa0003f8 	mov	x24, x0
/home/hei/Desktop/optee-qemu/optee_os/lib/libutee/tee_api.c:205
    28e4:	9101a3f7 	add	x23, sp, #0x68
/home/hei/Desktop/optee-qemu/optee_os/lib/libutee/tee_api.c:199
    28e8:	52800060 	mov	w0, #0x3                   	// #3
/home/hei/Desktop/optee-qemu/optee_os/lib/libutee/tee_api.c:205
    28ec:	aa1703e5 	mov	x5, x23
    28f0:	910183e4 	add	x4, sp, #0x60
/home/hei/Desktop/optee-qemu/optee_os/lib/libutee/tee_api.c:197
    28f4:	a9046bf9 	stp	x25, x26, [sp, #64]
    28f8:	2a0103f9 	mov	w25, w1
    28fc:	2a0203fa 	mov	w26, w2
    2900:	2a0303e1 	mov	w1, w3
/home/hei/Desktop/optee-qemu/optee_os/lib/libutee/tee_api.c:205
    2904:	aa1603e2 	mov	x2, x22
    2908:	910163e3 	add	x3, sp, #0x58
/home/hei/Desktop/optee-qemu/optee_os/lib/libutee/tee_api.c:199
    290c:	b90057e0 	str	w0, [sp, #84]
/home/hei/Desktop/optee-qemu/optee_os/lib/libutee/tee_api.c:205
    2910:	aa1403e0 	mov	x0, x20
/home/hei/Desktop/optee-qemu/optee_os/lib/libutee/tee_api.c:202
    2914:	a905ffff 	stp	xzr, xzr, [sp, #88]
/home/hei/Desktop/optee-qemu/optee_os/lib/libutee/tee_api.c:203
    2918:	a906ffff 	stp	xzr, xzr, [sp, #104]
    291c:	a907ffff 	stp	xzr, xzr, [sp, #120]
/home/hei/Desktop/optee-qemu/optee_os/lib/libutee/tee_api.c:205
    2920:	97ffff74 	bl	26f0 <copy_param.constprop.1>
    2924:	2a0003f3 	mov	w19, w0
/home/hei/Desktop/optee-qemu/optee_os/lib/libutee/tee_api.c:206
    2928:	35000240 	cbnz	w0, 2970 <TEE_InvokeTACommand+0xb0>
/home/hei/Desktop/optee-qemu/optee_os/lib/libutee/tee_api.c:208
    292c:	910153e4 	add	x4, sp, #0x54
    2930:	aa1403e3 	mov	x3, x20
    2934:	2a1a03e2 	mov	w2, w26
    2938:	2a1903e1 	mov	w1, w25
    293c:	aa1803e0 	mov	x0, x24
    2940:	94000151 	bl	2e84 <utee_invoke_ta_command>
/home/hei/Desktop/optee-qemu/optee_os/lib/libutee/tee_api.c:211
    2944:	aa1403e2 	mov	x2, x20
/home/hei/Desktop/optee-qemu/optee_os/lib/libutee/tee_api.c:208
    2948:	2a0003f3 	mov	w19, w0
/home/hei/Desktop/optee-qemu/optee_os/lib/libutee/tee_api.c:211
    294c:	aa1703e1 	mov	x1, x23
    2950:	aa1603e0 	mov	x0, x22
    2954:	97ffff09 	bl	2578 <update_out_param>
/home/hei/Desktop/optee-qemu/optee_os/lib/libutee/tee_api.c:212
    2958:	f9402fe0 	ldr	x0, [sp, #88]
    295c:	b40000a0 	cbz	x0, 2970 <TEE_InvokeTACommand+0xb0>
/home/hei/Desktop/optee-qemu/optee_os/lib/libutee/tee_api.c:213
    2960:	f94033e1 	ldr	x1, [sp, #96]
    2964:	9400010d 	bl	2d98 <tee_unmap>
/home/hei/Desktop/optee-qemu/optee_os/lib/libutee/tee_api.c:215
    2968:	34000040 	cbz	w0, 2970 <TEE_InvokeTACommand+0xb0>
/home/hei/Desktop/optee-qemu/optee_os/lib/libutee/tee_api.c:216
    296c:	940000ca 	bl	2c94 <TEE_Panic>
/home/hei/Desktop/optee-qemu/optee_os/lib/libutee/tee_api.c:220
    2970:	b94057e0 	ldr	w0, [sp, #84]
    2974:	b4000055 	cbz	x21, 297c <TEE_InvokeTACommand+0xbc>
/home/hei/Desktop/optee-qemu/optee_os/lib/libutee/tee_api.c:221
    2978:	b90002a0 	str	w0, [x21]
/home/hei/Desktop/optee-qemu/optee_os/lib/libutee/tee_api.c:223
    297c:	7100101f 	cmp	w0, #0x4
    2980:	54000140 	b.eq	29a8 <TEE_InvokeTACommand+0xe8>  // b.none
/home/hei/Desktop/optee-qemu/optee_os/lib/libutee/tee_api.c:226
    2984:	7100027f 	cmp	w19, #0x0
    2988:	129ffe60 	mov	w0, #0xffff000c            	// #-65524
    298c:	7a401264 	ccmp	w19, w0, #0x4, ne  // ne = any
    2990:	540000c0 	b.eq	29a8 <TEE_InvokeTACommand+0xe8>  // b.none
/home/hei/Desktop/optee-qemu/optee_os/lib/libutee/tee_api.c:227
    2994:	1299fb60 	mov	w0, #0xffff3024            	// #-53212
    2998:	6b00027f 	cmp	w19, w0
    299c:	54000060 	b.eq	29a8 <TEE_InvokeTACommand+0xe8>  // b.none
/home/hei/Desktop/optee-qemu/optee_os/lib/libutee/tee_api.c:229
    29a0:	2a1303e0 	mov	w0, w19
    29a4:	940000bc 	bl	2c94 <TEE_Panic>
/home/hei/Desktop/optee-qemu/optee_os/lib/libutee/tee_api.c:232
    29a8:	2a1303e0 	mov	w0, w19
    29ac:	a94153f3 	ldp	x19, x20, [sp, #16]
    29b0:	a9425bf5 	ldp	x21, x22, [sp, #32]
    29b4:	a94363f7 	ldp	x23, x24, [sp, #48]
    29b8:	a9446bf9 	ldp	x25, x26, [sp, #64]
    29bc:	a8cd7bfd 	ldp	x29, x30, [sp], #208
    29c0:	d65f03c0 	ret

00000000000029c4 <TEE_OpenTASession>:
TEE_OpenTASession():
/home/hei/Desktop/optee-qemu/optee_os/lib/libutee/tee_api.c:148
    29c4:	a9b37bfd 	stp	x29, x30, [sp, #-208]!
    29c8:	910003fd 	mov	x29, sp
    29cc:	a90153f3 	stp	x19, x20, [sp, #16]
/home/hei/Desktop/optee-qemu/optee_os/lib/libutee/tee_api.c:156
    29d0:	910223f4 	add	x20, sp, #0x88
/home/hei/Desktop/optee-qemu/optee_os/lib/libutee/tee_api.c:148
    29d4:	a9025bf5 	stp	x21, x22, [sp, #32]
    29d8:	aa0303f5 	mov	x21, x3
/home/hei/Desktop/optee-qemu/optee_os/lib/libutee/tee_api.c:156
    29dc:	9101a3f6 	add	x22, sp, #0x68
    29e0:	910163e3 	add	x3, sp, #0x58
/home/hei/Desktop/optee-qemu/optee_os/lib/libutee/tee_api.c:148
    29e4:	a90363f7 	stp	x23, x24, [sp, #48]
    29e8:	aa0003f8 	mov	x24, x0
    29ec:	aa0403f7 	mov	x23, x4
/home/hei/Desktop/optee-qemu/optee_os/lib/libutee/tee_api.c:156
    29f0:	aa1403e0 	mov	x0, x20
    29f4:	910183e4 	add	x4, sp, #0x60
/home/hei/Desktop/optee-qemu/optee_os/lib/libutee/tee_api.c:148
    29f8:	a9046bf9 	stp	x25, x26, [sp, #64]
    29fc:	2a0103f9 	mov	w25, w1
    2a00:	aa0503fa 	mov	x26, x5
    2a04:	2a0203e1 	mov	w1, w2
/home/hei/Desktop/optee-qemu/optee_os/lib/libutee/tee_api.c:156
    2a08:	aa1603e5 	mov	x5, x22
    2a0c:	aa1503e2 	mov	x2, x21
/home/hei/Desktop/optee-qemu/optee_os/lib/libutee/tee_api.c:151
    2a10:	b90057ff 	str	wzr, [sp, #84]
/home/hei/Desktop/optee-qemu/optee_os/lib/libutee/tee_api.c:153
    2a14:	a905ffff 	stp	xzr, xzr, [sp, #88]
/home/hei/Desktop/optee-qemu/optee_os/lib/libutee/tee_api.c:154
    2a18:	a906ffff 	stp	xzr, xzr, [sp, #104]
    2a1c:	a907ffff 	stp	xzr, xzr, [sp, #120]
/home/hei/Desktop/optee-qemu/optee_os/lib/libutee/tee_api.c:156
    2a20:	97ffff34 	bl	26f0 <copy_param.constprop.1>
/home/hei/Desktop/optee-qemu/optee_os/lib/libutee/tee_api.c:157
    2a24:	350003a0 	cbnz	w0, 2a98 <TEE_OpenTASession+0xd4>
/home/hei/Desktop/optee-qemu/optee_os/lib/libutee/tee_api.c:159
    2a28:	aa1a03e4 	mov	x4, x26
    2a2c:	910153e3 	add	x3, sp, #0x54
    2a30:	aa1403e2 	mov	x2, x20
    2a34:	2a1903e1 	mov	w1, w25
    2a38:	aa1803e0 	mov	x0, x24
    2a3c:	9400010c 	bl	2e6c <utee_open_ta_session>
/home/hei/Desktop/optee-qemu/optee_os/lib/libutee/tee_api.c:161
    2a40:	aa1403e2 	mov	x2, x20
/home/hei/Desktop/optee-qemu/optee_os/lib/libutee/tee_api.c:159
    2a44:	2a0003f3 	mov	w19, w0
/home/hei/Desktop/optee-qemu/optee_os/lib/libutee/tee_api.c:161
    2a48:	aa1603e1 	mov	x1, x22
    2a4c:	aa1503e0 	mov	x0, x21
    2a50:	97fffeca 	bl	2578 <update_out_param>
/home/hei/Desktop/optee-qemu/optee_os/lib/libutee/tee_api.c:162
    2a54:	f9402fe0 	ldr	x0, [sp, #88]
    2a58:	b40000a0 	cbz	x0, 2a6c <TEE_OpenTASession+0xa8>
/home/hei/Desktop/optee-qemu/optee_os/lib/libutee/tee_api.c:163
    2a5c:	f94033e1 	ldr	x1, [sp, #96]
    2a60:	940000ce 	bl	2d98 <tee_unmap>
/home/hei/Desktop/optee-qemu/optee_os/lib/libutee/tee_api.c:165
    2a64:	34000040 	cbz	w0, 2a6c <TEE_OpenTASession+0xa8>
/home/hei/Desktop/optee-qemu/optee_os/lib/libutee/tee_api.c:166
    2a68:	9400008b 	bl	2c94 <TEE_Panic>
/home/hei/Desktop/optee-qemu/optee_os/lib/libutee/tee_api.c:175
    2a6c:	34000053 	cbz	w19, 2a74 <TEE_OpenTASession+0xb0>
/home/hei/Desktop/optee-qemu/optee_os/lib/libutee/tee_api.c:176
    2a70:	b90057ff 	str	wzr, [sp, #84]
/home/hei/Desktop/optee-qemu/optee_os/lib/libutee/tee_api.c:178
    2a74:	b94057e0 	ldr	w0, [sp, #84]
/home/hei/Desktop/optee-qemu/optee_os/lib/libutee/tee_api.c:180
    2a78:	a9425bf5 	ldp	x21, x22, [sp, #32]
    2a7c:	a9446bf9 	ldp	x25, x26, [sp, #64]
/home/hei/Desktop/optee-qemu/optee_os/lib/libutee/tee_api.c:178
    2a80:	f90002e0 	str	x0, [x23]
/home/hei/Desktop/optee-qemu/optee_os/lib/libutee/tee_api.c:180
    2a84:	2a1303e0 	mov	w0, w19
    2a88:	a94153f3 	ldp	x19, x20, [sp, #16]
    2a8c:	a94363f7 	ldp	x23, x24, [sp, #48]
    2a90:	a8cd7bfd 	ldp	x29, x30, [sp], #208
    2a94:	d65f03c0 	ret
    2a98:	2a0003f3 	mov	w19, w0
    2a9c:	17fffff5 	b	2a70 <TEE_OpenTASession+0xac>

0000000000002aa0 <TEE_SetInstanceData>:
TEE_SetInstanceData():
/home/hei/Desktop/optee-qemu/optee_os/lib/libutee/tee_api.c:293
    2aa0:	d0000041 	adrp	x1, c000 <_DYNAMIC>
    2aa4:	f9023820 	str	x0, [x1, #1136]
/home/hei/Desktop/optee-qemu/optee_os/lib/libutee/tee_api.c:294
    2aa8:	d65f03c0 	ret

0000000000002aac <TEE_GetInstanceData>:
TEE_GetInstanceData():
/home/hei/Desktop/optee-qemu/optee_os/lib/libutee/tee_api.c:299
    2aac:	d0000040 	adrp	x0, c000 <_DYNAMIC>
    2ab0:	f9423800 	ldr	x0, [x0, #1136]
    2ab4:	d65f03c0 	ret

0000000000002ab8 <TEE_MemMove>:
TEE_MemMove():
/home/hei/Desktop/optee-qemu/optee_os/lib/libutee/tee_api.c:303
    2ab8:	2a0203e2 	mov	w2, w2
    2abc:	140017eb 	b	8a68 <memmove>

0000000000002ac0 <TEE_MemCompare>:
TEE_MemCompare():
/home/hei/Desktop/optee-qemu/optee_os/lib/libutee/tee_api.c:308
    2ac0:	2a0203e2 	mov	w2, w2
    2ac4:	1400186a 	b	8c6c <consttime_memcmp>

0000000000002ac8 <TEE_MemFill>:
TEE_MemFill():
/home/hei/Desktop/optee-qemu/optee_os/lib/libutee/tee_api.c:313
    2ac8:	2a0203e2 	mov	w2, w2
    2acc:	17fffae7 	b	1668 <memset>

0000000000002ad0 <TEE_GetSystemTime>:
TEE_GetSystemTime():
/home/hei/Desktop/optee-qemu/optee_os/lib/libutee/tee_api.c:319
    2ad0:	a9bf7bfd 	stp	x29, x30, [sp, #-16]!
/home/hei/Desktop/optee-qemu/optee_os/lib/libutee/tee_api.c:320
    2ad4:	aa0003e1 	mov	x1, x0
    2ad8:	d2800000 	mov	x0, #0x0                   	// #0
/home/hei/Desktop/optee-qemu/optee_os/lib/libutee/tee_api.c:319
    2adc:	910003fd 	mov	x29, sp
/home/hei/Desktop/optee-qemu/optee_os/lib/libutee/tee_api.c:320
    2ae0:	940000fb 	bl	2ecc <utee_get_time>
/home/hei/Desktop/optee-qemu/optee_os/lib/libutee/tee_api.c:322
    2ae4:	34000060 	cbz	w0, 2af0 <TEE_GetSystemTime+0x20>
/home/hei/Desktop/optee-qemu/optee_os/lib/libutee/tee_api.c:324
    2ae8:	a8c17bfd 	ldp	x29, x30, [sp], #16
/home/hei/Desktop/optee-qemu/optee_os/lib/libutee/tee_api.c:323
    2aec:	1400006a 	b	2c94 <TEE_Panic>
/home/hei/Desktop/optee-qemu/optee_os/lib/libutee/tee_api.c:324
    2af0:	a8c17bfd 	ldp	x29, x30, [sp], #16
    2af4:	d65f03c0 	ret

0000000000002af8 <TEE_Wait>:
TEE_Wait():
/home/hei/Desktop/optee-qemu/optee_os/lib/libutee/tee_api.c:327
    2af8:	a9be7bfd 	stp	x29, x30, [sp, #-32]!
/home/hei/Desktop/optee-qemu/optee_os/lib/libutee/tee_api.c:328
    2afc:	2a0003e0 	mov	w0, w0
/home/hei/Desktop/optee-qemu/optee_os/lib/libutee/tee_api.c:327
    2b00:	910003fd 	mov	x29, sp
    2b04:	f9000bf3 	str	x19, [sp, #16]
/home/hei/Desktop/optee-qemu/optee_os/lib/libutee/tee_api.c:328
    2b08:	940000ee 	bl	2ec0 <utee_wait>
/home/hei/Desktop/optee-qemu/optee_os/lib/libutee/tee_api.c:330
    2b0c:	7100001f 	cmp	w0, #0x0
    2b10:	129fffa1 	mov	w1, #0xffff0002            	// #-65534
/home/hei/Desktop/optee-qemu/optee_os/lib/libutee/tee_api.c:328
    2b14:	2a0003f3 	mov	w19, w0
/home/hei/Desktop/optee-qemu/optee_os/lib/libutee/tee_api.c:330
    2b18:	7a411004 	ccmp	w0, w1, #0x4, ne  // ne = any
    2b1c:	54000040 	b.eq	2b24 <TEE_Wait+0x2c>  // b.none
/home/hei/Desktop/optee-qemu/optee_os/lib/libutee/tee_api.c:331
    2b20:	9400005d 	bl	2c94 <TEE_Panic>
/home/hei/Desktop/optee-qemu/optee_os/lib/libutee/tee_api.c:334
    2b24:	2a1303e0 	mov	w0, w19
    2b28:	f9400bf3 	ldr	x19, [sp, #16]
    2b2c:	a8c27bfd 	ldp	x29, x30, [sp], #32
    2b30:	d65f03c0 	ret

0000000000002b34 <TEE_GetTAPersistentTime>:
TEE_GetTAPersistentTime():
/home/hei/Desktop/optee-qemu/optee_os/lib/libutee/tee_api.c:337
    2b34:	a9be7bfd 	stp	x29, x30, [sp, #-32]!
/home/hei/Desktop/optee-qemu/optee_os/lib/libutee/tee_api.c:340
    2b38:	aa0003e1 	mov	x1, x0
/home/hei/Desktop/optee-qemu/optee_os/lib/libutee/tee_api.c:337
    2b3c:	910003fd 	mov	x29, sp
    2b40:	a90153f3 	stp	x19, x20, [sp, #16]
    2b44:	aa0003f4 	mov	x20, x0
/home/hei/Desktop/optee-qemu/optee_os/lib/libutee/tee_api.c:340
    2b48:	d2800020 	mov	x0, #0x1                   	// #1
    2b4c:	940000e0 	bl	2ecc <utee_get_time>
/home/hei/Desktop/optee-qemu/optee_os/lib/libutee/tee_api.c:342
    2b50:	7100001f 	cmp	w0, #0x0
/home/hei/Desktop/optee-qemu/optee_os/lib/libutee/tee_api.c:340
    2b54:	2a0003f3 	mov	w19, w0
/home/hei/Desktop/optee-qemu/optee_os/lib/libutee/tee_api.c:342
    2b58:	1a9f07e2 	cset	w2, ne  // ne = any
    2b5c:	1299fe00 	mov	w0, #0xffff300f            	// #-53233
    2b60:	6b00027f 	cmp	w19, w0
    2b64:	1a9f1041 	csel	w1, w2, wzr, ne  // ne = any
    2b68:	34000041 	cbz	w1, 2b70 <TEE_GetTAPersistentTime+0x3c>
/home/hei/Desktop/optee-qemu/optee_os/lib/libutee/tee_api.c:344
    2b6c:	29007e9f 	stp	wzr, wzr, [x20]
/home/hei/Desktop/optee-qemu/optee_os/lib/libutee/tee_api.c:348
    2b70:	11402e60 	add	w0, w19, #0xb, lsl #12
/home/hei/Desktop/optee-qemu/optee_os/lib/libutee/tee_api.c:347
    2b74:	7100005f 	cmp	w2, #0x0
    2b78:	7a411800 	ccmp	w0, #0x1, #0x0, ne  // ne = any
    2b7c:	540000e9 	b.ls	2b98 <TEE_GetTAPersistentTime+0x64>  // b.plast
/home/hei/Desktop/optee-qemu/optee_os/lib/libutee/tee_api.c:349
    2b80:	340000c1 	cbz	w1, 2b98 <TEE_GetTAPersistentTime+0x64>
/home/hei/Desktop/optee-qemu/optee_os/lib/libutee/tee_api.c:350
    2b84:	129ffe60 	mov	w0, #0xffff000c            	// #-65524
    2b88:	6b00027f 	cmp	w19, w0
    2b8c:	54000060 	b.eq	2b98 <TEE_GetTAPersistentTime+0x64>  // b.none
/home/hei/Desktop/optee-qemu/optee_os/lib/libutee/tee_api.c:352
    2b90:	2a1303e0 	mov	w0, w19
    2b94:	94000040 	bl	2c94 <TEE_Panic>
/home/hei/Desktop/optee-qemu/optee_os/lib/libutee/tee_api.c:355
    2b98:	2a1303e0 	mov	w0, w19
    2b9c:	a94153f3 	ldp	x19, x20, [sp, #16]
    2ba0:	a8c27bfd 	ldp	x29, x30, [sp], #32
    2ba4:	d65f03c0 	ret

0000000000002ba8 <TEE_SetTAPersistentTime>:
TEE_SetTAPersistentTime():
/home/hei/Desktop/optee-qemu/optee_os/lib/libutee/tee_api.c:358
    2ba8:	a9be7bfd 	stp	x29, x30, [sp, #-32]!
    2bac:	910003fd 	mov	x29, sp
    2bb0:	f9000bf3 	str	x19, [sp, #16]
/home/hei/Desktop/optee-qemu/optee_os/lib/libutee/tee_api.c:361
    2bb4:	940000c9 	bl	2ed8 <utee_set_ta_time>
/home/hei/Desktop/optee-qemu/optee_os/lib/libutee/tee_api.c:363
    2bb8:	7100001f 	cmp	w0, #0x0
    2bbc:	129ffe61 	mov	w1, #0xffff000c            	// #-65524
/home/hei/Desktop/optee-qemu/optee_os/lib/libutee/tee_api.c:361
    2bc0:	2a0003f3 	mov	w19, w0
/home/hei/Desktop/optee-qemu/optee_os/lib/libutee/tee_api.c:363
    2bc4:	7a411004 	ccmp	w0, w1, #0x4, ne  // ne = any
    2bc8:	540000a0 	b.eq	2bdc <TEE_SetTAPersistentTime+0x34>  // b.none
/home/hei/Desktop/optee-qemu/optee_os/lib/libutee/tee_api.c:364
    2bcc:	1299f7c1 	mov	w1, #0xffff3041            	// #-53183
    2bd0:	6b01001f 	cmp	w0, w1
    2bd4:	54000040 	b.eq	2bdc <TEE_SetTAPersistentTime+0x34>  // b.none
/home/hei/Desktop/optee-qemu/optee_os/lib/libutee/tee_api.c:366
    2bd8:	9400002f 	bl	2c94 <TEE_Panic>
/home/hei/Desktop/optee-qemu/optee_os/lib/libutee/tee_api.c:369
    2bdc:	2a1303e0 	mov	w0, w19
    2be0:	f9400bf3 	ldr	x19, [sp, #16]
    2be4:	a8c27bfd 	ldp	x29, x30, [sp], #32
    2be8:	d65f03c0 	ret

0000000000002bec <TEE_GetREETime>:
TEE_GetREETime():
/home/hei/Desktop/optee-qemu/optee_os/lib/libutee/tee_api.c:372
    2bec:	a9bf7bfd 	stp	x29, x30, [sp, #-16]!
/home/hei/Desktop/optee-qemu/optee_os/lib/libutee/tee_api.c:373
    2bf0:	aa0003e1 	mov	x1, x0
    2bf4:	d2800040 	mov	x0, #0x2                   	// #2
/home/hei/Desktop/optee-qemu/optee_os/lib/libutee/tee_api.c:372
    2bf8:	910003fd 	mov	x29, sp
/home/hei/Desktop/optee-qemu/optee_os/lib/libutee/tee_api.c:373
    2bfc:	940000b4 	bl	2ecc <utee_get_time>
/home/hei/Desktop/optee-qemu/optee_os/lib/libutee/tee_api.c:375
    2c00:	34000060 	cbz	w0, 2c0c <TEE_GetREETime+0x20>
/home/hei/Desktop/optee-qemu/optee_os/lib/libutee/tee_api.c:377
    2c04:	a8c17bfd 	ldp	x29, x30, [sp], #16
/home/hei/Desktop/optee-qemu/optee_os/lib/libutee/tee_api.c:376
    2c08:	14000023 	b	2c94 <TEE_Panic>
/home/hei/Desktop/optee-qemu/optee_os/lib/libutee/tee_api.c:377
    2c0c:	a8c17bfd 	ldp	x29, x30, [sp], #16
    2c10:	d65f03c0 	ret

0000000000002c14 <TEE_Malloc>:
TEE_Malloc():
/home/hei/Desktop/optee-qemu/optee_os/lib/libutee/tee_api.c:381
    2c14:	35000081 	cbnz	w1, 2c24 <TEE_Malloc+0x10>
/home/hei/Desktop/optee-qemu/optee_os/lib/libutee/tee_api.c:382
    2c18:	2a0003e1 	mov	w1, w0
    2c1c:	d2800020 	mov	x0, #0x1                   	// #1
    2c20:	17fff98a 	b	1248 <calloc>
/home/hei/Desktop/optee-qemu/optee_os/lib/libutee/tee_api.c:383
    2c24:	52b00002 	mov	w2, #0x80000000            	// #-2147483648
    2c28:	6b02003f 	cmp	w1, w2
    2c2c:	54000061 	b.ne	2c38 <TEE_Malloc+0x24>  // b.any
/home/hei/Desktop/optee-qemu/optee_os/lib/libutee/tee_api.c:384
    2c30:	2a0003e0 	mov	w0, w0
    2c34:	17fff971 	b	11f8 <malloc>
/home/hei/Desktop/optee-qemu/optee_os/lib/libutee/tee_api.c:380
    2c38:	a9bf7bfd 	stp	x29, x30, [sp, #-16]!
    2c3c:	2a0103e5 	mov	w5, w1
/home/hei/Desktop/optee-qemu/optee_os/lib/libutee/tee_api.c:386
    2c40:	52800023 	mov	w3, #0x1                   	// #1
/home/hei/Desktop/optee-qemu/optee_os/lib/libutee/tee_api.c:380
    2c44:	910003fd 	mov	x29, sp
/home/hei/Desktop/optee-qemu/optee_os/lib/libutee/tee_api.c:386
    2c48:	52800022 	mov	w2, #0x1                   	// #1
    2c4c:	52803041 	mov	w1, #0x182                 	// #386
    2c50:	b0000044 	adrp	x4, b000 <__func__.3755+0xec>
    2c54:	90000040 	adrp	x0, a000 <__text_end+0x1324>
    2c58:	91098884 	add	x4, x4, #0x262
    2c5c:	91210c00 	add	x0, x0, #0x843
    2c60:	97fff6fa 	bl	848 <trace_printf>
/home/hei/Desktop/optee-qemu/optee_os/lib/libutee/tee_api.c:389
    2c64:	d2800000 	mov	x0, #0x0                   	// #0
    2c68:	a8c17bfd 	ldp	x29, x30, [sp], #16
    2c6c:	d65f03c0 	ret

0000000000002c70 <TEE_Realloc>:
TEE_Realloc():
/home/hei/Desktop/optee-qemu/optee_os/lib/libutee/tee_api.c:393
    2c70:	2a0103e1 	mov	w1, w1
    2c74:	17fff98e 	b	12ac <realloc>

0000000000002c78 <TEE_Free>:
TEE_Free():
/home/hei/Desktop/optee-qemu/optee_os/lib/libutee/tee_api.c:398
    2c78:	17fff9a1 	b	12fc <free>

0000000000002c7c <TEE_CacheClean>:
TEE_CacheClean():
/home/hei/Desktop/optee-qemu/optee_os/lib/libutee/tee_api.c:404
    2c7c:	d2800002 	mov	x2, #0x0                   	// #0
    2c80:	14000111 	b	30c4 <utee_cache_operation>

0000000000002c84 <TEE_CacheFlush>:
TEE_CacheFlush():
/home/hei/Desktop/optee-qemu/optee_os/lib/libutee/tee_api.c:408
    2c84:	d2800022 	mov	x2, #0x1                   	// #1
    2c88:	1400010f 	b	30c4 <utee_cache_operation>

0000000000002c8c <TEE_CacheInvalidate>:
TEE_CacheInvalidate():
/home/hei/Desktop/optee-qemu/optee_os/lib/libutee/tee_api.c:413
    2c8c:	d2800042 	mov	x2, #0x2                   	// #2
    2c90:	1400010d 	b	30c4 <utee_cache_operation>

0000000000002c94 <TEE_Panic>:
TEE_Panic():
/home/hei/Desktop/optee-qemu/optee_os/lib/libutee/tee_api_panic.c:12
    2c94:	2a0003e0 	mov	w0, w0
    2c98:	14000063 	b	2e24 <utee_panic>

0000000000002c9c <invoke_system_pta>:
invoke_system_pta():
/home/hei/Desktop/optee-qemu/optee_os/lib/libutee/tee_system_pta.c:15
    2c9c:	a9bd7bfd 	stp	x29, x30, [sp, #-48]!
    2ca0:	910003fd 	mov	x29, sp
    2ca4:	a90153f3 	stp	x19, x20, [sp, #16]
    2ca8:	2a0003f4 	mov	w20, w0
/home/hei/Desktop/optee-qemu/optee_os/lib/libutee/tee_system_pta.c:19
    2cac:	d0000040 	adrp	x0, c000 <_DYNAMIC>
/home/hei/Desktop/optee-qemu/optee_os/lib/libutee/tee_system_pta.c:15
    2cb0:	a9025bf5 	stp	x21, x22, [sp, #32]
    2cb4:	2a0103f5 	mov	w21, w1
    2cb8:	aa0203f6 	mov	x22, x2
/home/hei/Desktop/optee-qemu/optee_os/lib/libutee/tee_system_pta.c:19
    2cbc:	f9423c01 	ldr	x1, [x0, #1144]
    2cc0:	aa0003f3 	mov	x19, x0
    2cc4:	b4000161 	cbz	x1, 2cf0 <invoke_system_pta+0x54>
/home/hei/Desktop/optee-qemu/optee_os/lib/libutee/tee_system_pta.c:27
    2cc8:	aa1603e4 	mov	x4, x22
    2ccc:	2a1503e3 	mov	w3, w21
    2cd0:	2a1403e2 	mov	w2, w20
    2cd4:	d2800005 	mov	x5, #0x0                   	// #0
    2cd8:	f9423e60 	ldr	x0, [x19, #1144]
    2cdc:	12800001 	mov	w1, #0xffffffff            	// #-1
/home/hei/Desktop/optee-qemu/optee_os/lib/libutee/tee_system_pta.c:29
    2ce0:	a94153f3 	ldp	x19, x20, [sp, #16]
    2ce4:	a9425bf5 	ldp	x21, x22, [sp, #32]
    2ce8:	a8c37bfd 	ldp	x29, x30, [sp], #48
/home/hei/Desktop/optee-qemu/optee_os/lib/libutee/tee_system_pta.c:27
    2cec:	17fffef5 	b	28c0 <TEE_InvokeTACommand>
    2cf0:	9111e004 	add	x4, x0, #0x478
/home/hei/Desktop/optee-qemu/optee_os/lib/libutee/tee_system_pta.c:20
    2cf4:	d2800005 	mov	x5, #0x0                   	// #0
    2cf8:	90000040 	adrp	x0, a000 <__text_end+0x1324>
    2cfc:	d2800003 	mov	x3, #0x0                   	// #0
    2d00:	52800002 	mov	w2, #0x0                   	// #0
    2d04:	12800001 	mov	w1, #0xffffffff            	// #-1
    2d08:	91214000 	add	x0, x0, #0x850
    2d0c:	97ffff2e 	bl	29c4 <TEE_OpenTASession>
/home/hei/Desktop/optee-qemu/optee_os/lib/libutee/tee_system_pta.c:23
    2d10:	34fffdc0 	cbz	w0, 2cc8 <invoke_system_pta+0x2c>
/home/hei/Desktop/optee-qemu/optee_os/lib/libutee/tee_system_pta.c:29
    2d14:	a94153f3 	ldp	x19, x20, [sp, #16]
    2d18:	a9425bf5 	ldp	x21, x22, [sp, #32]
    2d1c:	a8c37bfd 	ldp	x29, x30, [sp], #48
    2d20:	d65f03c0 	ret

0000000000002d24 <tee_map_zi>:
tee_map_zi():
/home/hei/Desktop/optee-qemu/optee_os/lib/libutee/tee_system_pta.c:32
    2d24:	a9ba7bfd 	stp	x29, x30, [sp, #-96]!
/home/hei/Desktop/optee-qemu/optee_os/lib/libutee/tee_system_pta.c:37
    2d28:	d2800782 	mov	x2, #0x3c                  	// #60
/home/hei/Desktop/optee-qemu/optee_os/lib/libutee/tee_system_pta.c:32
    2d2c:	910003fd 	mov	x29, sp
    2d30:	a90153f3 	stp	x19, x20, [sp, #16]
    2d34:	aa0003f4 	mov	x20, x0
    2d38:	2a0103f3 	mov	w19, w1
/home/hei/Desktop/optee-qemu/optee_os/lib/libutee/tee_system_pta.c:37
    2d3c:	910093e0 	add	x0, sp, #0x24
    2d40:	52800001 	mov	w1, #0x0                   	// #0
    2d44:	97fffa49 	bl	1668 <memset>
/home/hei/Desktop/optee-qemu/optee_os/lib/libutee/tee_system_pta.c:40
    2d48:	b90023f4 	str	w20, [sp, #32]
/home/hei/Desktop/optee-qemu/optee_os/lib/libutee/tee_system_pta.c:41
    2d4c:	f2607e9f 	tst	x20, #0xffffffff00000000
    2d50:	54000060 	b.eq	2d5c <tee_map_zi+0x38>  // b.none
/home/hei/Desktop/optee-qemu/optee_os/lib/libutee/tee_system_pta.c:50
    2d54:	d2800000 	mov	x0, #0x0                   	// #0
    2d58:	1400000d 	b	2d8c <tee_map_zi+0x68>
/home/hei/Desktop/optee-qemu/optee_os/lib/libutee/tee_system_pta.c:43
    2d5c:	340000b3 	cbz	w19, 2d70 <tee_map_zi+0x4c>
    2d60:	7100127f 	cmp	w19, #0x4
    2d64:	54ffff81 	b.ne	2d54 <tee_map_zi+0x30>  // b.any
/home/hei/Desktop/optee-qemu/optee_os/lib/libutee/tee_system_pta.c:47
    2d68:	52800020 	mov	w0, #0x1                   	// #1
    2d6c:	b90027e0 	str	w0, [sp, #36]
/home/hei/Desktop/optee-qemu/optee_os/lib/libutee/tee_system_pta.c:53
    2d70:	910083e2 	add	x2, sp, #0x20
    2d74:	52802621 	mov	w1, #0x131                 	// #305
    2d78:	52800040 	mov	w0, #0x2                   	// #2
    2d7c:	97ffffc8 	bl	2c9c <invoke_system_pta>
/home/hei/Desktop/optee-qemu/optee_os/lib/libutee/tee_system_pta.c:54
    2d80:	35fffea0 	cbnz	w0, 2d54 <tee_map_zi+0x30>
reg_pair_to_64():
/home/hei/Desktop/optee-qemu/optee_os/lib/libutils/ext/include/util.h:139
    2d84:	294607e0 	ldp	w0, w1, [sp, #48]
    2d88:	aa008020 	orr	x0, x1, x0, lsl #32
tee_map_zi():
/home/hei/Desktop/optee-qemu/optee_os/lib/libutee/tee_system_pta.c:59
    2d8c:	a94153f3 	ldp	x19, x20, [sp, #16]
    2d90:	a8c67bfd 	ldp	x29, x30, [sp], #96
    2d94:	d65f03c0 	ret

0000000000002d98 <tee_unmap>:
tee_unmap():
/home/hei/Desktop/optee-qemu/optee_os/lib/libutee/tee_system_pta.c:62
    2d98:	a9b97bfd 	stp	x29, x30, [sp, #-112]!
/home/hei/Desktop/optee-qemu/optee_os/lib/libutee/tee_system_pta.c:68
    2d9c:	d2800782 	mov	x2, #0x3c                  	// #60
/home/hei/Desktop/optee-qemu/optee_os/lib/libutee/tee_system_pta.c:62
    2da0:	910003fd 	mov	x29, sp
    2da4:	a90153f3 	stp	x19, x20, [sp, #16]
    2da8:	aa0003f3 	mov	x19, x0
/home/hei/Desktop/optee-qemu/optee_os/lib/libutee/tee_system_pta.c:68
    2dac:	9100d3e0 	add	x0, sp, #0x34
/home/hei/Desktop/optee-qemu/optee_os/lib/libutee/tee_system_pta.c:62
    2db0:	f90013f5 	str	x21, [sp, #32]
    2db4:	aa0103f5 	mov	x21, x1
/home/hei/Desktop/optee-qemu/optee_os/lib/libutee/tee_system_pta.c:68
    2db8:	52800001 	mov	w1, #0x0                   	// #0
    2dbc:	97fffa2b 	bl	1668 <memset>
reg_pair_from_64():
/home/hei/Desktop/optee-qemu/optee_os/lib/libutils/ext/include/util.h:145
    2dc0:	d360fe60 	lsr	x0, x19, #32
tee_unmap():
/home/hei/Desktop/optee-qemu/optee_os/lib/libutee/tee_system_pta.c:73
    2dc4:	9100c3e2 	add	x2, sp, #0x30
    2dc8:	52800221 	mov	w1, #0x11                  	// #17
/home/hei/Desktop/optee-qemu/optee_os/lib/libutee/tee_system_pta.c:70
    2dcc:	b90033f5 	str	w21, [sp, #48]
reg_pair_from_64():
/home/hei/Desktop/optee-qemu/optee_os/lib/libutils/ext/include/util.h:146
    2dd0:	29084fe0 	stp	w0, w19, [sp, #64]
tee_unmap():
/home/hei/Desktop/optee-qemu/optee_os/lib/libutee/tee_system_pta.c:73
    2dd4:	52800060 	mov	w0, #0x3                   	// #3
    2dd8:	97ffffb1 	bl	2c9c <invoke_system_pta>
    2ddc:	2a0003f4 	mov	w20, w0
/home/hei/Desktop/optee-qemu/optee_os/lib/libutee/tee_system_pta.c:74
    2de0:	34000180 	cbz	w0, 2e10 <tee_unmap+0x78>
/home/hei/Desktop/optee-qemu/optee_os/lib/libutee/tee_system_pta.c:75
    2de4:	90000040 	adrp	x0, a000 <__text_end+0x1324>
    2de8:	91214000 	add	x0, x0, #0x850
    2dec:	b0000044 	adrp	x4, b000 <__func__.3755+0xec>
    2df0:	aa1503e6 	mov	x6, x21
    2df4:	aa1303e5 	mov	x5, x19
    2df8:	9109cc84 	add	x4, x4, #0x273
    2dfc:	52800023 	mov	w3, #0x1                   	// #1
    2e00:	52800022 	mov	w2, #0x1                   	// #1
    2e04:	52800961 	mov	w1, #0x4b                  	// #75
    2e08:	91004000 	add	x0, x0, #0x10
    2e0c:	97fff68f 	bl	848 <trace_printf>
/home/hei/Desktop/optee-qemu/optee_os/lib/libutee/tee_system_pta.c:78
    2e10:	2a1403e0 	mov	w0, w20
    2e14:	a94153f3 	ldp	x19, x20, [sp, #16]
    2e18:	f94013f5 	ldr	x21, [sp, #32]
    2e1c:	a8c77bfd 	ldp	x29, x30, [sp], #112
    2e20:	d65f03c0 	ret

0000000000002e24 <utee_panic>:
utee_panic():
/home/hei/Desktop/optee-qemu/optee_os/lib/libutee/arch/arm/utee_syscalls_a64.S:41
    2e24:	a9bf7bfd 	stp	x29, x30, [sp, #-16]!
/home/hei/Desktop/optee-qemu/optee_os/lib/libutee/arch/arm/utee_syscalls_a64.S:42
    2e28:	910003e1 	mov	x1, sp
/home/hei/Desktop/optee-qemu/optee_os/lib/libutee/arch/arm/utee_syscalls_a64.S:43
    2e2c:	94000007 	bl	2e48 <__utee_panic>

0000000000002e30 <utee_return>:
utee_return():
/home/hei/Desktop/optee-qemu/optee_os/lib/libutee/arch/arm/utee_syscalls_asm.S:8
    2e30:	d2800008 	mov	x8, #0x0                   	// #0
    2e34:	d4000001 	svc	#0x0
    2e38:	d65f03c0 	ret

0000000000002e3c <utee_log>:
utee_log():
/home/hei/Desktop/optee-qemu/optee_os/lib/libutee/arch/arm/utee_syscalls_asm.S:10
    2e3c:	d2800028 	mov	x8, #0x1                   	// #1
    2e40:	d4000001 	svc	#0x0
    2e44:	d65f03c0 	ret

0000000000002e48 <__utee_panic>:
__utee_panic():
/home/hei/Desktop/optee-qemu/optee_os/lib/libutee/arch/arm/utee_syscalls_asm.S:12
    2e48:	d2800048 	mov	x8, #0x2                   	// #2
    2e4c:	d4000001 	svc	#0x0
    2e50:	d65f03c0 	ret

0000000000002e54 <utee_get_property>:
utee_get_property():
/home/hei/Desktop/optee-qemu/optee_os/lib/libutee/arch/arm/utee_syscalls_asm.S:14
    2e54:	d2800068 	mov	x8, #0x3                   	// #3
    2e58:	d4000001 	svc	#0x0
    2e5c:	d65f03c0 	ret

0000000000002e60 <utee_get_property_name_to_index>:
utee_get_property_name_to_index():
/home/hei/Desktop/optee-qemu/optee_os/lib/libutee/arch/arm/utee_syscalls_asm.S:16
    2e60:	d2800088 	mov	x8, #0x4                   	// #4
    2e64:	d4000001 	svc	#0x0
    2e68:	d65f03c0 	ret

0000000000002e6c <utee_open_ta_session>:
utee_open_ta_session():
/home/hei/Desktop/optee-qemu/optee_os/lib/libutee/arch/arm/utee_syscalls_asm.S:19
    2e6c:	d28000a8 	mov	x8, #0x5                   	// #5
    2e70:	d4000001 	svc	#0x0
    2e74:	d65f03c0 	ret

0000000000002e78 <utee_close_ta_session>:
utee_close_ta_session():
/home/hei/Desktop/optee-qemu/optee_os/lib/libutee/arch/arm/utee_syscalls_asm.S:21
    2e78:	d28000c8 	mov	x8, #0x6                   	// #6
    2e7c:	d4000001 	svc	#0x0
    2e80:	d65f03c0 	ret

0000000000002e84 <utee_invoke_ta_command>:
utee_invoke_ta_command():
/home/hei/Desktop/optee-qemu/optee_os/lib/libutee/arch/arm/utee_syscalls_asm.S:23
    2e84:	d28000e8 	mov	x8, #0x7                   	// #7
    2e88:	d4000001 	svc	#0x0
    2e8c:	d65f03c0 	ret

0000000000002e90 <utee_get_cancellation_flag>:
utee_get_cancellation_flag():
/home/hei/Desktop/optee-qemu/optee_os/lib/libutee/arch/arm/utee_syscalls_asm.S:25
    2e90:	d2800128 	mov	x8, #0x9                   	// #9
    2e94:	d4000001 	svc	#0x0
    2e98:	d65f03c0 	ret

0000000000002e9c <utee_check_access_rights>:
utee_check_access_rights():
/home/hei/Desktop/optee-qemu/optee_os/lib/libutee/arch/arm/utee_syscalls_asm.S:28
    2e9c:	d2800108 	mov	x8, #0x8                   	// #8
    2ea0:	d4000001 	svc	#0x0
    2ea4:	d65f03c0 	ret

0000000000002ea8 <utee_unmask_cancellation>:
utee_unmask_cancellation():
/home/hei/Desktop/optee-qemu/optee_os/lib/libutee/arch/arm/utee_syscalls_asm.S:30
    2ea8:	d2800148 	mov	x8, #0xa                   	// #10
    2eac:	d4000001 	svc	#0x0
    2eb0:	d65f03c0 	ret

0000000000002eb4 <utee_mask_cancellation>:
utee_mask_cancellation():
/home/hei/Desktop/optee-qemu/optee_os/lib/libutee/arch/arm/utee_syscalls_asm.S:32
    2eb4:	d2800168 	mov	x8, #0xb                   	// #11
    2eb8:	d4000001 	svc	#0x0
    2ebc:	d65f03c0 	ret

0000000000002ec0 <utee_wait>:
utee_wait():
/home/hei/Desktop/optee-qemu/optee_os/lib/libutee/arch/arm/utee_syscalls_asm.S:34
    2ec0:	d2800188 	mov	x8, #0xc                   	// #12
    2ec4:	d4000001 	svc	#0x0
    2ec8:	d65f03c0 	ret

0000000000002ecc <utee_get_time>:
utee_get_time():
/home/hei/Desktop/optee-qemu/optee_os/lib/libutee/arch/arm/utee_syscalls_asm.S:36
    2ecc:	d28001a8 	mov	x8, #0xd                   	// #13
    2ed0:	d4000001 	svc	#0x0
    2ed4:	d65f03c0 	ret

0000000000002ed8 <utee_set_ta_time>:
utee_set_ta_time():
/home/hei/Desktop/optee-qemu/optee_os/lib/libutee/arch/arm/utee_syscalls_asm.S:38
    2ed8:	d28001c8 	mov	x8, #0xe                   	// #14
    2edc:	d4000001 	svc	#0x0
    2ee0:	d65f03c0 	ret

0000000000002ee4 <utee_cryp_state_alloc>:
utee_cryp_state_alloc():
/home/hei/Desktop/optee-qemu/optee_os/lib/libutee/arch/arm/utee_syscalls_asm.S:40
    2ee4:	d28001e8 	mov	x8, #0xf                   	// #15
    2ee8:	d4000001 	svc	#0x0
    2eec:	d65f03c0 	ret

0000000000002ef0 <utee_cryp_state_copy>:
utee_cryp_state_copy():
/home/hei/Desktop/optee-qemu/optee_os/lib/libutee/arch/arm/utee_syscalls_asm.S:42
    2ef0:	d2800208 	mov	x8, #0x10                  	// #16
    2ef4:	d4000001 	svc	#0x0
    2ef8:	d65f03c0 	ret

0000000000002efc <utee_cryp_state_free>:
utee_cryp_state_free():
/home/hei/Desktop/optee-qemu/optee_os/lib/libutee/arch/arm/utee_syscalls_asm.S:44
    2efc:	d2800228 	mov	x8, #0x11                  	// #17
    2f00:	d4000001 	svc	#0x0
    2f04:	d65f03c0 	ret

0000000000002f08 <utee_hash_init>:
utee_hash_init():
/home/hei/Desktop/optee-qemu/optee_os/lib/libutee/arch/arm/utee_syscalls_asm.S:46
    2f08:	d2800248 	mov	x8, #0x12                  	// #18
    2f0c:	d4000001 	svc	#0x0
    2f10:	d65f03c0 	ret

0000000000002f14 <utee_hash_update>:
utee_hash_update():
/home/hei/Desktop/optee-qemu/optee_os/lib/libutee/arch/arm/utee_syscalls_asm.S:48
    2f14:	d2800268 	mov	x8, #0x13                  	// #19
    2f18:	d4000001 	svc	#0x0
    2f1c:	d65f03c0 	ret

0000000000002f20 <utee_hash_final>:
utee_hash_final():
/home/hei/Desktop/optee-qemu/optee_os/lib/libutee/arch/arm/utee_syscalls_asm.S:50
    2f20:	d2800288 	mov	x8, #0x14                  	// #20
    2f24:	d4000001 	svc	#0x0
    2f28:	d65f03c0 	ret

0000000000002f2c <utee_cipher_init>:
utee_cipher_init():
/home/hei/Desktop/optee-qemu/optee_os/lib/libutee/arch/arm/utee_syscalls_asm.S:52
    2f2c:	d28002a8 	mov	x8, #0x15                  	// #21
    2f30:	d4000001 	svc	#0x0
    2f34:	d65f03c0 	ret

0000000000002f38 <utee_cipher_update>:
utee_cipher_update():
/home/hei/Desktop/optee-qemu/optee_os/lib/libutee/arch/arm/utee_syscalls_asm.S:54
    2f38:	d28002c8 	mov	x8, #0x16                  	// #22
    2f3c:	d4000001 	svc	#0x0
    2f40:	d65f03c0 	ret

0000000000002f44 <utee_cipher_final>:
utee_cipher_final():
/home/hei/Desktop/optee-qemu/optee_os/lib/libutee/arch/arm/utee_syscalls_asm.S:56
    2f44:	d28002e8 	mov	x8, #0x17                  	// #23
    2f48:	d4000001 	svc	#0x0
    2f4c:	d65f03c0 	ret

0000000000002f50 <utee_cryp_obj_get_info>:
utee_cryp_obj_get_info():
/home/hei/Desktop/optee-qemu/optee_os/lib/libutee/arch/arm/utee_syscalls_asm.S:58
    2f50:	d2800308 	mov	x8, #0x18                  	// #24
    2f54:	d4000001 	svc	#0x0
    2f58:	d65f03c0 	ret

0000000000002f5c <utee_cryp_obj_restrict_usage>:
utee_cryp_obj_restrict_usage():
/home/hei/Desktop/optee-qemu/optee_os/lib/libutee/arch/arm/utee_syscalls_asm.S:60
    2f5c:	d2800328 	mov	x8, #0x19                  	// #25
    2f60:	d4000001 	svc	#0x0
    2f64:	d65f03c0 	ret

0000000000002f68 <utee_cryp_obj_get_attr>:
utee_cryp_obj_get_attr():
/home/hei/Desktop/optee-qemu/optee_os/lib/libutee/arch/arm/utee_syscalls_asm.S:63
    2f68:	d2800348 	mov	x8, #0x1a                  	// #26
    2f6c:	d4000001 	svc	#0x0
    2f70:	d65f03c0 	ret

0000000000002f74 <utee_cryp_obj_alloc>:
utee_cryp_obj_alloc():
/home/hei/Desktop/optee-qemu/optee_os/lib/libutee/arch/arm/utee_syscalls_asm.S:65
    2f74:	d2800368 	mov	x8, #0x1b                  	// #27
    2f78:	d4000001 	svc	#0x0
    2f7c:	d65f03c0 	ret

0000000000002f80 <utee_cryp_obj_close>:
utee_cryp_obj_close():
/home/hei/Desktop/optee-qemu/optee_os/lib/libutee/arch/arm/utee_syscalls_asm.S:67
    2f80:	d2800388 	mov	x8, #0x1c                  	// #28
    2f84:	d4000001 	svc	#0x0
    2f88:	d65f03c0 	ret

0000000000002f8c <utee_cryp_obj_reset>:
utee_cryp_obj_reset():
/home/hei/Desktop/optee-qemu/optee_os/lib/libutee/arch/arm/utee_syscalls_asm.S:69
    2f8c:	d28003a8 	mov	x8, #0x1d                  	// #29
    2f90:	d4000001 	svc	#0x0
    2f94:	d65f03c0 	ret

0000000000002f98 <utee_cryp_obj_populate>:
utee_cryp_obj_populate():
/home/hei/Desktop/optee-qemu/optee_os/lib/libutee/arch/arm/utee_syscalls_asm.S:71
    2f98:	d28003c8 	mov	x8, #0x1e                  	// #30
    2f9c:	d4000001 	svc	#0x0
    2fa0:	d65f03c0 	ret

0000000000002fa4 <utee_cryp_obj_copy>:
utee_cryp_obj_copy():
/home/hei/Desktop/optee-qemu/optee_os/lib/libutee/arch/arm/utee_syscalls_asm.S:73
    2fa4:	d28003e8 	mov	x8, #0x1f                  	// #31
    2fa8:	d4000001 	svc	#0x0
    2fac:	d65f03c0 	ret

0000000000002fb0 <utee_cryp_derive_key>:
utee_cryp_derive_key():
/home/hei/Desktop/optee-qemu/optee_os/lib/libutee/arch/arm/utee_syscalls_asm.S:75
    2fb0:	d2800408 	mov	x8, #0x20                  	// #32
    2fb4:	d4000001 	svc	#0x0
    2fb8:	d65f03c0 	ret

0000000000002fbc <utee_cryp_random_number_generate>:
utee_cryp_random_number_generate():
/home/hei/Desktop/optee-qemu/optee_os/lib/libutee/arch/arm/utee_syscalls_asm.S:77
    2fbc:	d2800428 	mov	x8, #0x21                  	// #33
    2fc0:	d4000001 	svc	#0x0
    2fc4:	d65f03c0 	ret

0000000000002fc8 <utee_authenc_init>:
utee_authenc_init():
/home/hei/Desktop/optee-qemu/optee_os/lib/libutee/arch/arm/utee_syscalls_asm.S:80
    2fc8:	d2800448 	mov	x8, #0x22                  	// #34
    2fcc:	d4000001 	svc	#0x0
    2fd0:	d65f03c0 	ret

0000000000002fd4 <utee_authenc_update_aad>:
utee_authenc_update_aad():
/home/hei/Desktop/optee-qemu/optee_os/lib/libutee/arch/arm/utee_syscalls_asm.S:82
    2fd4:	d2800468 	mov	x8, #0x23                  	// #35
    2fd8:	d4000001 	svc	#0x0
    2fdc:	d65f03c0 	ret

0000000000002fe0 <utee_authenc_update_payload>:
utee_authenc_update_payload():
/home/hei/Desktop/optee-qemu/optee_os/lib/libutee/arch/arm/utee_syscalls_asm.S:84
    2fe0:	d2800488 	mov	x8, #0x24                  	// #36
    2fe4:	d4000001 	svc	#0x0
    2fe8:	d65f03c0 	ret

0000000000002fec <utee_authenc_enc_final>:
utee_authenc_enc_final():
/home/hei/Desktop/optee-qemu/optee_os/lib/libutee/arch/arm/utee_syscalls_asm.S:87
    2fec:	d28004a8 	mov	x8, #0x25                  	// #37
    2ff0:	d4000001 	svc	#0x0
    2ff4:	d65f03c0 	ret

0000000000002ff8 <utee_authenc_dec_final>:
utee_authenc_dec_final():
/home/hei/Desktop/optee-qemu/optee_os/lib/libutee/arch/arm/utee_syscalls_asm.S:89
    2ff8:	d28004c8 	mov	x8, #0x26                  	// #38
    2ffc:	d4000001 	svc	#0x0
    3000:	d65f03c0 	ret

0000000000003004 <utee_asymm_operate>:
utee_asymm_operate():
/home/hei/Desktop/optee-qemu/optee_os/lib/libutee/arch/arm/utee_syscalls_asm.S:91
    3004:	d28004e8 	mov	x8, #0x27                  	// #39
    3008:	d4000001 	svc	#0x0
    300c:	d65f03c0 	ret

0000000000003010 <utee_asymm_verify>:
utee_asymm_verify():
/home/hei/Desktop/optee-qemu/optee_os/lib/libutee/arch/arm/utee_syscalls_asm.S:93
    3010:	d2800508 	mov	x8, #0x28                  	// #40
    3014:	d4000001 	svc	#0x0
    3018:	d65f03c0 	ret

000000000000301c <utee_storage_obj_open>:
utee_storage_obj_open():
/home/hei/Desktop/optee-qemu/optee_os/lib/libutee/arch/arm/utee_syscalls_asm.S:95
    301c:	d2800528 	mov	x8, #0x29                  	// #41
    3020:	d4000001 	svc	#0x0
    3024:	d65f03c0 	ret

0000000000003028 <utee_storage_obj_create>:
utee_storage_obj_create():
/home/hei/Desktop/optee-qemu/optee_os/lib/libutee/arch/arm/utee_syscalls_asm.S:97
    3028:	d2800548 	mov	x8, #0x2a                  	// #42
    302c:	d4000001 	svc	#0x0
    3030:	d65f03c0 	ret

0000000000003034 <utee_storage_obj_del>:
utee_storage_obj_del():
/home/hei/Desktop/optee-qemu/optee_os/lib/libutee/arch/arm/utee_syscalls_asm.S:99
    3034:	d2800568 	mov	x8, #0x2b                  	// #43
    3038:	d4000001 	svc	#0x0
    303c:	d65f03c0 	ret

0000000000003040 <utee_storage_obj_rename>:
utee_storage_obj_rename():
/home/hei/Desktop/optee-qemu/optee_os/lib/libutee/arch/arm/utee_syscalls_asm.S:101
    3040:	d2800588 	mov	x8, #0x2c                  	// #44
    3044:	d4000001 	svc	#0x0
    3048:	d65f03c0 	ret

000000000000304c <utee_storage_alloc_enum>:
utee_storage_alloc_enum():
/home/hei/Desktop/optee-qemu/optee_os/lib/libutee/arch/arm/utee_syscalls_asm.S:103
    304c:	d28005a8 	mov	x8, #0x2d                  	// #45
    3050:	d4000001 	svc	#0x0
    3054:	d65f03c0 	ret

0000000000003058 <utee_storage_free_enum>:
utee_storage_free_enum():
/home/hei/Desktop/optee-qemu/optee_os/lib/libutee/arch/arm/utee_syscalls_asm.S:105
    3058:	d28005c8 	mov	x8, #0x2e                  	// #46
    305c:	d4000001 	svc	#0x0
    3060:	d65f03c0 	ret

0000000000003064 <utee_storage_reset_enum>:
utee_storage_reset_enum():
/home/hei/Desktop/optee-qemu/optee_os/lib/libutee/arch/arm/utee_syscalls_asm.S:107
    3064:	d28005e8 	mov	x8, #0x2f                  	// #47
    3068:	d4000001 	svc	#0x0
    306c:	d65f03c0 	ret

0000000000003070 <utee_storage_start_enum>:
utee_storage_start_enum():
/home/hei/Desktop/optee-qemu/optee_os/lib/libutee/arch/arm/utee_syscalls_asm.S:109
    3070:	d2800608 	mov	x8, #0x30                  	// #48
    3074:	d4000001 	svc	#0x0
    3078:	d65f03c0 	ret

000000000000307c <utee_storage_next_enum>:
utee_storage_next_enum():
/home/hei/Desktop/optee-qemu/optee_os/lib/libutee/arch/arm/utee_syscalls_asm.S:111
    307c:	d2800628 	mov	x8, #0x31                  	// #49
    3080:	d4000001 	svc	#0x0
    3084:	d65f03c0 	ret

0000000000003088 <utee_storage_obj_read>:
utee_storage_obj_read():
/home/hei/Desktop/optee-qemu/optee_os/lib/libutee/arch/arm/utee_syscalls_asm.S:113
    3088:	d2800648 	mov	x8, #0x32                  	// #50
    308c:	d4000001 	svc	#0x0
    3090:	d65f03c0 	ret

0000000000003094 <utee_storage_obj_write>:
utee_storage_obj_write():
/home/hei/Desktop/optee-qemu/optee_os/lib/libutee/arch/arm/utee_syscalls_asm.S:115
    3094:	d2800668 	mov	x8, #0x33                  	// #51
    3098:	d4000001 	svc	#0x0
    309c:	d65f03c0 	ret

00000000000030a0 <utee_storage_obj_trunc>:
utee_storage_obj_trunc():
/home/hei/Desktop/optee-qemu/optee_os/lib/libutee/arch/arm/utee_syscalls_asm.S:117
    30a0:	d2800688 	mov	x8, #0x34                  	// #52
    30a4:	d4000001 	svc	#0x0
    30a8:	d65f03c0 	ret

00000000000030ac <utee_storage_obj_seek>:
utee_storage_obj_seek():
/home/hei/Desktop/optee-qemu/optee_os/lib/libutee/arch/arm/utee_syscalls_asm.S:119
    30ac:	d28006a8 	mov	x8, #0x35                  	// #53
    30b0:	d4000001 	svc	#0x0
    30b4:	d65f03c0 	ret

00000000000030b8 <utee_cryp_obj_generate_key>:
utee_cryp_obj_generate_key():
/home/hei/Desktop/optee-qemu/optee_os/lib/libutee/arch/arm/utee_syscalls_asm.S:121
    30b8:	d28006c8 	mov	x8, #0x36                  	// #54
    30bc:	d4000001 	svc	#0x0
    30c0:	d65f03c0 	ret

00000000000030c4 <utee_cache_operation>:
utee_cache_operation():
/home/hei/Desktop/optee-qemu/optee_os/lib/libutee/arch/arm/utee_syscalls_asm.S:124
    30c4:	d28008c8 	mov	x8, #0x46                  	// #70
    30c8:	d4000001 	svc	#0x0
    30cc:	d65f03c0 	ret

00000000000030d0 <ta_header_get_session>:
ta_header_get_session():
/home/hei/Desktop/optee-qemu/optee_os/lib/libutee/arch/arm/user_ta_entry.c:65
    30d0:	2a0003e1 	mov	w1, w0
/home/hei/Desktop/optee-qemu/optee_os/lib/libutee/arch/arm/user_ta_entry.c:68
    30d4:	b0000040 	adrp	x0, c000 <_DYNAMIC>
    30d8:	f9422800 	ldr	x0, [x0, #1104]
/home/hei/Desktop/optee-qemu/optee_os/lib/libutee/arch/arm/user_ta_entry.c:68 (discriminator 1)
    30dc:	b5000040 	cbnz	x0, 30e4 <ta_header_get_session+0x14>
/home/hei/Desktop/optee-qemu/optee_os/lib/libutee/arch/arm/user_ta_entry.c:73
    30e0:	d65f03c0 	ret
/home/hei/Desktop/optee-qemu/optee_os/lib/libutee/arch/arm/user_ta_entry.c:69
    30e4:	b9400002 	ldr	w2, [x0]
    30e8:	6b01005f 	cmp	w2, w1
    30ec:	54ffffa0 	b.eq	30e0 <ta_header_get_session+0x10>  // b.none
/home/hei/Desktop/optee-qemu/optee_os/lib/libutee/arch/arm/user_ta_entry.c:68 (discriminator 2)
    30f0:	f9400800 	ldr	x0, [x0, #16]
    30f4:	17fffffa 	b	30dc <ta_header_get_session+0xc>

00000000000030f8 <to_utee_params>:
to_utee_params():
/home/hei/Desktop/optee-qemu/optee_os/lib/libutee/arch/arm/user_ta_entry.c:129
    30f8:	f0000025 	adrp	x5, a000 <__text_end+0x1324>
    30fc:	9121b0a5 	add	x5, x5, #0x86c
/home/hei/Desktop/optee-qemu/optee_os/lib/libutee/arch/arm/user_ta_entry.c:127
    3100:	2a0103e3 	mov	w3, w1
    3104:	52800004 	mov	w4, #0x0                   	// #0
    3108:	f8008403 	str	x3, [x0], #8
/home/hei/Desktop/optee-qemu/optee_os/lib/libutee/arch/arm/user_ta_entry.c:129
    310c:	1ac42423 	lsr	w3, w1, w4
    3110:	12000c63 	and	w3, w3, #0xf
    3114:	51000463 	sub	w3, w3, #0x1
    3118:	7100187f 	cmp	w3, #0x6
    311c:	54000268 	b.hi	3168 <to_utee_params+0x70>  // b.pmore
    3120:	386348a3 	ldrb	w3, [x5, w3, uxtw]
    3124:	10000066 	adr	x6, 3130 <to_utee_params+0x38>
    3128:	8b2388c3 	add	x3, x6, w3, sxtb #2
    312c:	d61f0060 	br	x3
/home/hei/Desktop/optee-qemu/optee_os/lib/libutee/arch/arm/user_ta_entry.c:133
    3130:	b9400043 	ldr	w3, [x2]
    3134:	f9000003 	str	x3, [x0]
/home/hei/Desktop/optee-qemu/optee_os/lib/libutee/arch/arm/user_ta_entry.c:134
    3138:	b9400443 	ldr	w3, [x2, #4]
/home/hei/Desktop/optee-qemu/optee_os/lib/libutee/arch/arm/user_ta_entry.c:140
    313c:	f9000403 	str	x3, [x0, #8]
/home/hei/Desktop/optee-qemu/optee_os/lib/libutee/arch/arm/user_ta_entry.c:141
    3140:	11001084 	add	w4, w4, #0x4
    3144:	91004042 	add	x2, x2, #0x10
    3148:	91004000 	add	x0, x0, #0x10
/home/hei/Desktop/optee-qemu/optee_os/lib/libutee/arch/arm/user_ta_entry.c:128 (discriminator 2)
    314c:	7100409f 	cmp	w4, #0x10
    3150:	54fffde1 	b.ne	310c <to_utee_params+0x14>  // b.any
/home/hei/Desktop/optee-qemu/optee_os/lib/libutee/arch/arm/user_ta_entry.c:148
    3154:	d65f03c0 	ret
