
63704294-2514-11ed-861d-0242ac120002.elf:     file format elf64-littleaarch64
63704294-2514-11ed-861d-0242ac120002.elf
architecture: aarch64, flags 0x00000150:
HAS_SYMS, DYNAMIC, D_PAGED
start address 0x00000000000002f4

Program Header:
    LOAD off    0x0000000000001000 vaddr 0x0000000000000000 paddr 0x0000000000000000 align 2**12
         filesz 0x000000000000b8d0 memsz 0x000000000000b8d0 flags r-x
    LOAD off    0x000000000000d000 vaddr 0x000000000000c000 paddr 0x000000000000c000 align 2**12
         filesz 0x0000000000000424 memsz 0x000000000000b490 flags rw-
 DYNAMIC off    0x000000000000d000 vaddr 0x000000000000c000 paddr 0x000000000000c000 align 2**3
         filesz 0x0000000000000110 memsz 0x0000000000000110 flags rw-
   STACK off    0x0000000000000000 vaddr 0x0000000000000000 paddr 0x0000000000000000 align 2**4
         filesz 0x0000000000000000 memsz 0x0000000000000000 flags rw-

Dynamic Section:
  HASH                 0x000000000000b6a8
  GNU_HASH             0x000000000000b638
  STRTAB               0x000000000000b6a0
  SYMTAB               0x000000000000b658
  STRSZ                0x0000000000000001
  SYMENT               0x0000000000000018
  DEBUG                0x0000000000000000
  RELA                 0x000000000000b6c0
  RELASZ               0x0000000000000330
  RELAENT              0x0000000000000018
  FLAGS_1              0x0000000008000000
  RELACOUNT            0x0000000000000016
private flags = 0:

Sections:
Idx Name          Size      VMA               LMA               File off  Algn
  0 .ta_head      00000020  0000000000000000  0000000000000000  00001000  2**3
                  CONTENTS, ALLOC, LOAD, READONLY, DATA
  1 .text         00008aa0  0000000000000020  0000000000000020  00001020  2**2
                  CONTENTS, ALLOC, LOAD, READONLY, CODE
  2 .eh_frame     00001ae0  0000000000008ac0  0000000000008ac0  00009ac0  2**3
                  CONTENTS, ALLOC, LOAD, READONLY, DATA
  3 .rodata       00001092  000000000000a5a0  000000000000a5a0  0000b5a0  2**3
                  CONTENTS, ALLOC, LOAD, READONLY, DATA
  4 .gnu.hash     0000001c  000000000000b638  000000000000b638  0000c638  2**3
                  CONTENTS, ALLOC, LOAD, READONLY, DATA
  5 .dynsym       00000048  000000000000b658  000000000000b658  0000c658  2**3
                  CONTENTS, ALLOC, LOAD, READONLY, DATA
  6 .dynstr       00000001  000000000000b6a0  000000000000b6a0  0000c6a0  2**0
                  CONTENTS, ALLOC, LOAD, READONLY, DATA
  7 .hash         00000018  000000000000b6a8  000000000000b6a8  0000c6a8  2**3
                  CONTENTS, ALLOC, LOAD, READONLY, DATA
  8 .rela.dyn     00000210  000000000000b6c0  000000000000b6c0  0000c6c0  2**3
                  CONTENTS, ALLOC, LOAD, READONLY, DATA
  9 .dynamic      00000110  000000000000c000  000000000000c000  0000d000  2**3
                  CONTENTS, ALLOC, LOAD, DATA
 10 .got          00000080  000000000000c110  000000000000c110  0000d110  2**3
                  CONTENTS, ALLOC, LOAD, DATA
 11 .rela.got     00000120  000000000000c190  000000000000c190  0000d190  2**3
                  CONTENTS, ALLOC, LOAD, READONLY, DATA
 12 .data         00000174  000000000000c2b0  000000000000c2b0  0000d2b0  2**3
                  CONTENTS, ALLOC, LOAD, DATA
 13 .bss          0000b068  000000000000c428  000000000000c428  0000d424  2**3
                  ALLOC
 14 .debug_info   00011748  0000000000000000  0000000000000000  0000d424  2**0
                  CONTENTS, READONLY, DEBUGGING
 15 .debug_abbrev 00002d47  0000000000000000  0000000000000000  0001eb6c  2**0
                  CONTENTS, READONLY, DEBUGGING
 16 .debug_loc    00019419  0000000000000000  0000000000000000  000218b3  2**0
                  CONTENTS, READONLY, DEBUGGING
 17 .debug_aranges 000007d0  0000000000000000  0000000000000000  0003acd0  2**4
                  CONTENTS, READONLY, DEBUGGING
 18 .debug_ranges 000016b0  0000000000000000  0000000000000000  0003b4a0  2**4
                  CONTENTS, READONLY, DEBUGGING
 19 .debug_macro  000101bf  0000000000000000  0000000000000000  0003cb50  2**0
                  CONTENTS, READONLY, DEBUGGING
 20 .debug_line   000099af  0000000000000000  0000000000000000  0004cd0f  2**0
                  CONTENTS, READONLY, DEBUGGING
 21 .debug_str    00011f91  0000000000000000  0000000000000000  000566be  2**0
                  CONTENTS, READONLY, DEBUGGING
 22 .comment      00000055  0000000000000000  0000000000000000  0006864f  2**0
                  CONTENTS, READONLY
SYMBOL TABLE:
0000000000000000 l    d  .ta_head	0000000000000000 .ta_head
0000000000000020 l    d  .text	0000000000000000 .text
0000000000008ac0 l    d  .eh_frame	0000000000000000 .eh_frame
000000000000a5a0 l    d  .rodata	0000000000000000 .rodata
000000000000b638 l    d  .gnu.hash	0000000000000000 .gnu.hash
000000000000b658 l    d  .dynsym	0000000000000000 .dynsym
000000000000b6a0 l    d  .dynstr	0000000000000000 .dynstr
000000000000b6a8 l    d  .hash	0000000000000000 .hash
000000000000b6c0 l    d  .rela.dyn	0000000000000000 .rela.dyn
000000000000c000 l    d  .dynamic	0000000000000000 .dynamic
000000000000c110 l    d  .got	0000000000000000 .got
000000000000c190 l    d  .rela.got	0000000000000000 .rela.got
000000000000c2b0 l    d  .data	0000000000000000 .data
000000000000c428 l    d  .bss	0000000000000000 .bss
0000000000000000 l    d  .debug_info	0000000000000000 .debug_info
0000000000000000 l    d  .debug_abbrev	0000000000000000 .debug_abbrev
0000000000000000 l    d  .debug_loc	0000000000000000 .debug_loc
0000000000000000 l    d  .debug_aranges	0000000000000000 .debug_aranges
0000000000000000 l    d  .debug_ranges	0000000000000000 .debug_ranges
0000000000000000 l    d  .debug_macro	0000000000000000 .debug_macro
0000000000000000 l    d  .debug_line	0000000000000000 .debug_line
0000000000000000 l    d  .debug_str	0000000000000000 .debug_str
0000000000000000 l    d  .comment	0000000000000000 .comment
0000000000000000 l    df *ABS*	0000000000000000 user_ta_header.c
000000000000a5a8 l     O .rodata	0000000000000004 __compound_literal.5
000000000000a5ac l     O .rodata	0000000000000004 __compound_literal.4
000000000000a5b0 l     O .rodata	0000000000000004 __compound_literal.3
000000000000a5b4 l     O .rodata	0000000000000001 __compound_literal.2
000000000000a5b5 l     O .rodata	0000000000000001 __compound_literal.1
000000000000a5b6 l     O .rodata	0000000000000001 __compound_literal.0
0000000000000000 l    df *ABS*	0000000000000000 toctou.c
000000000000a8d0 l     O .rodata	0000000000000014 __func__.4126
000000000000a8e4 l     O .rodata	0000000000000015 __func__.4131
000000000000a8f9 l     O .rodata	0000000000000019 __func__.4138
000000000000a912 l     O .rodata	000000000000001a __func__.4142
000000000000a92c l     O .rodata	0000000000000014 __func__.4149
0000000000000000 l    df *ABS*	0000000000000000 memcpy.c
0000000000000000 l    df *ABS*	0000000000000000 trace.c
0000000000000330 l     F .text	00000000000000c4 append
000000000000ab32 l     O .rodata	0000000000000005 lvl_strs.3494
000000000000ab37 l     O .rodata	000000000000000a __func__.3556
0000000000000000 l    df *ABS*	0000000000000000 snprintk.c
000000000000ab78 l     O .rodata	0000000000000011 hexdigits
000000000000ab89 l     O .rodata	0000000000000011 HEXDIGITS
0000000000000000 l    df *ABS*	0000000000000000 memchr.c
0000000000000000 l    df *ABS*	0000000000000000 strlen.c
0000000000000000 l    df *ABS*	0000000000000000 trace_ext.c
0000000000000000 l    df *ABS*	0000000000000000 utee_syscalls_a64.o
0000000000000000 l    df *ABS*	0000000000000000 user_ta_entry.c
0000000000001950 l     F .text	0000000000000028 ta_header_get_session
0000000000001978 l     F .text	0000000000000078 to_utee_params
00000000000019f0 l     F .text	0000000000000068 from_utee_params
0000000000001a58 l     F .text	0000000000000094 ta_header_remove_session
0000000000001aec l     F .text	0000000000000014 ta_header_save_params.part.0
0000000000017488 l     O .bss	0000000000000001 init_done
000000000000c388 l     O .data	0000000000000010 ta_sessions
0000000000000000 l    df *ABS*	0000000000000000 tee_api.c
0000000000001cfc l     F .text	00000000000000b8 update_out_param
0000000000001e74 l     F .text	00000000000001d0 copy_param.constprop.1
000000000000c470 l     O .bss	0000000000000008 tee_api_instance_data
000000000000a5e3 l     O .rodata	000000000000000b __func__.4702
0000000000000000 l    df *ABS*	0000000000000000 tee_api_panic.c
0000000000000000 l    df *ABS*	0000000000000000 tee_system_pta.c
0000000000002420 l     F .text	0000000000000088 invoke_system_pta
000000000000a5f0 l     O .rodata	0000000000000010 uuid.4139
000000000000a600 l     O .rodata	000000000000000a __func__.4159
000000000000c478 l     O .bss	0000000000000008 sess.4138
0000000000000000 l    df *ABS*	0000000000000000 tee_api_arith_mpi.c
00000000000025a8 l     F .text	0000000000000030 api_panic
00000000000025d8 l     F .text	0000000000000030 mpi_panic
0000000000002608 l     F .text	0000000000000098 get_mpi
00000000000026a0 l     F .text	0000000000000064 copy_mpi_to_bigint
0000000000002704 l     F .text	0000000000000118 bigint_binary
000000000000281c l     F .text	0000000000000020 mpi_is_odd
000000000000283c l     F .text	0000000000000028 rng_read
0000000000002864 l     F .text	000000000000054c mpi_egcd
000000000000c480 l     O .bss	0000000000003000 data.4684
000000000000314c l     F .text	0000000000000194 bigint_binary_mod
000000000000ac0d l     O .rodata	0000000000000008 __func__.4718
000000000000ac15 l     O .rodata	000000000000000e __func__.4815
000000000000ac23 l     O .rodata	0000000000000009 __func__.4961
000000000000ac2c l     O .rodata	0000000000000012 __func__.4685
000000000000ac3e l     O .rodata	000000000000000f __func__.4724
000000000000ac4d l     O .rodata	000000000000001f __func__.4742
000000000000ac6c l     O .rodata	0000000000000019 __func__.4749
000000000000ac85 l     O .rodata	0000000000000012 __func__.4827
000000000000ac97 l     O .rodata	0000000000000015 __func__.4780
000000000000acac l     O .rodata	000000000000000e __func__.4855
000000000000acba l     O .rodata	000000000000000e __func__.4884
000000000000acc8 l     O .rodata	000000000000000e __func__.4892
000000000000acd6 l     O .rodata	0000000000000011 __func__.4921
000000000000ace7 l     O .rodata	0000000000000018 __func__.4938
000000000000acff l     O .rodata	000000000000001d __func__.5018
000000000000ad1c l     O .rodata	0000000000000019 __func__.5071
000000000000ad35 l     O .rodata	0000000000000015 __func__.5086
0000000000000000 l    df *ABS*	0000000000000000 bignum.c
0000000000003eec l     F .text	0000000000000064 mpi_get_digit
0000000000003f50 l     F .text	0000000000000060 mpi_sub_hlp
0000000000003fb0 l     F .text	00000000000004d4 mpi_mul_hlp
0000000000005e98 l     F .text	00000000000000d4 mpi_write_hlp
0000000000006140 l     F .text	0000000000000098 mpi_check_small_factors
0000000000006c54 l     F .text	0000000000000288 mpi_miller_rabin
000000000000a60c l     O .rodata	00000000000002a0 small_prime
000000000000a8ac l     O .rodata	0000000000000024 gcd_pairs
0000000000000000 l    df *ABS*	0000000000000000 platform_util.c
000000000000c398 l     O .data	0000000000000008 memset_func
0000000000000000 l    df *ABS*	0000000000000000 bget_malloc.c
0000000000007ac8 l     F .text	0000000000000044 raw_malloc_return_hook.constprop.21
000000000000b25e l     O .rodata	0000000000000005 __func__.3641
000000000000b263 l     O .rodata	0000000000000006 __func__.3656
000000000000b269 l     O .rodata	0000000000000005 __func__.3674
000000000000b26e l     O .rodata	0000000000000006 __func__.3665
000000000000b274 l     O .rodata	0000000000000006 __func__.3683
000000000000b27a l     O .rodata	0000000000000007 __func__.3693
000000000000b281 l     O .rodata	0000000000000014 __func__.3857
000000000000b295 l     O .rodata	000000000000000e __func__.3808
000000000000b2a3 l     O .rodata	0000000000000013 __func__.3755
000000000000c3a0 l     O .data	0000000000000080 malloc_ctx
0000000000000000 l    df *ABS*	0000000000000000 snprintf.c
0000000000000000 l    df *ABS*	0000000000000000 memmove.c
0000000000000000 l    df *ABS*	0000000000000000 memset.c
0000000000000000 l    df *ABS*	0000000000000000 mempool.c
000000000000b570 l     O .rodata	0000000000000013 __func__.3549
000000000000b583 l     O .rodata	000000000000000e __func__.3558
0000000000000000 l    df *ABS*	0000000000000000 consttime_memcmp.c
0000000000000000 l    df *ABS*	0000000000000000 assert.c
0000000000000000 l    df *ABS*	0000000000000000 
000000000000c000 l     O *ABS*	0000000000000000 _DYNAMIC
000000000000c128 l     O *ABS*	0000000000000000 _GLOBAL_OFFSET_TABLE_
0000000000001668 g     F .text	000000000000003c putchar
0000000000003d34 g     F .text	0000000000000004 TEE_BigIntConvertToFMM
0000000000003890 g     F .text	000000000000000c TEE_BigIntSquareMod
00000000000032e0 g     F .text	000000000000016c TEE_BigIntShiftRight
00000000000018a8 g     F .text	000000000000000c utee_storage_obj_create
0000000000004528 g     F .text	00000000000000f8 mbedtls_mpi_grow
00000000000016b0 g     F .text	000000000000000c utee_return
00000000000023f4 g     F .text	0000000000000008 TEE_Realloc
0000000000001560 g     F .text	00000000000000c8 printf
00000000000016bc g     F .text	000000000000000c utee_log
0000000000002044 g     F .text	0000000000000104 TEE_InvokeTACommand
0000000000004494 g     F .text	0000000000000028 mbedtls_mpi_init_mempool
0000000000004c9c g     F .text	00000000000000c4 mbedtls_mpi_write_binary
0000000000001420 g     F .text	0000000000000054 vsnprintk
0000000000005430 g     F .text	0000000000000040 mbedtls_mpi_sub_int
00000000000087d8 g     F .text	000000000000005c memmove
000000000000870c g     F .text	0000000000000078 snprintf
0000000000003104 g     F .text	0000000000000048 TEE_BigIntCmpS32
0000000000004620 g     F .text	0000000000000120 mbedtls_mpi_shrink
00000000000034d8 g     F .text	000000000000000c TEE_BigIntAdd
00000000000016e0 g     F .text	000000000000000c utee_get_property_name_to_index
000000000000a5b8 g     O .rodata	0000000000000008 ta_heap_size
0000000000001764 g     F .text	000000000000000c utee_cryp_state_alloc
000000000000186c g     F .text	000000000000000c utee_authenc_enc_final
00000000000055f4 g     F .text	00000000000001e4 mbedtls_mpi_read_string
00000000000034f0 g     F .text	00000000000000b0 TEE_BigIntNeg
0000000000000020 g       .text	0000000000000000 __text_start
0000000000004e60 g     F .text	00000000000000c8 mbedtls_mpi_shift_r
00000000000086a0 g     F .text	000000000000006c malloc_buffer_overlaps_heap
0000000000003878 g     F .text	000000000000000c TEE_BigIntSubMod
00000000000073cc g     F .text	000000000000030c mbedtls_mpi_gen_prime
0000000000004a60 g     F .text	000000000000002c mbedtls_mpi_get_bit
0000000000004be4 g     F .text	00000000000000b8 mbedtls_mpi_read_binary
0000000000000610 g     F .text	0000000000000070 trace_printf
0000000000006214 g     F .text	0000000000000134 mbedtls_mpi_montmul
0000000000000310 g     F .text	0000000000000020 memcpy
000000000000177c g     F .text	000000000000000c utee_cryp_state_free
0000000000003d38 g     F .text	000000000000009c TEE_BigIntConvertFromFMM
0000000000002418 g     F .text	0000000000000008 TEE_Panic
0000000000001628 g     F .text	0000000000000040 puts
0000000000003dd4 g     F .text	0000000000000118 TEE_BigIntComputeFMM
0000000000008264 g     F .text	0000000000000038 malloc_get_stats
00000000000017c4 g     F .text	000000000000000c utee_cipher_final
0000000000002370 g     F .text	0000000000000028 TEE_GetREETime
000000000000c2b0 g     O .data	00000000000000d8 ta_props
000000000000829c g     F .text	0000000000000050 malloc
0000000000001800 g     F .text	000000000000000c utee_cryp_obj_close
0000000000008784 g     F .text	0000000000000054 vsnprintf
000000000000c420 g     O .data	0000000000000004 trace_level
000000000000309c g     F .text	0000000000000068 TEE_BigIntCmp
000000000000a5a0 g     O .rodata	0000000000000008 ta_num_props
0000000000008014 g     F .text	00000000000000cc bgetr
0000000000001860 g     F .text	000000000000000c utee_authenc_update_payload
00000000000089b4 g     F .text	0000000000000044 mempool_free
0000000000002efc g     F .text	0000000000000094 TEE_BigIntConvertToOctetString
0000000000001944 g     F .text	000000000000000c utee_cache_operation
0000000000004b6c g     F .text	000000000000005c mbedtls_mpi_bitlen
0000000000001848 g     F .text	000000000000000c utee_authenc_init
000000000000344c g     F .text	000000000000004c TEE_BigIntGetBit
000000000000a5c0 g     O .rodata	0000000000000003 trace_ext_prefix
0000000000007ccc g     F .text	000000000000008c bgetz
0000000000002230 g     F .text	000000000000000c TEE_GetInstanceData
000000000000227c g     F .text	000000000000003c TEE_Wait
0000000000001914 g     F .text	000000000000000c utee_storage_obj_write
0000000000005470 g     F .text	0000000000000150 mbedtls_mpi_mul_mpi
0000000000002408 g     F .text	0000000000000008 TEE_CacheFlush
0000000000000420 g     F .text	00000000000001f0 trace_vprintf
000000000000008c g     F .text	0000000000000024 TA_DestroyEntryPoint
0000000000004484 g     F .text	0000000000000010 mbedtls_mpi_init
0000000000004b18 g     F .text	0000000000000054 mbedtls_mpi_lsb
0000000000008a68 g     F .text	0000000000000044 _assert_log
0000000000003d2c g     F .text	0000000000000008 TEE_BigIntFMMContextSizeInU32
000000000000251c g     F .text	000000000000008c tee_unmap
0000000000002db0 g     F .text	0000000000000050 _TEE_MathAPI_Init
00000000000052dc g     F .text	0000000000000088 mbedtls_mpi_add_mpi
00000000000018fc g     F .text	000000000000000c utee_storage_next_enum
000000000000f488 g     O .bss	0000000000008000 ta_heap
000000000000389c g     F .text	000000000000011c TEE_BigIntInvMod
0000000000000120 g     F .text	0000000000000024 TA_CloseSessionEntryPoint
0000000000005364 g     F .text	000000000000008c mbedtls_mpi_sub_mpi
00000000000089f8 g     F .text	0000000000000070 consttime_memcmp
00000000000016c8 g     F .text	000000000000000c __utee_panic
0000000000001770 g     F .text	000000000000000c utee_cryp_state_copy
0000000000000144 g     F .text	00000000000001b0 TA_InvokeCommandEntryPoint
00000000000083b8 g     F .text	0000000000000018 free_wipe
00000000000088b8 g     F .text	00000000000000ac mempool_alloc
00000000000017f4 g     F .text	000000000000000c utee_cryp_obj_alloc
0000000000001758 g     F .text	000000000000000c utee_set_ta_time
00000000000017e8 g     F .text	000000000000000c utee_cryp_obj_get_attr
0000000000008964 g     F .text	0000000000000050 mempool_calloc
00000000000082ec g     F .text	0000000000000064 calloc
0000000000002398 g     F .text	000000000000005c TEE_Malloc
0000000000001734 g     F .text	000000000000000c utee_mask_cancellation
000000000000180c g     F .text	000000000000000c utee_cryp_obj_reset
0000000000001e60 g     F .text	0000000000000014 TEE_CheckMemoryAccessRights
00000000000049f8 g     F .text	0000000000000068 mbedtls_mpi_lset
00000000000000b0 g     F .text	0000000000000070 TA_OpenSessionEntryPoint
00000000000018f0 g     F .text	000000000000000c utee_storage_start_enum
00000000000018c0 g     F .text	000000000000000c utee_storage_obj_rename
0000000000017490 g       .bss	0000000000000000 __ftrace_buf_end
000000000000c428 g     O .bss	0000000000000004 ta_param_types
0000000000005d04 g     F .text	0000000000000040 mbedtls_mpi_div_int
0000000000007314 g     F .text	00000000000000a8 mbedtls_mpi_is_prime_ext
0000000000003cc4 g     F .text	0000000000000050 TEE_BigIntIsProbablePrime
00000000000055c0 g     F .text	0000000000000034 mbedtls_mpi_mul_int
0000000000006388 g     F .text	000000000000068c mbedtls_mpi_exp_mod
0000000000004854 g     F .text	00000000000000c0 mbedtls_mpi_safe_cond_assign
00000000000016d4 g     F .text	000000000000000c utee_get_property
0000000000002e00 g     F .text	0000000000000070 TEE_BigIntInit
000000000000223c g     F .text	0000000000000008 TEE_MemMove
0000000000007ab4 g     F .text	0000000000000014 mbedtls_platform_zeroize
0000000000002e70 g     F .text	000000000000008c TEE_BigIntConvertFromOctetString
0000000000004f28 g     F .text	000000000000009c mbedtls_mpi_cmp_abs
00000000000014e8 g     F .text	000000000000002c memchr
0000000000001e08 g     F .text	000000000000002c TEE_UnmaskCancellation
00000000000076d8 g     F .text	00000000000003dc mbedtls_mpi_self_test
00000000000018b4 g     F .text	000000000000000c utee_storage_obj_del
000000000000192c g     F .text	000000000000000c utee_storage_obj_seek
000000000000509c g     F .text	0000000000000040 mbedtls_mpi_cmp_int
0000000000001794 g     F .text	000000000000000c utee_hash_update
0000000000003808 g     F .text	0000000000000064 TEE_BigIntMod
0000000000005df8 g     F .text	00000000000000a0 mbedtls_mpi_mod_int
00000000000016f8 g     F .text	000000000000000c utee_close_ta_session
0000000000003690 g     F .text	0000000000000178 TEE_BigIntDiv
0000000000017490 g       .bss	0000000000000000 __ftrace_buf_start
0000000000004740 g     F .text	00000000000000b4 mbedtls_mpi_copy
000000000000824c g     F .text	0000000000000018 malloc_reset_stats
00000000000017b8 g     F .text	000000000000000c utee_cipher_update
0000000000008350 g     F .text	0000000000000050 realloc
00000000000047f4 g     F .text	0000000000000060 mbedtls_mpi_swap
0000000000008850 g     F .text	0000000000000068 mempool_alloc_pool
0000000000001890 g     F .text	000000000000000c utee_asymm_verify
00000000000035a0 g     F .text	00000000000000e8 TEE_BigIntMul
0000000000004d60 g     F .text	0000000000000100 mbedtls_mpi_shift_l
0000000000004fc4 g     F .text	00000000000000d8 mbedtls_mpi_cmp_mpi
000000000000224c g     F .text	0000000000000008 TEE_MemFill
00000000000083d0 g     F .text	0000000000000150 malloc_add_pool
0000000000000410 g     F .text	0000000000000010 trace_get_level
00000000000050dc g     F .text	000000000000012c mbedtls_mpi_add_abs
000000000000183c g     F .text	000000000000000c utee_cryp_random_number_generate
0000000000003d1c g     F .text	0000000000000010 TEE_BigIntFMMSizeInU32
0000000000003d14 g     F .text	0000000000000004 TEE_BigIntInitFMM
0000000000001884 g     F .text	000000000000000c utee_asymm_operate
0000000000001b00 g     F .text	00000000000001fc __utee_entry
0000000000008ac0 g       .text	0000000000000000 __text_end
00000000000039b8 g     F .text	00000000000000d4 TEE_BigIntRelativePrime
0000000000005d44 g     F .text	00000000000000b4 mbedtls_mpi_mod_mpi
00000000000080e0 g     F .text	00000000000000d4 bpool
0000000000001ddc g     F .text	000000000000002c TEE_GetCancellationFlag
0000000000006a14 g     F .text	00000000000001bc mbedtls_mpi_gcd
000000000000232c g     F .text	0000000000000044 TEE_SetTAPersistentTime
0000000000008834 g     F .text	000000000000001c memset
00000000000022b8 g     F .text	0000000000000074 TEE_GetTAPersistentTime
0000000000000680 g     F .text	000000000000016c dhex_dump
0000000000001e34 g     F .text	000000000000002c TEE_MaskCancellation
0000000000001908 g     F .text	000000000000000c utee_storage_obj_read
0000000000001818 g     F .text	000000000000000c utee_cryp_obj_populate
00000000000003f4 g     F .text	000000000000001c trace_set_level
00000000000017d0 g     F .text	000000000000000c utee_cryp_obj_get_info
00000000000018cc g     F .text	000000000000000c utee_storage_alloc_enum
00000000000018e4 g     F .text	000000000000000c utee_storage_reset_enum
0000000000001920 g     F .text	000000000000000c utee_storage_obj_trunc
0000000000003014 g     F .text	0000000000000088 TEE_BigIntConvertToS32
00000000000034e4 g     F .text	000000000000000c TEE_BigIntSub
0000000000001710 g     F .text	000000000000000c utee_get_cancellation_flag
0000000000001788 g     F .text	000000000000000c utee_hash_init
0000000000000308 g     F .text	0000000000000008 tahead_get_trace_level
00000000000024a8 g     F .text	0000000000000074 tee_map_zi
0000000000006348 g     F .text	0000000000000040 mbedtls_mpi_montred
0000000000002f90 g     F .text	0000000000000084 TEE_BigIntConvertFromS32
00000000000053f0 g     F .text	0000000000000040 mbedtls_mpi_add_int
00000000000017dc g     F .text	000000000000000c utee_cryp_obj_restrict_usage
0000000000008520 g     F .text	0000000000000180 malloc_buffer_is_within_alloced
0000000000001824 g     F .text	000000000000000c utee_cryp_obj_copy
0000000000003d18 g     F .text	0000000000000004 TEE_BigIntInitFMMContext
0000000000001830 g     F .text	000000000000000c utee_cryp_derive_key
0000000000001878 g     F .text	000000000000000c utee_authenc_dec_final
0000000000003688 g     F .text	0000000000000008 TEE_BigIntSquare
0000000000000020 g     F .text	000000000000006c TA_CreateEntryPoint
00000000000002f4 g     F .text	0000000000000014 __ta_entry
00000000000061d8 g     F .text	000000000000003c mbedtls_mpi_montg_init
0000000000001474 g     F .text	0000000000000074 snprintk
0000000000003498 g     F .text	0000000000000040 TEE_BigIntGetBitCount
0000000000003884 g     F .text	000000000000000c TEE_BigIntMulMod
0000000000006edc g     F .text	0000000000000438 mbedtls_mpi_inv_mod
000000000000c430 g     O .bss	0000000000000040 ta_params
00000000000057d8 g     F .text	000000000000052c mbedtls_mpi_div_mpi
0000000000004bc8 g     F .text	000000000000001c mbedtls_mpi_size
0000000000007b0c g     F .text	00000000000001c0 bget
0000000000004a8c g     F .text	000000000000008c mbedtls_mpi_set_bit
00000000000023fc g     F .text	0000000000000004 TEE_Free
00000000000073bc g     F .text	0000000000000010 mbedtls_mpi_is_prime
0000000000002410 g     F .text	0000000000000008 TEE_CacheInvalidate
00000000000017ac g     F .text	000000000000000c utee_cipher_init
0000000000008aac g     F .text	0000000000000014 _assert_break
000000000000386c g     F .text	000000000000000c TEE_BigIntAddMod
00000000000018d8 g     F .text	000000000000000c utee_storage_free_enum
0000000000001854 g     F .text	000000000000000c utee_authenc_update_aad
0000000000002244 g     F .text	0000000000000008 TEE_MemCompare
00000000000007ec g     F .text	0000000000000c34 __vsnprintf
0000000000002148 g     F .text	00000000000000dc TEE_OpenTASession
00000000000016a4 g     F .text	000000000000000c utee_panic
0000000000001530 g     F .text	0000000000000028 trace_ext_puts
0000000000001558 g     F .text	0000000000000008 trace_ext_get_thread_id
00000000000044bc g     F .text	000000000000006c mbedtls_mpi_free
0000000000002400 g     F .text	0000000000000008 TEE_CacheClean
00000000000016ec g     F .text	000000000000000c utee_open_ta_session
0000000000004914 g     F .text	00000000000000e4 mbedtls_mpi_safe_cond_swap
00000000000017a0 g     F .text	000000000000000c utee_hash_final
0000000000001514 g     F .text	000000000000001c strlen
0000000000003a8c g     F .text	0000000000000238 TEE_BigIntComputeExtendedGcd
000000000000189c g     F .text	000000000000000c utee_storage_obj_open
0000000000001704 g     F .text	000000000000000c utee_invoke_ta_command
0000000000001740 g     F .text	000000000000000c utee_wait
0000000000002254 g     F .text	0000000000000028 TEE_GetSystemTime
0000000000000000 g     O .ta_head	0000000000000020 ta_head
0000000000007d58 g     F .text	00000000000002bc brel
0000000000005208 g     F .text	00000000000000d4 mbedtls_mpi_sub_abs
000000000000174c g     F .text	000000000000000c utee_get_time
0000000000006bd0 g     F .text	0000000000000084 mbedtls_mpi_fill_random
0000000000002224 g     F .text	000000000000000c TEE_SetInstanceData
0000000000001728 g     F .text	000000000000000c utee_unmask_cancellation
000000000000171c g     F .text	000000000000000c utee_check_access_rights
0000000000005f6c g     F .text	00000000000001d4 mbedtls_mpi_write_string
0000000000001938 g     F .text	000000000000000c utee_cryp_obj_generate_key
0000000000001db4 g     F .text	0000000000000028 TEE_CloseTASession
00000000000083a0 g     F .text	0000000000000018 free
00000000000081b4 g     F .text	0000000000000098 bstats
000000000000f480 g     O .bss	0000000000000008 mbedtls_mpi_mempool



Disassembly of section .text:

0000000000000020 <TA_CreateEntryPoint>:
TA_CreateEntryPoint():
/home/hei/Desktop/optee-qemu/optee_examples/toctou/ta/toctou.c:14
      20:	a9bd7bfd 	stp	x29, x30, [sp, #-48]!
/home/hei/Desktop/optee-qemu/optee_examples/toctou/ta/toctou.c:15
      24:	52800023 	mov	w3, #0x1                   	// #1
      28:	52800062 	mov	w2, #0x3                   	// #3
/home/hei/Desktop/optee-qemu/optee_examples/toctou/ta/toctou.c:14
      2c:	910003fd 	mov	x29, sp
      30:	f9000bf3 	str	x19, [sp, #16]
/home/hei/Desktop/optee-qemu/optee_examples/toctou/ta/toctou.c:15
      34:	d0000053 	adrp	x19, a000 <__text_end+0x1540>
      38:	91234273 	add	x19, x19, #0x8d0
      3c:	528001e1 	mov	w1, #0xf                   	// #15
      40:	aa1303e0 	mov	x0, x19
      44:	d0000044 	adrp	x4, a000 <__text_end+0x1540>
      48:	91250084 	add	x4, x4, #0x940
      4c:	94000171 	bl	610 <trace_printf>
/home/hei/Desktop/optee-qemu/optee_examples/toctou/ta/toctou.c:17
      50:	d28c0e05 	mov	x5, #0x6070                	// #24688
      54:	aa1303e0 	mov	x0, x19
      58:	f2a80a05 	movk	x5, #0x4050, lsl #16
      5c:	52800023 	mov	w3, #0x1                   	// #1
      60:	f2c40605 	movk	x5, #0x2030, lsl #32
      64:	52800062 	mov	w2, #0x3                   	// #3
      68:	f2e10205 	movk	x5, #0x810, lsl #48
      6c:	52800221 	mov	w1, #0x11                  	// #17
      70:	d0000044 	adrp	x4, a000 <__text_end+0x1540>
      74:	91254084 	add	x4, x4, #0x950
      78:	94000166 	bl	610 <trace_printf>
/home/hei/Desktop/optee-qemu/optee_examples/toctou/ta/toctou.c:19
      7c:	52800000 	mov	w0, #0x0                   	// #0
      80:	f9400bf3 	ldr	x19, [sp, #16]
      84:	a8c37bfd 	ldp	x29, x30, [sp], #48
      88:	d65f03c0 	ret

000000000000008c <TA_DestroyEntryPoint>:
TA_DestroyEntryPoint():
/home/hei/Desktop/optee-qemu/optee_examples/toctou/ta/toctou.c:24
      8c:	d0000040 	adrp	x0, a000 <__text_end+0x1540>
      90:	91234000 	add	x0, x0, #0x8d0
      94:	d0000044 	adrp	x4, a000 <__text_end+0x1540>
      98:	52800023 	mov	w3, #0x1                   	// #1
      9c:	91250084 	add	x4, x4, #0x940
      a0:	52800062 	mov	w2, #0x3                   	// #3
      a4:	52800301 	mov	w1, #0x18                  	// #24
      a8:	91005000 	add	x0, x0, #0x14
      ac:	14000159 	b	610 <trace_printf>

00000000000000b0 <TA_OpenSessionEntryPoint>:
TA_OpenSessionEntryPoint():
/home/hei/Desktop/optee-qemu/optee_examples/toctou/ta/toctou.c:30
      b0:	a9be7bfd 	stp	x29, x30, [sp, #-32]!
/home/hei/Desktop/optee-qemu/optee_examples/toctou/ta/toctou.c:36
      b4:	d0000044 	adrp	x4, a000 <__text_end+0x1540>
      b8:	52800023 	mov	w3, #0x1                   	// #1
/home/hei/Desktop/optee-qemu/optee_examples/toctou/ta/toctou.c:30
      bc:	910003fd 	mov	x29, sp
      c0:	a90153f3 	stp	x19, x20, [sp, #16]
/home/hei/Desktop/optee-qemu/optee_examples/toctou/ta/toctou.c:36
      c4:	d0000053 	adrp	x19, a000 <__text_end+0x1540>
      c8:	91234273 	add	x19, x19, #0x8d0
      cc:	9100a673 	add	x19, x19, #0x29
/home/hei/Desktop/optee-qemu/optee_examples/toctou/ta/toctou.c:30
      d0:	2a0003f4 	mov	w20, w0
/home/hei/Desktop/optee-qemu/optee_examples/toctou/ta/toctou.c:36
      d4:	91250084 	add	x4, x4, #0x940
      d8:	52800062 	mov	w2, #0x3                   	// #3
      dc:	52800481 	mov	w1, #0x24                  	// #36
      e0:	aa1303e0 	mov	x0, x19
      e4:	9400014b 	bl	610 <trace_printf>
/home/hei/Desktop/optee-qemu/optee_examples/toctou/ta/toctou.c:38
      e8:	35000194 	cbnz	w20, 118 <TA_OpenSessionEntryPoint+0x68>
/home/hei/Desktop/optee-qemu/optee_examples/toctou/ta/toctou.c:44
      ec:	d0000044 	adrp	x4, a000 <__text_end+0x1540>
      f0:	52800023 	mov	w3, #0x1                   	// #1
      f4:	91258884 	add	x4, x4, #0x962
      f8:	52800042 	mov	w2, #0x2                   	// #2
      fc:	52800581 	mov	w1, #0x2c                  	// #44
     100:	aa1303e0 	mov	x0, x19
     104:	94000143 	bl	610 <trace_printf>
/home/hei/Desktop/optee-qemu/optee_examples/toctou/ta/toctou.c:47
     108:	2a1403e0 	mov	w0, w20
     10c:	a94153f3 	ldp	x19, x20, [sp, #16]
     110:	a8c27bfd 	ldp	x29, x30, [sp], #32
     114:	d65f03c0 	ret
/home/hei/Desktop/optee-qemu/optee_examples/toctou/ta/toctou.c:39
     118:	129fff34 	mov	w20, #0xffff0006            	// #-65530
     11c:	17fffffb 	b	108 <TA_OpenSessionEntryPoint+0x58>

0000000000000120 <TA_CloseSessionEntryPoint>:
TA_CloseSessionEntryPoint():
/home/hei/Desktop/optee-qemu/optee_examples/toctou/ta/toctou.c:52
     120:	d0000040 	adrp	x0, a000 <__text_end+0x1540>
     124:	91234000 	add	x0, x0, #0x8d0
     128:	d0000044 	adrp	x4, a000 <__text_end+0x1540>
     12c:	52800023 	mov	w3, #0x1                   	// #1
     130:	9125c084 	add	x4, x4, #0x970
     134:	52800042 	mov	w2, #0x2                   	// #2
     138:	52800681 	mov	w1, #0x34                  	// #52
     13c:	91010800 	add	x0, x0, #0x42
     140:	14000134 	b	610 <trace_printf>

0000000000000144 <TA_InvokeCommandEntryPoint>:
TA_InvokeCommandEntryPoint():
/home/hei/Desktop/optee-qemu/optee_examples/toctou/ta/toctou.c:94
     144:	35000d41 	cbnz	w1, 2ec <TA_InvokeCommandEntryPoint+0x1a8>
/home/hei/Desktop/optee-qemu/optee_examples/toctou/ta/toctou.c:91
     148:	a9b77bfd 	stp	x29, x30, [sp, #-144]!
     14c:	910003fd 	mov	x29, sp
     150:	a90153f3 	stp	x19, x20, [sp, #16]
     154:	2a0103f4 	mov	w20, w1
create_share_memory():
/home/hei/Desktop/optee-qemu/optee_examples/toctou/ta/toctou.c:63
     158:	528007e1 	mov	w1, #0x3f                  	// #63
TA_InvokeCommandEntryPoint():
/home/hei/Desktop/optee-qemu/optee_examples/toctou/ta/toctou.c:91
     15c:	a9046bf9 	stp	x25, x26, [sp, #64]
create_share_memory():
/home/hei/Desktop/optee-qemu/optee_examples/toctou/ta/toctou.c:63
     160:	d000005a 	adrp	x26, a000 <__text_end+0x1540>
     164:	91234353 	add	x19, x26, #0x8d0
     168:	91017273 	add	x19, x19, #0x5c
TA_InvokeCommandEntryPoint():
/home/hei/Desktop/optee-qemu/optee_examples/toctou/ta/toctou.c:91
     16c:	a9025bf5 	stp	x21, x22, [sp, #32]
create_share_memory():
/home/hei/Desktop/optee-qemu/optee_examples/toctou/ta/toctou.c:63
     170:	aa1303e0 	mov	x0, x19
     174:	d0000056 	adrp	x22, a000 <__text_end+0x1540>
     178:	9125eac4 	add	x4, x22, #0x97a
TA_InvokeCommandEntryPoint():
/home/hei/Desktop/optee-qemu/optee_examples/toctou/ta/toctou.c:91
     17c:	a90363f7 	stp	x23, x24, [sp, #48]
     180:	2a0203f8 	mov	w24, w2
     184:	aa0303f7 	mov	x23, x3
create_share_memory():
/home/hei/Desktop/optee-qemu/optee_examples/toctou/ta/toctou.c:63
     188:	52800062 	mov	w2, #0x3                   	// #3
     18c:	52800023 	mov	w3, #0x1                   	// #1
     190:	94000120 	bl	610 <trace_printf>
/home/hei/Desktop/optee-qemu/optee_examples/toctou/ta/toctou.c:64
     194:	d0000044 	adrp	x4, a000 <__text_end+0x1540>
     198:	52800023 	mov	w3, #0x1                   	// #1
     19c:	91250084 	add	x4, x4, #0x940
     1a0:	52800062 	mov	w2, #0x3                   	// #3
     1a4:	52800801 	mov	w1, #0x40                  	// #64
     1a8:	aa1303e0 	mov	x0, x19
     1ac:	94000119 	bl	610 <trace_printf>
/home/hei/Desktop/optee-qemu/optee_examples/toctou/ta/toctou.c:67
     1b0:	71001f1f 	cmp	w24, #0x7
     1b4:	54000981 	b.ne	2e4 <TA_InvokeCommandEntryPoint+0x1a0>  // b.any
/home/hei/Desktop/optee-qemu/optee_examples/toctou/ta/toctou.c:69
     1b8:	f94002f5 	ldr	x21, [x23]
/home/hei/Desktop/optee-qemu/optee_examples/toctou/ta/toctou.c:70
     1bc:	aa1303e0 	mov	x0, x19
     1c0:	d0000044 	adrp	x4, a000 <__text_end+0x1540>
     1c4:	52800023 	mov	w3, #0x1                   	// #1
     1c8:	91265884 	add	x4, x4, #0x996
     1cc:	52800062 	mov	w2, #0x3                   	// #3
     1d0:	b94002a5 	ldr	w5, [x21]
     1d4:	528008c1 	mov	w1, #0x46                  	// #70
     1d8:	9400010e 	bl	610 <trace_printf>
/home/hei/Desktop/optee-qemu/optee_examples/toctou/ta/toctou.c:72
     1dc:	b94002a0 	ldr	w0, [x21]
     1e0:	7101001f 	cmp	w0, #0x40
     1e4:	5400052c 	b.gt	288 <TA_InvokeCommandEntryPoint+0x144>
/home/hei/Desktop/optee-qemu/optee_examples/toctou/ta/toctou.c:75
     1e8:	d0000059 	adrp	x25, a000 <__text_end+0x1540>
     1ec:	9126d739 	add	x25, x25, #0x9b5
/home/hei/Desktop/optee-qemu/optee_examples/toctou/ta/toctou.c:73
     1f0:	52800158 	mov	w24, #0xa                   	// #10
     1f4:	910012b7 	add	x23, x21, #0x4
     1f8:	aa1703e5 	mov	x5, x23
     1fc:	d0000044 	adrp	x4, a000 <__text_end+0x1540>
     200:	52800023 	mov	w3, #0x1                   	// #1
     204:	91269084 	add	x4, x4, #0x9a4
     208:	52800062 	mov	w2, #0x3                   	// #3
     20c:	52800921 	mov	w1, #0x49                  	// #73
     210:	aa1303e0 	mov	x0, x19
     214:	940000ff 	bl	610 <trace_printf>
/home/hei/Desktop/optee-qemu/optee_examples/toctou/ta/toctou.c:75
     218:	aa1903e4 	mov	x4, x25
     21c:	52800023 	mov	w3, #0x1                   	// #1
     220:	52800062 	mov	w2, #0x3                   	// #3
     224:	52800961 	mov	w1, #0x4b                  	// #75
     228:	aa1303e0 	mov	x0, x19
     22c:	940000f9 	bl	610 <trace_printf>
/home/hei/Desktop/optee-qemu/optee_examples/toctou/ta/toctou.c:74
     230:	71000718 	subs	w24, w24, #0x1
     234:	54ffff21 	b.ne	218 <TA_InvokeCommandEntryPoint+0xd4>  // b.any
/home/hei/Desktop/optee-qemu/optee_examples/toctou/ta/toctou.c:77
     238:	b94002a5 	ldr	w5, [x21]
     23c:	52800023 	mov	w3, #0x1                   	// #1
     240:	52800062 	mov	w2, #0x3                   	// #3
     244:	528009a1 	mov	w1, #0x4d                  	// #77
     248:	aa1303e0 	mov	x0, x19
     24c:	d0000044 	adrp	x4, a000 <__text_end+0x1540>
     250:	91277884 	add	x4, x4, #0x9de
     254:	940000ef 	bl	610 <trace_printf>
/home/hei/Desktop/optee-qemu/optee_examples/toctou/ta/toctou.c:78
     258:	52800062 	mov	w2, #0x3                   	// #3
     25c:	528009c1 	mov	w1, #0x4e                  	// #78
     260:	aa1303e0 	mov	x0, x19
     264:	aa1703e5 	mov	x5, x23
     268:	d0000044 	adrp	x4, a000 <__text_end+0x1540>
     26c:	52800023 	mov	w3, #0x1                   	// #1
     270:	9127b484 	add	x4, x4, #0x9ed
     274:	940000e7 	bl	610 <trace_printf>
/home/hei/Desktop/optee-qemu/optee_examples/toctou/ta/toctou.c:79
     278:	b98002a2 	ldrsw	x2, [x21]
     27c:	aa1703e1 	mov	x1, x23
     280:	910143e0 	add	x0, sp, #0x50
     284:	94000023 	bl	310 <memcpy>
/home/hei/Desktop/optee-qemu/optee_examples/toctou/ta/toctou.c:81
     288:	91234353 	add	x19, x26, #0x8d0
     28c:	910143e5 	add	x5, sp, #0x50
     290:	91017273 	add	x19, x19, #0x5c
     294:	52800023 	mov	w3, #0x1                   	// #1
     298:	52800062 	mov	w2, #0x3                   	// #3
     29c:	52800a21 	mov	w1, #0x51                  	// #81
     2a0:	aa1303e0 	mov	x0, x19
     2a4:	d0000044 	adrp	x4, a000 <__text_end+0x1540>
     2a8:	9127f884 	add	x4, x4, #0x9fe
     2ac:	940000d9 	bl	610 <trace_printf>
/home/hei/Desktop/optee-qemu/optee_examples/toctou/ta/toctou.c:82
     2b0:	9125eac4 	add	x4, x22, #0x97a
     2b4:	52800023 	mov	w3, #0x1                   	// #1
     2b8:	52800062 	mov	w2, #0x3                   	// #3
     2bc:	52800a41 	mov	w1, #0x52                  	// #82
     2c0:	aa1303e0 	mov	x0, x19
     2c4:	940000d3 	bl	610 <trace_printf>
TA_InvokeCommandEntryPoint():
/home/hei/Desktop/optee-qemu/optee_examples/toctou/ta/toctou.c:96
     2c8:	2a1403e0 	mov	w0, w20
/home/hei/Desktop/optee-qemu/optee_examples/toctou/ta/toctou.c:100
     2cc:	a94153f3 	ldp	x19, x20, [sp, #16]
     2d0:	a9425bf5 	ldp	x21, x22, [sp, #32]
     2d4:	a94363f7 	ldp	x23, x24, [sp, #48]
     2d8:	a9446bf9 	ldp	x25, x26, [sp, #64]
     2dc:	a8c97bfd 	ldp	x29, x30, [sp], #144
     2e0:	d65f03c0 	ret
create_share_memory():
/home/hei/Desktop/optee-qemu/optee_examples/toctou/ta/toctou.c:68
     2e4:	129fff34 	mov	w20, #0xffff0006            	// #-65530
     2e8:	17fffff8 	b	2c8 <TA_InvokeCommandEntryPoint+0x184>
TA_InvokeCommandEntryPoint():
/home/hei/Desktop/optee-qemu/optee_examples/toctou/ta/toctou.c:98
     2ec:	129fff20 	mov	w0, #0xffff0006            	// #-65530
/home/hei/Desktop/optee-qemu/optee_examples/toctou/ta/toctou.c:100
     2f0:	d65f03c0 	ret

00000000000002f4 <__ta_entry>:
__ta_entry():
/home/hei/Desktop/optee-qemu/optee_os/out/arm/export-ta_arm64/src/user_ta_header.c:47
     2f4:	a9bf7bfd 	stp	x29, x30, [sp, #-16]!
     2f8:	910003fd 	mov	x29, sp
/home/hei/Desktop/optee-qemu/optee_os/out/arm/export-ta_arm64/src/user_ta_header.c:48
     2fc:	94000601 	bl	1b00 <__utee_entry>
/home/hei/Desktop/optee-qemu/optee_os/out/arm/export-ta_arm64/src/user_ta_header.c:59
     300:	2a0003e0 	mov	w0, w0
     304:	940004eb 	bl	16b0 <utee_return>

0000000000000308 <tahead_get_trace_level>:
tahead_get_trace_level():
/home/hei/Desktop/optee-qemu/optee_os/out/arm/export-ta_arm64/src/user_ta_header.c:149
     308:	52800080 	mov	w0, #0x4                   	// #4
     30c:	d65f03c0 	ret

0000000000000310 <memcpy>:
memcpy():
/home/hei/Desktop/optee-qemu/optee_os/lib/libutils/isoc/newlib/memcpy.c:94
     310:	d2800003 	mov	x3, #0x0                   	// #0
     314:	eb03005f 	cmp	x2, x3
     318:	54000041 	b.ne	320 <memcpy+0x10>  // b.any
/home/hei/Desktop/optee-qemu/optee_os/lib/libutils/isoc/newlib/memcpy.c:135
     31c:	d65f03c0 	ret
/home/hei/Desktop/optee-qemu/optee_os/lib/libutils/isoc/newlib/memcpy.c:95
     320:	38636824 	ldrb	w4, [x1, x3]
     324:	38236804 	strb	w4, [x0, x3]
     328:	91000463 	add	x3, x3, #0x1
     32c:	17fffffa 	b	314 <memcpy+0x4>

0000000000000330 <append>:
append():
/home/hei/Desktop/optee-qemu/optee_os/lib/libutils/ext/trace.c:204
     330:	a9af7bfd 	stp	x29, x30, [sp, #-272]!
     334:	910003fd 	mov	x29, sp
     338:	3d801be0 	str	q0, [sp, #96]
     33c:	3d801fe1 	str	q1, [sp, #112]
     340:	3d8023e2 	str	q2, [sp, #128]
     344:	3d8027e3 	str	q3, [sp, #144]
     348:	3d802be4 	str	q4, [sp, #160]
     34c:	3d802fe5 	str	q5, [sp, #176]
     350:	3d8033e6 	str	q6, [sp, #192]
     354:	3d8037e7 	str	q7, [sp, #208]
     358:	a90e0fe2 	stp	x2, x3, [sp, #224]
     35c:	a90f17e4 	stp	x4, x5, [sp, #240]
     360:	a9101fe6 	stp	x6, x7, [sp, #256]
     364:	a90153f3 	stp	x19, x20, [sp, #16]
     368:	aa0003f3 	mov	x19, x0
/home/hei/Desktop/optee-qemu/optee_os/lib/libutils/ext/trace.c:209
     36c:	f9408000 	ldr	x0, [x0, #256]
     370:	b5000040 	cbnz	x0, 378 <append+0x48>
/home/hei/Desktop/optee-qemu/optee_os/lib/libutils/ext/trace.c:210
     374:	f9008273 	str	x19, [x19, #256]
/home/hei/Desktop/optee-qemu/optee_os/lib/libutils/ext/trace.c:212
     378:	910443e2 	add	x2, sp, #0x110
     37c:	a9040be2 	stp	x2, x2, [sp, #64]
     380:	910383e2 	add	x2, sp, #0xe0
     384:	f9002be2 	str	x2, [sp, #80]
     388:	128005e2 	mov	w2, #0xffffffd0            	// #-48
/home/hei/Desktop/optee-qemu/optee_os/lib/libutils/ext/trace.c:211
     38c:	f9408260 	ldr	x0, [x19, #256]
/home/hei/Desktop/optee-qemu/optee_os/lib/libutils/ext/trace.c:212
     390:	b9005be2 	str	w2, [sp, #88]
     394:	12800fe2 	mov	w2, #0xffffff80            	// #-128
     398:	b9005fe2 	str	w2, [sp, #92]
/home/hei/Desktop/optee-qemu/optee_os/lib/libutils/ext/trace.c:213
     39c:	a9440fe2 	ldp	x2, x3, [sp, #64]
/home/hei/Desktop/optee-qemu/optee_os/lib/libutils/ext/trace.c:211
     3a0:	4b000274 	sub	w20, w19, w0
/home/hei/Desktop/optee-qemu/optee_os/lib/libutils/ext/trace.c:213
     3a4:	a9020fe2 	stp	x2, x3, [sp, #32]
/home/hei/Desktop/optee-qemu/optee_os/lib/libutils/ext/trace.c:211
     3a8:	11040294 	add	w20, w20, #0x100
/home/hei/Desktop/optee-qemu/optee_os/lib/libutils/ext/trace.c:213
     3ac:	a9450fe2 	ldp	x2, x3, [sp, #80]
     3b0:	a9030fe2 	stp	x2, x3, [sp, #48]
     3b4:	aa0103e2 	mov	x2, x1
     3b8:	910083e3 	add	x3, sp, #0x20
     3bc:	93407e81 	sxtw	x1, w20
     3c0:	94000418 	bl	1420 <vsnprintk>
/home/hei/Desktop/optee-qemu/optee_os/lib/libutils/ext/trace.c:215
     3c4:	37f80140 	tbnz	w0, #31, 3ec <append+0xbc>
/home/hei/Desktop/optee-qemu/optee_os/lib/libutils/ext/trace.c:219
     3c8:	6b00029f 	cmp	w20, w0
     3cc:	5400010d 	b.le	3ec <append+0xbc>
/home/hei/Desktop/optee-qemu/optee_os/lib/libutils/ext/trace.c:223
     3d0:	f9408261 	ldr	x1, [x19, #256]
     3d4:	8b20c020 	add	x0, x1, w0, sxtw
     3d8:	f9008260 	str	x0, [x19, #256]
/home/hei/Desktop/optee-qemu/optee_os/lib/libutils/ext/trace.c:224
     3dc:	52800020 	mov	w0, #0x1                   	// #1
/home/hei/Desktop/optee-qemu/optee_os/lib/libutils/ext/trace.c:225
     3e0:	a94153f3 	ldp	x19, x20, [sp, #16]
     3e4:	a8d17bfd 	ldp	x29, x30, [sp], #272
     3e8:	d65f03c0 	ret
/home/hei/Desktop/optee-qemu/optee_os/lib/libutils/ext/trace.c:217
     3ec:	52800000 	mov	w0, #0x0                   	// #0
     3f0:	17fffffc 	b	3e0 <append+0xb0>

00000000000003f4 <trace_set_level>:
trace_set_level():
/home/hei/Desktop/optee-qemu/optee_os/lib/libutils/ext/trace.c:29
     3f4:	7100141f 	cmp	w0, #0x5
     3f8:	52800081 	mov	w1, #0x4                   	// #4
     3fc:	1a813000 	csel	w0, w0, w1, cc  // cc = lo, ul, last
     400:	90000061 	adrp	x1, c000 <_DYNAMIC>
     404:	f9409c21 	ldr	x1, [x1, #312]
     408:	b9000020 	str	w0, [x1]
/home/hei/Desktop/optee-qemu/optee_os/lib/libutils/ext/trace.c:30
     40c:	d65f03c0 	ret

0000000000000410 <trace_get_level>:
trace_get_level():
/home/hei/Desktop/optee-qemu/optee_os/lib/libutils/ext/trace.c:34
     410:	90000060 	adrp	x0, c000 <_DYNAMIC>
/home/hei/Desktop/optee-qemu/optee_os/lib/libutils/ext/trace.c:35
     414:	f9409c00 	ldr	x0, [x0, #312]
     418:	b9400000 	ldr	w0, [x0]
     41c:	d65f03c0 	ret

0000000000000420 <trace_vprintf>:
trace_vprintf():
/home/hei/Desktop/optee-qemu/optee_os/lib/libutils/ext/trace.c:106
     420:	a9a87bfd 	stp	x29, x30, [sp, #-384]!
     424:	910003fd 	mov	x29, sp
     428:	a90153f3 	stp	x19, x20, [sp, #16]
     42c:	a9025bf5 	stp	x21, x22, [sp, #32]
     430:	a90363f7 	stp	x23, x24, [sp, #48]
/home/hei/Desktop/optee-qemu/optee_os/lib/libutils/ext/trace.c:111
     434:	72001c77 	ands	w23, w3, #0xff
/home/hei/Desktop/optee-qemu/optee_os/lib/libutils/ext/trace.c:106
     438:	a9046bf9 	stp	x25, x26, [sp, #64]
     43c:	f9002bfb 	str	x27, [sp, #80]
/home/hei/Desktop/optee-qemu/optee_os/lib/libutils/ext/trace.c:111
     440:	54000c00 	b.eq	5c0 <trace_vprintf+0x1a0>  // b.none
/home/hei/Desktop/optee-qemu/optee_os/lib/libutils/ext/trace.c:111 (discriminator 1)
     444:	90000063 	adrp	x3, c000 <_DYNAMIC>
     448:	f9409c63 	ldr	x3, [x3, #312]
     44c:	b9400063 	ldr	w3, [x3]
     450:	6b02007f 	cmp	w3, w2
     454:	54000a8b 	b.lt	5a4 <trace_vprintf+0x184>  // b.tstop
trace_level_to_string():
/home/hei/Desktop/optee-qemu/optee_os/lib/libutils/ext/trace.c:52
     458:	7100105f 	cmp	w2, #0x4
/home/hei/Desktop/optee-qemu/optee_os/lib/libutils/ext/trace.c:55
     45c:	d0000043 	adrp	x3, a000 <__text_end+0x1540>
/home/hei/Desktop/optee-qemu/optee_os/lib/libutils/ext/trace.c:52
     460:	1a9f9046 	csel	w6, w2, wzr, ls  // ls = plast
/home/hei/Desktop/optee-qemu/optee_os/lib/libutils/ext/trace.c:55
     464:	912cc863 	add	x3, x3, #0xb32
     468:	3866c863 	ldrb	w3, [x3, w6, sxtw]
trace_vprintf():
/home/hei/Desktop/optee-qemu/optee_os/lib/libutils/ext/trace.c:115
     46c:	910203f4 	add	x20, sp, #0x80
     470:	2a0203f8 	mov	w24, w2
     474:	2a0103fb 	mov	w27, w1
     478:	aa0003f6 	mov	x22, x0
     47c:	d0000042 	adrp	x2, a000 <__text_end+0x1540>
     480:	aa0503fa 	mov	x26, x5
     484:	aa0403f9 	mov	x25, x4
     488:	912d0442 	add	x2, x2, #0xb41
     48c:	d2802001 	mov	x1, #0x100                 	// #256
     490:	aa1403e0 	mov	x0, x20
     494:	940003f8 	bl	1474 <snprintk>
/home/hei/Desktop/optee-qemu/optee_os/lib/libutils/ext/trace.c:117
     498:	37f80860 	tbnz	w0, #31, 5a4 <trace_vprintf+0x184>
/home/hei/Desktop/optee-qemu/optee_os/lib/libutils/ext/trace.c:122
     49c:	90000063 	adrp	x3, c000 <_DYNAMIC>
/home/hei/Desktop/optee-qemu/optee_os/lib/libutils/ext/trace.c:119
     4a0:	93407c15 	sxtw	x21, w0
/home/hei/Desktop/optee-qemu/optee_os/lib/libutils/ext/trace.c:122
     4a4:	d2802013 	mov	x19, #0x100                 	// #256
     4a8:	d0000042 	adrp	x2, a000 <__text_end+0x1540>
     4ac:	f940a063 	ldr	x3, [x3, #320]
     4b0:	912d1442 	add	x2, x2, #0xb45
     4b4:	cb150261 	sub	x1, x19, x21
     4b8:	8b150280 	add	x0, x20, x21
     4bc:	940003ee 	bl	1474 <snprintk>
/home/hei/Desktop/optee-qemu/optee_os/lib/libutils/ext/trace.c:124
     4c0:	37f80720 	tbnz	w0, #31, 5a4 <trace_vprintf+0x184>
/home/hei/Desktop/optee-qemu/optee_os/lib/libutils/ext/trace.c:126
     4c4:	8b20c2b5 	add	x21, x21, w0, sxtw
/home/hei/Desktop/optee-qemu/optee_os/lib/libutils/ext/trace.c:128
     4c8:	34000937 	cbz	w23, 5ec <trace_vprintf+0x1cc>
/home/hei/Desktop/optee-qemu/optee_os/lib/libutils/ext/trace.c:128 (discriminator 1)
     4cc:	52800342 	mov	w2, #0x1a                  	// #26
     4d0:	1ad82442 	lsr	w2, w2, w24
     4d4:	360008c2 	tbz	w2, #0, 5ec <trace_vprintf+0x1cc>
/home/hei/Desktop/optee-qemu/optee_os/lib/libutils/ext/trace.c:130
     4d8:	8b150297 	add	x23, x20, x21
     4dc:	cb150273 	sub	x19, x19, x21
print_thread_id():
/home/hei/Desktop/optee-qemu/optee_os/lib/libutils/ext/trace.c:65
     4e0:	9400041e 	bl	1558 <trace_ext_get_thread_id>
/home/hei/Desktop/optee-qemu/optee_os/lib/libutils/ext/trace.c:67
     4e4:	37f80720 	tbnz	w0, #31, 5c8 <trace_vprintf+0x1a8>
/home/hei/Desktop/optee-qemu/optee_os/lib/libutils/ext/trace.c:68
     4e8:	2a0003e4 	mov	w4, w0
     4ec:	d0000042 	adrp	x2, a000 <__text_end+0x1540>
     4f0:	52800023 	mov	w3, #0x1                   	// #1
     4f4:	912d2442 	add	x2, x2, #0xb49
     4f8:	aa1303e1 	mov	x1, x19
     4fc:	aa1703e0 	mov	x0, x23
     500:	940003dd 	bl	1474 <snprintk>
trace_vprintf():
/home/hei/Desktop/optee-qemu/optee_os/lib/libutils/ext/trace.c:137
     504:	37f80500 	tbnz	w0, #31, 5a4 <trace_vprintf+0x184>
/home/hei/Desktop/optee-qemu/optee_os/lib/libutils/ext/trace.c:139
     508:	8b20c2b3 	add	x19, x21, w0, sxtw
/home/hei/Desktop/optee-qemu/optee_os/lib/libutils/ext/trace.c:141
     50c:	b4000176 	cbz	x22, 538 <trace_vprintf+0x118>
/home/hei/Desktop/optee-qemu/optee_os/lib/libutils/ext/trace.c:142
     510:	d0000042 	adrp	x2, a000 <__text_end+0x1540>
     514:	d2802001 	mov	x1, #0x100                 	// #256
     518:	2a1b03e4 	mov	w4, w27
     51c:	aa1603e3 	mov	x3, x22
     520:	912d5042 	add	x2, x2, #0xb54
     524:	cb130021 	sub	x1, x1, x19
     528:	8b130280 	add	x0, x20, x19
     52c:	940003d2 	bl	1474 <snprintk>
/home/hei/Desktop/optee-qemu/optee_os/lib/libutils/ext/trace.c:144
     530:	37f803a0 	tbnz	w0, #31, 5a4 <trace_vprintf+0x184>
/home/hei/Desktop/optee-qemu/optee_os/lib/libutils/ext/trace.c:146
     534:	8b20c273 	add	x19, x19, w0, sxtw
/home/hei/Desktop/optee-qemu/optee_os/lib/libutils/ext/trace.c:156
     538:	910183e3 	add	x3, sp, #0x60
     53c:	d2800402 	mov	x2, #0x20                  	// #32
     540:	aa1a03e1 	mov	x1, x26
     544:	aa0303e0 	mov	x0, x3
     548:	97ffff72 	bl	310 <memcpy>
     54c:	aa0003e3 	mov	x3, x0
     550:	aa1903e2 	mov	x2, x25
     554:	d2802001 	mov	x1, #0x100                 	// #256
     558:	8b130280 	add	x0, x20, x19
     55c:	cb130021 	sub	x1, x1, x19
     560:	940003b0 	bl	1420 <vsnprintk>
/home/hei/Desktop/optee-qemu/optee_os/lib/libutils/ext/trace.c:157
     564:	7100001f 	cmp	w0, #0x0
     568:	5400004d 	b.le	570 <trace_vprintf+0x150>
/home/hei/Desktop/optee-qemu/optee_os/lib/libutils/ext/trace.c:158
     56c:	8b20c273 	add	x19, x19, w0, sxtw
/home/hei/Desktop/optee-qemu/optee_os/lib/libutils/ext/trace.c:160
     570:	f103fa7f 	cmp	x19, #0xfe
     574:	d2801fc0 	mov	x0, #0xfe                  	// #254
     578:	9a809273 	csel	x19, x19, x0, ls  // ls = plast
/home/hei/Desktop/optee-qemu/optee_os/lib/libutils/ext/trace.c:163
     57c:	52800140 	mov	w0, #0xa                   	// #10
     580:	38336a80 	strb	w0, [x20, x19]
/home/hei/Desktop/optee-qemu/optee_os/lib/libutils/ext/trace.c:164
     584:	b4000093 	cbz	x19, 594 <trace_vprintf+0x174>
/home/hei/Desktop/optee-qemu/optee_os/lib/libutils/ext/trace.c:164 (discriminator 1)
     588:	38736a80 	ldrb	w0, [x20, x19]
     58c:	7100281f 	cmp	w0, #0xa
     590:	540003c0 	b.eq	608 <trace_vprintf+0x1e8>  // b.none
/home/hei/Desktop/optee-qemu/optee_os/lib/libutils/ext/trace.c:167
     594:	91020be0 	add	x0, sp, #0x82
     598:	3833681f 	strb	wzr, [x0, x19]
/home/hei/Desktop/optee-qemu/optee_os/lib/libutils/ext/trace.c:169
     59c:	aa1403e0 	mov	x0, x20
     5a0:	940003e4 	bl	1530 <trace_ext_puts>
/home/hei/Desktop/optee-qemu/optee_os/lib/libutils/ext/trace.c:170
     5a4:	a94153f3 	ldp	x19, x20, [sp, #16]
     5a8:	a9425bf5 	ldp	x21, x22, [sp, #32]
     5ac:	a94363f7 	ldp	x23, x24, [sp, #48]
     5b0:	a9446bf9 	ldp	x25, x26, [sp, #64]
     5b4:	f9402bfb 	ldr	x27, [sp, #80]
     5b8:	a8d87bfd 	ldp	x29, x30, [sp], #384
     5bc:	d65f03c0 	ret
trace_level_to_string():
/home/hei/Desktop/optee-qemu/optee_os/lib/libutils/ext/trace.c:50
     5c0:	528009a3 	mov	w3, #0x4d                  	// #77
     5c4:	17ffffaa 	b	46c <trace_vprintf+0x4c>
print_thread_id():
/home/hei/Desktop/optee-qemu/optee_os/lib/libutils/ext/trace.c:70
     5c8:	d0000044 	adrp	x4, a000 <__text_end+0x1540>
     5cc:	52800023 	mov	w3, #0x1                   	// #1
     5d0:	9125bc84 	add	x4, x4, #0x96f
     5d4:	d0000042 	adrp	x2, a000 <__text_end+0x1540>
     5d8:	aa1303e1 	mov	x1, x19
     5dc:	912d3c42 	add	x2, x2, #0xb4f
     5e0:	aa1703e0 	mov	x0, x23
     5e4:	940003a4 	bl	1474 <snprintk>
     5e8:	17ffffc7 	b	504 <trace_vprintf+0xe4>
trace_vprintf():
/home/hei/Desktop/optee-qemu/optee_os/lib/libutils/ext/trace.c:150
     5ec:	f103fabf 	cmp	x21, #0xfe
     5f0:	54fffda8 	b.hi	5a4 <trace_vprintf+0x184>  // b.pmore
/home/hei/Desktop/optee-qemu/optee_os/lib/libutils/ext/trace.c:152
     5f4:	910006b3 	add	x19, x21, #0x1
     5f8:	52800400 	mov	w0, #0x20                  	// #32
     5fc:	38356a80 	strb	w0, [x20, x21]
/home/hei/Desktop/optee-qemu/optee_os/lib/libutils/ext/trace.c:153
     600:	38336a9f 	strb	wzr, [x20, x19]
     604:	17ffffcd 	b	538 <trace_vprintf+0x118>
/home/hei/Desktop/optee-qemu/optee_os/lib/libutils/ext/trace.c:165
     608:	d1000673 	sub	x19, x19, #0x1
     60c:	17ffffde 	b	584 <trace_vprintf+0x164>

0000000000000610 <trace_printf>:
trace_printf():
/home/hei/Desktop/optee-qemu/optee_os/lib/libutils/ext/trace.c:97
     610:	a9b17bfd 	stp	x29, x30, [sp, #-240]!
     614:	910003fd 	mov	x29, sp
     618:	a90d9be5 	stp	x5, x6, [sp, #216]
/home/hei/Desktop/optee-qemu/optee_os/lib/libutils/ext/trace.c:100
     61c:	9103c3e5 	add	x5, sp, #0xf0
     620:	a90317e5 	stp	x5, x5, [sp, #48]
     624:	910343e5 	add	x5, sp, #0xd0
     628:	f90023e5 	str	x5, [sp, #64]
     62c:	128002e5 	mov	w5, #0xffffffe8            	// #-24
     630:	b9004be5 	str	w5, [sp, #72]
     634:	12800fe5 	mov	w5, #0xffffff80            	// #-128
     638:	b9004fe5 	str	w5, [sp, #76]
/home/hei/Desktop/optee-qemu/optee_os/lib/libutils/ext/trace.c:101
     63c:	910043e5 	add	x5, sp, #0x10
/home/hei/Desktop/optee-qemu/optee_os/lib/libutils/ext/trace.c:97
     640:	f90077e7 	str	x7, [sp, #232]
/home/hei/Desktop/optee-qemu/optee_os/lib/libutils/ext/trace.c:101
     644:	a9431fe6 	ldp	x6, x7, [sp, #48]
     648:	a9011fe6 	stp	x6, x7, [sp, #16]
     64c:	a9441fe6 	ldp	x6, x7, [sp, #64]
     650:	a9021fe6 	stp	x6, x7, [sp, #32]
/home/hei/Desktop/optee-qemu/optee_os/lib/libutils/ext/trace.c:97
     654:	3d8017e0 	str	q0, [sp, #80]
     658:	3d801be1 	str	q1, [sp, #96]
     65c:	3d801fe2 	str	q2, [sp, #112]
     660:	3d8023e3 	str	q3, [sp, #128]
     664:	3d8027e4 	str	q4, [sp, #144]
     668:	3d802be5 	str	q5, [sp, #160]
     66c:	3d802fe6 	str	q6, [sp, #176]
     670:	3d8033e7 	str	q7, [sp, #192]
/home/hei/Desktop/optee-qemu/optee_os/lib/libutils/ext/trace.c:101
     674:	97ffff6b 	bl	420 <trace_vprintf>
/home/hei/Desktop/optee-qemu/optee_os/lib/libutils/ext/trace.c:103
     678:	a8cf7bfd 	ldp	x29, x30, [sp], #240
     67c:	d65f03c0 	ret

0000000000000680 <dhex_dump>:
dhex_dump():
/home/hei/Desktop/optee-qemu/optee_os/lib/libutils/ext/trace.c:235
     680:	90000065 	adrp	x5, c000 <_DYNAMIC>
     684:	f9409ca5 	ldr	x5, [x5, #312]
     688:	b94000a5 	ldr	w5, [x5]
     68c:	6b0200bf 	cmp	w5, w2
     690:	54000acb 	b.lt	7e8 <dhex_dump+0x168>  // b.tstop
/home/hei/Desktop/optee-qemu/optee_os/lib/libutils/ext/trace.c:229
     694:	a9a97bfd 	stp	x29, x30, [sp, #-368]!
     698:	910003fd 	mov	x29, sp
     69c:	a90153f3 	stp	x19, x20, [sp, #16]
     6a0:	2a0203f4 	mov	w20, w2
/home/hei/Desktop/optee-qemu/optee_os/lib/libutils/ext/trace.c:237
     6a4:	d2800013 	mov	x19, #0x0                   	// #0
/home/hei/Desktop/optee-qemu/optee_os/lib/libutils/ext/trace.c:229
     6a8:	a9025bf5 	stp	x21, x22, [sp, #32]
     6ac:	2a0103f6 	mov	w22, w1
     6b0:	aa0003f5 	mov	x21, x0
     6b4:	a90363f7 	stp	x23, x24, [sp, #48]
     6b8:	aa0303f8 	mov	x24, x3
     6bc:	9101a3f7 	add	x23, sp, #0x68
     6c0:	a9046bf9 	stp	x25, x26, [sp, #64]
/home/hei/Desktop/optee-qemu/optee_os/lib/libutils/ext/trace.c:239
     6c4:	d000005a 	adrp	x26, a000 <__text_end+0x1540>
     6c8:	2a0403f9 	mov	w25, w4
     6cc:	912d875a 	add	x26, x26, #0xb61
/home/hei/Desktop/optee-qemu/optee_os/lib/libutils/ext/trace.c:229
     6d0:	a90573fb 	stp	x27, x28, [sp, #80]
/home/hei/Desktop/optee-qemu/optee_os/lib/libutils/ext/trace.c:244
     6d4:	d000005b 	adrp	x27, a000 <__text_end+0x1540>
     6d8:	912d6f7b 	add	x27, x27, #0xb5b
/home/hei/Desktop/optee-qemu/optee_os/lib/libutils/ext/trace.c:236
     6dc:	f900b7ff 	str	xzr, [sp, #360]
/home/hei/Desktop/optee-qemu/optee_os/lib/libutils/ext/trace.c:237
     6e0:	2a1303fc 	mov	w28, w19
/home/hei/Desktop/optee-qemu/optee_os/lib/libutils/ext/trace.c:237 (discriminator 1)
     6e4:	6b13033f 	cmp	w25, w19
     6e8:	5400024c 	b.gt	730 <dhex_dump+0xb0>
/home/hei/Desktop/optee-qemu/optee_os/lib/libutils/ext/trace.c:257
     6ec:	f940b7e0 	ldr	x0, [sp, #360]
     6f0:	b4000120 	cbz	x0, 714 <dhex_dump+0x94>
/home/hei/Desktop/optee-qemu/optee_os/lib/libutils/ext/trace.c:259
     6f4:	d0000044 	adrp	x4, a000 <__text_end+0x1540>
     6f8:	9101a3e5 	add	x5, sp, #0x68
     6fc:	9127ec84 	add	x4, x4, #0x9fb
     700:	52800023 	mov	w3, #0x1                   	// #1
     704:	2a1403e2 	mov	w2, w20
     708:	2a1603e1 	mov	w1, w22
     70c:	aa1503e0 	mov	x0, x21
     710:	97ffffc0 	bl	610 <trace_printf>
/home/hei/Desktop/optee-qemu/optee_os/lib/libutils/ext/trace.c:267
     714:	a94153f3 	ldp	x19, x20, [sp, #16]
     718:	a9425bf5 	ldp	x21, x22, [sp, #32]
     71c:	a94363f7 	ldp	x23, x24, [sp, #48]
     720:	a9446bf9 	ldp	x25, x26, [sp, #64]
     724:	a94573fb 	ldp	x27, x28, [sp, #80]
     728:	a8d77bfd 	ldp	x29, x30, [sp], #368
     72c:	d65f03c0 	ret
/home/hei/Desktop/optee-qemu/optee_os/lib/libutils/ext/trace.c:238
     730:	f2400e7f 	tst	x19, #0xf
     734:	54000200 	b.eq	774 <dhex_dump+0xf4>  // b.none
/home/hei/Desktop/optee-qemu/optee_os/lib/libutils/ext/trace.c:244
     738:	38736b02 	ldrb	w2, [x24, x19]
     73c:	aa1b03e1 	mov	x1, x27
     740:	aa1703e0 	mov	x0, x23
     744:	97fffefb 	bl	330 <append>
/home/hei/Desktop/optee-qemu/optee_os/lib/libutils/ext/trace.c:245
     748:	35000240 	cbnz	w0, 790 <dhex_dump+0x110>
/home/hei/Desktop/optee-qemu/optee_os/lib/libutils/ext/trace.c:266
     74c:	d0000040 	adrp	x0, a000 <__text_end+0x1540>
     750:	912cc800 	add	x0, x0, #0xb32
     754:	d0000044 	adrp	x4, a000 <__text_end+0x1540>
     758:	52800023 	mov	w3, #0x1                   	// #1
     75c:	912da484 	add	x4, x4, #0xb69
     760:	52800062 	mov	w2, #0x3                   	// #3
     764:	52802141 	mov	w1, #0x10a                 	// #266
     768:	91001400 	add	x0, x0, #0x5
     76c:	97ffffa9 	bl	610 <trace_printf>
     770:	17ffffe9 	b	714 <dhex_dump+0x94>
/home/hei/Desktop/optee-qemu/optee_os/lib/libutils/ext/trace.c:239
     774:	8b130303 	add	x3, x24, x19
     778:	52800202 	mov	w2, #0x10                  	// #16
     77c:	aa1a03e1 	mov	x1, x26
     780:	aa1703e0 	mov	x0, x23
     784:	97fffeeb 	bl	330 <append>
/home/hei/Desktop/optee-qemu/optee_os/lib/libutils/ext/trace.c:241
     788:	35fffd80 	cbnz	w0, 738 <dhex_dump+0xb8>
     78c:	17fffff0 	b	74c <dhex_dump+0xcc>
/home/hei/Desktop/optee-qemu/optee_os/lib/libutils/ext/trace.c:247
     790:	12000f80 	and	w0, w28, #0xf
     794:	71001c1f 	cmp	w0, #0x7
     798:	54000101 	b.ne	7b8 <dhex_dump+0x138>  // b.any
/home/hei/Desktop/optee-qemu/optee_os/lib/libutils/ext/trace.c:248
     79c:	d0000041 	adrp	x1, a000 <__text_end+0x1540>
     7a0:	aa1703e0 	mov	x0, x23
     7a4:	912d9c21 	add	x1, x1, #0xb67
     7a8:	97fffee2 	bl	330 <append>
/home/hei/Desktop/optee-qemu/optee_os/lib/libutils/ext/trace.c:249
     7ac:	34fffd00 	cbz	w0, 74c <dhex_dump+0xcc>
     7b0:	91000673 	add	x19, x19, #0x1
     7b4:	17ffffcb 	b	6e0 <dhex_dump+0x60>
/home/hei/Desktop/optee-qemu/optee_os/lib/libutils/ext/trace.c:251
     7b8:	71003c1f 	cmp	w0, #0xf
     7bc:	54ffffa1 	b.ne	7b0 <dhex_dump+0x130>  // b.any
/home/hei/Desktop/optee-qemu/optee_os/lib/libutils/ext/trace.c:252
     7c0:	aa1703e5 	mov	x5, x23
     7c4:	d0000044 	adrp	x4, a000 <__text_end+0x1540>
     7c8:	52800023 	mov	w3, #0x1                   	// #1
     7cc:	9127ec84 	add	x4, x4, #0x9fb
     7d0:	2a1403e2 	mov	w2, w20
     7d4:	2a1603e1 	mov	w1, w22
     7d8:	aa1503e0 	mov	x0, x21
     7dc:	97ffff8d 	bl	610 <trace_printf>
/home/hei/Desktop/optee-qemu/optee_os/lib/libutils/ext/trace.c:254
     7e0:	f900b7ff 	str	xzr, [sp, #360]
     7e4:	17fffff3 	b	7b0 <dhex_dump+0x130>
     7e8:	d65f03c0 	ret

00000000000007ec <__vsnprintf>:
__vsnprintf():
/home/hei/Desktop/optee-qemu/optee_os/lib/libutils/ext/snprintk.c:137
     7ec:	d10403ff 	sub	sp, sp, #0x100
     7f0:	aa0203e9 	mov	x9, x2
kprintf():
/home/hei/Desktop/optee-qemu/optee_os/lib/libutils/ext/snprintk.c:537
     7f4:	910363ed 	add	x13, sp, #0xd8
__vsnprintf():
/home/hei/Desktop/optee-qemu/optee_os/lib/libutils/ext/snprintk.c:137
     7f8:	a9037bfd 	stp	x29, x30, [sp, #48]
     7fc:	9100c3fd 	add	x29, sp, #0x30
     800:	a90987e0 	stp	x0, x1, [sp, #152]
     804:	12001c80 	and	w0, w4, #0xff
     808:	a90453f3 	stp	x19, x20, [sp, #64]
     80c:	b9401874 	ldr	w20, [x3, #24]
     810:	a90873fb 	stp	x27, x28, [sp, #128]
     814:	b900afe0 	str	w0, [sp, #172]
     818:	a9407073 	ldp	x19, x28, [x3]
     81c:	a9076bf9 	stp	x25, x26, [sp, #112]
kprintf():
/home/hei/Desktop/optee-qemu/optee_os/lib/libutils/ext/snprintk.c:267
     820:	5280001a 	mov	w26, #0x0                   	// #0
__vsnprintf():
/home/hei/Desktop/optee-qemu/optee_os/lib/libutils/ext/snprintk.c:141
     824:	f9404fe0 	ldr	x0, [sp, #152]
/home/hei/Desktop/optee-qemu/optee_os/lib/libutils/ext/snprintk.c:137
     828:	a9055bf5 	stp	x21, x22, [sp, #80]
kprintf():
/home/hei/Desktop/optee-qemu/optee_os/lib/libutils/ext/snprintk.c:269
     82c:	d2800016 	mov	x22, #0x0                   	// #0
__vsnprintf():
/home/hei/Desktop/optee-qemu/optee_os/lib/libutils/ext/snprintk.c:141
     830:	8b010019 	add	x25, x0, x1
     834:	aa0003fb 	mov	x27, x0
/home/hei/Desktop/optee-qemu/optee_os/lib/libutils/ext/snprintk.c:137
     838:	a90663f7 	stp	x23, x24, [sp, #96]
kprintf():
/home/hei/Desktop/optee-qemu/optee_os/lib/libutils/ext/snprintk.c:275
     83c:	39400120 	ldrb	w0, [x9]
     840:	7100941f 	cmp	w0, #0x25
     844:	7a401804 	ccmp	w0, #0x0, #0x4, ne  // ne = any
     848:	540003c1 	b.ne	8c0 <__vsnprintf+0xd4>  // b.any
/home/hei/Desktop/optee-qemu/optee_os/lib/libutils/ext/snprintk.c:279
     84c:	34005be0 	cbz	w0, 13c8 <__vsnprintf+0xbdc>
/home/hei/Desktop/optee-qemu/optee_os/lib/libutils/ext/snprintk.c:287
     850:	12800003 	mov	w3, #0xffffffff            	// #-1
/home/hei/Desktop/optee-qemu/optee_os/lib/libutils/ext/snprintk.c:282
     854:	91000529 	add	x9, x9, #0x1
     858:	2a1403e1 	mov	w1, w20
     85c:	aa1303e0 	mov	x0, x19
/home/hei/Desktop/optee-qemu/optee_os/lib/libutils/ext/snprintk.c:324
     860:	2a0303e6 	mov	w6, w3
/home/hei/Desktop/optee-qemu/optee_os/lib/libutils/ext/snprintk.c:288
     864:	52800002 	mov	w2, #0x0                   	// #0
/home/hei/Desktop/optee-qemu/optee_os/lib/libutils/ext/snprintk.c:286
     868:	52800017 	mov	w23, #0x0                   	// #0
/home/hei/Desktop/optee-qemu/optee_os/lib/libutils/ext/snprintk.c:284
     86c:	52800015 	mov	w21, #0x0                   	// #0
/home/hei/Desktop/optee-qemu/optee_os/lib/libutils/ext/snprintk.c:299
     870:	52800407 	mov	w7, #0x20                  	// #32
/home/hei/Desktop/optee-qemu/optee_os/lib/libutils/ext/snprintk.c:290
     874:	38401538 	ldrb	w24, [x9], #1
/home/hei/Desktop/optee-qemu/optee_os/lib/libutils/ext/snprintk.c:291
     878:	71018f1f 	cmp	w24, #0x63
     87c:	540019e0 	b.eq	bb8 <__vsnprintf+0x3cc>  // b.none
     880:	540007ec 	b.gt	97c <__vsnprintf+0x190>
     884:	7100c31f 	cmp	w24, #0x30
     888:	540017c0 	b.eq	b80 <__vsnprintf+0x394>  // b.none
     88c:	5400038c 	b.gt	8fc <__vsnprintf+0x110>
     890:	7100ab1f 	cmp	w24, #0x2a
     894:	54001100 	b.eq	ab4 <__vsnprintf+0x2c8>  // b.none
     898:	5400022c 	b.gt	8dc <__vsnprintf+0xf0>
     89c:	7100831f 	cmp	w24, #0x20
     8a0:	54001000 	b.eq	aa0 <__vsnprintf+0x2b4>  // b.none
     8a4:	71008f1f 	cmp	w24, #0x23
     8a8:	54001020 	b.eq	aac <__vsnprintf+0x2c0>  // b.none
/home/hei/Desktop/optee-qemu/optee_os/lib/libutils/ext/snprintk.c:541
     8ac:	340058f8 	cbz	w24, 13c8 <__vsnprintf+0xbdc>
/home/hei/Desktop/optee-qemu/optee_os/lib/libutils/ext/snprintk.c:545
     8b0:	2a0103f4 	mov	w20, w1
     8b4:	aa0003f3 	mov	x19, x0
     8b8:	390363f8 	strb	w24, [sp, #216]
/home/hei/Desktop/optee-qemu/optee_os/lib/libutils/ext/snprintk.c:548
     8bc:	140000c5 	b	bd0 <__vsnprintf+0x3e4>
/home/hei/Desktop/optee-qemu/optee_os/lib/libutils/ext/snprintk.c:276
     8c0:	1100075a 	add	w26, w26, #0x1
/home/hei/Desktop/optee-qemu/optee_os/lib/libutils/ext/snprintk.c:277
     8c4:	b400009b 	cbz	x27, 8d4 <__vsnprintf+0xe8>
     8c8:	eb1b033f 	cmp	x25, x27
     8cc:	54000049 	b.ls	8d4 <__vsnprintf+0xe8>  // b.plast
     8d0:	38001760 	strb	w0, [x27], #1
/home/hei/Desktop/optee-qemu/optee_os/lib/libutils/ext/snprintk.c:275
     8d4:	91000529 	add	x9, x9, #0x1
     8d8:	17ffffd9 	b	83c <__vsnprintf+0x50>
/home/hei/Desktop/optee-qemu/optee_os/lib/libutils/ext/snprintk.c:291
     8dc:	7100b71f 	cmp	w24, #0x2d
     8e0:	54000f80 	b.eq	ad0 <__vsnprintf+0x2e4>  // b.none
     8e4:	7100bb1f 	cmp	w24, #0x2e
     8e8:	540010e0 	b.eq	b04 <__vsnprintf+0x318>  // b.none
     8ec:	7100af1f 	cmp	w24, #0x2b
     8f0:	54fffde1 	b.ne	8ac <__vsnprintf+0xc0>  // b.any
/home/hei/Desktop/optee-qemu/optee_os/lib/libutils/ext/snprintk.c:319
     8f4:	2a1803e2 	mov	w2, w24
     8f8:	17ffffdf 	b	874 <__vsnprintf+0x88>
/home/hei/Desktop/optee-qemu/optee_os/lib/libutils/ext/snprintk.c:291
     8fc:	7101131f 	cmp	w24, #0x44
     900:	54001840 	b.eq	c08 <__vsnprintf+0x41c>  // b.none
     904:	5400018c 	b.gt	934 <__vsnprintf+0x148>
     908:	7100e71f 	cmp	w24, #0x39
     90c:	54fffd0c 	b.gt	8ac <__vsnprintf+0xc0>
/home/hei/Desktop/optee-qemu/optee_os/lib/libutils/ext/snprintk.c:344
     910:	52800017 	mov	w23, #0x0                   	// #0
/home/hei/Desktop/optee-qemu/optee_os/lib/libutils/ext/snprintk.c:346
     914:	5100c308 	sub	w8, w24, #0x30
     918:	52800144 	mov	w4, #0xa                   	// #10
/home/hei/Desktop/optee-qemu/optee_os/lib/libutils/ext/snprintk.c:347
     91c:	38401538 	ldrb	w24, [x9], #1
/home/hei/Desktop/optee-qemu/optee_os/lib/libutils/ext/snprintk.c:346
     920:	1b0422f7 	madd	w23, w23, w4, w8
/home/hei/Desktop/optee-qemu/optee_os/lib/libutils/ext/snprintk.c:348
     924:	5100c304 	sub	w4, w24, #0x30
     928:	7100249f 	cmp	w4, #0x9
     92c:	54ffff49 	b.ls	914 <__vsnprintf+0x128>  // b.plast
     930:	17ffffd2 	b	878 <__vsnprintf+0x8c>
/home/hei/Desktop/optee-qemu/optee_os/lib/libutils/ext/snprintk.c:291
     934:	7101571f 	cmp	w24, #0x55
     938:	54003e20 	b.eq	10fc <__vsnprintf+0x910>  // b.none
     93c:	7101631f 	cmp	w24, #0x58
     940:	540043a0 	b.eq	11b4 <__vsnprintf+0x9c8>  // b.none
     944:	71013f1f 	cmp	w24, #0x4f
     948:	54fffb21 	b.ne	8ac <__vsnprintf+0xc0>  // b.any
/home/hei/Desktop/optee-qemu/optee_os/lib/libutils/ext/snprintk.c:408
     94c:	321c02b5 	orr	w21, w21, #0x10
/home/hei/Desktop/optee-qemu/optee_os/lib/libutils/ext/snprintk.c:411
     950:	36382675 	tbz	w21, #7, e1c <__vsnprintf+0x630>
     954:	37f827a1 	tbnz	w1, #31, e48 <__vsnprintf+0x65c>
     958:	91003c13 	add	x19, x0, #0xf
     95c:	2a0103f4 	mov	w20, w1
     960:	927df273 	and	x19, x19, #0xfffffffffffffff8
     964:	f9400000 	ldr	x0, [x0]
/home/hei/Desktop/optee-qemu/optee_os/lib/libutils/ext/snprintk.c:488
     968:	52800002 	mov	w2, #0x0                   	// #0
     96c:	3100047f 	cmn	w3, #0x1
     970:	540016e0 	b.eq	c4c <__vsnprintf+0x460>  // b.none
     974:	52800001 	mov	w1, #0x0                   	// #0
     978:	1400024e 	b	12b0 <__vsnprintf+0xac4>
/home/hei/Desktop/optee-qemu/optee_os/lib/libutils/ext/snprintk.c:291
     97c:	7101bf1f 	cmp	w24, #0x6f
     980:	54fffe80 	b.eq	950 <__vsnprintf+0x164>  // b.none
     984:	5400024c 	b.gt	9cc <__vsnprintf+0x1e0>
     988:	7101a71f 	cmp	w24, #0x69
     98c:	54001400 	b.eq	c0c <__vsnprintf+0x420>  // b.none
     990:	540000ec 	b.gt	9ac <__vsnprintf+0x1c0>
     994:	7101931f 	cmp	w24, #0x64
     998:	540013a0 	b.eq	c0c <__vsnprintf+0x420>  // b.none
     99c:	7101a31f 	cmp	w24, #0x68
     9a0:	54fff861 	b.ne	8ac <__vsnprintf+0xc0>  // b.any
/home/hei/Desktop/optee-qemu/optee_os/lib/libutils/ext/snprintk.c:352
     9a4:	321a02b5 	orr	w21, w21, #0x40
/home/hei/Desktop/optee-qemu/optee_os/lib/libutils/ext/snprintk.c:353
     9a8:	17ffffb3 	b	874 <__vsnprintf+0x88>
/home/hei/Desktop/optee-qemu/optee_os/lib/libutils/ext/snprintk.c:291
     9ac:	7101b31f 	cmp	w24, #0x6c
     9b0:	54000ec0 	b.eq	b88 <__vsnprintf+0x39c>  // b.none
     9b4:	7101bb1f 	cmp	w24, #0x6e
     9b8:	54001c40 	b.eq	d40 <__vsnprintf+0x554>  // b.none
     9bc:	7101ab1f 	cmp	w24, #0x6a
     9c0:	54fff761 	b.ne	8ac <__vsnprintf+0xc0>  // b.any
/home/hei/Desktop/optee-qemu/optee_os/lib/libutils/ext/snprintk.c:355
     9c4:	321902b5 	orr	w21, w21, #0x80
/home/hei/Desktop/optee-qemu/optee_os/lib/libutils/ext/snprintk.c:356
     9c8:	17ffffab 	b	874 <__vsnprintf+0x88>
/home/hei/Desktop/optee-qemu/optee_os/lib/libutils/ext/snprintk.c:291
     9cc:	7101d31f 	cmp	w24, #0x74
     9d0:	54000ec0 	b.eq	ba8 <__vsnprintf+0x3bc>  // b.none
     9d4:	5400042c 	b.gt	a58 <__vsnprintf+0x26c>
     9d8:	7101c71f 	cmp	w24, #0x71
     9dc:	54000de0 	b.eq	b98 <__vsnprintf+0x3ac>  // b.none
     9e0:	5400276b 	b.lt	ecc <__vsnprintf+0x6e0>  // b.tstop
     9e4:	7101cf1f 	cmp	w24, #0x73
     9e8:	54fff621 	b.ne	8ac <__vsnprintf+0xc0>  // b.any
/home/hei/Desktop/optee-qemu/optee_os/lib/libutils/ext/snprintk.c:442
     9ec:	37f83621 	tbnz	w1, #31, 10b0 <__vsnprintf+0x8c4>
     9f0:	91003c13 	add	x19, x0, #0xf
     9f4:	2a0103f4 	mov	w20, w1
     9f8:	927df273 	and	x19, x19, #0xfffffffffffffff8
     9fc:	f9400004 	ldr	x4, [x0]
     a00:	b5000064 	cbnz	x4, a0c <__vsnprintf+0x220>
/home/hei/Desktop/optee-qemu/optee_os/lib/libutils/ext/snprintk.c:444
     a04:	d0000044 	adrp	x4, a000 <__text_end+0x1540>
     a08:	912e6884 	add	x4, x4, #0xb9a
/home/hei/Desktop/optee-qemu/optee_os/lib/libutils/ext/snprintk.c:445
     a0c:	3100047f 	cmn	w3, #0x1
     a10:	54003620 	b.eq	10d4 <__vsnprintf+0x8e8>  // b.none
/home/hei/Desktop/optee-qemu/optee_os/lib/libutils/ext/snprintk.c:451
     a14:	93407c62 	sxtw	x2, w3
     a18:	aa0403e0 	mov	x0, x4
     a1c:	52800001 	mov	w1, #0x0                   	// #0
     a20:	f9005be4 	str	x4, [sp, #176]
     a24:	b900bbe3 	str	w3, [sp, #184]
     a28:	a90c37e9 	stp	x9, x13, [sp, #192]
     a2c:	940002af 	bl	14e8 <memchr>
/home/hei/Desktop/optee-qemu/optee_os/lib/libutils/ext/snprintk.c:453
     a30:	b940bbe3 	ldr	w3, [sp, #184]
     a34:	f9405be4 	ldr	x4, [sp, #176]
     a38:	a94c37e9 	ldp	x9, x13, [sp, #192]
     a3c:	b4000080 	cbz	x0, a4c <__vsnprintf+0x260>
/home/hei/Desktop/optee-qemu/optee_os/lib/libutils/ext/snprintk.c:454
     a40:	cb040000 	sub	x0, x0, x4
     a44:	6b00007f 	cmp	w3, w0
     a48:	1a80d063 	csel	w3, w3, w0, le
/home/hei/Desktop/optee-qemu/optee_os/lib/libutils/ext/snprintk.c:285
     a4c:	52800001 	mov	w1, #0x0                   	// #0
/home/hei/Desktop/optee-qemu/optee_os/lib/libutils/ext/snprintk.c:461
     a50:	52800002 	mov	w2, #0x0                   	// #0
     a54:	14000148 	b	f74 <__vsnprintf+0x788>
/home/hei/Desktop/optee-qemu/optee_os/lib/libutils/ext/snprintk.c:291
     a58:	7101e31f 	cmp	w24, #0x78
     a5c:	54003ca0 	b.eq	11f0 <__vsnprintf+0xa04>  // b.none
     a60:	7101eb1f 	cmp	w24, #0x7a
     a64:	54000a60 	b.eq	bb0 <__vsnprintf+0x3c4>  // b.none
     a68:	7101d71f 	cmp	w24, #0x75
     a6c:	54fff201 	b.ne	8ac <__vsnprintf+0xc0>  // b.any
/home/hei/Desktop/optee-qemu/optee_os/lib/libutils/ext/snprintk.c:467
     a70:	363834b5 	tbz	w21, #7, 1104 <__vsnprintf+0x918>
     a74:	37f835e1 	tbnz	w1, #31, 1130 <__vsnprintf+0x944>
     a78:	91003c13 	add	x19, x0, #0xf
     a7c:	2a0103f4 	mov	w20, w1
     a80:	927df273 	and	x19, x19, #0xfffffffffffffff8
     a84:	f9400000 	ldr	x0, [x0]
/home/hei/Desktop/optee-qemu/optee_os/lib/libutils/ext/snprintk.c:482
     a88:	52800002 	mov	w2, #0x0                   	// #0
/home/hei/Desktop/optee-qemu/optee_os/lib/libutils/ext/snprintk.c:488
     a8c:	3100047f 	cmn	w3, #0x1
     a90:	540041e1 	b.ne	12cc <__vsnprintf+0xae0>  // b.any
/home/hei/Desktop/optee-qemu/optee_os/lib/libutils/ext/snprintk.c:508
     a94:	910095a1 	add	x1, x13, #0x25
/home/hei/Desktop/optee-qemu/optee_os/lib/libutils/ext/snprintk.c:517
     a98:	d2800145 	mov	x5, #0xa                   	// #10
     a9c:	14000216 	b	12f4 <__vsnprintf+0xb08>
/home/hei/Desktop/optee-qemu/optee_os/lib/libutils/ext/snprintk.c:299
     aa0:	7100005f 	cmp	w2, #0x0
     aa4:	1a871042 	csel	w2, w2, w7, ne  // ne = any
     aa8:	17ffff73 	b	874 <__vsnprintf+0x88>
/home/hei/Desktop/optee-qemu/optee_os/lib/libutils/ext/snprintk.c:302
     aac:	320002b5 	orr	w21, w21, #0x1
/home/hei/Desktop/optee-qemu/optee_os/lib/libutils/ext/snprintk.c:303
     ab0:	17ffff71 	b	874 <__vsnprintf+0x88>
/home/hei/Desktop/optee-qemu/optee_os/lib/libutils/ext/snprintk.c:311
     ab4:	37f80121 	tbnz	w1, #31, ad8 <__vsnprintf+0x2ec>
     ab8:	91002c05 	add	x5, x0, #0xb
     abc:	aa0003e4 	mov	x4, x0
     ac0:	927df0a0 	and	x0, x5, #0xfffffffffffffff8
     ac4:	b9400097 	ldr	w23, [x4]
     ac8:	36ffed77 	tbz	w23, #31, 874 <__vsnprintf+0x88>
/home/hei/Desktop/optee-qemu/optee_os/lib/libutils/ext/snprintk.c:313
     acc:	4b1703f7 	neg	w23, w23
/home/hei/Desktop/optee-qemu/optee_os/lib/libutils/ext/snprintk.c:316
     ad0:	321e02b5 	orr	w21, w21, #0x4
/home/hei/Desktop/optee-qemu/optee_os/lib/libutils/ext/snprintk.c:317
     ad4:	17ffff68 	b	874 <__vsnprintf+0x88>
/home/hei/Desktop/optee-qemu/optee_os/lib/libutils/ext/snprintk.c:311
     ad8:	11002025 	add	w5, w1, #0x8
     adc:	710000bf 	cmp	w5, #0x0
     ae0:	540000cd 	b.le	af8 <__vsnprintf+0x30c>
     ae4:	91002c08 	add	x8, x0, #0xb
     ae8:	aa0003e4 	mov	x4, x0
     aec:	2a0503e1 	mov	w1, w5
     af0:	927df100 	and	x0, x8, #0xfffffffffffffff8
     af4:	17fffff4 	b	ac4 <__vsnprintf+0x2d8>
     af8:	8b21c384 	add	x4, x28, w1, sxtw
     afc:	2a0503e1 	mov	w1, w5
     b00:	17fffff1 	b	ac4 <__vsnprintf+0x2d8>
/home/hei/Desktop/optee-qemu/optee_os/lib/libutils/ext/snprintk.c:322
     b04:	38401538 	ldrb	w24, [x9], #1
     b08:	7100ab1f 	cmp	w24, #0x2a
     b0c:	54000361 	b.ne	b78 <__vsnprintf+0x38c>  // b.any
/home/hei/Desktop/optee-qemu/optee_os/lib/libutils/ext/snprintk.c:323
     b10:	37f80141 	tbnz	w1, #31, b38 <__vsnprintf+0x34c>
     b14:	91002c04 	add	x4, x0, #0xb
     b18:	2a0103e5 	mov	w5, w1
     b1c:	927df084 	and	x4, x4, #0xfffffffffffffff8
/home/hei/Desktop/optee-qemu/optee_os/lib/libutils/ext/snprintk.c:324
     b20:	b9400003 	ldr	w3, [x0]
     b24:	2a0503e1 	mov	w1, w5
     b28:	aa0403e0 	mov	x0, x4
     b2c:	7100007f 	cmp	w3, #0x0
     b30:	1a86a063 	csel	w3, w3, w6, ge  // ge = tcont
/home/hei/Desktop/optee-qemu/optee_os/lib/libutils/ext/snprintk.c:325
     b34:	17ffff50 	b	874 <__vsnprintf+0x88>
/home/hei/Desktop/optee-qemu/optee_os/lib/libutils/ext/snprintk.c:323
     b38:	11002025 	add	w5, w1, #0x8
     b3c:	710000bf 	cmp	w5, #0x0
     b40:	5400008d 	b.le	b50 <__vsnprintf+0x364>
     b44:	91002c04 	add	x4, x0, #0xb
     b48:	927df084 	and	x4, x4, #0xfffffffffffffff8
     b4c:	17fffff5 	b	b20 <__vsnprintf+0x334>
     b50:	aa0003e4 	mov	x4, x0
     b54:	8b21c380 	add	x0, x28, w1, sxtw
     b58:	17fffff2 	b	b20 <__vsnprintf+0x334>
/home/hei/Desktop/optee-qemu/optee_os/lib/libutils/ext/snprintk.c:329
     b5c:	52800145 	mov	w5, #0xa                   	// #10
/home/hei/Desktop/optee-qemu/optee_os/lib/libutils/ext/snprintk.c:330
     b60:	38401538 	ldrb	w24, [x9], #1
/home/hei/Desktop/optee-qemu/optee_os/lib/libutils/ext/snprintk.c:329
     b64:	1b051063 	madd	w3, w3, w5, w4
/home/hei/Desktop/optee-qemu/optee_os/lib/libutils/ext/snprintk.c:328
     b68:	5100c304 	sub	w4, w24, #0x30
     b6c:	7100249f 	cmp	w4, #0x9
     b70:	54ffff69 	b.ls	b5c <__vsnprintf+0x370>  // b.plast
     b74:	17ffff41 	b	878 <__vsnprintf+0x8c>
/home/hei/Desktop/optee-qemu/optee_os/lib/libutils/ext/snprintk.c:327
     b78:	52800003 	mov	w3, #0x0                   	// #0
     b7c:	17fffffb 	b	b68 <__vsnprintf+0x37c>
/home/hei/Desktop/optee-qemu/optee_os/lib/libutils/ext/snprintk.c:340
     b80:	321602b5 	orr	w21, w21, #0x400
/home/hei/Desktop/optee-qemu/optee_os/lib/libutils/ext/snprintk.c:341
     b84:	17ffff3c 	b	874 <__vsnprintf+0x88>
/home/hei/Desktop/optee-qemu/optee_os/lib/libutils/ext/snprintk.c:358
     b88:	39400124 	ldrb	w4, [x9]
     b8c:	7101b09f 	cmp	w4, #0x6c
     b90:	54000081 	b.ne	ba0 <__vsnprintf+0x3b4>  // b.any
     b94:	91000529 	add	x9, x9, #0x1
/home/hei/Desktop/optee-qemu/optee_os/lib/libutils/ext/snprintk.c:366
     b98:	321b02b5 	orr	w21, w21, #0x20
/home/hei/Desktop/optee-qemu/optee_os/lib/libutils/ext/snprintk.c:367
     b9c:	17ffff36 	b	874 <__vsnprintf+0x88>
/home/hei/Desktop/optee-qemu/optee_os/lib/libutils/ext/snprintk.c:362
     ba0:	321c02b5 	orr	w21, w21, #0x10
     ba4:	17ffff34 	b	874 <__vsnprintf+0x88>
/home/hei/Desktop/optee-qemu/optee_os/lib/libutils/ext/snprintk.c:369
     ba8:	321802b5 	orr	w21, w21, #0x100
/home/hei/Desktop/optee-qemu/optee_os/lib/libutils/ext/snprintk.c:370
     bac:	17ffff32 	b	874 <__vsnprintf+0x88>
/home/hei/Desktop/optee-qemu/optee_os/lib/libutils/ext/snprintk.c:372
     bb0:	321702b5 	orr	w21, w21, #0x200
/home/hei/Desktop/optee-qemu/optee_os/lib/libutils/ext/snprintk.c:373
     bb4:	17ffff30 	b	874 <__vsnprintf+0x88>
/home/hei/Desktop/optee-qemu/optee_os/lib/libutils/ext/snprintk.c:375
     bb8:	37f80161 	tbnz	w1, #31, be4 <__vsnprintf+0x3f8>
     bbc:	91002c13 	add	x19, x0, #0xb
     bc0:	2a0103f4 	mov	w20, w1
     bc4:	927df273 	and	x19, x19, #0xfffffffffffffff8
     bc8:	b9400000 	ldr	w0, [x0]
     bcc:	390363e0 	strb	w0, [sp, #216]
/home/hei/Desktop/optee-qemu/optee_os/lib/libutils/ext/snprintk.c:546
     bd0:	52800023 	mov	w3, #0x1                   	// #1
/home/hei/Desktop/optee-qemu/optee_os/lib/libutils/ext/snprintk.c:285
     bd4:	52800001 	mov	w1, #0x0                   	// #0
/home/hei/Desktop/optee-qemu/optee_os/lib/libutils/ext/snprintk.c:547
     bd8:	52800002 	mov	w2, #0x0                   	// #0
/home/hei/Desktop/optee-qemu/optee_os/lib/libutils/ext/snprintk.c:544
     bdc:	910363e4 	add	x4, sp, #0xd8
     be0:	140000e5 	b	f74 <__vsnprintf+0x788>
/home/hei/Desktop/optee-qemu/optee_os/lib/libutils/ext/snprintk.c:375
     be4:	11002034 	add	w20, w1, #0x8
     be8:	7100029f 	cmp	w20, #0x0
     bec:	5400008d 	b.le	bfc <__vsnprintf+0x410>
     bf0:	91002c13 	add	x19, x0, #0xb
     bf4:	927df273 	and	x19, x19, #0xfffffffffffffff8
     bf8:	17fffff4 	b	bc8 <__vsnprintf+0x3dc>
     bfc:	aa0003f3 	mov	x19, x0
     c00:	8b21c380 	add	x0, x28, w1, sxtw
     c04:	17fffff1 	b	bc8 <__vsnprintf+0x3dc>
/home/hei/Desktop/optee-qemu/optee_os/lib/libutils/ext/snprintk.c:380
     c08:	321c02b5 	orr	w21, w21, #0x10
/home/hei/Desktop/optee-qemu/optee_os/lib/libutils/ext/snprintk.c:384
     c0c:	36380435 	tbz	w21, #7, c90 <__vsnprintf+0x4a4>
     c10:	37f80561 	tbnz	w1, #31, cbc <__vsnprintf+0x4d0>
     c14:	91003c13 	add	x19, x0, #0xf
     c18:	2a0103f4 	mov	w20, w1
     c1c:	927df273 	and	x19, x19, #0xfffffffffffffff8
     c20:	f9400000 	ldr	x0, [x0]
/home/hei/Desktop/optee-qemu/optee_os/lib/libutils/ext/snprintk.c:385
     c24:	b6fff340 	tbz	x0, #63, a8c <__vsnprintf+0x2a0>
/home/hei/Desktop/optee-qemu/optee_os/lib/libutils/ext/snprintk.c:386
     c28:	cb0003e0 	neg	x0, x0
/home/hei/Desktop/optee-qemu/optee_os/lib/libutils/ext/snprintk.c:389
     c2c:	52800021 	mov	w1, #0x1                   	// #1
/home/hei/Desktop/optee-qemu/optee_os/lib/libutils/ext/snprintk.c:387
     c30:	528005a2 	mov	w2, #0x2d                  	// #45
/home/hei/Desktop/optee-qemu/optee_os/lib/libutils/ext/snprintk.c:488
     c34:	3100047f 	cmn	w3, #0x1
     c38:	540033c1 	b.ne	12b0 <__vsnprintf+0xac4>  // b.any
/home/hei/Desktop/optee-qemu/optee_os/lib/libutils/ext/snprintk.c:503
     c3c:	7100043f 	cmp	w1, #0x1
     c40:	54fff2a0 	b.eq	a94 <__vsnprintf+0x2a8>  // b.none
     c44:	7100083f 	cmp	w1, #0x2
     c48:	54002140 	b.eq	1070 <__vsnprintf+0x884>  // b.none
/home/hei/Desktop/optee-qemu/optee_os/lib/libutils/ext/snprintk.c:488
     c4c:	910095a1 	add	x1, x13, #0x25
/home/hei/Desktop/optee-qemu/optee_os/lib/libutils/ext/snprintk.c:506
     c50:	12000805 	and	w5, w0, #0x7
     c54:	d1000424 	sub	x4, x1, #0x1
     c58:	1100c0a5 	add	w5, w5, #0x30
     c5c:	381ff025 	sturb	w5, [x1, #-1]
/home/hei/Desktop/optee-qemu/optee_os/lib/libutils/ext/snprintk.c:507
     c60:	d343fc00 	lsr	x0, x0, #3
/home/hei/Desktop/optee-qemu/optee_os/lib/libutils/ext/snprintk.c:508
     c64:	b5003380 	cbnz	x0, 12d4 <__vsnprintf+0xae8>
/home/hei/Desktop/optee-qemu/optee_os/lib/libutils/ext/snprintk.c:510
     c68:	360000d5 	tbz	w21, #0, c80 <__vsnprintf+0x494>
     c6c:	7100c0bf 	cmp	w5, #0x30
     c70:	54000080 	b.eq	c80 <__vsnprintf+0x494>  // b.none
/home/hei/Desktop/optee-qemu/optee_os/lib/libutils/ext/snprintk.c:511
     c74:	52800600 	mov	w0, #0x30                  	// #48
     c78:	381ff080 	sturb	w0, [x4, #-1]
     c7c:	d1000824 	sub	x4, x1, #0x2
/home/hei/Desktop/optee-qemu/optee_os/lib/libutils/ext/snprintk.c:537
     c80:	910095a0 	add	x0, x13, #0x25
     c84:	2a0303e1 	mov	w1, w3
     c88:	4b040003 	sub	w3, w0, w4
     c8c:	140000ba 	b	f74 <__vsnprintf+0x788>
/home/hei/Desktop/optee-qemu/optee_os/lib/libutils/ext/snprintk.c:384
     c90:	3747fc15 	tbnz	w21, #8, c10 <__vsnprintf+0x424>
     c94:	374ffbf5 	tbnz	w21, #9, c10 <__vsnprintf+0x424>
     c98:	372ffbd5 	tbnz	w21, #5, c10 <__vsnprintf+0x424>
     c9c:	3727fbb5 	tbnz	w21, #4, c10 <__vsnprintf+0x424>
     ca0:	36300335 	tbz	w21, #6, d04 <__vsnprintf+0x518>
     ca4:	37f801e1 	tbnz	w1, #31, ce0 <__vsnprintf+0x4f4>
     ca8:	91002c13 	add	x19, x0, #0xb
     cac:	2a0103f4 	mov	w20, w1
     cb0:	927df273 	and	x19, x19, #0xfffffffffffffff8
     cb4:	79800000 	ldrsh	x0, [x0]
     cb8:	17ffffdb 	b	c24 <__vsnprintf+0x438>
     cbc:	11002034 	add	w20, w1, #0x8
     cc0:	7100029f 	cmp	w20, #0x0
     cc4:	5400008d 	b.le	cd4 <__vsnprintf+0x4e8>
     cc8:	91003c13 	add	x19, x0, #0xf
     ccc:	927df273 	and	x19, x19, #0xfffffffffffffff8
     cd0:	17ffffd4 	b	c20 <__vsnprintf+0x434>
     cd4:	aa0003f3 	mov	x19, x0
     cd8:	8b21c380 	add	x0, x28, w1, sxtw
     cdc:	17ffffd1 	b	c20 <__vsnprintf+0x434>
     ce0:	11002034 	add	w20, w1, #0x8
     ce4:	7100029f 	cmp	w20, #0x0
     ce8:	5400008d 	b.le	cf8 <__vsnprintf+0x50c>
     cec:	91002c13 	add	x19, x0, #0xb
     cf0:	927df273 	and	x19, x19, #0xfffffffffffffff8
     cf4:	17fffff0 	b	cb4 <__vsnprintf+0x4c8>
     cf8:	aa0003f3 	mov	x19, x0
     cfc:	8b21c380 	add	x0, x28, w1, sxtw
     d00:	17ffffed 	b	cb4 <__vsnprintf+0x4c8>
     d04:	37f800c1 	tbnz	w1, #31, d1c <__vsnprintf+0x530>
     d08:	91002c13 	add	x19, x0, #0xb
     d0c:	2a0103f4 	mov	w20, w1
     d10:	927df273 	and	x19, x19, #0xfffffffffffffff8
     d14:	b9800000 	ldrsw	x0, [x0]
     d18:	17ffffc3 	b	c24 <__vsnprintf+0x438>
     d1c:	11002034 	add	w20, w1, #0x8
     d20:	7100029f 	cmp	w20, #0x0
     d24:	5400008d 	b.le	d34 <__vsnprintf+0x548>
     d28:	91002c13 	add	x19, x0, #0xb
     d2c:	927df273 	and	x19, x19, #0xfffffffffffffff8
     d30:	17fffff9 	b	d14 <__vsnprintf+0x528>
     d34:	aa0003f3 	mov	x19, x0
     d38:	8b21c380 	add	x0, x28, w1, sxtw
     d3c:	17fffff6 	b	d14 <__vsnprintf+0x528>
/home/hei/Desktop/optee-qemu/optee_os/lib/libutils/ext/snprintk.c:392
     d40:	36380135 	tbz	w21, #7, d64 <__vsnprintf+0x578>
/home/hei/Desktop/optee-qemu/optee_os/lib/libutils/ext/snprintk.c:401
     d44:	37f80281 	tbnz	w1, #31, d94 <__vsnprintf+0x5a8>
     d48:	91003c13 	add	x19, x0, #0xf
     d4c:	2a0103f4 	mov	w20, w1
     d50:	927df273 	and	x19, x19, #0xfffffffffffffff8
     d54:	f9400000 	ldr	x0, [x0]
     d58:	93407f41 	sxtw	x1, w26
     d5c:	f9000001 	str	x1, [x0]
     d60:	17fffeb7 	b	83c <__vsnprintf+0x50>
/home/hei/Desktop/optee-qemu/optee_os/lib/libutils/ext/snprintk.c:394
     d64:	3747ff15 	tbnz	w21, #8, d44 <__vsnprintf+0x558>
/home/hei/Desktop/optee-qemu/optee_os/lib/libutils/ext/snprintk.c:396
     d68:	374ffef5 	tbnz	w21, #9, d44 <__vsnprintf+0x558>
/home/hei/Desktop/optee-qemu/optee_os/lib/libutils/ext/snprintk.c:398
     d6c:	372ffed5 	tbnz	w21, #5, d44 <__vsnprintf+0x558>
/home/hei/Desktop/optee-qemu/optee_os/lib/libutils/ext/snprintk.c:400
     d70:	3727feb5 	tbnz	w21, #4, d44 <__vsnprintf+0x558>
/home/hei/Desktop/optee-qemu/optee_os/lib/libutils/ext/snprintk.c:402
     d74:	36300355 	tbz	w21, #6, ddc <__vsnprintf+0x5f0>
/home/hei/Desktop/optee-qemu/optee_os/lib/libutils/ext/snprintk.c:403
     d78:	37f80201 	tbnz	w1, #31, db8 <__vsnprintf+0x5cc>
     d7c:	91003c13 	add	x19, x0, #0xf
     d80:	2a0103f4 	mov	w20, w1
     d84:	927df273 	and	x19, x19, #0xfffffffffffffff8
     d88:	f9400000 	ldr	x0, [x0]
     d8c:	7900001a 	strh	w26, [x0]
     d90:	17fffeab 	b	83c <__vsnprintf+0x50>
/home/hei/Desktop/optee-qemu/optee_os/lib/libutils/ext/snprintk.c:401
     d94:	11002034 	add	w20, w1, #0x8
     d98:	7100029f 	cmp	w20, #0x0
     d9c:	5400008d 	b.le	dac <__vsnprintf+0x5c0>
     da0:	91003c13 	add	x19, x0, #0xf
     da4:	927df273 	and	x19, x19, #0xfffffffffffffff8
     da8:	17ffffeb 	b	d54 <__vsnprintf+0x568>
     dac:	aa0003f3 	mov	x19, x0
     db0:	8b21c380 	add	x0, x28, w1, sxtw
     db4:	17ffffe8 	b	d54 <__vsnprintf+0x568>
/home/hei/Desktop/optee-qemu/optee_os/lib/libutils/ext/snprintk.c:403
     db8:	11002034 	add	w20, w1, #0x8
     dbc:	7100029f 	cmp	w20, #0x0
     dc0:	5400008d 	b.le	dd0 <__vsnprintf+0x5e4>
     dc4:	91003c13 	add	x19, x0, #0xf
     dc8:	927df273 	and	x19, x19, #0xfffffffffffffff8
     dcc:	17ffffef 	b	d88 <__vsnprintf+0x59c>
     dd0:	aa0003f3 	mov	x19, x0
     dd4:	8b21c380 	add	x0, x28, w1, sxtw
     dd8:	17ffffec 	b	d88 <__vsnprintf+0x59c>
/home/hei/Desktop/optee-qemu/optee_os/lib/libutils/ext/snprintk.c:405
     ddc:	37f800e1 	tbnz	w1, #31, df8 <__vsnprintf+0x60c>
     de0:	91003c13 	add	x19, x0, #0xf
     de4:	2a0103f4 	mov	w20, w1
     de8:	927df273 	and	x19, x19, #0xfffffffffffffff8
     dec:	f9400000 	ldr	x0, [x0]
     df0:	b900001a 	str	w26, [x0]
     df4:	17fffe92 	b	83c <__vsnprintf+0x50>
     df8:	11002034 	add	w20, w1, #0x8
     dfc:	7100029f 	cmp	w20, #0x0
     e00:	5400008d 	b.le	e10 <__vsnprintf+0x624>
     e04:	91003c13 	add	x19, x0, #0xf
     e08:	927df273 	and	x19, x19, #0xfffffffffffffff8
     e0c:	17fffff8 	b	dec <__vsnprintf+0x600>
     e10:	aa0003f3 	mov	x19, x0
     e14:	8b21c380 	add	x0, x28, w1, sxtw
     e18:	17fffff5 	b	dec <__vsnprintf+0x600>
/home/hei/Desktop/optee-qemu/optee_os/lib/libutils/ext/snprintk.c:411
     e1c:	3747d9d5 	tbnz	w21, #8, 954 <__vsnprintf+0x168>
     e20:	374fd9b5 	tbnz	w21, #9, 954 <__vsnprintf+0x168>
     e24:	372fd995 	tbnz	w21, #5, 954 <__vsnprintf+0x168>
     e28:	3727d975 	tbnz	w21, #4, 954 <__vsnprintf+0x168>
     e2c:	36300335 	tbz	w21, #6, e90 <__vsnprintf+0x6a4>
     e30:	37f801e1 	tbnz	w1, #31, e6c <__vsnprintf+0x680>
     e34:	91002c13 	add	x19, x0, #0xb
     e38:	2a0103f4 	mov	w20, w1
     e3c:	927df273 	and	x19, x19, #0xfffffffffffffff8
     e40:	79400000 	ldrh	w0, [x0]
     e44:	17fffec9 	b	968 <__vsnprintf+0x17c>
     e48:	11002034 	add	w20, w1, #0x8
     e4c:	7100029f 	cmp	w20, #0x0
     e50:	5400008d 	b.le	e60 <__vsnprintf+0x674>
     e54:	91003c13 	add	x19, x0, #0xf
     e58:	927df273 	and	x19, x19, #0xfffffffffffffff8
     e5c:	17fffec2 	b	964 <__vsnprintf+0x178>
     e60:	aa0003f3 	mov	x19, x0
     e64:	8b21c380 	add	x0, x28, w1, sxtw
     e68:	17fffebf 	b	964 <__vsnprintf+0x178>
     e6c:	11002034 	add	w20, w1, #0x8
     e70:	7100029f 	cmp	w20, #0x0
     e74:	5400008d 	b.le	e84 <__vsnprintf+0x698>
     e78:	91002c13 	add	x19, x0, #0xb
     e7c:	927df273 	and	x19, x19, #0xfffffffffffffff8
     e80:	17fffff0 	b	e40 <__vsnprintf+0x654>
     e84:	aa0003f3 	mov	x19, x0
     e88:	8b21c380 	add	x0, x28, w1, sxtw
     e8c:	17ffffed 	b	e40 <__vsnprintf+0x654>
     e90:	37f800c1 	tbnz	w1, #31, ea8 <__vsnprintf+0x6bc>
     e94:	91002c13 	add	x19, x0, #0xb
     e98:	2a0103f4 	mov	w20, w1
     e9c:	927df273 	and	x19, x19, #0xfffffffffffffff8
     ea0:	b9400000 	ldr	w0, [x0]
     ea4:	17fffeb1 	b	968 <__vsnprintf+0x17c>
     ea8:	11002034 	add	w20, w1, #0x8
     eac:	7100029f 	cmp	w20, #0x0
     eb0:	5400008d 	b.le	ec0 <__vsnprintf+0x6d4>
     eb4:	91002c13 	add	x19, x0, #0xb
     eb8:	927df273 	and	x19, x19, #0xfffffffffffffff8
     ebc:	17fffff9 	b	ea0 <__vsnprintf+0x6b4>
     ec0:	aa0003f3 	mov	x19, x0
     ec4:	8b21c380 	add	x0, x28, w1, sxtw
     ec8:	17fffff6 	b	ea0 <__vsnprintf+0x6b4>
/home/hei/Desktop/optee-qemu/optee_os/lib/libutils/ext/snprintk.c:415
     ecc:	b940afe2 	ldr	w2, [sp, #172]
     ed0:	34000b82 	cbz	w2, 1040 <__vsnprintf+0x854>
     ed4:	39400122 	ldrb	w2, [x9]
     ed8:	7101545f 	cmp	w2, #0x55
     edc:	54000b21 	b.ne	1040 <__vsnprintf+0x854>  // b.any
     ee0:	39400522 	ldrb	w2, [x9, #1]
     ee4:	7101b05f 	cmp	w2, #0x6c
     ee8:	54000ac1 	b.ne	1040 <__vsnprintf+0x854>  // b.any
/home/hei/Desktop/optee-qemu/optee_os/lib/libutils/ext/snprintk.c:420
     eec:	91000929 	add	x9, x9, #0x2
/home/hei/Desktop/optee-qemu/optee_os/lib/libutils/ext/snprintk.c:421
     ef0:	37f80961 	tbnz	w1, #31, 101c <__vsnprintf+0x830>
     ef4:	91003c13 	add	x19, x0, #0xf
     ef8:	2a0103f4 	mov	w20, w1
     efc:	927df273 	and	x19, x19, #0xfffffffffffffff8
     f00:	f9400000 	ldr	x0, [x0]
uuid2str():
/home/hei/Desktop/optee-qemu/optee_os/lib/libutils/ext/snprintk.c:223
     f04:	d0000042 	adrp	x2, a000 <__text_end+0x1540>
     f08:	912e8442 	add	x2, x2, #0xba1
     f0c:	a90b27ed 	stp	x13, x9, [sp, #176]
     f10:	39403c01 	ldrb	w1, [x0, #15]
     f14:	79400804 	ldrh	w4, [x0, #4]
     f18:	39402407 	ldrb	w7, [x0, #9]
     f1c:	39402006 	ldrb	w6, [x0, #8]
     f20:	79400c05 	ldrh	w5, [x0, #6]
     f24:	b9002be1 	str	w1, [sp, #40]
     f28:	39403801 	ldrb	w1, [x0, #14]
     f2c:	b90023e1 	str	w1, [sp, #32]
     f30:	39403401 	ldrb	w1, [x0, #13]
     f34:	b9001be1 	str	w1, [sp, #24]
     f38:	39403001 	ldrb	w1, [x0, #12]
     f3c:	b90013e1 	str	w1, [sp, #16]
     f40:	39402c01 	ldrb	w1, [x0, #11]
     f44:	b9000be1 	str	w1, [sp, #8]
     f48:	39402801 	ldrb	w1, [x0, #10]
     f4c:	b90003e1 	str	w1, [sp]
     f50:	d28004a1 	mov	x1, #0x25                  	// #37
     f54:	b9400003 	ldr	w3, [x0]
     f58:	aa0d03e0 	mov	x0, x13
     f5c:	94000146 	bl	1474 <snprintk>
     f60:	2a0003e3 	mov	w3, w0
kprintf():
/home/hei/Desktop/optee-qemu/optee_os/lib/libutils/ext/snprintk.c:425
     f64:	a94b27ed 	ldp	x13, x9, [sp, #176]
/home/hei/Desktop/optee-qemu/optee_os/lib/libutils/ext/snprintk.c:285
     f68:	52800001 	mov	w1, #0x0                   	// #0
/home/hei/Desktop/optee-qemu/optee_os/lib/libutils/ext/snprintk.c:424
     f6c:	52800002 	mov	w2, #0x0                   	// #0
/home/hei/Desktop/optee-qemu/optee_os/lib/libutils/ext/snprintk.c:423
     f70:	aa0d03e4 	mov	x4, x13
/home/hei/Desktop/optee-qemu/optee_os/lib/libutils/ext/snprintk.c:565
     f74:	6b03003f 	cmp	w1, w3
     f78:	1a83a020 	csel	w0, w1, w3, ge  // ge = tcont
/home/hei/Desktop/optee-qemu/optee_os/lib/libutils/ext/snprintk.c:566
     f7c:	34001c82 	cbz	w2, 130c <__vsnprintf+0xb20>
/home/hei/Desktop/optee-qemu/optee_os/lib/libutils/ext/snprintk.c:567
     f80:	11000400 	add	w0, w0, #0x1
/home/hei/Desktop/optee-qemu/optee_os/lib/libutils/ext/snprintk.c:572
     f84:	6b17001f 	cmp	w0, w23
     f88:	1a97a005 	csel	w5, w0, w23, ge  // ge = tcont
     f8c:	0b05035a 	add	w26, w26, w5
/home/hei/Desktop/optee-qemu/optee_os/lib/libutils/ext/snprintk.c:575
     f90:	52808085 	mov	w5, #0x404                 	// #1028
     f94:	6a0502a5 	ands	w5, w21, w5
     f98:	540000a1 	b.ne	fac <__vsnprintf+0x7c0>  // b.any
/home/hei/Desktop/optee-qemu/optee_os/lib/libutils/ext/snprintk.c:576
     f9c:	4b0002e6 	sub	w6, w23, w0
/home/hei/Desktop/optee-qemu/optee_os/lib/libutils/ext/snprintk.c:578
     fa0:	52800407 	mov	w7, #0x20                  	// #32
/home/hei/Desktop/optee-qemu/optee_os/lib/libutils/ext/snprintk.c:577
     fa4:	710000df 	cmp	w6, #0x0
     fa8:	54001b8c 	b.gt	1318 <__vsnprintf+0xb2c>
/home/hei/Desktop/optee-qemu/optee_os/lib/libutils/ext/snprintk.c:582
     fac:	34001ca2 	cbz	w2, 1340 <__vsnprintf+0xb54>
/home/hei/Desktop/optee-qemu/optee_os/lib/libutils/ext/snprintk.c:583
     fb0:	b5001c1b 	cbnz	x27, 1330 <__vsnprintf+0xb44>
/home/hei/Desktop/optee-qemu/optee_os/lib/libutils/ext/snprintk.c:586
     fb4:	d280001b 	mov	x27, #0x0                   	// #0
/home/hei/Desktop/optee-qemu/optee_os/lib/libutils/ext/snprintk.c:590
     fb8:	711000bf 	cmp	w5, #0x400
     fbc:	540000a1 	b.ne	fd0 <__vsnprintf+0x7e4>  // b.any
/home/hei/Desktop/optee-qemu/optee_os/lib/libutils/ext/snprintk.c:591
     fc0:	4b0002e2 	sub	w2, w23, w0
/home/hei/Desktop/optee-qemu/optee_os/lib/libutils/ext/snprintk.c:593
     fc4:	52800605 	mov	w5, #0x30                  	// #48
/home/hei/Desktop/optee-qemu/optee_os/lib/libutils/ext/snprintk.c:592
     fc8:	7100005f 	cmp	w2, #0x0
     fcc:	54001d8c 	b.gt	137c <__vsnprintf+0xb90>
/home/hei/Desktop/optee-qemu/optee_os/lib/libutils/ext/snprintk.c:597
     fd0:	4b030021 	sub	w1, w1, w3
/home/hei/Desktop/optee-qemu/optee_os/lib/libutils/ext/snprintk.c:599
     fd4:	52800602 	mov	w2, #0x30                  	// #48
/home/hei/Desktop/optee-qemu/optee_os/lib/libutils/ext/snprintk.c:598
     fd8:	7100003f 	cmp	w1, #0x0
     fdc:	54001dcc 	b.gt	1394 <__vsnprintf+0xba8>
     fe0:	2a0303e3 	mov	w3, w3
     fe4:	d2800001 	mov	x1, #0x0                   	// #0
/home/hei/Desktop/optee-qemu/optee_os/lib/libutils/ext/snprintk.c:602
     fe8:	eb01007f 	cmp	x3, x1
     fec:	54001e01 	b.ne	13ac <__vsnprintf+0xbc0>  // b.any
/home/hei/Desktop/optee-qemu/optee_os/lib/libutils/ext/snprintk.c:605
     ff0:	3617c275 	tbz	w21, #2, 83c <__vsnprintf+0x50>
/home/hei/Desktop/optee-qemu/optee_os/lib/libutils/ext/snprintk.c:606
     ff4:	4b0002eb 	sub	w11, w23, w0
/home/hei/Desktop/optee-qemu/optee_os/lib/libutils/ext/snprintk.c:608
     ff8:	52800400 	mov	w0, #0x20                  	// #32
/home/hei/Desktop/optee-qemu/optee_os/lib/libutils/ext/snprintk.c:607
     ffc:	7100017f 	cmp	w11, #0x0
    1000:	54ffc1ed 	b.le	83c <__vsnprintf+0x50>
/home/hei/Desktop/optee-qemu/optee_os/lib/libutils/ext/snprintk.c:608
    1004:	b400009b 	cbz	x27, 1014 <__vsnprintf+0x828>
    1008:	eb1b033f 	cmp	x25, x27
    100c:	54000049 	b.ls	1014 <__vsnprintf+0x828>  // b.plast
    1010:	38001760 	strb	w0, [x27], #1
    1014:	5100056b 	sub	w11, w11, #0x1
    1018:	17fffff9 	b	ffc <__vsnprintf+0x810>
/home/hei/Desktop/optee-qemu/optee_os/lib/libutils/ext/snprintk.c:421
    101c:	11002034 	add	w20, w1, #0x8
    1020:	7100029f 	cmp	w20, #0x0
    1024:	5400008d 	b.le	1034 <__vsnprintf+0x848>
    1028:	91003c13 	add	x19, x0, #0xf
    102c:	927df273 	and	x19, x19, #0xfffffffffffffff8
    1030:	17ffffb4 	b	f00 <__vsnprintf+0x714>
    1034:	aa0003f3 	mov	x19, x0
    1038:	8b21c380 	add	x0, x28, w1, sxtw
    103c:	17ffffb1 	b	f00 <__vsnprintf+0x714>
/home/hei/Desktop/optee-qemu/optee_os/lib/libutils/ext/snprintk.c:435
    1040:	37f80261 	tbnz	w1, #31, 108c <__vsnprintf+0x8a0>
    1044:	91003c13 	add	x19, x0, #0xf
    1048:	2a0103f4 	mov	w20, w1
    104c:	927df273 	and	x19, x19, #0xfffffffffffffff8
    1050:	f9400000 	ldr	x0, [x0]
/home/hei/Desktop/optee-qemu/optee_os/lib/libutils/ext/snprintk.c:437
    1054:	b0000056 	adrp	x22, a000 <__text_end+0x1540>
/home/hei/Desktop/optee-qemu/optee_os/lib/libutils/ext/snprintk.c:438
    1058:	321f02b5 	orr	w21, w21, #0x2
/home/hei/Desktop/optee-qemu/optee_os/lib/libutils/ext/snprintk.c:437
    105c:	912de2d6 	add	x22, x22, #0xb78
/home/hei/Desktop/optee-qemu/optee_os/lib/libutils/ext/snprintk.c:439
    1060:	52800f18 	mov	w24, #0x78                  	// #120
/home/hei/Desktop/optee-qemu/optee_os/lib/libutils/ext/snprintk.c:488
    1064:	52800002 	mov	w2, #0x0                   	// #0
    1068:	3100047f 	cmn	w3, #0x1
    106c:	54001201 	b.ne	12ac <__vsnprintf+0xac0>  // b.any
    1070:	910095a4 	add	x4, x13, #0x25
/home/hei/Desktop/optee-qemu/optee_os/lib/libutils/ext/snprintk.c:525
    1074:	92400c01 	and	x1, x0, #0xf
/home/hei/Desktop/optee-qemu/optee_os/lib/libutils/ext/snprintk.c:526
    1078:	d344fc00 	lsr	x0, x0, #4
/home/hei/Desktop/optee-qemu/optee_os/lib/libutils/ext/snprintk.c:525
    107c:	38616ac1 	ldrb	w1, [x22, x1]
    1080:	381ffc81 	strb	w1, [x4, #-1]!
/home/hei/Desktop/optee-qemu/optee_os/lib/libutils/ext/snprintk.c:527
    1084:	b5ffff80 	cbnz	x0, 1074 <__vsnprintf+0x888>
    1088:	17fffefe 	b	c80 <__vsnprintf+0x494>
/home/hei/Desktop/optee-qemu/optee_os/lib/libutils/ext/snprintk.c:435
    108c:	11002034 	add	w20, w1, #0x8
    1090:	7100029f 	cmp	w20, #0x0
    1094:	5400008d 	b.le	10a4 <__vsnprintf+0x8b8>
    1098:	91003c13 	add	x19, x0, #0xf
    109c:	927df273 	and	x19, x19, #0xfffffffffffffff8
    10a0:	17ffffec 	b	1050 <__vsnprintf+0x864>
    10a4:	aa0003f3 	mov	x19, x0
    10a8:	8b21c380 	add	x0, x28, w1, sxtw
    10ac:	17ffffe9 	b	1050 <__vsnprintf+0x864>
/home/hei/Desktop/optee-qemu/optee_os/lib/libutils/ext/snprintk.c:442
    10b0:	11002034 	add	w20, w1, #0x8
    10b4:	7100029f 	cmp	w20, #0x0
    10b8:	5400008d 	b.le	10c8 <__vsnprintf+0x8dc>
    10bc:	91003c13 	add	x19, x0, #0xf
    10c0:	927df273 	and	x19, x19, #0xfffffffffffffff8
    10c4:	17fffe4e 	b	9fc <__vsnprintf+0x210>
    10c8:	aa0003f3 	mov	x19, x0
    10cc:	8b21c380 	add	x0, x28, w1, sxtw
    10d0:	17fffe4b 	b	9fc <__vsnprintf+0x210>
/home/hei/Desktop/optee-qemu/optee_os/lib/libutils/ext/snprintk.c:460
    10d4:	aa0403e0 	mov	x0, x4
    10d8:	a90b27e4 	stp	x4, x9, [sp, #176]
    10dc:	f90063ed 	str	x13, [sp, #192]
    10e0:	9400010d 	bl	1514 <strlen>
/home/hei/Desktop/optee-qemu/optee_os/lib/libutils/ext/snprintk.c:285
    10e4:	52800001 	mov	w1, #0x0                   	// #0
/home/hei/Desktop/optee-qemu/optee_os/lib/libutils/ext/snprintk.c:460
    10e8:	2a0003e3 	mov	w3, w0
/home/hei/Desktop/optee-qemu/optee_os/lib/libutils/ext/snprintk.c:461
    10ec:	52800002 	mov	w2, #0x0                   	// #0
    10f0:	a94b27e4 	ldp	x4, x9, [sp, #176]
    10f4:	f94063ed 	ldr	x13, [sp, #192]
    10f8:	17ffff9f 	b	f74 <__vsnprintf+0x788>
/home/hei/Desktop/optee-qemu/optee_os/lib/libutils/ext/snprintk.c:464
    10fc:	321c02b5 	orr	w21, w21, #0x10
    1100:	17fffe5c 	b	a70 <__vsnprintf+0x284>
/home/hei/Desktop/optee-qemu/optee_os/lib/libutils/ext/snprintk.c:467
    1104:	3747cb95 	tbnz	w21, #8, a74 <__vsnprintf+0x288>
    1108:	374fcb75 	tbnz	w21, #9, a74 <__vsnprintf+0x288>
    110c:	372fcb55 	tbnz	w21, #5, a74 <__vsnprintf+0x288>
    1110:	3727cb35 	tbnz	w21, #4, a74 <__vsnprintf+0x288>
    1114:	36300335 	tbz	w21, #6, 1178 <__vsnprintf+0x98c>
    1118:	37f801e1 	tbnz	w1, #31, 1154 <__vsnprintf+0x968>
    111c:	91002c13 	add	x19, x0, #0xb
    1120:	2a0103f4 	mov	w20, w1
    1124:	927df273 	and	x19, x19, #0xfffffffffffffff8
    1128:	79400000 	ldrh	w0, [x0]
    112c:	17fffe57 	b	a88 <__vsnprintf+0x29c>
    1130:	11002034 	add	w20, w1, #0x8
    1134:	7100029f 	cmp	w20, #0x0
    1138:	5400008d 	b.le	1148 <__vsnprintf+0x95c>
    113c:	91003c13 	add	x19, x0, #0xf
    1140:	927df273 	and	x19, x19, #0xfffffffffffffff8
    1144:	17fffe50 	b	a84 <__vsnprintf+0x298>
    1148:	aa0003f3 	mov	x19, x0
    114c:	8b21c380 	add	x0, x28, w1, sxtw
    1150:	17fffe4d 	b	a84 <__vsnprintf+0x298>
    1154:	11002034 	add	w20, w1, #0x8
    1158:	7100029f 	cmp	w20, #0x0
    115c:	5400008d 	b.le	116c <__vsnprintf+0x980>
    1160:	91002c13 	add	x19, x0, #0xb
    1164:	927df273 	and	x19, x19, #0xfffffffffffffff8
    1168:	17fffff0 	b	1128 <__vsnprintf+0x93c>
    116c:	aa0003f3 	mov	x19, x0
    1170:	8b21c380 	add	x0, x28, w1, sxtw
    1174:	17ffffed 	b	1128 <__vsnprintf+0x93c>
    1178:	37f800c1 	tbnz	w1, #31, 1190 <__vsnprintf+0x9a4>
    117c:	91002c13 	add	x19, x0, #0xb
    1180:	2a0103f4 	mov	w20, w1
    1184:	927df273 	and	x19, x19, #0xfffffffffffffff8
    1188:	b9400000 	ldr	w0, [x0]
    118c:	17fffe3f 	b	a88 <__vsnprintf+0x29c>
    1190:	11002034 	add	w20, w1, #0x8
    1194:	7100029f 	cmp	w20, #0x0
    1198:	5400008d 	b.le	11a8 <__vsnprintf+0x9bc>
    119c:	91002c13 	add	x19, x0, #0xb
    11a0:	927df273 	and	x19, x19, #0xfffffffffffffff8
    11a4:	17fffff9 	b	1188 <__vsnprintf+0x99c>
    11a8:	aa0003f3 	mov	x19, x0
    11ac:	8b21c380 	add	x0, x28, w1, sxtw
    11b0:	17fffff6 	b	1188 <__vsnprintf+0x99c>
/home/hei/Desktop/optee-qemu/optee_os/lib/libutils/ext/snprintk.c:471
    11b4:	b0000056 	adrp	x22, a000 <__text_end+0x1540>
    11b8:	912de2d6 	add	x22, x22, #0xb78
    11bc:	910046d6 	add	x22, x22, #0x11
/home/hei/Desktop/optee-qemu/optee_os/lib/libutils/ext/snprintk.c:475
    11c0:	363801f5 	tbz	w21, #7, 11fc <__vsnprintf+0xa10>
    11c4:	37f80321 	tbnz	w1, #31, 1228 <__vsnprintf+0xa3c>
    11c8:	91003c13 	add	x19, x0, #0xf
    11cc:	2a0103f4 	mov	w20, w1
    11d0:	927df273 	and	x19, x19, #0xfffffffffffffff8
    11d4:	f9400000 	ldr	x0, [x0]
/home/hei/Desktop/optee-qemu/optee_os/lib/libutils/ext/snprintk.c:478
    11d8:	3607f475 	tbz	w21, #0, 1064 <__vsnprintf+0x878>
    11dc:	b4fff440 	cbz	x0, 1064 <__vsnprintf+0x878>
/home/hei/Desktop/optee-qemu/optee_os/lib/libutils/ext/snprintk.c:479
    11e0:	321f02b5 	orr	w21, w21, #0x2
/home/hei/Desktop/optee-qemu/optee_os/lib/libutils/ext/snprintk.c:476
    11e4:	52800041 	mov	w1, #0x2                   	// #2
/home/hei/Desktop/optee-qemu/optee_os/lib/libutils/ext/snprintk.c:482
    11e8:	52800002 	mov	w2, #0x0                   	// #0
    11ec:	17fffe92 	b	c34 <__vsnprintf+0x448>
/home/hei/Desktop/optee-qemu/optee_os/lib/libutils/ext/snprintk.c:474
    11f0:	b0000056 	adrp	x22, a000 <__text_end+0x1540>
    11f4:	912de2d6 	add	x22, x22, #0xb78
    11f8:	17fffff2 	b	11c0 <__vsnprintf+0x9d4>
/home/hei/Desktop/optee-qemu/optee_os/lib/libutils/ext/snprintk.c:475
    11fc:	3747fe55 	tbnz	w21, #8, 11c4 <__vsnprintf+0x9d8>
    1200:	374ffe35 	tbnz	w21, #9, 11c4 <__vsnprintf+0x9d8>
    1204:	372ffe15 	tbnz	w21, #5, 11c4 <__vsnprintf+0x9d8>
    1208:	3727fdf5 	tbnz	w21, #4, 11c4 <__vsnprintf+0x9d8>
    120c:	36300335 	tbz	w21, #6, 1270 <__vsnprintf+0xa84>
    1210:	37f801e1 	tbnz	w1, #31, 124c <__vsnprintf+0xa60>
    1214:	91002c13 	add	x19, x0, #0xb
    1218:	2a0103f4 	mov	w20, w1
    121c:	927df273 	and	x19, x19, #0xfffffffffffffff8
    1220:	79400000 	ldrh	w0, [x0]
    1224:	17ffffed 	b	11d8 <__vsnprintf+0x9ec>
    1228:	11002034 	add	w20, w1, #0x8
    122c:	7100029f 	cmp	w20, #0x0
    1230:	5400008d 	b.le	1240 <__vsnprintf+0xa54>
    1234:	91003c13 	add	x19, x0, #0xf
    1238:	927df273 	and	x19, x19, #0xfffffffffffffff8
    123c:	17ffffe6 	b	11d4 <__vsnprintf+0x9e8>
    1240:	aa0003f3 	mov	x19, x0
    1244:	8b21c380 	add	x0, x28, w1, sxtw
    1248:	17ffffe3 	b	11d4 <__vsnprintf+0x9e8>
    124c:	11002034 	add	w20, w1, #0x8
    1250:	7100029f 	cmp	w20, #0x0
    1254:	5400008d 	b.le	1264 <__vsnprintf+0xa78>
    1258:	91002c13 	add	x19, x0, #0xb
    125c:	927df273 	and	x19, x19, #0xfffffffffffffff8
    1260:	17fffff0 	b	1220 <__vsnprintf+0xa34>
    1264:	aa0003f3 	mov	x19, x0
    1268:	8b21c380 	add	x0, x28, w1, sxtw
    126c:	17ffffed 	b	1220 <__vsnprintf+0xa34>
    1270:	37f800c1 	tbnz	w1, #31, 1288 <__vsnprintf+0xa9c>
    1274:	91002c13 	add	x19, x0, #0xb
    1278:	2a0103f4 	mov	w20, w1
    127c:	927df273 	and	x19, x19, #0xfffffffffffffff8
    1280:	b9400000 	ldr	w0, [x0]
    1284:	17ffffd5 	b	11d8 <__vsnprintf+0x9ec>
    1288:	11002034 	add	w20, w1, #0x8
    128c:	7100029f 	cmp	w20, #0x0
    1290:	5400008d 	b.le	12a0 <__vsnprintf+0xab4>
    1294:	91002c13 	add	x19, x0, #0xb
    1298:	927df273 	and	x19, x19, #0xfffffffffffffff8
    129c:	17fffff9 	b	1280 <__vsnprintf+0xa94>
    12a0:	aa0003f3 	mov	x19, x0
    12a4:	8b21c380 	add	x0, x28, w1, sxtw
    12a8:	17fffff6 	b	1280 <__vsnprintf+0xa94>
/home/hei/Desktop/optee-qemu/optee_os/lib/libutils/ext/snprintk.c:488
    12ac:	52800041 	mov	w1, #0x2                   	// #2
/home/hei/Desktop/optee-qemu/optee_os/lib/libutils/ext/snprintk.c:497
    12b0:	f100001f 	cmp	x0, #0x0
/home/hei/Desktop/optee-qemu/optee_os/lib/libutils/ext/snprintk.c:489
    12b4:	12157ab5 	and	w21, w21, #0xfffffbff
/home/hei/Desktop/optee-qemu/optee_os/lib/libutils/ext/snprintk.c:497
    12b8:	7a400860 	ccmp	w3, #0x0, #0x0, eq  // eq = none
    12bc:	54ffcc01 	b.ne	c3c <__vsnprintf+0x450>  // b.any
    12c0:	52800003 	mov	w3, #0x0                   	// #0
/home/hei/Desktop/optee-qemu/optee_os/lib/libutils/ext/snprintk.c:496
    12c4:	910095a4 	add	x4, x13, #0x25
    12c8:	17fffe6e 	b	c80 <__vsnprintf+0x494>
/home/hei/Desktop/optee-qemu/optee_os/lib/libutils/ext/snprintk.c:488
    12cc:	52800021 	mov	w1, #0x1                   	// #1
    12d0:	17fffff8 	b	12b0 <__vsnprintf+0xac4>
/home/hei/Desktop/optee-qemu/optee_os/lib/libutils/ext/snprintk.c:508
    12d4:	aa0403e1 	mov	x1, x4
    12d8:	17fffe5e 	b	c50 <__vsnprintf+0x464>
/home/hei/Desktop/optee-qemu/optee_os/lib/libutils/ext/snprintk.c:517
    12dc:	9ac50806 	udiv	x6, x0, x5
    12e0:	9b0580c0 	msub	x0, x6, x5, x0
    12e4:	1100c000 	add	w0, w0, #0x30
    12e8:	381ff020 	sturb	w0, [x1, #-1]
/home/hei/Desktop/optee-qemu/optee_os/lib/libutils/ext/snprintk.c:518
    12ec:	aa0603e0 	mov	x0, x6
    12f0:	aa0403e1 	mov	x1, x4
    12f4:	d1000424 	sub	x4, x1, #0x1
/home/hei/Desktop/optee-qemu/optee_os/lib/libutils/ext/snprintk.c:516
    12f8:	f100241f 	cmp	x0, #0x9
    12fc:	54ffff08 	b.hi	12dc <__vsnprintf+0xaf0>  // b.pmore
/home/hei/Desktop/optee-qemu/optee_os/lib/libutils/ext/snprintk.c:520
    1300:	1100c000 	add	w0, w0, #0x30
    1304:	381ff020 	sturb	w0, [x1, #-1]
/home/hei/Desktop/optee-qemu/optee_os/lib/libutils/ext/snprintk.c:521
    1308:	17fffe5e 	b	c80 <__vsnprintf+0x494>
/home/hei/Desktop/optee-qemu/optee_os/lib/libutils/ext/snprintk.c:568
    130c:	360fe3d5 	tbz	w21, #1, f84 <__vsnprintf+0x798>
/home/hei/Desktop/optee-qemu/optee_os/lib/libutils/ext/snprintk.c:569
    1310:	11000800 	add	w0, w0, #0x2
    1314:	17ffff1c 	b	f84 <__vsnprintf+0x798>
/home/hei/Desktop/optee-qemu/optee_os/lib/libutils/ext/snprintk.c:578
    1318:	b400009b 	cbz	x27, 1328 <__vsnprintf+0xb3c>
    131c:	eb1b033f 	cmp	x25, x27
    1320:	54000049 	b.ls	1328 <__vsnprintf+0xb3c>  // b.plast
    1324:	38001767 	strb	w7, [x27], #1
    1328:	510004c6 	sub	w6, w6, #0x1
    132c:	17ffff1e 	b	fa4 <__vsnprintf+0x7b8>
/home/hei/Desktop/optee-qemu/optee_os/lib/libutils/ext/snprintk.c:583
    1330:	eb1b033f 	cmp	x25, x27
    1334:	54ffe429 	b.ls	fb8 <__vsnprintf+0x7cc>  // b.plast
    1338:	38001762 	strb	w2, [x27], #1
    133c:	17ffff1f 	b	fb8 <__vsnprintf+0x7cc>
/home/hei/Desktop/optee-qemu/optee_os/lib/libutils/ext/snprintk.c:584
    1340:	360fe3d5 	tbz	w21, #1, fb8 <__vsnprintf+0x7cc>
/home/hei/Desktop/optee-qemu/optee_os/lib/libutils/ext/snprintk.c:585
    1344:	b4ffe39b 	cbz	x27, fb4 <__vsnprintf+0x7c8>
    1348:	eb1b033f 	cmp	x25, x27
    134c:	54ffe369 	b.ls	fb8 <__vsnprintf+0x7cc>  // b.plast
    1350:	aa1b03e2 	mov	x2, x27
    1354:	52800606 	mov	w6, #0x30                  	// #48
    1358:	38001446 	strb	w6, [x2], #1
/home/hei/Desktop/optee-qemu/optee_os/lib/libutils/ext/snprintk.c:586
    135c:	b4ffe2c2 	cbz	x2, fb4 <__vsnprintf+0x7c8>
    1360:	eb02033f 	cmp	x25, x2
    1364:	54000089 	b.ls	1374 <__vsnprintf+0xb88>  // b.plast
    1368:	91000b7b 	add	x27, x27, #0x2
    136c:	381ff378 	sturb	w24, [x27, #-1]
    1370:	17ffff12 	b	fb8 <__vsnprintf+0x7cc>
    1374:	aa0203fb 	mov	x27, x2
    1378:	17ffff10 	b	fb8 <__vsnprintf+0x7cc>
/home/hei/Desktop/optee-qemu/optee_os/lib/libutils/ext/snprintk.c:593
    137c:	b400009b 	cbz	x27, 138c <__vsnprintf+0xba0>
    1380:	eb1b033f 	cmp	x25, x27
    1384:	54000049 	b.ls	138c <__vsnprintf+0xba0>  // b.plast
    1388:	38001765 	strb	w5, [x27], #1
    138c:	51000442 	sub	w2, w2, #0x1
    1390:	17ffff0e 	b	fc8 <__vsnprintf+0x7dc>
/home/hei/Desktop/optee-qemu/optee_os/lib/libutils/ext/snprintk.c:599
    1394:	b400009b 	cbz	x27, 13a4 <__vsnprintf+0xbb8>
    1398:	eb1b033f 	cmp	x25, x27
    139c:	54000049 	b.ls	13a4 <__vsnprintf+0xbb8>  // b.plast
    13a0:	38001762 	strb	w2, [x27], #1
    13a4:	51000421 	sub	w1, w1, #0x1
    13a8:	17ffff0c 	b	fd8 <__vsnprintf+0x7ec>
/home/hei/Desktop/optee-qemu/optee_os/lib/libutils/ext/snprintk.c:603
    13ac:	b40000bb 	cbz	x27, 13c0 <__vsnprintf+0xbd4>
    13b0:	eb1b033f 	cmp	x25, x27
    13b4:	54000069 	b.ls	13c0 <__vsnprintf+0xbd4>  // b.plast
    13b8:	38616882 	ldrb	w2, [x4, x1]
    13bc:	38001762 	strb	w2, [x27], #1
    13c0:	91000421 	add	x1, x1, #0x1
    13c4:	17ffff09 	b	fe8 <__vsnprintf+0x7fc>
__vsnprintf():
/home/hei/Desktop/optee-qemu/optee_os/lib/libutils/ext/snprintk.c:143
    13c8:	f9404fe0 	ldr	x0, [sp, #152]
    13cc:	f100001f 	cmp	x0, #0x0
    13d0:	f94053e0 	ldr	x0, [sp, #160]
    13d4:	fa401804 	ccmp	x0, #0x0, #0x4, ne  // ne = any
    13d8:	540000c0 	b.eq	13f0 <__vsnprintf+0xc04>  // b.none
/home/hei/Desktop/optee-qemu/optee_os/lib/libutils/ext/snprintk.c:145
    13dc:	f94053e1 	ldr	x1, [sp, #160]
    13e0:	93407f40 	sxtw	x0, w26
    13e4:	eb01001f 	cmp	x0, x1
    13e8:	54000163 	b.cc	1414 <__vsnprintf+0xc28>  // b.lo, b.ul, b.last
/home/hei/Desktop/optee-qemu/optee_os/lib/libutils/ext/snprintk.c:146
    13ec:	381ff33f 	sturb	wzr, [x25, #-1]
/home/hei/Desktop/optee-qemu/optee_os/lib/libutils/ext/snprintk.c:151
    13f0:	2a1a03e0 	mov	w0, w26
    13f4:	a9437bfd 	ldp	x29, x30, [sp, #48]
    13f8:	a94453f3 	ldp	x19, x20, [sp, #64]
    13fc:	a9455bf5 	ldp	x21, x22, [sp, #80]
    1400:	a94663f7 	ldp	x23, x24, [sp, #96]
    1404:	a9476bf9 	ldp	x25, x26, [sp, #112]
    1408:	a94873fb 	ldp	x27, x28, [sp, #128]
    140c:	910403ff 	add	sp, sp, #0x100
    1410:	d65f03c0 	ret
/home/hei/Desktop/optee-qemu/optee_os/lib/libutils/ext/snprintk.c:148
    1414:	f9404fe1 	ldr	x1, [sp, #152]
    1418:	3820683f 	strb	wzr, [x1, x0]
/home/hei/Desktop/optee-qemu/optee_os/lib/libutils/ext/snprintk.c:150
    141c:	17fffff5 	b	13f0 <__vsnprintf+0xc04>

0000000000001420 <vsnprintk>:
vsnprintk():
/home/hei/Desktop/optee-qemu/optee_os/lib/libutils/ext/snprintk.c:129
    1420:	a9bb7bfd 	stp	x29, x30, [sp, #-80]!
    1424:	910003fd 	mov	x29, sp
    1428:	a90153f3 	stp	x19, x20, [sp, #16]
    142c:	aa0003f3 	mov	x19, x0
    1430:	aa0103f4 	mov	x20, x1
/home/hei/Desktop/optee-qemu/optee_os/lib/libutils/ext/snprintk.c:130
    1434:	9100c3e0 	add	x0, sp, #0x30
    1438:	aa0303e1 	mov	x1, x3
/home/hei/Desktop/optee-qemu/optee_os/lib/libutils/ext/snprintk.c:129
    143c:	f90013f5 	str	x21, [sp, #32]
    1440:	aa0203f5 	mov	x21, x2
/home/hei/Desktop/optee-qemu/optee_os/lib/libutils/ext/snprintk.c:130
    1444:	d2800402 	mov	x2, #0x20                  	// #32
    1448:	97fffbb2 	bl	310 <memcpy>
    144c:	aa1503e2 	mov	x2, x21
    1450:	aa0003e3 	mov	x3, x0
    1454:	aa1403e1 	mov	x1, x20
    1458:	52800024 	mov	w4, #0x1                   	// #1
    145c:	aa1303e0 	mov	x0, x19
    1460:	97fffce3 	bl	7ec <__vsnprintf>
/home/hei/Desktop/optee-qemu/optee_os/lib/libutils/ext/snprintk.c:131
    1464:	a94153f3 	ldp	x19, x20, [sp, #16]
    1468:	f94013f5 	ldr	x21, [sp, #32]
    146c:	a8c57bfd 	ldp	x29, x30, [sp], #80
    1470:	d65f03c0 	ret

0000000000001474 <snprintk>:
snprintk():
/home/hei/Desktop/optee-qemu/optee_os/lib/libutils/ext/snprintk.c:112
    1474:	a9b07bfd 	stp	x29, x30, [sp, #-256]!
    1478:	910003fd 	mov	x29, sp
    147c:	a90d93e3 	stp	x3, x4, [sp, #216]
/home/hei/Desktop/optee-qemu/optee_os/lib/libutils/ext/snprintk.c:116
    1480:	910403e3 	add	x3, sp, #0x100
    1484:	a9030fe3 	stp	x3, x3, [sp, #48]
    1488:	910343e3 	add	x3, sp, #0xd0
    148c:	f90023e3 	str	x3, [sp, #64]
    1490:	128004e3 	mov	w3, #0xffffffd8            	// #-40
    1494:	b9004be3 	str	w3, [sp, #72]
    1498:	12800fe3 	mov	w3, #0xffffff80            	// #-128
    149c:	b9004fe3 	str	w3, [sp, #76]
/home/hei/Desktop/optee-qemu/optee_os/lib/libutils/ext/snprintk.c:117
    14a0:	910043e3 	add	x3, sp, #0x10
/home/hei/Desktop/optee-qemu/optee_os/lib/libutils/ext/snprintk.c:112
    14a4:	a90e9be5 	stp	x5, x6, [sp, #232]
/home/hei/Desktop/optee-qemu/optee_os/lib/libutils/ext/snprintk.c:117
    14a8:	a94317e4 	ldp	x4, x5, [sp, #48]
    14ac:	a90117e4 	stp	x4, x5, [sp, #16]
    14b0:	a94417e4 	ldp	x4, x5, [sp, #64]
    14b4:	a90217e4 	stp	x4, x5, [sp, #32]
/home/hei/Desktop/optee-qemu/optee_os/lib/libutils/ext/snprintk.c:112
    14b8:	3d8017e0 	str	q0, [sp, #80]
    14bc:	3d801be1 	str	q1, [sp, #96]
    14c0:	3d801fe2 	str	q2, [sp, #112]
    14c4:	3d8023e3 	str	q3, [sp, #128]
    14c8:	3d8027e4 	str	q4, [sp, #144]
    14cc:	3d802be5 	str	q5, [sp, #160]
    14d0:	3d802fe6 	str	q6, [sp, #176]
    14d4:	3d8033e7 	str	q7, [sp, #192]
    14d8:	f9007fe7 	str	x7, [sp, #248]
/home/hei/Desktop/optee-qemu/optee_os/lib/libutils/ext/snprintk.c:117
    14dc:	97ffffd1 	bl	1420 <vsnprintk>
/home/hei/Desktop/optee-qemu/optee_os/lib/libutils/ext/snprintk.c:121
    14e0:	a8d07bfd 	ldp	x29, x30, [sp], #256
    14e4:	d65f03c0 	ret

00000000000014e8 <memchr>:
memchr():
/home/hei/Desktop/optee-qemu/optee_os/lib/libutils/isoc/newlib/memchr.c:109
    14e8:	12001c21 	and	w1, w1, #0xff
/home/hei/Desktop/optee-qemu/optee_os/lib/libutils/isoc/newlib/memchr.c:153
    14ec:	8b020002 	add	x2, x0, x2
    14f0:	eb02001f 	cmp	x0, x2
    14f4:	54000061 	b.ne	1500 <memchr+0x18>  // b.any
/home/hei/Desktop/optee-qemu/optee_os/lib/libutils/isoc/newlib/memchr.c:159
    14f8:	d2800000 	mov	x0, #0x0                   	// #0
/home/hei/Desktop/optee-qemu/optee_os/lib/libutils/isoc/newlib/memchr.c:160
    14fc:	d65f03c0 	ret
/home/hei/Desktop/optee-qemu/optee_os/lib/libutils/isoc/newlib/memchr.c:154
    1500:	39400003 	ldrb	w3, [x0]
    1504:	6b01007f 	cmp	w3, w1
    1508:	54ffffa0 	b.eq	14fc <memchr+0x14>  // b.none
/home/hei/Desktop/optee-qemu/optee_os/lib/libutils/isoc/newlib/memchr.c:156
    150c:	91000400 	add	x0, x0, #0x1
    1510:	17fffff8 	b	14f0 <memchr+0x8>

0000000000001514 <strlen>:
strlen():
/home/hei/Desktop/optee-qemu/optee_os/lib/libutils/isoc/newlib/strlen.c:117
    1514:	aa0003e1 	mov	x1, x0
    1518:	39400022 	ldrb	w2, [x1]
    151c:	35000062 	cbnz	w2, 1528 <strlen+0x14>
/home/hei/Desktop/optee-qemu/optee_os/lib/libutils/isoc/newlib/strlen.c:120
    1520:	cb000020 	sub	x0, x1, x0
    1524:	d65f03c0 	ret
/home/hei/Desktop/optee-qemu/optee_os/lib/libutils/isoc/newlib/strlen.c:118
    1528:	91000421 	add	x1, x1, #0x1
    152c:	17fffffb 	b	1518 <strlen+0x4>

0000000000001530 <trace_ext_puts>:
trace_ext_puts():
/home/hei/Desktop/optee-qemu/optee_os/lib/libutee/trace_ext.c:17
    1530:	a9be7bfd 	stp	x29, x30, [sp, #-32]!
    1534:	910003fd 	mov	x29, sp
    1538:	f9000bf3 	str	x19, [sp, #16]
    153c:	aa0003f3 	mov	x19, x0
/home/hei/Desktop/optee-qemu/optee_os/lib/libutee/trace_ext.c:18
    1540:	97fffff5 	bl	1514 <strlen>
    1544:	aa0003e1 	mov	x1, x0
    1548:	aa1303e0 	mov	x0, x19
/home/hei/Desktop/optee-qemu/optee_os/lib/libutee/trace_ext.c:19
    154c:	f9400bf3 	ldr	x19, [sp, #16]
    1550:	a8c27bfd 	ldp	x29, x30, [sp], #32
/home/hei/Desktop/optee-qemu/optee_os/lib/libutee/trace_ext.c:18
    1554:	1400005a 	b	16bc <utee_log>

0000000000001558 <trace_ext_get_thread_id>:
trace_ext_get_thread_id():
/home/hei/Desktop/optee-qemu/optee_os/lib/libutee/trace_ext.c:24
    1558:	12800000 	mov	w0, #0xffffffff            	// #-1
    155c:	d65f03c0 	ret

0000000000001560 <printf>:
printf():
/home/hei/Desktop/optee-qemu/optee_os/lib/libutee/trace_ext.c:32
    1560:	d10883ff 	sub	sp, sp, #0x220
    1564:	a9007bfd 	stp	x29, x30, [sp]
    1568:	910003fd 	mov	x29, sp
    156c:	a90153f3 	stp	x19, x20, [sp, #16]
    1570:	aa0003f3 	mov	x19, x0
    1574:	3d805be0 	str	q0, [sp, #352]
    1578:	3d805fe1 	str	q1, [sp, #368]
    157c:	3d8063e2 	str	q2, [sp, #384]
    1580:	3d8067e3 	str	q3, [sp, #400]
    1584:	3d806be4 	str	q4, [sp, #416]
    1588:	3d806fe5 	str	q5, [sp, #432]
    158c:	3d8073e6 	str	q6, [sp, #448]
    1590:	3d8077e7 	str	q7, [sp, #464]
    1594:	a91e8be1 	stp	x1, x2, [sp, #488]
    1598:	a91f93e3 	stp	x3, x4, [sp, #504]
    159c:	f90107e5 	str	x5, [sp, #520]
    15a0:	f9010be6 	str	x6, [sp, #528]
    15a4:	f9010fe7 	str	x7, [sp, #536]
/home/hei/Desktop/optee-qemu/optee_os/lib/libutee/trace_ext.c:37
    15a8:	97fffb9a 	bl	410 <trace_get_level>
    15ac:	7100001f 	cmp	w0, #0x0
    15b0:	5400038d 	b.le	1620 <printf+0xc0>
/home/hei/Desktop/optee-qemu/optee_os/lib/libutee/trace_ext.c:40
    15b4:	910883e0 	add	x0, sp, #0x220
    15b8:	a90403e0 	stp	x0, x0, [sp, #64]
    15bc:	910783e0 	add	x0, sp, #0x1e0
    15c0:	f9002be0 	str	x0, [sp, #80]
    15c4:	128006e0 	mov	w0, #0xffffffc8            	// #-56
    15c8:	b9005be0 	str	w0, [sp, #88]
    15cc:	12800fe0 	mov	w0, #0xffffff80            	// #-128
    15d0:	b9005fe0 	str	w0, [sp, #92]
/home/hei/Desktop/optee-qemu/optee_os/lib/libutee/trace_ext.c:41
    15d4:	910183f4 	add	x20, sp, #0x60
    15d8:	a94407e0 	ldp	x0, x1, [sp, #64]
    15dc:	a90207e0 	stp	x0, x1, [sp, #32]
    15e0:	aa1303e2 	mov	x2, x19
    15e4:	a94507e0 	ldp	x0, x1, [sp, #80]
    15e8:	910083e3 	add	x3, sp, #0x20
    15ec:	a90307e0 	stp	x0, x1, [sp, #48]
    15f0:	aa1403e0 	mov	x0, x20
    15f4:	d2802001 	mov	x1, #0x100                 	// #256
    15f8:	94001c63 	bl	8784 <vsnprintf>
    15fc:	2a0003f3 	mov	w19, w0
/home/hei/Desktop/optee-qemu/optee_os/lib/libutee/trace_ext.c:44
    1600:	37f80060 	tbnz	w0, #31, 160c <printf+0xac>
/home/hei/Desktop/optee-qemu/optee_os/lib/libutee/trace_ext.c:47
    1604:	aa1403e0 	mov	x0, x20
    1608:	97ffffca 	bl	1530 <trace_ext_puts>
/home/hei/Desktop/optee-qemu/optee_os/lib/libutee/trace_ext.c:50
    160c:	2a1303e0 	mov	w0, w19
    1610:	a9407bfd 	ldp	x29, x30, [sp]
    1614:	a94153f3 	ldp	x19, x20, [sp, #16]
    1618:	910883ff 	add	sp, sp, #0x220
    161c:	d65f03c0 	ret
/home/hei/Desktop/optee-qemu/optee_os/lib/libutee/trace_ext.c:38
    1620:	52800013 	mov	w19, #0x0                   	// #0
    1624:	17fffffa 	b	160c <printf+0xac>

0000000000001628 <puts>:
puts():
/home/hei/Desktop/optee-qemu/optee_os/lib/libutee/trace_ext.c:53
    1628:	a9be7bfd 	stp	x29, x30, [sp, #-32]!
    162c:	910003fd 	mov	x29, sp
    1630:	f9000bf3 	str	x19, [sp, #16]
    1634:	aa0003f3 	mov	x19, x0
/home/hei/Desktop/optee-qemu/optee_os/lib/libutee/trace_ext.c:54
    1638:	97fffb76 	bl	410 <trace_get_level>
    163c:	7100001f 	cmp	w0, #0x0
    1640:	540000cd 	b.le	1658 <puts+0x30>
/home/hei/Desktop/optee-qemu/optee_os/lib/libutee/trace_ext.c:55
    1644:	aa1303e0 	mov	x0, x19
    1648:	97ffffba 	bl	1530 <trace_ext_puts>
/home/hei/Desktop/optee-qemu/optee_os/lib/libutee/trace_ext.c:56
    164c:	b0000040 	adrp	x0, a000 <__text_end+0x1540>
    1650:	9125b800 	add	x0, x0, #0x96e
    1654:	97ffffb7 	bl	1530 <trace_ext_puts>
/home/hei/Desktop/optee-qemu/optee_os/lib/libutee/trace_ext.c:59
    1658:	52800020 	mov	w0, #0x1                   	// #1
    165c:	f9400bf3 	ldr	x19, [sp, #16]
    1660:	a8c27bfd 	ldp	x29, x30, [sp], #32
    1664:	d65f03c0 	ret

0000000000001668 <putchar>:
putchar():
/home/hei/Desktop/optee-qemu/optee_os/lib/libutee/trace_ext.c:62
    1668:	a9bd7bfd 	stp	x29, x30, [sp, #-48]!
    166c:	910003fd 	mov	x29, sp
    1670:	f9000bf3 	str	x19, [sp, #16]
    1674:	2a0003f3 	mov	w19, w0
/home/hei/Desktop/optee-qemu/optee_os/lib/libutee/trace_ext.c:63
    1678:	3900a3e0 	strb	w0, [sp, #40]
    167c:	3900a7ff 	strb	wzr, [sp, #41]
/home/hei/Desktop/optee-qemu/optee_os/lib/libutee/trace_ext.c:65
    1680:	97fffb64 	bl	410 <trace_get_level>
    1684:	7100001f 	cmp	w0, #0x0
    1688:	5400006d 	b.le	1694 <putchar+0x2c>
/home/hei/Desktop/optee-qemu/optee_os/lib/libutee/trace_ext.c:66
    168c:	9100a3e0 	add	x0, sp, #0x28
    1690:	97ffffa8 	bl	1530 <trace_ext_puts>
/home/hei/Desktop/optee-qemu/optee_os/lib/libutee/trace_ext.c:73
    1694:	12001e60 	and	w0, w19, #0xff
    1698:	f9400bf3 	ldr	x19, [sp, #16]
    169c:	a8c37bfd 	ldp	x29, x30, [sp], #48
    16a0:	d65f03c0 	ret

00000000000016a4 <utee_panic>:
utee_panic():
/home/hei/Desktop/optee-qemu/optee_os/lib/libutee/arch/arm/utee_syscalls_a64.S:41
    16a4:	a9bf7bfd 	stp	x29, x30, [sp, #-16]!
/home/hei/Desktop/optee-qemu/optee_os/lib/libutee/arch/arm/utee_syscalls_a64.S:42
    16a8:	910003e1 	mov	x1, sp
/home/hei/Desktop/optee-qemu/optee_os/lib/libutee/arch/arm/utee_syscalls_a64.S:43
    16ac:	94000007 	bl	16c8 <__utee_panic>

00000000000016b0 <utee_return>:
utee_return():
/home/hei/Desktop/optee-qemu/optee_os/lib/libutee/arch/arm/utee_syscalls_asm.S:8
    16b0:	d2800008 	mov	x8, #0x0                   	// #0
    16b4:	d4000001 	svc	#0x0
    16b8:	d65f03c0 	ret

00000000000016bc <utee_log>:
utee_log():
/home/hei/Desktop/optee-qemu/optee_os/lib/libutee/arch/arm/utee_syscalls_asm.S:10
    16bc:	d2800028 	mov	x8, #0x1                   	// #1
    16c0:	d4000001 	svc	#0x0
    16c4:	d65f03c0 	ret

00000000000016c8 <__utee_panic>:
__utee_panic():
/home/hei/Desktop/optee-qemu/optee_os/lib/libutee/arch/arm/utee_syscalls_asm.S:12
    16c8:	d2800048 	mov	x8, #0x2                   	// #2
    16cc:	d4000001 	svc	#0x0
    16d0:	d65f03c0 	ret

00000000000016d4 <utee_get_property>:
utee_get_property():
/home/hei/Desktop/optee-qemu/optee_os/lib/libutee/arch/arm/utee_syscalls_asm.S:14
    16d4:	d2800068 	mov	x8, #0x3                   	// #3
    16d8:	d4000001 	svc	#0x0
    16dc:	d65f03c0 	ret

00000000000016e0 <utee_get_property_name_to_index>:
utee_get_property_name_to_index():
/home/hei/Desktop/optee-qemu/optee_os/lib/libutee/arch/arm/utee_syscalls_asm.S:16
    16e0:	d2800088 	mov	x8, #0x4                   	// #4
    16e4:	d4000001 	svc	#0x0
    16e8:	d65f03c0 	ret

00000000000016ec <utee_open_ta_session>:
utee_open_ta_session():
/home/hei/Desktop/optee-qemu/optee_os/lib/libutee/arch/arm/utee_syscalls_asm.S:19
    16ec:	d28000a8 	mov	x8, #0x5                   	// #5
    16f0:	d4000001 	svc	#0x0
    16f4:	d65f03c0 	ret

00000000000016f8 <utee_close_ta_session>:
utee_close_ta_session():
/home/hei/Desktop/optee-qemu/optee_os/lib/libutee/arch/arm/utee_syscalls_asm.S:21
    16f8:	d28000c8 	mov	x8, #0x6                   	// #6
    16fc:	d4000001 	svc	#0x0
    1700:	d65f03c0 	ret

0000000000001704 <utee_invoke_ta_command>:
utee_invoke_ta_command():
/home/hei/Desktop/optee-qemu/optee_os/lib/libutee/arch/arm/utee_syscalls_asm.S:23
    1704:	d28000e8 	mov	x8, #0x7                   	// #7
    1708:	d4000001 	svc	#0x0
    170c:	d65f03c0 	ret

0000000000001710 <utee_get_cancellation_flag>:
utee_get_cancellation_flag():
/home/hei/Desktop/optee-qemu/optee_os/lib/libutee/arch/arm/utee_syscalls_asm.S:25
    1710:	d2800128 	mov	x8, #0x9                   	// #9
    1714:	d4000001 	svc	#0x0
    1718:	d65f03c0 	ret

000000000000171c <utee_check_access_rights>:
utee_check_access_rights():
/home/hei/Desktop/optee-qemu/optee_os/lib/libutee/arch/arm/utee_syscalls_asm.S:28
    171c:	d2800108 	mov	x8, #0x8                   	// #8
    1720:	d4000001 	svc	#0x0
    1724:	d65f03c0 	ret

0000000000001728 <utee_unmask_cancellation>:
utee_unmask_cancellation():
/home/hei/Desktop/optee-qemu/optee_os/lib/libutee/arch/arm/utee_syscalls_asm.S:30
    1728:	d2800148 	mov	x8, #0xa                   	// #10
    172c:	d4000001 	svc	#0x0
    1730:	d65f03c0 	ret

0000000000001734 <utee_mask_cancellation>:
utee_mask_cancellation():
/home/hei/Desktop/optee-qemu/optee_os/lib/libutee/arch/arm/utee_syscalls_asm.S:32
    1734:	d2800168 	mov	x8, #0xb                   	// #11
    1738:	d4000001 	svc	#0x0
    173c:	d65f03c0 	ret

0000000000001740 <utee_wait>:
utee_wait():
/home/hei/Desktop/optee-qemu/optee_os/lib/libutee/arch/arm/utee_syscalls_asm.S:34
    1740:	d2800188 	mov	x8, #0xc                   	// #12
    1744:	d4000001 	svc	#0x0
    1748:	d65f03c0 	ret

000000000000174c <utee_get_time>:
utee_get_time():
/home/hei/Desktop/optee-qemu/optee_os/lib/libutee/arch/arm/utee_syscalls_asm.S:36
    174c:	d28001a8 	mov	x8, #0xd                   	// #13
    1750:	d4000001 	svc	#0x0
    1754:	d65f03c0 	ret

0000000000001758 <utee_set_ta_time>:
utee_set_ta_time():
/home/hei/Desktop/optee-qemu/optee_os/lib/libutee/arch/arm/utee_syscalls_asm.S:38
    1758:	d28001c8 	mov	x8, #0xe                   	// #14
    175c:	d4000001 	svc	#0x0
    1760:	d65f03c0 	ret

0000000000001764 <utee_cryp_state_alloc>:
utee_cryp_state_alloc():
/home/hei/Desktop/optee-qemu/optee_os/lib/libutee/arch/arm/utee_syscalls_asm.S:40
    1764:	d28001e8 	mov	x8, #0xf                   	// #15
    1768:	d4000001 	svc	#0x0
    176c:	d65f03c0 	ret

0000000000001770 <utee_cryp_state_copy>:
utee_cryp_state_copy():
/home/hei/Desktop/optee-qemu/optee_os/lib/libutee/arch/arm/utee_syscalls_asm.S:42
    1770:	d2800208 	mov	x8, #0x10                  	// #16
    1774:	d4000001 	svc	#0x0
    1778:	d65f03c0 	ret

000000000000177c <utee_cryp_state_free>:
utee_cryp_state_free():
/home/hei/Desktop/optee-qemu/optee_os/lib/libutee/arch/arm/utee_syscalls_asm.S:44
    177c:	d2800228 	mov	x8, #0x11                  	// #17
    1780:	d4000001 	svc	#0x0
    1784:	d65f03c0 	ret

0000000000001788 <utee_hash_init>:
utee_hash_init():
/home/hei/Desktop/optee-qemu/optee_os/lib/libutee/arch/arm/utee_syscalls_asm.S:46
    1788:	d2800248 	mov	x8, #0x12                  	// #18
    178c:	d4000001 	svc	#0x0
    1790:	d65f03c0 	ret

0000000000001794 <utee_hash_update>:
utee_hash_update():
/home/hei/Desktop/optee-qemu/optee_os/lib/libutee/arch/arm/utee_syscalls_asm.S:48
    1794:	d2800268 	mov	x8, #0x13                  	// #19
    1798:	d4000001 	svc	#0x0
    179c:	d65f03c0 	ret

00000000000017a0 <utee_hash_final>:
utee_hash_final():
/home/hei/Desktop/optee-qemu/optee_os/lib/libutee/arch/arm/utee_syscalls_asm.S:50
    17a0:	d2800288 	mov	x8, #0x14                  	// #20
    17a4:	d4000001 	svc	#0x0
    17a8:	d65f03c0 	ret

00000000000017ac <utee_cipher_init>:
utee_cipher_init():
/home/hei/Desktop/optee-qemu/optee_os/lib/libutee/arch/arm/utee_syscalls_asm.S:52
    17ac:	d28002a8 	mov	x8, #0x15                  	// #21
    17b0:	d4000001 	svc	#0x0
    17b4:	d65f03c0 	ret

00000000000017b8 <utee_cipher_update>:
utee_cipher_update():
/home/hei/Desktop/optee-qemu/optee_os/lib/libutee/arch/arm/utee_syscalls_asm.S:54
    17b8:	d28002c8 	mov	x8, #0x16                  	// #22
    17bc:	d4000001 	svc	#0x0
    17c0:	d65f03c0 	ret

00000000000017c4 <utee_cipher_final>:
utee_cipher_final():
/home/hei/Desktop/optee-qemu/optee_os/lib/libutee/arch/arm/utee_syscalls_asm.S:56
    17c4:	d28002e8 	mov	x8, #0x17                  	// #23
    17c8:	d4000001 	svc	#0x0
    17cc:	d65f03c0 	ret

00000000000017d0 <utee_cryp_obj_get_info>:
utee_cryp_obj_get_info():
/home/hei/Desktop/optee-qemu/optee_os/lib/libutee/arch/arm/utee_syscalls_asm.S:58
    17d0:	d2800308 	mov	x8, #0x18                  	// #24
    17d4:	d4000001 	svc	#0x0
    17d8:	d65f03c0 	ret

00000000000017dc <utee_cryp_obj_restrict_usage>:
utee_cryp_obj_restrict_usage():
/home/hei/Desktop/optee-qemu/optee_os/lib/libutee/arch/arm/utee_syscalls_asm.S:60
    17dc:	d2800328 	mov	x8, #0x19                  	// #25
    17e0:	d4000001 	svc	#0x0
    17e4:	d65f03c0 	ret

00000000000017e8 <utee_cryp_obj_get_attr>:
utee_cryp_obj_get_attr():
/home/hei/Desktop/optee-qemu/optee_os/lib/libutee/arch/arm/utee_syscalls_asm.S:63
    17e8:	d2800348 	mov	x8, #0x1a                  	// #26
    17ec:	d4000001 	svc	#0x0
    17f0:	d65f03c0 	ret

00000000000017f4 <utee_cryp_obj_alloc>:
utee_cryp_obj_alloc():
/home/hei/Desktop/optee-qemu/optee_os/lib/libutee/arch/arm/utee_syscalls_asm.S:65
    17f4:	d2800368 	mov	x8, #0x1b                  	// #27
    17f8:	d4000001 	svc	#0x0
    17fc:	d65f03c0 	ret

0000000000001800 <utee_cryp_obj_close>:
utee_cryp_obj_close():
/home/hei/Desktop/optee-qemu/optee_os/lib/libutee/arch/arm/utee_syscalls_asm.S:67
    1800:	d2800388 	mov	x8, #0x1c                  	// #28
    1804:	d4000001 	svc	#0x0
    1808:	d65f03c0 	ret

000000000000180c <utee_cryp_obj_reset>:
utee_cryp_obj_reset():
/home/hei/Desktop/optee-qemu/optee_os/lib/libutee/arch/arm/utee_syscalls_asm.S:69
    180c:	d28003a8 	mov	x8, #0x1d                  	// #29
    1810:	d4000001 	svc	#0x0
    1814:	d65f03c0 	ret

0000000000001818 <utee_cryp_obj_populate>:
utee_cryp_obj_populate():
/home/hei/Desktop/optee-qemu/optee_os/lib/libutee/arch/arm/utee_syscalls_asm.S:71
    1818:	d28003c8 	mov	x8, #0x1e                  	// #30
    181c:	d4000001 	svc	#0x0
    1820:	d65f03c0 	ret

0000000000001824 <utee_cryp_obj_copy>:
utee_cryp_obj_copy():
/home/hei/Desktop/optee-qemu/optee_os/lib/libutee/arch/arm/utee_syscalls_asm.S:73
    1824:	d28003e8 	mov	x8, #0x1f                  	// #31
    1828:	d4000001 	svc	#0x0
    182c:	d65f03c0 	ret

0000000000001830 <utee_cryp_derive_key>:
utee_cryp_derive_key():
/home/hei/Desktop/optee-qemu/optee_os/lib/libutee/arch/arm/utee_syscalls_asm.S:75
    1830:	d2800408 	mov	x8, #0x20                  	// #32
    1834:	d4000001 	svc	#0x0
    1838:	d65f03c0 	ret

000000000000183c <utee_cryp_random_number_generate>:
utee_cryp_random_number_generate():
/home/hei/Desktop/optee-qemu/optee_os/lib/libutee/arch/arm/utee_syscalls_asm.S:77
    183c:	d2800428 	mov	x8, #0x21                  	// #33
    1840:	d4000001 	svc	#0x0
    1844:	d65f03c0 	ret

0000000000001848 <utee_authenc_init>:
utee_authenc_init():
/home/hei/Desktop/optee-qemu/optee_os/lib/libutee/arch/arm/utee_syscalls_asm.S:80
    1848:	d2800448 	mov	x8, #0x22                  	// #34
    184c:	d4000001 	svc	#0x0
    1850:	d65f03c0 	ret

0000000000001854 <utee_authenc_update_aad>:
utee_authenc_update_aad():
/home/hei/Desktop/optee-qemu/optee_os/lib/libutee/arch/arm/utee_syscalls_asm.S:82
    1854:	d2800468 	mov	x8, #0x23                  	// #35
    1858:	d4000001 	svc	#0x0
    185c:	d65f03c0 	ret

0000000000001860 <utee_authenc_update_payload>:
utee_authenc_update_payload():
/home/hei/Desktop/optee-qemu/optee_os/lib/libutee/arch/arm/utee_syscalls_asm.S:84
    1860:	d2800488 	mov	x8, #0x24                  	// #36
    1864:	d4000001 	svc	#0x0
    1868:	d65f03c0 	ret

000000000000186c <utee_authenc_enc_final>:
utee_authenc_enc_final():
/home/hei/Desktop/optee-qemu/optee_os/lib/libutee/arch/arm/utee_syscalls_asm.S:87
    186c:	d28004a8 	mov	x8, #0x25                  	// #37
    1870:	d4000001 	svc	#0x0
    1874:	d65f03c0 	ret

0000000000001878 <utee_authenc_dec_final>:
utee_authenc_dec_final():
/home/hei/Desktop/optee-qemu/optee_os/lib/libutee/arch/arm/utee_syscalls_asm.S:89
    1878:	d28004c8 	mov	x8, #0x26                  	// #38
    187c:	d4000001 	svc	#0x0
    1880:	d65f03c0 	ret

0000000000001884 <utee_asymm_operate>:
utee_asymm_operate():
/home/hei/Desktop/optee-qemu/optee_os/lib/libutee/arch/arm/utee_syscalls_asm.S:91
    1884:	d28004e8 	mov	x8, #0x27                  	// #39
    1888:	d4000001 	svc	#0x0
    188c:	d65f03c0 	ret

0000000000001890 <utee_asymm_verify>:
utee_asymm_verify():
/home/hei/Desktop/optee-qemu/optee_os/lib/libutee/arch/arm/utee_syscalls_asm.S:93
    1890:	d2800508 	mov	x8, #0x28                  	// #40
    1894:	d4000001 	svc	#0x0
    1898:	d65f03c0 	ret

000000000000189c <utee_storage_obj_open>:
utee_storage_obj_open():
/home/hei/Desktop/optee-qemu/optee_os/lib/libutee/arch/arm/utee_syscalls_asm.S:95
    189c:	d2800528 	mov	x8, #0x29                  	// #41
    18a0:	d4000001 	svc	#0x0
    18a4:	d65f03c0 	ret

00000000000018a8 <utee_storage_obj_create>:
utee_storage_obj_create():
/home/hei/Desktop/optee-qemu/optee_os/lib/libutee/arch/arm/utee_syscalls_asm.S:97
    18a8:	d2800548 	mov	x8, #0x2a                  	// #42
    18ac:	d4000001 	svc	#0x0
    18b0:	d65f03c0 	ret

00000000000018b4 <utee_storage_obj_del>:
utee_storage_obj_del():
/home/hei/Desktop/optee-qemu/optee_os/lib/libutee/arch/arm/utee_syscalls_asm.S:99
    18b4:	d2800568 	mov	x8, #0x2b                  	// #43
    18b8:	d4000001 	svc	#0x0
    18bc:	d65f03c0 	ret

00000000000018c0 <utee_storage_obj_rename>:
utee_storage_obj_rename():
/home/hei/Desktop/optee-qemu/optee_os/lib/libutee/arch/arm/utee_syscalls_asm.S:101
    18c0:	d2800588 	mov	x8, #0x2c                  	// #44
    18c4:	d4000001 	svc	#0x0
    18c8:	d65f03c0 	ret

00000000000018cc <utee_storage_alloc_enum>:
utee_storage_alloc_enum():
/home/hei/Desktop/optee-qemu/optee_os/lib/libutee/arch/arm/utee_syscalls_asm.S:103
    18cc:	d28005a8 	mov	x8, #0x2d                  	// #45
    18d0:	d4000001 	svc	#0x0
    18d4:	d65f03c0 	ret

00000000000018d8 <utee_storage_free_enum>:
utee_storage_free_enum():
/home/hei/Desktop/optee-qemu/optee_os/lib/libutee/arch/arm/utee_syscalls_asm.S:105
    18d8:	d28005c8 	mov	x8, #0x2e                  	// #46
    18dc:	d4000001 	svc	#0x0
    18e0:	d65f03c0 	ret

00000000000018e4 <utee_storage_reset_enum>:
utee_storage_reset_enum():
/home/hei/Desktop/optee-qemu/optee_os/lib/libutee/arch/arm/utee_syscalls_asm.S:107
    18e4:	d28005e8 	mov	x8, #0x2f                  	// #47
    18e8:	d4000001 	svc	#0x0
    18ec:	d65f03c0 	ret

00000000000018f0 <utee_storage_start_enum>:
utee_storage_start_enum():
/home/hei/Desktop/optee-qemu/optee_os/lib/libutee/arch/arm/utee_syscalls_asm.S:109
    18f0:	d2800608 	mov	x8, #0x30                  	// #48
    18f4:	d4000001 	svc	#0x0
    18f8:	d65f03c0 	ret

00000000000018fc <utee_storage_next_enum>:
utee_storage_next_enum():
/home/hei/Desktop/optee-qemu/optee_os/lib/libutee/arch/arm/utee_syscalls_asm.S:111
    18fc:	d2800628 	mov	x8, #0x31                  	// #49
    1900:	d4000001 	svc	#0x0
    1904:	d65f03c0 	ret

0000000000001908 <utee_storage_obj_read>:
utee_storage_obj_read():
/home/hei/Desktop/optee-qemu/optee_os/lib/libutee/arch/arm/utee_syscalls_asm.S:113
    1908:	d2800648 	mov	x8, #0x32                  	// #50
    190c:	d4000001 	svc	#0x0
    1910:	d65f03c0 	ret

0000000000001914 <utee_storage_obj_write>:
utee_storage_obj_write():
/home/hei/Desktop/optee-qemu/optee_os/lib/libutee/arch/arm/utee_syscalls_asm.S:115
    1914:	d2800668 	mov	x8, #0x33                  	// #51
    1918:	d4000001 	svc	#0x0
    191c:	d65f03c0 	ret

0000000000001920 <utee_storage_obj_trunc>:
utee_storage_obj_trunc():
/home/hei/Desktop/optee-qemu/optee_os/lib/libutee/arch/arm/utee_syscalls_asm.S:117
    1920:	d2800688 	mov	x8, #0x34                  	// #52
    1924:	d4000001 	svc	#0x0
    1928:	d65f03c0 	ret

000000000000192c <utee_storage_obj_seek>:
utee_storage_obj_seek():
/home/hei/Desktop/optee-qemu/optee_os/lib/libutee/arch/arm/utee_syscalls_asm.S:119
    192c:	d28006a8 	mov	x8, #0x35                  	// #53
    1930:	d4000001 	svc	#0x0
    1934:	d65f03c0 	ret

0000000000001938 <utee_cryp_obj_generate_key>:
utee_cryp_obj_generate_key():
/home/hei/Desktop/optee-qemu/optee_os/lib/libutee/arch/arm/utee_syscalls_asm.S:121
    1938:	d28006c8 	mov	x8, #0x36                  	// #54
    193c:	d4000001 	svc	#0x0
    1940:	d65f03c0 	ret

0000000000001944 <utee_cache_operation>:
utee_cache_operation():
/home/hei/Desktop/optee-qemu/optee_os/lib/libutee/arch/arm/utee_syscalls_asm.S:124
    1944:	d28008c8 	mov	x8, #0x46                  	// #70
    1948:	d4000001 	svc	#0x0
    194c:	d65f03c0 	ret

0000000000001950 <ta_header_get_session>:
ta_header_get_session():
/home/hei/Desktop/optee-qemu/optee_os/lib/libutee/arch/arm/user_ta_entry.c:65
    1950:	2a0003e1 	mov	w1, w0
/home/hei/Desktop/optee-qemu/optee_os/lib/libutee/arch/arm/user_ta_entry.c:68
    1954:	f0000040 	adrp	x0, c000 <_DYNAMIC>
    1958:	f941c400 	ldr	x0, [x0, #904]
/home/hei/Desktop/optee-qemu/optee_os/lib/libutee/arch/arm/user_ta_entry.c:68 (discriminator 1)
    195c:	b5000040 	cbnz	x0, 1964 <ta_header_get_session+0x14>
/home/hei/Desktop/optee-qemu/optee_os/lib/libutee/arch/arm/user_ta_entry.c:73
    1960:	d65f03c0 	ret
/home/hei/Desktop/optee-qemu/optee_os/lib/libutee/arch/arm/user_ta_entry.c:69
    1964:	b9400002 	ldr	w2, [x0]
    1968:	6b01005f 	cmp	w2, w1
    196c:	54ffffa0 	b.eq	1960 <ta_header_get_session+0x10>  // b.none
/home/hei/Desktop/optee-qemu/optee_os/lib/libutee/arch/arm/user_ta_entry.c:68 (discriminator 2)
    1970:	f9400800 	ldr	x0, [x0, #16]
    1974:	17fffffa 	b	195c <ta_header_get_session+0xc>

0000000000001978 <to_utee_params>:
to_utee_params():
/home/hei/Desktop/optee-qemu/optee_os/lib/libutee/arch/arm/user_ta_entry.c:129
    1978:	b0000045 	adrp	x5, a000 <__text_end+0x1540>
    197c:	911710a5 	add	x5, x5, #0x5c4
/home/hei/Desktop/optee-qemu/optee_os/lib/libutee/arch/arm/user_ta_entry.c:127
    1980:	2a0103e3 	mov	w3, w1
    1984:	52800004 	mov	w4, #0x0                   	// #0
    1988:	f8008403 	str	x3, [x0], #8
/home/hei/Desktop/optee-qemu/optee_os/lib/libutee/arch/arm/user_ta_entry.c:129
    198c:	1ac42423 	lsr	w3, w1, w4
    1990:	12000c63 	and	w3, w3, #0xf
    1994:	51000463 	sub	w3, w3, #0x1
    1998:	7100187f 	cmp	w3, #0x6
    199c:	54000268 	b.hi	19e8 <to_utee_params+0x70>  // b.pmore
    19a0:	386348a3 	ldrb	w3, [x5, w3, uxtw]
    19a4:	10000066 	adr	x6, 19b0 <to_utee_params+0x38>
    19a8:	8b2388c3 	add	x3, x6, w3, sxtb #2
    19ac:	d61f0060 	br	x3
/home/hei/Desktop/optee-qemu/optee_os/lib/libutee/arch/arm/user_ta_entry.c:133
    19b0:	b9400043 	ldr	w3, [x2]
    19b4:	f9000003 	str	x3, [x0]
/home/hei/Desktop/optee-qemu/optee_os/lib/libutee/arch/arm/user_ta_entry.c:134
    19b8:	b9400443 	ldr	w3, [x2, #4]
/home/hei/Desktop/optee-qemu/optee_os/lib/libutee/arch/arm/user_ta_entry.c:140
    19bc:	f9000403 	str	x3, [x0, #8]
/home/hei/Desktop/optee-qemu/optee_os/lib/libutee/arch/arm/user_ta_entry.c:141
    19c0:	11001084 	add	w4, w4, #0x4
    19c4:	91004042 	add	x2, x2, #0x10
    19c8:	91004000 	add	x0, x0, #0x10
/home/hei/Desktop/optee-qemu/optee_os/lib/libutee/arch/arm/user_ta_entry.c:128 (discriminator 2)
    19cc:	7100409f 	cmp	w4, #0x10
    19d0:	54fffde1 	b.ne	198c <to_utee_params+0x14>  // b.any
/home/hei/Desktop/optee-qemu/optee_os/lib/libutee/arch/arm/user_ta_entry.c:148
    19d4:	d65f03c0 	ret
/home/hei/Desktop/optee-qemu/optee_os/lib/libutee/arch/arm/user_ta_entry.c:139
    19d8:	f9400043 	ldr	x3, [x2]
    19dc:	f9000003 	str	x3, [x0]
/home/hei/Desktop/optee-qemu/optee_os/lib/libutee/arch/arm/user_ta_entry.c:140
    19e0:	b9400843 	ldr	w3, [x2, #8]
    19e4:	17fffff6 	b	19bc <to_utee_params+0x44>
/home/hei/Desktop/optee-qemu/optee_os/lib/libutee/arch/arm/user_ta_entry.c:144
    19e8:	a9007c1f 	stp	xzr, xzr, [x0]
/home/hei/Desktop/optee-qemu/optee_os/lib/libutee/arch/arm/user_ta_entry.c:145
    19ec:	17fffff5 	b	19c0 <to_utee_params+0x48>

00000000000019f0 <from_utee_params>:
from_utee_params():
/home/hei/Desktop/optee-qemu/optee_os/lib/libutee/arch/arm/user_ta_entry.c:155
    19f0:	f8408446 	ldr	x6, [x2], #8
/home/hei/Desktop/optee-qemu/optee_os/lib/libutee/arch/arm/user_ta_entry.c:161
    19f4:	b0000045 	adrp	x5, a000 <__text_end+0x1540>
    19f8:	911730a5 	add	x5, x5, #0x5cc
/home/hei/Desktop/optee-qemu/optee_os/lib/libutee/arch/arm/user_ta_entry.c:155
    19fc:	52800004 	mov	w4, #0x0                   	// #0
    1a00:	2a0603e9 	mov	w9, w6
/home/hei/Desktop/optee-qemu/optee_os/lib/libutee/arch/arm/user_ta_entry.c:161
    1a04:	1ac42523 	lsr	w3, w9, w4
    1a08:	12000c63 	and	w3, w3, #0xf
    1a0c:	51000463 	sub	w3, w3, #0x1
    1a10:	7100187f 	cmp	w3, #0x6
/home/hei/Desktop/optee-qemu/optee_os/lib/libutee/arch/arm/user_ta_entry.c:159
    1a14:	a9401c48 	ldp	x8, x7, [x2]
/home/hei/Desktop/optee-qemu/optee_os/lib/libutee/arch/arm/user_ta_entry.c:161
    1a18:	540000c8 	b.hi	1a30 <from_utee_params+0x40>  // b.pmore
    1a1c:	386348a3 	ldrb	w3, [x5, w3, uxtw]
    1a20:	1000006a 	adr	x10, 1a2c <from_utee_params+0x3c>
    1a24:	8b238943 	add	x3, x10, w3, sxtb #2
    1a28:	d61f0060 	br	x3
/home/hei/Desktop/optee-qemu/optee_os/lib/libutee/arch/arm/user_ta_entry.c:166
    1a2c:	29001c08 	stp	w8, w7, [x0]
/home/hei/Desktop/optee-qemu/optee_os/lib/libutee/arch/arm/user_ta_entry.c:167
    1a30:	11001084 	add	w4, w4, #0x4
    1a34:	91004042 	add	x2, x2, #0x10
    1a38:	91004000 	add	x0, x0, #0x10
/home/hei/Desktop/optee-qemu/optee_os/lib/libutee/arch/arm/user_ta_entry.c:157 (discriminator 2)
    1a3c:	7100409f 	cmp	w4, #0x10
    1a40:	54fffe21 	b.ne	1a04 <from_utee_params+0x14>  // b.any
/home/hei/Desktop/optee-qemu/optee_os/lib/libutee/arch/arm/user_ta_entry.c:180
    1a44:	b9000026 	str	w6, [x1]
/home/hei/Desktop/optee-qemu/optee_os/lib/libutee/arch/arm/user_ta_entry.c:181
    1a48:	d65f03c0 	ret
/home/hei/Desktop/optee-qemu/optee_os/lib/libutee/arch/arm/user_ta_entry.c:171
    1a4c:	f9000008 	str	x8, [x0]
/home/hei/Desktop/optee-qemu/optee_os/lib/libutee/arch/arm/user_ta_entry.c:172
    1a50:	b9000807 	str	w7, [x0, #8]
/home/hei/Desktop/optee-qemu/optee_os/lib/libutee/arch/arm/user_ta_entry.c:173
    1a54:	17fffff7 	b	1a30 <from_utee_params+0x40>

0000000000001a58 <ta_header_remove_session>:
ta_header_remove_session():
/home/hei/Desktop/optee-qemu/optee_os/lib/libutee/arch/arm/user_ta_entry.c:102
    1a58:	a9be7bfd 	stp	x29, x30, [sp, #-32]!
    1a5c:	2a0003e2 	mov	w2, w0
    1a60:	910003fd 	mov	x29, sp
    1a64:	f9000bf3 	str	x19, [sp, #16]
/home/hei/Desktop/optee-qemu/optee_os/lib/libutee/arch/arm/user_ta_entry.c:106
    1a68:	f0000053 	adrp	x19, c000 <_DYNAMIC>
    1a6c:	f941c660 	ldr	x0, [x19, #904]
/home/hei/Desktop/optee-qemu/optee_os/lib/libutee/arch/arm/user_ta_entry.c:106 (discriminator 1)
    1a70:	b5000080 	cbnz	x0, 1a80 <ta_header_remove_session+0x28>
/home/hei/Desktop/optee-qemu/optee_os/lib/libutee/arch/arm/user_ta_entry.c:120
    1a74:	f9400bf3 	ldr	x19, [sp, #16]
    1a78:	a8c27bfd 	ldp	x29, x30, [sp], #32
    1a7c:	d65f03c0 	ret
/home/hei/Desktop/optee-qemu/optee_os/lib/libutee/arch/arm/user_ta_entry.c:107
    1a80:	b9400003 	ldr	w3, [x0]
    1a84:	f9400801 	ldr	x1, [x0, #16]
    1a88:	6b02007f 	cmp	w3, w2
    1a8c:	540002c1 	b.ne	1ae4 <ta_header_remove_session+0x8c>  // b.any
/home/hei/Desktop/optee-qemu/optee_os/lib/libutee/arch/arm/user_ta_entry.c:108
    1a90:	f9400c02 	ldr	x2, [x0, #24]
    1a94:	b4000221 	cbz	x1, 1ad8 <ta_header_remove_session+0x80>
/home/hei/Desktop/optee-qemu/optee_os/lib/libutee/arch/arm/user_ta_entry.c:108 (discriminator 1)
    1a98:	f9000c22 	str	x2, [x1, #24]
/home/hei/Desktop/optee-qemu/optee_os/lib/libutee/arch/arm/user_ta_entry.c:108 (discriminator 4)
    1a9c:	f9400c02 	ldr	x2, [x0, #24]
    1aa0:	f9000041 	str	x1, [x2]
/home/hei/Desktop/optee-qemu/optee_os/lib/libutee/arch/arm/user_ta_entry.c:109 (discriminator 4)
    1aa4:	94000256 	bl	23fc <TEE_Free>
/home/hei/Desktop/optee-qemu/optee_os/lib/libutee/arch/arm/user_ta_entry.c:114 (discriminator 4)
    1aa8:	f941c660 	ldr	x0, [x19, #904]
    1aac:	b5fffe40 	cbnz	x0, 1a74 <ta_header_remove_session+0x1c>
/home/hei/Desktop/optee-qemu/optee_os/lib/libutee/arch/arm/user_ta_entry.c:112 (discriminator 1)
    1ab0:	f0000040 	adrp	x0, c000 <_DYNAMIC>
    1ab4:	52800281 	mov	w1, #0x14                  	// #20
    1ab8:	f940c000 	ldr	x0, [x0, #384]
    1abc:	b9401400 	ldr	w0, [x0, #20]
    1ac0:	0a010000 	and	w0, w0, w1
/home/hei/Desktop/optee-qemu/optee_os/lib/libutee/arch/arm/user_ta_entry.c:114 (discriminator 1)
    1ac4:	6b01001f 	cmp	w0, w1
    1ac8:	54fffd60 	b.eq	1a74 <ta_header_remove_session+0x1c>  // b.none
/home/hei/Desktop/optee-qemu/optee_os/lib/libutee/arch/arm/user_ta_entry.c:120
    1acc:	f9400bf3 	ldr	x19, [sp, #16]
    1ad0:	a8c27bfd 	ldp	x29, x30, [sp], #32
uninit_instance():
/home/hei/Desktop/optee-qemu/optee_os/lib/libutee/arch/arm/user_ta_entry.c:50
    1ad4:	17fff96e 	b	8c <TA_DestroyEntryPoint>
ta_header_remove_session():
/home/hei/Desktop/optee-qemu/optee_os/lib/libutee/arch/arm/user_ta_entry.c:108 (discriminator 2)
    1ad8:	910e2263 	add	x3, x19, #0x388
    1adc:	f9000462 	str	x2, [x3, #8]
    1ae0:	17ffffef 	b	1a9c <ta_header_remove_session+0x44>
    1ae4:	aa0103e0 	mov	x0, x1
    1ae8:	17ffffe2 	b	1a70 <ta_header_remove_session+0x18>

0000000000001aec <ta_header_save_params.part.0>:
ta_header_save_params():
/home/hei/Desktop/optee-qemu/optee_os/lib/libutee/arch/arm/user_ta_entry.c:61
    1aec:	f0000040 	adrp	x0, c000 <_DYNAMIC>
    1af0:	d2800802 	mov	x2, #0x40                  	// #64
    1af4:	52800001 	mov	w1, #0x0                   	// #0
    1af8:	f940bc00 	ldr	x0, [x0, #376]
    1afc:	14001b4e 	b	8834 <memset>

0000000000001b00 <__utee_entry>:
__utee_entry():
/home/hei/Desktop/optee-qemu/optee_os/lib/libutee/arch/arm/user_ta_entry.c:248
    1b00:	a9b77bfd 	stp	x29, x30, [sp, #-144]!
/home/hei/Desktop/optee-qemu/optee_os/lib/libutee/arch/arm/user_ta_entry.c:251
    1b04:	f100041f 	cmp	x0, #0x1
/home/hei/Desktop/optee-qemu/optee_os/lib/libutee/arch/arm/user_ta_entry.c:248
    1b08:	910003fd 	mov	x29, sp
    1b0c:	a90153f3 	stp	x19, x20, [sp, #16]
    1b10:	f0000054 	adrp	x20, c000 <_DYNAMIC>
    1b14:	a9025bf5 	stp	x21, x22, [sp, #32]
    1b18:	aa0103f5 	mov	x21, x1
    1b1c:	a90363f7 	stp	x23, x24, [sp, #48]
/home/hei/Desktop/optee-qemu/optee_os/lib/libutee/arch/arm/user_ta_entry.c:251
    1b20:	54000a00 	b.eq	1c60 <__utee_entry+0x160>  // b.none
    1b24:	aa0203f7 	mov	x23, x2
    1b28:	b40000e0 	cbz	x0, 1b44 <__utee_entry+0x44>
    1b2c:	f100081f 	cmp	x0, #0x2
    1b30:	54000aa0 	b.eq	1c84 <__utee_entry+0x184>  // b.none
/home/hei/Desktop/optee-qemu/optee_os/lib/libutee/arch/arm/user_ta_entry.c:263
    1b34:	52800000 	mov	w0, #0x0                   	// #0
/home/hei/Desktop/optee-qemu/optee_os/lib/libutee/arch/arm/user_ta_entry.c:262
    1b38:	12800013 	mov	w19, #0xffffffff            	// #-1
/home/hei/Desktop/optee-qemu/optee_os/lib/libutee/arch/arm/user_ta_entry.c:263
    1b3c:	94000237 	bl	2418 <TEE_Panic>
/home/hei/Desktop/optee-qemu/optee_os/lib/libutee/arch/arm/user_ta_entry.c:264
    1b40:	14000019 	b	1ba4 <__utee_entry+0xa4>
ta_header_add_session():
/home/hei/Desktop/optee-qemu/optee_os/lib/libutee/arch/arm/user_ta_entry.c:77
    1b44:	2a0103e0 	mov	w0, w1
    1b48:	97ffff82 	bl	1950 <ta_header_get_session>
/home/hei/Desktop/optee-qemu/optee_os/lib/libutee/arch/arm/user_ta_entry.c:80
    1b4c:	b5000500 	cbnz	x0, 1bec <__utee_entry+0xec>
/home/hei/Desktop/optee-qemu/optee_os/lib/libutee/arch/arm/user_ta_entry.c:83
    1b50:	d00000a0 	adrp	x0, 17000 <ta_heap+0x7b78>
    1b54:	39522001 	ldrb	w1, [x0, #1160]
    1b58:	340000e1 	cbz	w1, 1b74 <__utee_entry+0x74>
/home/hei/Desktop/optee-qemu/optee_os/lib/libutee/arch/arm/user_ta_entry.c:90
    1b5c:	52b00001 	mov	w1, #0x80000000            	// #-2147483648
    1b60:	52800400 	mov	w0, #0x20                  	// #32
    1b64:	9400020d 	bl	2398 <TEE_Malloc>
/home/hei/Desktop/optee-qemu/optee_os/lib/libutee/arch/arm/user_ta_entry.c:92
    1b68:	b5000300 	cbnz	x0, 1bc8 <__utee_entry+0xc8>
/home/hei/Desktop/optee-qemu/optee_os/lib/libutee/arch/arm/user_ta_entry.c:93
    1b6c:	129ffe73 	mov	w19, #0xffff000c            	// #-65524
    1b70:	1400000d 	b	1ba4 <__utee_entry+0xa4>
/home/hei/Desktop/optee-qemu/optee_os/lib/libutee/arch/arm/user_ta_entry.c:84
    1b74:	52800021 	mov	w1, #0x1                   	// #1
    1b78:	39122001 	strb	w1, [x0, #1160]
init_instance():
/home/hei/Desktop/optee-qemu/optee_os/lib/libutee/arch/arm/user_ta_entry.c:40
    1b7c:	97fff9e3 	bl	308 <tahead_get_trace_level>
    1b80:	97fffa1d 	bl	3f4 <trace_set_level>
/home/hei/Desktop/optee-qemu/optee_os/lib/libutee/arch/arm/user_ta_entry.c:42
    1b84:	f9409a80 	ldr	x0, [x20, #304]
    1b88:	f9400001 	ldr	x1, [x0]
    1b8c:	f940ae80 	ldr	x0, [x20, #344]
    1b90:	94001a10 	bl	83d0 <malloc_add_pool>
/home/hei/Desktop/optee-qemu/optee_os/lib/libutee/arch/arm/user_ta_entry.c:43
    1b94:	94000487 	bl	2db0 <_TEE_MathAPI_Init>
/home/hei/Desktop/optee-qemu/optee_os/lib/libutee/arch/arm/user_ta_entry.c:44
    1b98:	97fff922 	bl	20 <TA_CreateEntryPoint>
    1b9c:	2a0003f3 	mov	w19, w0
ta_header_add_session():
/home/hei/Desktop/optee-qemu/optee_os/lib/libutee/arch/arm/user_ta_entry.c:86
    1ba0:	34fffde0 	cbz	w0, 1b5c <__utee_entry+0x5c>
ta_header_save_params():
/home/hei/Desktop/optee-qemu/optee_os/lib/libutee/arch/arm/user_ta_entry.c:56
    1ba4:	f940b694 	ldr	x20, [x20, #360]
    1ba8:	b900029f 	str	wzr, [x20]
/home/hei/Desktop/optee-qemu/optee_os/lib/libutee/arch/arm/user_ta_entry.c:58
    1bac:	97ffffd0 	bl	1aec <ta_header_save_params.part.0>
__utee_entry():
/home/hei/Desktop/optee-qemu/optee_os/lib/libutee/arch/arm/user_ta_entry.c:269
    1bb0:	2a1303e0 	mov	w0, w19
    1bb4:	a94153f3 	ldp	x19, x20, [sp, #16]
    1bb8:	a9425bf5 	ldp	x21, x22, [sp, #32]
    1bbc:	a94363f7 	ldp	x23, x24, [sp, #48]
    1bc0:	a8c97bfd 	ldp	x29, x30, [sp], #144
    1bc4:	d65f03c0 	ret
ta_header_add_session():
/home/hei/Desktop/optee-qemu/optee_os/lib/libutee/arch/arm/user_ta_entry.c:96
    1bc8:	f0000041 	adrp	x1, c000 <_DYNAMIC>
    1bcc:	910e2021 	add	x1, x1, #0x388
    1bd0:	f9400422 	ldr	x2, [x1, #8]
/home/hei/Desktop/optee-qemu/optee_os/lib/libutee/arch/arm/user_ta_entry.c:94
    1bd4:	b9000015 	str	w21, [x0]
/home/hei/Desktop/optee-qemu/optee_os/lib/libutee/arch/arm/user_ta_entry.c:96
    1bd8:	a900fc1f 	stp	xzr, xzr, [x0, #8]
    1bdc:	f9000c02 	str	x2, [x0, #24]
    1be0:	f9000040 	str	x0, [x2]
    1be4:	91004000 	add	x0, x0, #0x10
    1be8:	f9000420 	str	x0, [x1, #8]
entry_open_session():
/home/hei/Desktop/optee-qemu/optee_os/lib/libutee/arch/arm/user_ta_entry.c:195
    1bec:	2a1503e0 	mov	w0, w21
    1bf0:	97ffff58 	bl	1950 <ta_header_get_session>
    1bf4:	aa0003f8 	mov	x24, x0
/home/hei/Desktop/optee-qemu/optee_os/lib/libutee/arch/arm/user_ta_entry.c:196
    1bf8:	b40007e0 	cbz	x0, 1cf4 <__utee_entry+0x1f4>
/home/hei/Desktop/optee-qemu/optee_os/lib/libutee/arch/arm/user_ta_entry.c:199
    1bfc:	910143f6 	add	x22, sp, #0x50
    1c00:	aa1703e2 	mov	x2, x23
    1c04:	910133e1 	add	x1, sp, #0x4c
    1c08:	aa1603e0 	mov	x0, x22
    1c0c:	97ffff79 	bl	19f0 <from_utee_params>
/home/hei/Desktop/optee-qemu/optee_os/lib/libutee/arch/arm/user_ta_entry.c:200
    1c10:	b9404ff3 	ldr	w19, [sp, #76]
ta_header_save_params():
/home/hei/Desktop/optee-qemu/optee_os/lib/libutee/arch/arm/user_ta_entry.c:56
    1c14:	f940b680 	ldr	x0, [x20, #360]
/home/hei/Desktop/optee-qemu/optee_os/lib/libutee/arch/arm/user_ta_entry.c:59
    1c18:	d2800802 	mov	x2, #0x40                  	// #64
    1c1c:	aa1603e1 	mov	x1, x22
/home/hei/Desktop/optee-qemu/optee_os/lib/libutee/arch/arm/user_ta_entry.c:56
    1c20:	b9000013 	str	w19, [x0]
/home/hei/Desktop/optee-qemu/optee_os/lib/libutee/arch/arm/user_ta_entry.c:59
    1c24:	f940be80 	ldr	x0, [x20, #376]
    1c28:	97fff9ba 	bl	310 <memcpy>
entry_open_session():
/home/hei/Desktop/optee-qemu/optee_os/lib/libutee/arch/arm/user_ta_entry.c:202
    1c2c:	91002302 	add	x2, x24, #0x8
    1c30:	aa1603e1 	mov	x1, x22
    1c34:	2a1303e0 	mov	w0, w19
    1c38:	97fff91e 	bl	b0 <TA_OpenSessionEntryPoint>
/home/hei/Desktop/optee-qemu/optee_os/lib/libutee/arch/arm/user_ta_entry.c:205
    1c3c:	b9404fe1 	ldr	w1, [sp, #76]
/home/hei/Desktop/optee-qemu/optee_os/lib/libutee/arch/arm/user_ta_entry.c:202
    1c40:	2a0003f3 	mov	w19, w0
/home/hei/Desktop/optee-qemu/optee_os/lib/libutee/arch/arm/user_ta_entry.c:205
    1c44:	aa1603e2 	mov	x2, x22
    1c48:	aa1703e0 	mov	x0, x23
    1c4c:	97ffff4b 	bl	1978 <to_utee_params>
/home/hei/Desktop/optee-qemu/optee_os/lib/libutee/arch/arm/user_ta_entry.c:207
    1c50:	34fffab3 	cbz	w19, 1ba4 <__utee_entry+0xa4>
/home/hei/Desktop/optee-qemu/optee_os/lib/libutee/arch/arm/user_ta_entry.c:208
    1c54:	2a1503e0 	mov	w0, w21
    1c58:	97ffff80 	bl	1a58 <ta_header_remove_session>
    1c5c:	17ffffd2 	b	1ba4 <__utee_entry+0xa4>
entry_close_session():
/home/hei/Desktop/optee-qemu/optee_os/lib/libutee/arch/arm/user_ta_entry.c:214
    1c60:	2a0103e0 	mov	w0, w1
    1c64:	97ffff3b 	bl	1950 <ta_header_get_session>
/home/hei/Desktop/optee-qemu/optee_os/lib/libutee/arch/arm/user_ta_entry.c:216
    1c68:	b4000460 	cbz	x0, 1cf4 <__utee_entry+0x1f4>
/home/hei/Desktop/optee-qemu/optee_os/lib/libutee/arch/arm/user_ta_entry.c:219
    1c6c:	f9400400 	ldr	x0, [x0, #8]
/home/hei/Desktop/optee-qemu/optee_os/lib/libutee/arch/arm/user_ta_entry.c:222
    1c70:	52800013 	mov	w19, #0x0                   	// #0
/home/hei/Desktop/optee-qemu/optee_os/lib/libutee/arch/arm/user_ta_entry.c:219
    1c74:	97fff92b 	bl	120 <TA_CloseSessionEntryPoint>
/home/hei/Desktop/optee-qemu/optee_os/lib/libutee/arch/arm/user_ta_entry.c:221
    1c78:	2a1503e0 	mov	w0, w21
    1c7c:	97ffff77 	bl	1a58 <ta_header_remove_session>
/home/hei/Desktop/optee-qemu/optee_os/lib/libutee/arch/arm/user_ta_entry.c:222
    1c80:	17ffffc9 	b	1ba4 <__utee_entry+0xa4>
entry_invoke_command():
/home/hei/Desktop/optee-qemu/optee_os/lib/libutee/arch/arm/user_ta_entry.c:231
    1c84:	2a0103e0 	mov	w0, w1
    1c88:	97ffff32 	bl	1950 <ta_header_get_session>
    1c8c:	aa0003f3 	mov	x19, x0
/home/hei/Desktop/optee-qemu/optee_os/lib/libutee/arch/arm/user_ta_entry.c:233
    1c90:	b4000320 	cbz	x0, 1cf4 <__utee_entry+0x1f4>
/home/hei/Desktop/optee-qemu/optee_os/lib/libutee/arch/arm/user_ta_entry.c:236
    1c94:	910143f5 	add	x21, sp, #0x50
    1c98:	aa0303f8 	mov	x24, x3
    1c9c:	aa1703e2 	mov	x2, x23
    1ca0:	910133e1 	add	x1, sp, #0x4c
    1ca4:	aa1503e0 	mov	x0, x21
    1ca8:	97ffff52 	bl	19f0 <from_utee_params>
ta_header_save_params():
/home/hei/Desktop/optee-qemu/optee_os/lib/libutee/arch/arm/user_ta_entry.c:56
    1cac:	f940b680 	ldr	x0, [x20, #360]
/home/hei/Desktop/optee-qemu/optee_os/lib/libutee/arch/arm/user_ta_entry.c:59
    1cb0:	aa1503e1 	mov	x1, x21
entry_invoke_command():
/home/hei/Desktop/optee-qemu/optee_os/lib/libutee/arch/arm/user_ta_entry.c:237
    1cb4:	b9404ff6 	ldr	w22, [sp, #76]
ta_header_save_params():
/home/hei/Desktop/optee-qemu/optee_os/lib/libutee/arch/arm/user_ta_entry.c:59
    1cb8:	d2800802 	mov	x2, #0x40                  	// #64
/home/hei/Desktop/optee-qemu/optee_os/lib/libutee/arch/arm/user_ta_entry.c:56
    1cbc:	b9000016 	str	w22, [x0]
/home/hei/Desktop/optee-qemu/optee_os/lib/libutee/arch/arm/user_ta_entry.c:59
    1cc0:	f940be80 	ldr	x0, [x20, #376]
    1cc4:	97fff993 	bl	310 <memcpy>
entry_invoke_command():
/home/hei/Desktop/optee-qemu/optee_os/lib/libutee/arch/arm/user_ta_entry.c:239
    1cc8:	f9400660 	ldr	x0, [x19, #8]
    1ccc:	2a1603e2 	mov	w2, w22
    1cd0:	2a1803e1 	mov	w1, w24
    1cd4:	aa1503e3 	mov	x3, x21
    1cd8:	97fff91b 	bl	144 <TA_InvokeCommandEntryPoint>
    1cdc:	2a0003f3 	mov	w19, w0
/home/hei/Desktop/optee-qemu/optee_os/lib/libutee/arch/arm/user_ta_entry.c:242
    1ce0:	b9404fe1 	ldr	w1, [sp, #76]
    1ce4:	aa1503e2 	mov	x2, x21
    1ce8:	aa1703e0 	mov	x0, x23
    1cec:	97ffff23 	bl	1978 <to_utee_params>
/home/hei/Desktop/optee-qemu/optee_os/lib/libutee/arch/arm/user_ta_entry.c:243
    1cf0:	17ffffad 	b	1ba4 <__utee_entry+0xa4>
entry_close_session():
/home/hei/Desktop/optee-qemu/optee_os/lib/libutee/arch/arm/user_ta_entry.c:217
    1cf4:	129fff13 	mov	w19, #0xffff0007            	// #-65529
    1cf8:	17ffffab 	b	1ba4 <__utee_entry+0xa4>

0000000000001cfc <update_out_param>:
update_out_param():
/home/hei/Desktop/optee-qemu/optee_os/lib/libutee/tee_api.c:115
    1cfc:	a9bb7bfd 	stp	x29, x30, [sp, #-80]!
    1d00:	910003fd 	mov	x29, sp
    1d04:	a90153f3 	stp	x19, x20, [sp, #16]
/home/hei/Desktop/optee-qemu/optee_os/lib/libutee/tee_api.c:117
    1d08:	aa0203f4 	mov	x20, x2
    1d0c:	aa0003f3 	mov	x19, x0
/home/hei/Desktop/optee-qemu/optee_os/lib/libutee/tee_api.c:115
    1d10:	a90363f7 	stp	x23, x24, [sp, #48]
/home/hei/Desktop/optee-qemu/optee_os/lib/libutee/tee_api.c:123
    1d14:	b0000058 	adrp	x24, a000 <__text_end+0x1540>
    1d18:	91175318 	add	x24, x24, #0x5d4
/home/hei/Desktop/optee-qemu/optee_os/lib/libutee/tee_api.c:117
    1d1c:	f8408697 	ldr	x23, [x20], #8
/home/hei/Desktop/optee-qemu/optee_os/lib/libutee/tee_api.c:115
    1d20:	f90023f9 	str	x25, [sp, #64]
    1d24:	aa0103f9 	mov	x25, x1
    1d28:	a9025bf5 	stp	x21, x22, [sp, #32]
/home/hei/Desktop/optee-qemu/optee_os/lib/libutee/tee_api.c:119
    1d2c:	d2800015 	mov	x21, #0x0                   	// #0
/home/hei/Desktop/optee-qemu/optee_os/lib/libutee/tee_api.c:123
    1d30:	531e76a0 	lsl	w0, w21, #2
/home/hei/Desktop/optee-qemu/optee_os/lib/libutee/tee_api.c:121
    1d34:	f9400696 	ldr	x22, [x20, #8]
/home/hei/Desktop/optee-qemu/optee_os/lib/libutee/tee_api.c:123
    1d38:	1ac026e0 	lsr	w0, w23, w0
    1d3c:	12000c00 	and	w0, w0, #0xf
    1d40:	51000800 	sub	w0, w0, #0x2
    1d44:	7100141f 	cmp	w0, #0x5
    1d48:	540000e8 	b.hi	1d64 <update_out_param+0x68>  // b.pmore
    1d4c:	38604b00 	ldrb	w0, [x24, w0, uxtw]
    1d50:	10000061 	adr	x1, 1d5c <update_out_param+0x60>
    1d54:	8b208820 	add	x0, x1, w0, sxtb #2
    1d58:	d61f0000 	br	x0
/home/hei/Desktop/optee-qemu/optee_os/lib/libutee/tee_api.c:126
    1d5c:	f9400280 	ldr	x0, [x20]
/home/hei/Desktop/optee-qemu/optee_os/lib/libutee/tee_api.c:127
    1d60:	29005a60 	stp	w0, w22, [x19]
/home/hei/Desktop/optee-qemu/optee_os/lib/libutee/tee_api.c:119 (discriminator 2)
    1d64:	910006b5 	add	x21, x21, #0x1
    1d68:	91004294 	add	x20, x20, #0x10
    1d6c:	91004273 	add	x19, x19, #0x10
    1d70:	f10012bf 	cmp	x21, #0x4
    1d74:	54fffde1 	b.ne	1d30 <update_out_param+0x34>  // b.any
/home/hei/Desktop/optee-qemu/optee_os/lib/libutee/tee_api.c:140
    1d78:	a94153f3 	ldp	x19, x20, [sp, #16]
    1d7c:	a9425bf5 	ldp	x21, x22, [sp, #32]
    1d80:	a94363f7 	ldp	x23, x24, [sp, #48]
    1d84:	f94023f9 	ldr	x25, [sp, #64]
    1d88:	a8c57bfd 	ldp	x29, x30, [sp], #80
    1d8c:	d65f03c0 	ret
/home/hei/Desktop/optee-qemu/optee_os/lib/libutee/tee_api.c:131
    1d90:	f8757b21 	ldr	x1, [x25, x21, lsl #3]
    1d94:	b40000c1 	cbz	x1, 1dac <update_out_param+0xb0>
/home/hei/Desktop/optee-qemu/optee_os/lib/libutee/tee_api.c:133
    1d98:	b9400a62 	ldr	w2, [x19, #8]
/home/hei/Desktop/optee-qemu/optee_os/lib/libutee/tee_api.c:132
    1d9c:	f9400260 	ldr	x0, [x19]
/home/hei/Desktop/optee-qemu/optee_os/lib/libutee/tee_api.c:133
    1da0:	eb16005f 	cmp	x2, x22
/home/hei/Desktop/optee-qemu/optee_os/lib/libutee/tee_api.c:132
    1da4:	9a969042 	csel	x2, x2, x22, ls  // ls = plast
    1da8:	97fff95a 	bl	310 <memcpy>
/home/hei/Desktop/optee-qemu/optee_os/lib/libutee/tee_api.c:134
    1dac:	b9000a76 	str	w22, [x19, #8]
/home/hei/Desktop/optee-qemu/optee_os/lib/libutee/tee_api.c:135
    1db0:	17ffffed 	b	1d64 <update_out_param+0x68>

0000000000001db4 <TEE_CloseTASession>:
TEE_CloseTASession():
/home/hei/Desktop/optee-qemu/optee_os/lib/libutee/tee_api.c:184
    1db4:	b4000120 	cbz	x0, 1dd8 <TEE_CloseTASession+0x24>
/home/hei/Desktop/optee-qemu/optee_os/lib/libutee/tee_api.c:183
    1db8:	a9bf7bfd 	stp	x29, x30, [sp, #-16]!
    1dbc:	910003fd 	mov	x29, sp
/home/hei/Desktop/optee-qemu/optee_os/lib/libutee/tee_api.c:185
    1dc0:	97fffe4e 	bl	16f8 <utee_close_ta_session>
/home/hei/Desktop/optee-qemu/optee_os/lib/libutee/tee_api.c:187
    1dc4:	34000060 	cbz	w0, 1dd0 <TEE_CloseTASession+0x1c>
/home/hei/Desktop/optee-qemu/optee_os/lib/libutee/tee_api.c:190
    1dc8:	a8c17bfd 	ldp	x29, x30, [sp], #16
/home/hei/Desktop/optee-qemu/optee_os/lib/libutee/tee_api.c:188
    1dcc:	14000193 	b	2418 <TEE_Panic>
/home/hei/Desktop/optee-qemu/optee_os/lib/libutee/tee_api.c:190
    1dd0:	a8c17bfd 	ldp	x29, x30, [sp], #16
    1dd4:	d65f03c0 	ret
    1dd8:	d65f03c0 	ret

0000000000001ddc <TEE_GetCancellationFlag>:
TEE_GetCancellationFlag():
/home/hei/Desktop/optee-qemu/optee_os/lib/libutee/tee_api.c:237
    1ddc:	a9be7bfd 	stp	x29, x30, [sp, #-32]!
    1de0:	910003fd 	mov	x29, sp
/home/hei/Desktop/optee-qemu/optee_os/lib/libutee/tee_api.c:239
    1de4:	910073e0 	add	x0, sp, #0x1c
    1de8:	97fffe4a 	bl	1710 <utee_get_cancellation_flag>
/home/hei/Desktop/optee-qemu/optee_os/lib/libutee/tee_api.c:241
    1dec:	34000040 	cbz	w0, 1df4 <TEE_GetCancellationFlag+0x18>
/home/hei/Desktop/optee-qemu/optee_os/lib/libutee/tee_api.c:242
    1df0:	b9001fff 	str	wzr, [sp, #28]
/home/hei/Desktop/optee-qemu/optee_os/lib/libutee/tee_api.c:243
    1df4:	b9401fe0 	ldr	w0, [sp, #28]
/home/hei/Desktop/optee-qemu/optee_os/lib/libutee/tee_api.c:244
    1df8:	a8c27bfd 	ldp	x29, x30, [sp], #32
/home/hei/Desktop/optee-qemu/optee_os/lib/libutee/tee_api.c:243
    1dfc:	7100001f 	cmp	w0, #0x0
/home/hei/Desktop/optee-qemu/optee_os/lib/libutee/tee_api.c:244
    1e00:	1a9f07e0 	cset	w0, ne  // ne = any
    1e04:	d65f03c0 	ret

0000000000001e08 <TEE_UnmaskCancellation>:
TEE_UnmaskCancellation():
/home/hei/Desktop/optee-qemu/optee_os/lib/libutee/tee_api.c:247
    1e08:	a9be7bfd 	stp	x29, x30, [sp, #-32]!
    1e0c:	910003fd 	mov	x29, sp
/home/hei/Desktop/optee-qemu/optee_os/lib/libutee/tee_api.c:249
    1e10:	910073e0 	add	x0, sp, #0x1c
    1e14:	97fffe45 	bl	1728 <utee_unmask_cancellation>
/home/hei/Desktop/optee-qemu/optee_os/lib/libutee/tee_api.c:251
    1e18:	34000040 	cbz	w0, 1e20 <TEE_UnmaskCancellation+0x18>
/home/hei/Desktop/optee-qemu/optee_os/lib/libutee/tee_api.c:252
    1e1c:	9400017f 	bl	2418 <TEE_Panic>
/home/hei/Desktop/optee-qemu/optee_os/lib/libutee/tee_api.c:253
    1e20:	b9401fe0 	ldr	w0, [sp, #28]
/home/hei/Desktop/optee-qemu/optee_os/lib/libutee/tee_api.c:254
    1e24:	a8c27bfd 	ldp	x29, x30, [sp], #32
/home/hei/Desktop/optee-qemu/optee_os/lib/libutee/tee_api.c:253
    1e28:	7100001f 	cmp	w0, #0x0
/home/hei/Desktop/optee-qemu/optee_os/lib/libutee/tee_api.c:254
    1e2c:	1a9f07e0 	cset	w0, ne  // ne = any
    1e30:	d65f03c0 	ret

0000000000001e34 <TEE_MaskCancellation>:
TEE_MaskCancellation():
/home/hei/Desktop/optee-qemu/optee_os/lib/libutee/tee_api.c:257
    1e34:	a9be7bfd 	stp	x29, x30, [sp, #-32]!
    1e38:	910003fd 	mov	x29, sp
/home/hei/Desktop/optee-qemu/optee_os/lib/libutee/tee_api.c:259
    1e3c:	910073e0 	add	x0, sp, #0x1c
    1e40:	97fffe3d 	bl	1734 <utee_mask_cancellation>
/home/hei/Desktop/optee-qemu/optee_os/lib/libutee/tee_api.c:261
    1e44:	34000040 	cbz	w0, 1e4c <TEE_MaskCancellation+0x18>
/home/hei/Desktop/optee-qemu/optee_os/lib/libutee/tee_api.c:262
    1e48:	94000174 	bl	2418 <TEE_Panic>
/home/hei/Desktop/optee-qemu/optee_os/lib/libutee/tee_api.c:263
    1e4c:	b9401fe0 	ldr	w0, [sp, #28]
/home/hei/Desktop/optee-qemu/optee_os/lib/libutee/tee_api.c:264
    1e50:	a8c27bfd 	ldp	x29, x30, [sp], #32
/home/hei/Desktop/optee-qemu/optee_os/lib/libutee/tee_api.c:263
    1e54:	7100001f 	cmp	w0, #0x0
/home/hei/Desktop/optee-qemu/optee_os/lib/libutee/tee_api.c:264
    1e58:	1a9f07e0 	cset	w0, ne  // ne = any
    1e5c:	d65f03c0 	ret

0000000000001e60 <TEE_CheckMemoryAccessRights>:
TEE_CheckMemoryAccessRights():
/home/hei/Desktop/optee-qemu/optee_os/lib/libutee/tee_api.c:273
    1e60:	34000062 	cbz	w2, 1e6c <TEE_CheckMemoryAccessRights+0xc>
/home/hei/Desktop/optee-qemu/optee_os/lib/libutee/tee_api.c:277
    1e64:	2a0203e2 	mov	w2, w2
    1e68:	17fffe2d 	b	171c <utee_check_access_rights>
/home/hei/Desktop/optee-qemu/optee_os/lib/libutee/tee_api.c:289
    1e6c:	52800000 	mov	w0, #0x0                   	// #0
    1e70:	d65f03c0 	ret

0000000000001e74 <copy_param.constprop.1>:
copy_param():
/home/hei/Desktop/optee-qemu/optee_os/lib/libutee/tee_api.c:19
    1e74:	a9b87bfd 	stp	x29, x30, [sp, #-128]!
    1e78:	910003fd 	mov	x29, sp
    1e7c:	a9046bf9 	stp	x25, x26, [sp, #64]
    1e80:	aa0303f9 	mov	x25, x3
/home/hei/Desktop/optee-qemu/optee_os/lib/libutee/tee_api.c:60
    1e84:	9101e3e3 	add	x3, sp, #0x78
/home/hei/Desktop/optee-qemu/optee_os/lib/libutee/tee_api.c:19
    1e88:	a90363f7 	stp	x23, x24, [sp, #48]
    1e8c:	aa0403f8 	mov	x24, x4
    1e90:	aa0503f7 	mov	x23, x5
    1e94:	a90153f3 	stp	x19, x20, [sp, #16]
    1e98:	aa0003f3 	mov	x19, x0
    1e9c:	aa0203f4 	mov	x20, x2
    1ea0:	a9025bf5 	stp	x21, x22, [sp, #32]
    1ea4:	2a0103f6 	mov	w22, w1
/home/hei/Desktop/optee-qemu/optee_os/lib/libutee/tee_api.c:41
    1ea8:	d2800015 	mov	x21, #0x0                   	// #0
/home/hei/Desktop/optee-qemu/optee_os/lib/libutee/tee_api.c:19
    1eac:	a90573fb 	stp	x27, x28, [sp, #80]
/home/hei/Desktop/optee-qemu/optee_os/lib/libutee/tee_api.c:48
    1eb0:	9100205c 	add	x28, x2, #0x8
/home/hei/Desktop/optee-qemu/optee_os/lib/libutee/tee_api.c:26
    1eb4:	d280001b 	mov	x27, #0x0                   	// #0
/home/hei/Desktop/optee-qemu/optee_os/lib/libutee/tee_api.c:39
    1eb8:	f900033f 	str	xzr, [x25]
/home/hei/Desktop/optee-qemu/optee_os/lib/libutee/tee_api.c:60
    1ebc:	52800024 	mov	w4, #0x1                   	// #1
/home/hei/Desktop/optee-qemu/optee_os/lib/libutee/tee_api.c:40
    1ec0:	f900031f 	str	xzr, [x24]
/home/hei/Desktop/optee-qemu/optee_os/lib/libutee/tee_api.c:28
    1ec4:	b9007bff 	str	wzr, [sp, #120]
/home/hei/Desktop/optee-qemu/optee_os/lib/libutee/tee_api.c:43
    1ec8:	531e76a0 	lsl	w0, w21, #2
/home/hei/Desktop/optee-qemu/optee_os/lib/libutee/tee_api.c:42
    1ecc:	f8357aff 	str	xzr, [x23, x21, lsl #3]
/home/hei/Desktop/optee-qemu/optee_os/lib/libutee/tee_api.c:43
    1ed0:	1ac026c0 	lsr	w0, w22, w0
    1ed4:	12000c00 	and	w0, w0, #0xf
    1ed8:	51001400 	sub	w0, w0, #0x5
    1edc:	7100081f 	cmp	w0, #0x2
    1ee0:	54000268 	b.hi	1f2c <copy_param.constprop.1+0xb8>  // b.pmore
/home/hei/Desktop/optee-qemu/optee_os/lib/libutee/tee_api.c:47
    1ee4:	d37ceea0 	lsl	x0, x21, #4
/home/hei/Desktop/optee-qemu/optee_os/lib/libutee/tee_api.c:48
    1ee8:	b8606b82 	ldr	w2, [x28, x0]
/home/hei/Desktop/optee-qemu/optee_os/lib/libutee/tee_api.c:47
    1eec:	f8606a81 	ldr	x1, [x20, x0]
/home/hei/Desktop/optee-qemu/optee_os/lib/libutee/tee_api.c:48
    1ef0:	2a0203fa 	mov	w26, w2
/home/hei/Desktop/optee-qemu/optee_os/lib/libutee/tee_api.c:58
    1ef4:	f100003f 	cmp	x1, #0x0
    1ef8:	fa401b44 	ccmp	x26, #0x0, #0x4, ne  // ne = any
    1efc:	54000180 	b.eq	1f2c <copy_param.constprop.1+0xb8>  // b.none
/home/hei/Desktop/optee-qemu/optee_os/lib/libutee/tee_api.c:59
    1f00:	52800020 	mov	w0, #0x1                   	// #1
    1f04:	f90033e3 	str	x3, [sp, #96]
    1f08:	b9006fe4 	str	w4, [sp, #108]
    1f0c:	97ffffd5 	bl	1e60 <TEE_CheckMemoryAccessRights>
/home/hei/Desktop/optee-qemu/optee_os/lib/libutee/tee_api.c:58
    1f10:	b9406fe4 	ldr	w4, [sp, #108]
    1f14:	f94033e3 	ldr	x3, [sp, #96]
    1f18:	350000a0 	cbnz	w0, 1f2c <copy_param.constprop.1+0xb8>
/home/hei/Desktop/optee-qemu/optee_os/lib/libutee/tee_api.c:61
    1f1c:	91003f5a 	add	x26, x26, #0xf
/home/hei/Desktop/optee-qemu/optee_os/lib/libutee/tee_api.c:60
    1f20:	38236aa4 	strb	w4, [x21, x3]
/home/hei/Desktop/optee-qemu/optee_os/lib/libutee/tee_api.c:61
    1f24:	927cef5a 	and	x26, x26, #0xfffffffffffffff0
    1f28:	8b1a037b 	add	x27, x27, x26
/home/hei/Desktop/optee-qemu/optee_os/lib/libutee/tee_api.c:41
    1f2c:	910006b5 	add	x21, x21, #0x1
    1f30:	f10012bf 	cmp	x21, #0x4
    1f34:	54fffca1 	b.ne	1ec8 <copy_param.constprop.1+0x54>  // b.any
/home/hei/Desktop/optee-qemu/optee_os/lib/libutee/tee_api.c:69
    1f38:	b400031b 	cbz	x27, 1f98 <copy_param.constprop.1+0x124>
/home/hei/Desktop/optee-qemu/optee_os/lib/libutee/tee_api.c:70
    1f3c:	2a1503e1 	mov	w1, w21
    1f40:	aa1b03e0 	mov	x0, x27
    1f44:	94000159 	bl	24a8 <tee_map_zi>
    1f48:	aa0003e3 	mov	x3, x0
/home/hei/Desktop/optee-qemu/optee_os/lib/libutee/tee_api.c:71
    1f4c:	b4000780 	cbz	x0, 203c <copy_param.constprop.1+0x1c8>
/home/hei/Desktop/optee-qemu/optee_os/lib/libutee/tee_api.c:73
    1f50:	f9000320 	str	x0, [x25]
/home/hei/Desktop/optee-qemu/optee_os/lib/libutee/tee_api.c:74
    1f54:	f900031b 	str	x27, [x24]
/home/hei/Desktop/optee-qemu/optee_os/lib/libutee/tee_api.c:79
    1f58:	b0000059 	adrp	x25, a000 <__text_end+0x1540>
/home/hei/Desktop/optee-qemu/optee_os/lib/libutee/tee_api.c:89
    1f5c:	9101e3fb 	add	x27, sp, #0x78
/home/hei/Desktop/optee-qemu/optee_os/lib/libutee/tee_api.c:79
    1f60:	91177339 	add	x25, x25, #0x5dc
/home/hei/Desktop/optee-qemu/optee_os/lib/libutee/tee_api.c:77
    1f64:	2a1603e0 	mov	w0, w22
/home/hei/Desktop/optee-qemu/optee_os/lib/libutee/tee_api.c:78
    1f68:	d2800015 	mov	x21, #0x0                   	// #0
/home/hei/Desktop/optee-qemu/optee_os/lib/libutee/tee_api.c:77
    1f6c:	f8008660 	str	x0, [x19], #8
/home/hei/Desktop/optee-qemu/optee_os/lib/libutee/tee_api.c:79
    1f70:	531e76a0 	lsl	w0, w21, #2
    1f74:	1ac026c0 	lsr	w0, w22, w0
    1f78:	12000c00 	and	w0, w0, #0xf
    1f7c:	51000401 	sub	w1, w0, #0x1
    1f80:	7100183f 	cmp	w1, #0x6
    1f84:	54000588 	b.hi	2034 <copy_param.constprop.1+0x1c0>  // b.pmore
    1f88:	38614b21 	ldrb	w1, [x25, w1, uxtw]
    1f8c:	10000062 	adr	x2, 1f98 <copy_param.constprop.1+0x124>
    1f90:	8b218841 	add	x1, x2, w1, sxtb #2
    1f94:	d61f0020 	br	x1
/home/hei/Desktop/optee-qemu/optee_os/lib/libutee/tee_api.c:25
    1f98:	d2800003 	mov	x3, #0x0                   	// #0
    1f9c:	17ffffef 	b	1f58 <copy_param.constprop.1+0xe4>
/home/hei/Desktop/optee-qemu/optee_os/lib/libutee/tee_api.c:82
    1fa0:	b9400280 	ldr	w0, [x20]
    1fa4:	f9000260 	str	x0, [x19]
/home/hei/Desktop/optee-qemu/optee_os/lib/libutee/tee_api.c:83
    1fa8:	b9400680 	ldr	w0, [x20, #4]
    1fac:	f9000660 	str	x0, [x19, #8]
/home/hei/Desktop/optee-qemu/optee_os/lib/libutee/tee_api.c:78
    1fb0:	910006b5 	add	x21, x21, #0x1
    1fb4:	91004294 	add	x20, x20, #0x10
    1fb8:	91004273 	add	x19, x19, #0x10
    1fbc:	f10012bf 	cmp	x21, #0x4
    1fc0:	54fffd81 	b.ne	1f70 <copy_param.constprop.1+0xfc>  // b.any
/home/hei/Desktop/optee-qemu/optee_os/lib/libutee/tee_api.c:109
    1fc4:	52800000 	mov	w0, #0x0                   	// #0
/home/hei/Desktop/optee-qemu/optee_os/lib/libutee/tee_api.c:110
    1fc8:	a94153f3 	ldp	x19, x20, [sp, #16]
    1fcc:	a9425bf5 	ldp	x21, x22, [sp, #32]
    1fd0:	a94363f7 	ldp	x23, x24, [sp, #48]
    1fd4:	a9446bf9 	ldp	x25, x26, [sp, #64]
    1fd8:	a94573fb 	ldp	x27, x28, [sp, #80]
    1fdc:	a8c87bfd 	ldp	x29, x30, [sp], #128
    1fe0:	d65f03c0 	ret
/home/hei/Desktop/optee-qemu/optee_os/lib/libutee/tee_api.c:89
    1fe4:	387b6aa1 	ldrb	w1, [x21, x27]
/home/hei/Desktop/optee-qemu/optee_os/lib/libutee/tee_api.c:88
    1fe8:	b9400a9a 	ldr	w26, [x20, #8]
/home/hei/Desktop/optee-qemu/optee_os/lib/libutee/tee_api.c:89
    1fec:	340001e1 	cbz	w1, 2028 <copy_param.constprop.1+0x1b4>
/home/hei/Desktop/optee-qemu/optee_os/lib/libutee/tee_api.c:92
    1ff0:	91003f58 	add	x24, x26, #0xf
/home/hei/Desktop/optee-qemu/optee_os/lib/libutee/tee_api.c:91
    1ff4:	f8357ae3 	str	x3, [x23, x21, lsl #3]
/home/hei/Desktop/optee-qemu/optee_os/lib/libutee/tee_api.c:92
    1ff8:	927cef18 	and	x24, x24, #0xfffffffffffffff0
/home/hei/Desktop/optee-qemu/optee_os/lib/libutee/tee_api.c:93
    1ffc:	7100181f 	cmp	w0, #0x6
/home/hei/Desktop/optee-qemu/optee_os/lib/libutee/tee_api.c:92
    2000:	8b180078 	add	x24, x3, x24
/home/hei/Desktop/optee-qemu/optee_os/lib/libutee/tee_api.c:93
    2004:	540000c0 	b.eq	201c <copy_param.constprop.1+0x1a8>  // b.none
/home/hei/Desktop/optee-qemu/optee_os/lib/libutee/tee_api.c:95
    2008:	f9400281 	ldr	x1, [x20]
    200c:	aa0303e0 	mov	x0, x3
    2010:	aa1a03e2 	mov	x2, x26
    2014:	97fff8bf 	bl	310 <memcpy>
    2018:	aa0003e3 	mov	x3, x0
/home/hei/Desktop/optee-qemu/optee_os/lib/libutee/tee_api.c:100
    201c:	a9006a63 	stp	x3, x26, [x19]
    2020:	aa1803e3 	mov	x3, x24
    2024:	17ffffe3 	b	1fb0 <copy_param.constprop.1+0x13c>
/home/hei/Desktop/optee-qemu/optee_os/lib/libutee/tee_api.c:97
    2028:	aa0303f8 	mov	x24, x3
    202c:	f9400283 	ldr	x3, [x20]
    2030:	17fffffb 	b	201c <copy_param.constprop.1+0x1a8>
/home/hei/Desktop/optee-qemu/optee_os/lib/libutee/tee_api.c:104
    2034:	a9007e7f 	stp	xzr, xzr, [x19]
/home/hei/Desktop/optee-qemu/optee_os/lib/libutee/tee_api.c:105
    2038:	17ffffde 	b	1fb0 <copy_param.constprop.1+0x13c>
/home/hei/Desktop/optee-qemu/optee_os/lib/libutee/tee_api.c:72
    203c:	129ffe60 	mov	w0, #0xffff000c            	// #-65524
    2040:	17ffffe2 	b	1fc8 <copy_param.constprop.1+0x154>

0000000000002044 <TEE_InvokeTACommand>:
TEE_InvokeTACommand():
/home/hei/Desktop/optee-qemu/optee_os/lib/libutee/tee_api.c:197
    2044:	a9b37bfd 	stp	x29, x30, [sp, #-208]!
    2048:	910003fd 	mov	x29, sp
    204c:	a90153f3 	stp	x19, x20, [sp, #16]
/home/hei/Desktop/optee-qemu/optee_os/lib/libutee/tee_api.c:205
    2050:	910223f4 	add	x20, sp, #0x88
/home/hei/Desktop/optee-qemu/optee_os/lib/libutee/tee_api.c:197
    2054:	a9025bf5 	stp	x21, x22, [sp, #32]
    2058:	aa0403f6 	mov	x22, x4
    205c:	aa0503f5 	mov	x21, x5
    2060:	a90363f7 	stp	x23, x24, [sp, #48]
    2064:	aa0003f8 	mov	x24, x0
/home/hei/Desktop/optee-qemu/optee_os/lib/libutee/tee_api.c:205
    2068:	9101a3f7 	add	x23, sp, #0x68
/home/hei/Desktop/optee-qemu/optee_os/lib/libutee/tee_api.c:199
    206c:	52800060 	mov	w0, #0x3                   	// #3
/home/hei/Desktop/optee-qemu/optee_os/lib/libutee/tee_api.c:205
    2070:	aa1703e5 	mov	x5, x23
    2074:	910183e4 	add	x4, sp, #0x60
/home/hei/Desktop/optee-qemu/optee_os/lib/libutee/tee_api.c:197
    2078:	a9046bf9 	stp	x25, x26, [sp, #64]
    207c:	2a0103f9 	mov	w25, w1
    2080:	2a0203fa 	mov	w26, w2
    2084:	2a0303e1 	mov	w1, w3
/home/hei/Desktop/optee-qemu/optee_os/lib/libutee/tee_api.c:205
    2088:	aa1603e2 	mov	x2, x22
    208c:	910163e3 	add	x3, sp, #0x58
/home/hei/Desktop/optee-qemu/optee_os/lib/libutee/tee_api.c:199
    2090:	b90057e0 	str	w0, [sp, #84]
/home/hei/Desktop/optee-qemu/optee_os/lib/libutee/tee_api.c:205
    2094:	aa1403e0 	mov	x0, x20
/home/hei/Desktop/optee-qemu/optee_os/lib/libutee/tee_api.c:202
    2098:	a905ffff 	stp	xzr, xzr, [sp, #88]
/home/hei/Desktop/optee-qemu/optee_os/lib/libutee/tee_api.c:203
    209c:	a906ffff 	stp	xzr, xzr, [sp, #104]
    20a0:	a907ffff 	stp	xzr, xzr, [sp, #120]
/home/hei/Desktop/optee-qemu/optee_os/lib/libutee/tee_api.c:205
    20a4:	97ffff74 	bl	1e74 <copy_param.constprop.1>
    20a8:	2a0003f3 	mov	w19, w0
/home/hei/Desktop/optee-qemu/optee_os/lib/libutee/tee_api.c:206
    20ac:	35000240 	cbnz	w0, 20f4 <TEE_InvokeTACommand+0xb0>
/home/hei/Desktop/optee-qemu/optee_os/lib/libutee/tee_api.c:208
    20b0:	910153e4 	add	x4, sp, #0x54
    20b4:	aa1403e3 	mov	x3, x20
    20b8:	2a1a03e2 	mov	w2, w26
    20bc:	2a1903e1 	mov	w1, w25
    20c0:	aa1803e0 	mov	x0, x24
    20c4:	97fffd90 	bl	1704 <utee_invoke_ta_command>
/home/hei/Desktop/optee-qemu/optee_os/lib/libutee/tee_api.c:211
    20c8:	aa1403e2 	mov	x2, x20
/home/hei/Desktop/optee-qemu/optee_os/lib/libutee/tee_api.c:208
    20cc:	2a0003f3 	mov	w19, w0
/home/hei/Desktop/optee-qemu/optee_os/lib/libutee/tee_api.c:211
    20d0:	aa1703e1 	mov	x1, x23
    20d4:	aa1603e0 	mov	x0, x22
    20d8:	97ffff09 	bl	1cfc <update_out_param>
/home/hei/Desktop/optee-qemu/optee_os/lib/libutee/tee_api.c:212
    20dc:	f9402fe0 	ldr	x0, [sp, #88]
    20e0:	b40000a0 	cbz	x0, 20f4 <TEE_InvokeTACommand+0xb0>
/home/hei/Desktop/optee-qemu/optee_os/lib/libutee/tee_api.c:213
    20e4:	f94033e1 	ldr	x1, [sp, #96]
    20e8:	9400010d 	bl	251c <tee_unmap>
/home/hei/Desktop/optee-qemu/optee_os/lib/libutee/tee_api.c:215
    20ec:	34000040 	cbz	w0, 20f4 <TEE_InvokeTACommand+0xb0>
/home/hei/Desktop/optee-qemu/optee_os/lib/libutee/tee_api.c:216
    20f0:	940000ca 	bl	2418 <TEE_Panic>
/home/hei/Desktop/optee-qemu/optee_os/lib/libutee/tee_api.c:220
    20f4:	b94057e0 	ldr	w0, [sp, #84]
    20f8:	b4000055 	cbz	x21, 2100 <TEE_InvokeTACommand+0xbc>
/home/hei/Desktop/optee-qemu/optee_os/lib/libutee/tee_api.c:221
    20fc:	b90002a0 	str	w0, [x21]
/home/hei/Desktop/optee-qemu/optee_os/lib/libutee/tee_api.c:223
    2100:	7100101f 	cmp	w0, #0x4
    2104:	54000140 	b.eq	212c <TEE_InvokeTACommand+0xe8>  // b.none
/home/hei/Desktop/optee-qemu/optee_os/lib/libutee/tee_api.c:226
    2108:	7100027f 	cmp	w19, #0x0
    210c:	129ffe60 	mov	w0, #0xffff000c            	// #-65524
    2110:	7a401264 	ccmp	w19, w0, #0x4, ne  // ne = any
    2114:	540000c0 	b.eq	212c <TEE_InvokeTACommand+0xe8>  // b.none
/home/hei/Desktop/optee-qemu/optee_os/lib/libutee/tee_api.c:227
    2118:	1299fb60 	mov	w0, #0xffff3024            	// #-53212
    211c:	6b00027f 	cmp	w19, w0
    2120:	54000060 	b.eq	212c <TEE_InvokeTACommand+0xe8>  // b.none
/home/hei/Desktop/optee-qemu/optee_os/lib/libutee/tee_api.c:229
    2124:	2a1303e0 	mov	w0, w19
    2128:	940000bc 	bl	2418 <TEE_Panic>
/home/hei/Desktop/optee-qemu/optee_os/lib/libutee/tee_api.c:232
    212c:	2a1303e0 	mov	w0, w19
    2130:	a94153f3 	ldp	x19, x20, [sp, #16]
    2134:	a9425bf5 	ldp	x21, x22, [sp, #32]
    2138:	a94363f7 	ldp	x23, x24, [sp, #48]
    213c:	a9446bf9 	ldp	x25, x26, [sp, #64]
    2140:	a8cd7bfd 	ldp	x29, x30, [sp], #208
    2144:	d65f03c0 	ret

0000000000002148 <TEE_OpenTASession>:
TEE_OpenTASession():
/home/hei/Desktop/optee-qemu/optee_os/lib/libutee/tee_api.c:148
    2148:	a9b37bfd 	stp	x29, x30, [sp, #-208]!
    214c:	910003fd 	mov	x29, sp
    2150:	a90153f3 	stp	x19, x20, [sp, #16]
/home/hei/Desktop/optee-qemu/optee_os/lib/libutee/tee_api.c:156
    2154:	910223f4 	add	x20, sp, #0x88
/home/hei/Desktop/optee-qemu/optee_os/lib/libutee/tee_api.c:148
    2158:	a9025bf5 	stp	x21, x22, [sp, #32]
    215c:	aa0303f5 	mov	x21, x3
/home/hei/Desktop/optee-qemu/optee_os/lib/libutee/tee_api.c:156
    2160:	9101a3f6 	add	x22, sp, #0x68
    2164:	910163e3 	add	x3, sp, #0x58
/home/hei/Desktop/optee-qemu/optee_os/lib/libutee/tee_api.c:148
    2168:	a90363f7 	stp	x23, x24, [sp, #48]
    216c:	aa0003f8 	mov	x24, x0
    2170:	aa0403f7 	mov	x23, x4
/home/hei/Desktop/optee-qemu/optee_os/lib/libutee/tee_api.c:156
    2174:	aa1403e0 	mov	x0, x20
    2178:	910183e4 	add	x4, sp, #0x60
/home/hei/Desktop/optee-qemu/optee_os/lib/libutee/tee_api.c:148
    217c:	a9046bf9 	stp	x25, x26, [sp, #64]
    2180:	2a0103f9 	mov	w25, w1
    2184:	aa0503fa 	mov	x26, x5
    2188:	2a0203e1 	mov	w1, w2
/home/hei/Desktop/optee-qemu/optee_os/lib/libutee/tee_api.c:156
    218c:	aa1603e5 	mov	x5, x22
    2190:	aa1503e2 	mov	x2, x21
/home/hei/Desktop/optee-qemu/optee_os/lib/libutee/tee_api.c:151
    2194:	b90057ff 	str	wzr, [sp, #84]
/home/hei/Desktop/optee-qemu/optee_os/lib/libutee/tee_api.c:153
    2198:	a905ffff 	stp	xzr, xzr, [sp, #88]
/home/hei/Desktop/optee-qemu/optee_os/lib/libutee/tee_api.c:154
    219c:	a906ffff 	stp	xzr, xzr, [sp, #104]
    21a0:	a907ffff 	stp	xzr, xzr, [sp, #120]
/home/hei/Desktop/optee-qemu/optee_os/lib/libutee/tee_api.c:156
    21a4:	97ffff34 	bl	1e74 <copy_param.constprop.1>
/home/hei/Desktop/optee-qemu/optee_os/lib/libutee/tee_api.c:157
    21a8:	350003a0 	cbnz	w0, 221c <TEE_OpenTASession+0xd4>
/home/hei/Desktop/optee-qemu/optee_os/lib/libutee/tee_api.c:159
    21ac:	aa1a03e4 	mov	x4, x26
    21b0:	910153e3 	add	x3, sp, #0x54
    21b4:	aa1403e2 	mov	x2, x20
    21b8:	2a1903e1 	mov	w1, w25
    21bc:	aa1803e0 	mov	x0, x24
    21c0:	97fffd4b 	bl	16ec <utee_open_ta_session>
/home/hei/Desktop/optee-qemu/optee_os/lib/libutee/tee_api.c:161
    21c4:	aa1403e2 	mov	x2, x20
/home/hei/Desktop/optee-qemu/optee_os/lib/libutee/tee_api.c:159
    21c8:	2a0003f3 	mov	w19, w0
/home/hei/Desktop/optee-qemu/optee_os/lib/libutee/tee_api.c:161
    21cc:	aa1603e1 	mov	x1, x22
    21d0:	aa1503e0 	mov	x0, x21
    21d4:	97fffeca 	bl	1cfc <update_out_param>
/home/hei/Desktop/optee-qemu/optee_os/lib/libutee/tee_api.c:162
    21d8:	f9402fe0 	ldr	x0, [sp, #88]
    21dc:	b40000a0 	cbz	x0, 21f0 <TEE_OpenTASession+0xa8>
/home/hei/Desktop/optee-qemu/optee_os/lib/libutee/tee_api.c:163
    21e0:	f94033e1 	ldr	x1, [sp, #96]
    21e4:	940000ce 	bl	251c <tee_unmap>
/home/hei/Desktop/optee-qemu/optee_os/lib/libutee/tee_api.c:165
    21e8:	34000040 	cbz	w0, 21f0 <TEE_OpenTASession+0xa8>
/home/hei/Desktop/optee-qemu/optee_os/lib/libutee/tee_api.c:166
    21ec:	9400008b 	bl	2418 <TEE_Panic>
/home/hei/Desktop/optee-qemu/optee_os/lib/libutee/tee_api.c:175
    21f0:	34000053 	cbz	w19, 21f8 <TEE_OpenTASession+0xb0>
/home/hei/Desktop/optee-qemu/optee_os/lib/libutee/tee_api.c:176
    21f4:	b90057ff 	str	wzr, [sp, #84]
/home/hei/Desktop/optee-qemu/optee_os/lib/libutee/tee_api.c:178
    21f8:	b94057e0 	ldr	w0, [sp, #84]
/home/hei/Desktop/optee-qemu/optee_os/lib/libutee/tee_api.c:180
    21fc:	a9425bf5 	ldp	x21, x22, [sp, #32]
    2200:	a9446bf9 	ldp	x25, x26, [sp, #64]
/home/hei/Desktop/optee-qemu/optee_os/lib/libutee/tee_api.c:178
    2204:	f90002e0 	str	x0, [x23]
/home/hei/Desktop/optee-qemu/optee_os/lib/libutee/tee_api.c:180
    2208:	2a1303e0 	mov	w0, w19
    220c:	a94153f3 	ldp	x19, x20, [sp, #16]
    2210:	a94363f7 	ldp	x23, x24, [sp, #48]
    2214:	a8cd7bfd 	ldp	x29, x30, [sp], #208
    2218:	d65f03c0 	ret
    221c:	2a0003f3 	mov	w19, w0
    2220:	17fffff5 	b	21f4 <TEE_OpenTASession+0xac>

0000000000002224 <TEE_SetInstanceData>:
TEE_SetInstanceData():
/home/hei/Desktop/optee-qemu/optee_os/lib/libutee/tee_api.c:293
    2224:	d0000041 	adrp	x1, c000 <_DYNAMIC>
    2228:	f9023820 	str	x0, [x1, #1136]
/home/hei/Desktop/optee-qemu/optee_os/lib/libutee/tee_api.c:294
    222c:	d65f03c0 	ret

0000000000002230 <TEE_GetInstanceData>:
TEE_GetInstanceData():
/home/hei/Desktop/optee-qemu/optee_os/lib/libutee/tee_api.c:299
    2230:	d0000040 	adrp	x0, c000 <_DYNAMIC>
    2234:	f9423800 	ldr	x0, [x0, #1136]
    2238:	d65f03c0 	ret

000000000000223c <TEE_MemMove>:
TEE_MemMove():
/home/hei/Desktop/optee-qemu/optee_os/lib/libutee/tee_api.c:303
    223c:	2a0203e2 	mov	w2, w2
    2240:	14001966 	b	87d8 <memmove>

0000000000002244 <TEE_MemCompare>:
TEE_MemCompare():
/home/hei/Desktop/optee-qemu/optee_os/lib/libutee/tee_api.c:308
    2244:	2a0203e2 	mov	w2, w2
    2248:	140019ec 	b	89f8 <consttime_memcmp>

000000000000224c <TEE_MemFill>:
TEE_MemFill():
/home/hei/Desktop/optee-qemu/optee_os/lib/libutee/tee_api.c:313
    224c:	2a0203e2 	mov	w2, w2
    2250:	14001979 	b	8834 <memset>

0000000000002254 <TEE_GetSystemTime>:
TEE_GetSystemTime():
/home/hei/Desktop/optee-qemu/optee_os/lib/libutee/tee_api.c:319
    2254:	a9bf7bfd 	stp	x29, x30, [sp, #-16]!
/home/hei/Desktop/optee-qemu/optee_os/lib/libutee/tee_api.c:320
    2258:	aa0003e1 	mov	x1, x0
    225c:	d2800000 	mov	x0, #0x0                   	// #0
/home/hei/Desktop/optee-qemu/optee_os/lib/libutee/tee_api.c:319
    2260:	910003fd 	mov	x29, sp
/home/hei/Desktop/optee-qemu/optee_os/lib/libutee/tee_api.c:320
    2264:	97fffd3a 	bl	174c <utee_get_time>
/home/hei/Desktop/optee-qemu/optee_os/lib/libutee/tee_api.c:322
    2268:	34000060 	cbz	w0, 2274 <TEE_GetSystemTime+0x20>
/home/hei/Desktop/optee-qemu/optee_os/lib/libutee/tee_api.c:324
    226c:	a8c17bfd 	ldp	x29, x30, [sp], #16
/home/hei/Desktop/optee-qemu/optee_os/lib/libutee/tee_api.c:323
    2270:	1400006a 	b	2418 <TEE_Panic>
/home/hei/Desktop/optee-qemu/optee_os/lib/libutee/tee_api.c:324
    2274:	a8c17bfd 	ldp	x29, x30, [sp], #16
    2278:	d65f03c0 	ret

000000000000227c <TEE_Wait>:
TEE_Wait():
/home/hei/Desktop/optee-qemu/optee_os/lib/libutee/tee_api.c:327
    227c:	a9be7bfd 	stp	x29, x30, [sp, #-32]!
/home/hei/Desktop/optee-qemu/optee_os/lib/libutee/tee_api.c:328
    2280:	2a0003e0 	mov	w0, w0
/home/hei/Desktop/optee-qemu/optee_os/lib/libutee/tee_api.c:327
    2284:	910003fd 	mov	x29, sp
    2288:	f9000bf3 	str	x19, [sp, #16]
/home/hei/Desktop/optee-qemu/optee_os/lib/libutee/tee_api.c:328
    228c:	97fffd2d 	bl	1740 <utee_wait>
/home/hei/Desktop/optee-qemu/optee_os/lib/libutee/tee_api.c:330
    2290:	7100001f 	cmp	w0, #0x0
    2294:	129fffa1 	mov	w1, #0xffff0002            	// #-65534
/home/hei/Desktop/optee-qemu/optee_os/lib/libutee/tee_api.c:328
    2298:	2a0003f3 	mov	w19, w0
/home/hei/Desktop/optee-qemu/optee_os/lib/libutee/tee_api.c:330
    229c:	7a411004 	ccmp	w0, w1, #0x4, ne  // ne = any
    22a0:	54000040 	b.eq	22a8 <TEE_Wait+0x2c>  // b.none
/home/hei/Desktop/optee-qemu/optee_os/lib/libutee/tee_api.c:331
    22a4:	9400005d 	bl	2418 <TEE_Panic>
/home/hei/Desktop/optee-qemu/optee_os/lib/libutee/tee_api.c:334
    22a8:	2a1303e0 	mov	w0, w19
    22ac:	f9400bf3 	ldr	x19, [sp, #16]
    22b0:	a8c27bfd 	ldp	x29, x30, [sp], #32
    22b4:	d65f03c0 	ret

00000000000022b8 <TEE_GetTAPersistentTime>:
TEE_GetTAPersistentTime():
/home/hei/Desktop/optee-qemu/optee_os/lib/libutee/tee_api.c:337
    22b8:	a9be7bfd 	stp	x29, x30, [sp, #-32]!
/home/hei/Desktop/optee-qemu/optee_os/lib/libutee/tee_api.c:340
    22bc:	aa0003e1 	mov	x1, x0
/home/hei/Desktop/optee-qemu/optee_os/lib/libutee/tee_api.c:337
    22c0:	910003fd 	mov	x29, sp
    22c4:	a90153f3 	stp	x19, x20, [sp, #16]
    22c8:	aa0003f4 	mov	x20, x0
/home/hei/Desktop/optee-qemu/optee_os/lib/libutee/tee_api.c:340
    22cc:	d2800020 	mov	x0, #0x1                   	// #1
    22d0:	97fffd1f 	bl	174c <utee_get_time>
/home/hei/Desktop/optee-qemu/optee_os/lib/libutee/tee_api.c:342
    22d4:	7100001f 	cmp	w0, #0x0
/home/hei/Desktop/optee-qemu/optee_os/lib/libutee/tee_api.c:340
    22d8:	2a0003f3 	mov	w19, w0
/home/hei/Desktop/optee-qemu/optee_os/lib/libutee/tee_api.c:342
    22dc:	1a9f07e2 	cset	w2, ne  // ne = any
    22e0:	1299fe00 	mov	w0, #0xffff300f            	// #-53233
    22e4:	6b00027f 	cmp	w19, w0
    22e8:	1a9f1041 	csel	w1, w2, wzr, ne  // ne = any
    22ec:	34000041 	cbz	w1, 22f4 <TEE_GetTAPersistentTime+0x3c>
/home/hei/Desktop/optee-qemu/optee_os/lib/libutee/tee_api.c:344
    22f0:	29007e9f 	stp	wzr, wzr, [x20]
/home/hei/Desktop/optee-qemu/optee_os/lib/libutee/tee_api.c:348
    22f4:	11402e60 	add	w0, w19, #0xb, lsl #12
/home/hei/Desktop/optee-qemu/optee_os/lib/libutee/tee_api.c:347
    22f8:	7100005f 	cmp	w2, #0x0
    22fc:	7a411800 	ccmp	w0, #0x1, #0x0, ne  // ne = any
    2300:	540000e9 	b.ls	231c <TEE_GetTAPersistentTime+0x64>  // b.plast
/home/hei/Desktop/optee-qemu/optee_os/lib/libutee/tee_api.c:349
    2304:	340000c1 	cbz	w1, 231c <TEE_GetTAPersistentTime+0x64>
/home/hei/Desktop/optee-qemu/optee_os/lib/libutee/tee_api.c:350
    2308:	129ffe60 	mov	w0, #0xffff000c            	// #-65524
    230c:	6b00027f 	cmp	w19, w0
    2310:	54000060 	b.eq	231c <TEE_GetTAPersistentTime+0x64>  // b.none
/home/hei/Desktop/optee-qemu/optee_os/lib/libutee/tee_api.c:352
    2314:	2a1303e0 	mov	w0, w19
    2318:	94000040 	bl	2418 <TEE_Panic>
/home/hei/Desktop/optee-qemu/optee_os/lib/libutee/tee_api.c:355
    231c:	2a1303e0 	mov	w0, w19
    2320:	a94153f3 	ldp	x19, x20, [sp, #16]
    2324:	a8c27bfd 	ldp	x29, x30, [sp], #32
    2328:	d65f03c0 	ret

000000000000232c <TEE_SetTAPersistentTime>:
TEE_SetTAPersistentTime():
/home/hei/Desktop/optee-qemu/optee_os/lib/libutee/tee_api.c:358
    232c:	a9be7bfd 	stp	x29, x30, [sp, #-32]!
    2330:	910003fd 	mov	x29, sp
    2334:	f9000bf3 	str	x19, [sp, #16]
/home/hei/Desktop/optee-qemu/optee_os/lib/libutee/tee_api.c:361
    2338:	97fffd08 	bl	1758 <utee_set_ta_time>
/home/hei/Desktop/optee-qemu/optee_os/lib/libutee/tee_api.c:363
    233c:	7100001f 	cmp	w0, #0x0
    2340:	129ffe61 	mov	w1, #0xffff000c            	// #-65524
/home/hei/Desktop/optee-qemu/optee_os/lib/libutee/tee_api.c:361
    2344:	2a0003f3 	mov	w19, w0
/home/hei/Desktop/optee-qemu/optee_os/lib/libutee/tee_api.c:363
    2348:	7a411004 	ccmp	w0, w1, #0x4, ne  // ne = any
    234c:	540000a0 	b.eq	2360 <TEE_SetTAPersistentTime+0x34>  // b.none
/home/hei/Desktop/optee-qemu/optee_os/lib/libutee/tee_api.c:364
    2350:	1299f7c1 	mov	w1, #0xffff3041            	// #-53183
    2354:	6b01001f 	cmp	w0, w1
    2358:	54000040 	b.eq	2360 <TEE_SetTAPersistentTime+0x34>  // b.none
/home/hei/Desktop/optee-qemu/optee_os/lib/libutee/tee_api.c:366
    235c:	9400002f 	bl	2418 <TEE_Panic>
/home/hei/Desktop/optee-qemu/optee_os/lib/libutee/tee_api.c:369
    2360:	2a1303e0 	mov	w0, w19
    2364:	f9400bf3 	ldr	x19, [sp, #16]
    2368:	a8c27bfd 	ldp	x29, x30, [sp], #32
    236c:	d65f03c0 	ret

0000000000002370 <TEE_GetREETime>:
TEE_GetREETime():
/home/hei/Desktop/optee-qemu/optee_os/lib/libutee/tee_api.c:372
    2370:	a9bf7bfd 	stp	x29, x30, [sp, #-16]!
/home/hei/Desktop/optee-qemu/optee_os/lib/libutee/tee_api.c:373
    2374:	aa0003e1 	mov	x1, x0
    2378:	d2800040 	mov	x0, #0x2                   	// #2
/home/hei/Desktop/optee-qemu/optee_os/lib/libutee/tee_api.c:372
    237c:	910003fd 	mov	x29, sp
/home/hei/Desktop/optee-qemu/optee_os/lib/libutee/tee_api.c:373
    2380:	97fffcf3 	bl	174c <utee_get_time>
/home/hei/Desktop/optee-qemu/optee_os/lib/libutee/tee_api.c:375
    2384:	34000060 	cbz	w0, 2390 <TEE_GetREETime+0x20>
/home/hei/Desktop/optee-qemu/optee_os/lib/libutee/tee_api.c:377
    2388:	a8c17bfd 	ldp	x29, x30, [sp], #16
/home/hei/Desktop/optee-qemu/optee_os/lib/libutee/tee_api.c:376
    238c:	14000023 	b	2418 <TEE_Panic>
/home/hei/Desktop/optee-qemu/optee_os/lib/libutee/tee_api.c:377
    2390:	a8c17bfd 	ldp	x29, x30, [sp], #16
    2394:	d65f03c0 	ret

0000000000002398 <TEE_Malloc>:
TEE_Malloc():
/home/hei/Desktop/optee-qemu/optee_os/lib/libutee/tee_api.c:381
    2398:	35000081 	cbnz	w1, 23a8 <TEE_Malloc+0x10>
/home/hei/Desktop/optee-qemu/optee_os/lib/libutee/tee_api.c:382
    239c:	2a0003e1 	mov	w1, w0
    23a0:	d2800020 	mov	x0, #0x1                   	// #1
    23a4:	140017d2 	b	82ec <calloc>
/home/hei/Desktop/optee-qemu/optee_os/lib/libutee/tee_api.c:383
    23a8:	52b00002 	mov	w2, #0x80000000            	// #-2147483648
    23ac:	6b02003f 	cmp	w1, w2
    23b0:	54000061 	b.ne	23bc <TEE_Malloc+0x24>  // b.any
/home/hei/Desktop/optee-qemu/optee_os/lib/libutee/tee_api.c:384
    23b4:	2a0003e0 	mov	w0, w0
    23b8:	140017b9 	b	829c <malloc>
/home/hei/Desktop/optee-qemu/optee_os/lib/libutee/tee_api.c:380
    23bc:	a9bf7bfd 	stp	x29, x30, [sp, #-16]!
    23c0:	2a0103e5 	mov	w5, w1
/home/hei/Desktop/optee-qemu/optee_os/lib/libutee/tee_api.c:386
    23c4:	52800023 	mov	w3, #0x1                   	// #1
/home/hei/Desktop/optee-qemu/optee_os/lib/libutee/tee_api.c:380
    23c8:	910003fd 	mov	x29, sp
/home/hei/Desktop/optee-qemu/optee_os/lib/libutee/tee_api.c:386
    23cc:	52800022 	mov	w2, #0x1                   	// #1
    23d0:	52803041 	mov	w1, #0x182                 	// #386
    23d4:	90000044 	adrp	x4, a000 <__text_end+0x1540>
    23d8:	90000040 	adrp	x0, a000 <__text_end+0x1540>
    23dc:	912f4884 	add	x4, x4, #0xbd2
    23e0:	91178c00 	add	x0, x0, #0x5e3
    23e4:	97fff88b 	bl	610 <trace_printf>
/home/hei/Desktop/optee-qemu/optee_os/lib/libutee/tee_api.c:389
    23e8:	d2800000 	mov	x0, #0x0                   	// #0
    23ec:	a8c17bfd 	ldp	x29, x30, [sp], #16
    23f0:	d65f03c0 	ret

00000000000023f4 <TEE_Realloc>:
TEE_Realloc():
/home/hei/Desktop/optee-qemu/optee_os/lib/libutee/tee_api.c:393
    23f4:	2a0103e1 	mov	w1, w1
    23f8:	140017d6 	b	8350 <realloc>

00000000000023fc <TEE_Free>:
TEE_Free():
/home/hei/Desktop/optee-qemu/optee_os/lib/libutee/tee_api.c:398
    23fc:	140017e9 	b	83a0 <free>

0000000000002400 <TEE_CacheClean>:
TEE_CacheClean():
/home/hei/Desktop/optee-qemu/optee_os/lib/libutee/tee_api.c:404
    2400:	d2800002 	mov	x2, #0x0                   	// #0
    2404:	17fffd50 	b	1944 <utee_cache_operation>

0000000000002408 <TEE_CacheFlush>:
TEE_CacheFlush():
/home/hei/Desktop/optee-qemu/optee_os/lib/libutee/tee_api.c:408
    2408:	d2800022 	mov	x2, #0x1                   	// #1
    240c:	17fffd4e 	b	1944 <utee_cache_operation>

0000000000002410 <TEE_CacheInvalidate>:
TEE_CacheInvalidate():
/home/hei/Desktop/optee-qemu/optee_os/lib/libutee/tee_api.c:413
    2410:	d2800042 	mov	x2, #0x2                   	// #2
    2414:	17fffd4c 	b	1944 <utee_cache_operation>

0000000000002418 <TEE_Panic>:
TEE_Panic():
/home/hei/Desktop/optee-qemu/optee_os/lib/libutee/tee_api_panic.c:12
    2418:	2a0003e0 	mov	w0, w0
    241c:	17fffca2 	b	16a4 <utee_panic>

0000000000002420 <invoke_system_pta>:
invoke_system_pta():
/home/hei/Desktop/optee-qemu/optee_os/lib/libutee/tee_system_pta.c:15
    2420:	a9bd7bfd 	stp	x29, x30, [sp, #-48]!
    2424:	910003fd 	mov	x29, sp
    2428:	a90153f3 	stp	x19, x20, [sp, #16]
    242c:	2a0003f4 	mov	w20, w0
/home/hei/Desktop/optee-qemu/optee_os/lib/libutee/tee_system_pta.c:19
    2430:	d0000040 	adrp	x0, c000 <_DYNAMIC>
/home/hei/Desktop/optee-qemu/optee_os/lib/libutee/tee_system_pta.c:15
    2434:	a9025bf5 	stp	x21, x22, [sp, #32]
    2438:	2a0103f5 	mov	w21, w1
    243c:	aa0203f6 	mov	x22, x2
/home/hei/Desktop/optee-qemu/optee_os/lib/libutee/tee_system_pta.c:19
    2440:	f9423c01 	ldr	x1, [x0, #1144]
    2444:	aa0003f3 	mov	x19, x0
    2448:	b4000161 	cbz	x1, 2474 <invoke_system_pta+0x54>
/home/hei/Desktop/optee-qemu/optee_os/lib/libutee/tee_system_pta.c:27
    244c:	aa1603e4 	mov	x4, x22
    2450:	2a1503e3 	mov	w3, w21
    2454:	2a1403e2 	mov	w2, w20
    2458:	d2800005 	mov	x5, #0x0                   	// #0
    245c:	f9423e60 	ldr	x0, [x19, #1144]
    2460:	12800001 	mov	w1, #0xffffffff            	// #-1
/home/hei/Desktop/optee-qemu/optee_os/lib/libutee/tee_system_pta.c:29
    2464:	a94153f3 	ldp	x19, x20, [sp, #16]
    2468:	a9425bf5 	ldp	x21, x22, [sp, #32]
    246c:	a8c37bfd 	ldp	x29, x30, [sp], #48
/home/hei/Desktop/optee-qemu/optee_os/lib/libutee/tee_system_pta.c:27
    2470:	17fffef5 	b	2044 <TEE_InvokeTACommand>
    2474:	9111e004 	add	x4, x0, #0x478
/home/hei/Desktop/optee-qemu/optee_os/lib/libutee/tee_system_pta.c:20
    2478:	d2800005 	mov	x5, #0x0                   	// #0
    247c:	90000040 	adrp	x0, a000 <__text_end+0x1540>
    2480:	d2800003 	mov	x3, #0x0                   	// #0
    2484:	52800002 	mov	w2, #0x0                   	// #0
    2488:	12800001 	mov	w1, #0xffffffff            	// #-1
    248c:	9117c000 	add	x0, x0, #0x5f0
    2490:	97ffff2e 	bl	2148 <TEE_OpenTASession>
/home/hei/Desktop/optee-qemu/optee_os/lib/libutee/tee_system_pta.c:23
    2494:	34fffdc0 	cbz	w0, 244c <invoke_system_pta+0x2c>
/home/hei/Desktop/optee-qemu/optee_os/lib/libutee/tee_system_pta.c:29
    2498:	a94153f3 	ldp	x19, x20, [sp, #16]
    249c:	a9425bf5 	ldp	x21, x22, [sp, #32]
    24a0:	a8c37bfd 	ldp	x29, x30, [sp], #48
    24a4:	d65f03c0 	ret

00000000000024a8 <tee_map_zi>:
tee_map_zi():
/home/hei/Desktop/optee-qemu/optee_os/lib/libutee/tee_system_pta.c:32
    24a8:	a9ba7bfd 	stp	x29, x30, [sp, #-96]!
/home/hei/Desktop/optee-qemu/optee_os/lib/libutee/tee_system_pta.c:37
    24ac:	d2800782 	mov	x2, #0x3c                  	// #60
/home/hei/Desktop/optee-qemu/optee_os/lib/libutee/tee_system_pta.c:32
    24b0:	910003fd 	mov	x29, sp
    24b4:	a90153f3 	stp	x19, x20, [sp, #16]
    24b8:	aa0003f4 	mov	x20, x0
    24bc:	2a0103f3 	mov	w19, w1
/home/hei/Desktop/optee-qemu/optee_os/lib/libutee/tee_system_pta.c:37
    24c0:	910093e0 	add	x0, sp, #0x24
    24c4:	52800001 	mov	w1, #0x0                   	// #0
    24c8:	940018db 	bl	8834 <memset>
/home/hei/Desktop/optee-qemu/optee_os/lib/libutee/tee_system_pta.c:40
    24cc:	b90023f4 	str	w20, [sp, #32]
/home/hei/Desktop/optee-qemu/optee_os/lib/libutee/tee_system_pta.c:41
    24d0:	f2607e9f 	tst	x20, #0xffffffff00000000
    24d4:	54000060 	b.eq	24e0 <tee_map_zi+0x38>  // b.none
/home/hei/Desktop/optee-qemu/optee_os/lib/libutee/tee_system_pta.c:50
    24d8:	d2800000 	mov	x0, #0x0                   	// #0
    24dc:	1400000d 	b	2510 <tee_map_zi+0x68>
/home/hei/Desktop/optee-qemu/optee_os/lib/libutee/tee_system_pta.c:43
    24e0:	340000b3 	cbz	w19, 24f4 <tee_map_zi+0x4c>
    24e4:	7100127f 	cmp	w19, #0x4
    24e8:	54ffff81 	b.ne	24d8 <tee_map_zi+0x30>  // b.any
/home/hei/Desktop/optee-qemu/optee_os/lib/libutee/tee_system_pta.c:47
    24ec:	52800020 	mov	w0, #0x1                   	// #1
    24f0:	b90027e0 	str	w0, [sp, #36]
/home/hei/Desktop/optee-qemu/optee_os/lib/libutee/tee_system_pta.c:53
    24f4:	910083e2 	add	x2, sp, #0x20
    24f8:	52802621 	mov	w1, #0x131                 	// #305
    24fc:	52800040 	mov	w0, #0x2                   	// #2
    2500:	97ffffc8 	bl	2420 <invoke_system_pta>
/home/hei/Desktop/optee-qemu/optee_os/lib/libutee/tee_system_pta.c:54
    2504:	35fffea0 	cbnz	w0, 24d8 <tee_map_zi+0x30>
reg_pair_to_64():
/home/hei/Desktop/optee-qemu/optee_os/lib/libutils/ext/include/util.h:139
    2508:	294607e0 	ldp	w0, w1, [sp, #48]
    250c:	aa008020 	orr	x0, x1, x0, lsl #32
tee_map_zi():
/home/hei/Desktop/optee-qemu/optee_os/lib/libutee/tee_system_pta.c:59
    2510:	a94153f3 	ldp	x19, x20, [sp, #16]
    2514:	a8c67bfd 	ldp	x29, x30, [sp], #96
    2518:	d65f03c0 	ret

000000000000251c <tee_unmap>:
tee_unmap():
/home/hei/Desktop/optee-qemu/optee_os/lib/libutee/tee_system_pta.c:62
    251c:	a9b97bfd 	stp	x29, x30, [sp, #-112]!
/home/hei/Desktop/optee-qemu/optee_os/lib/libutee/tee_system_pta.c:68
    2520:	d2800782 	mov	x2, #0x3c                  	// #60
/home/hei/Desktop/optee-qemu/optee_os/lib/libutee/tee_system_pta.c:62
    2524:	910003fd 	mov	x29, sp
    2528:	a90153f3 	stp	x19, x20, [sp, #16]
    252c:	aa0003f3 	mov	x19, x0
/home/hei/Desktop/optee-qemu/optee_os/lib/libutee/tee_system_pta.c:68
    2530:	9100d3e0 	add	x0, sp, #0x34
/home/hei/Desktop/optee-qemu/optee_os/lib/libutee/tee_system_pta.c:62
    2534:	f90013f5 	str	x21, [sp, #32]
    2538:	aa0103f5 	mov	x21, x1
/home/hei/Desktop/optee-qemu/optee_os/lib/libutee/tee_system_pta.c:68
    253c:	52800001 	mov	w1, #0x0                   	// #0
    2540:	940018bd 	bl	8834 <memset>
reg_pair_from_64():
/home/hei/Desktop/optee-qemu/optee_os/lib/libutils/ext/include/util.h:145
    2544:	d360fe60 	lsr	x0, x19, #32
tee_unmap():
/home/hei/Desktop/optee-qemu/optee_os/lib/libutee/tee_system_pta.c:73
    2548:	9100c3e2 	add	x2, sp, #0x30
    254c:	52800221 	mov	w1, #0x11                  	// #17
/home/hei/Desktop/optee-qemu/optee_os/lib/libutee/tee_system_pta.c:70
    2550:	b90033f5 	str	w21, [sp, #48]
reg_pair_from_64():
/home/hei/Desktop/optee-qemu/optee_os/lib/libutils/ext/include/util.h:146
    2554:	29084fe0 	stp	w0, w19, [sp, #64]
tee_unmap():
/home/hei/Desktop/optee-qemu/optee_os/lib/libutee/tee_system_pta.c:73
    2558:	52800060 	mov	w0, #0x3                   	// #3
    255c:	97ffffb1 	bl	2420 <invoke_system_pta>
    2560:	2a0003f4 	mov	w20, w0
/home/hei/Desktop/optee-qemu/optee_os/lib/libutee/tee_system_pta.c:74
    2564:	34000180 	cbz	w0, 2594 <tee_unmap+0x78>
/home/hei/Desktop/optee-qemu/optee_os/lib/libutee/tee_system_pta.c:75
    2568:	90000040 	adrp	x0, a000 <__text_end+0x1540>
    256c:	9117c000 	add	x0, x0, #0x5f0
    2570:	90000044 	adrp	x4, a000 <__text_end+0x1540>
    2574:	aa1503e6 	mov	x6, x21
    2578:	aa1303e5 	mov	x5, x19
    257c:	912f8c84 	add	x4, x4, #0xbe3
    2580:	52800023 	mov	w3, #0x1                   	// #1
    2584:	52800022 	mov	w2, #0x1                   	// #1
    2588:	52800961 	mov	w1, #0x4b                  	// #75
    258c:	91004000 	add	x0, x0, #0x10
    2590:	97fff820 	bl	610 <trace_printf>
/home/hei/Desktop/optee-qemu/optee_os/lib/libutee/tee_system_pta.c:78
    2594:	2a1403e0 	mov	w0, w20
    2598:	a94153f3 	ldp	x19, x20, [sp, #16]
    259c:	f94013f5 	ldr	x21, [sp, #32]
    25a0:	a8c77bfd 	ldp	x29, x30, [sp], #112
    25a4:	d65f03c0 	ret

00000000000025a8 <api_panic>:
api_panic():
/home/hei/Desktop/optee-qemu/optee_os/lib/libutee/tee_api_arith_mpi.c:19
    25a8:	a9bf7bfd 	stp	x29, x30, [sp, #-16]!
/home/hei/Desktop/optee-qemu/optee_os/lib/libutee/tee_api_arith_mpi.c:20
    25ac:	aa0203e3 	mov	x3, x2
    25b0:	2a0103e2 	mov	w2, w1
    25b4:	aa0003e1 	mov	x1, x0
/home/hei/Desktop/optee-qemu/optee_os/lib/libutee/tee_api_arith_mpi.c:19
    25b8:	910003fd 	mov	x29, sp
/home/hei/Desktop/optee-qemu/optee_os/lib/libutee/tee_api_arith_mpi.c:20
    25bc:	90000040 	adrp	x0, a000 <__text_end+0x1540>
    25c0:	91352800 	add	x0, x0, #0xd4a
    25c4:	97fffbe7 	bl	1560 <printf>
/home/hei/Desktop/optee-qemu/optee_os/lib/libutee/tee_api_arith_mpi.c:21
    25c8:	528c24e0 	mov	w0, #0x6127                	// #24871
    25cc:	72a01620 	movk	w0, #0xb1, lsl #16
    25d0:	97ffff92 	bl	2418 <TEE_Panic>
/home/hei/Desktop/optee-qemu/optee_os/lib/libutee/tee_api_arith_mpi.c:23 (discriminator 1)
    25d4:	14000000 	b	25d4 <api_panic+0x2c>

00000000000025d8 <mpi_panic>:
mpi_panic():
/home/hei/Desktop/optee-qemu/optee_os/lib/libutee/tee_api_arith_mpi.c:29
    25d8:	a9bf7bfd 	stp	x29, x30, [sp, #-16]!
/home/hei/Desktop/optee-qemu/optee_os/lib/libutee/tee_api_arith_mpi.c:30
    25dc:	2a0203e3 	mov	w3, w2
    25e0:	2a0103e2 	mov	w2, w1
    25e4:	aa0003e1 	mov	x1, x0
/home/hei/Desktop/optee-qemu/optee_os/lib/libutee/tee_api_arith_mpi.c:29
    25e8:	910003fd 	mov	x29, sp
/home/hei/Desktop/optee-qemu/optee_os/lib/libutee/tee_api_arith_mpi.c:30
    25ec:	90000040 	adrp	x0, a000 <__text_end+0x1540>
    25f0:	9135a800 	add	x0, x0, #0xd6a
    25f4:	97fffbdb 	bl	1560 <printf>
/home/hei/Desktop/optee-qemu/optee_os/lib/libutee/tee_api_arith_mpi.c:31
    25f8:	528c24e0 	mov	w0, #0x6127                	// #24871
    25fc:	72a01620 	movk	w0, #0xb1, lsl #16
    2600:	97ffff86 	bl	2418 <TEE_Panic>
/home/hei/Desktop/optee-qemu/optee_os/lib/libutee/tee_api_arith_mpi.c:33 (discriminator 1)
    2604:	14000000 	b	2604 <mpi_panic+0x2c>

0000000000002608 <get_mpi>:
get_mpi():
/home/hei/Desktop/optee-qemu/optee_os/lib/libutee/tee_api_arith_mpi.c:86
    2608:	a9bd7bfd 	stp	x29, x30, [sp, #-48]!
    260c:	910003fd 	mov	x29, sp
    2610:	a90153f3 	stp	x19, x20, [sp, #16]
    2614:	aa0103f4 	mov	x20, x1
    2618:	a9025bf5 	stp	x21, x22, [sp, #32]
    261c:	aa0003f5 	mov	x21, x0
/home/hei/Desktop/optee-qemu/optee_os/lib/libutee/tee_api_arith_mpi.c:101
    2620:	9400079d 	bl	4494 <mbedtls_mpi_init_mempool>
/home/hei/Desktop/optee-qemu/optee_os/lib/libutee/tee_api_arith_mpi.c:103
    2624:	b4000374 	cbz	x20, 2690 <get_mpi+0x88>
/home/hei/Desktop/optee-qemu/optee_os/lib/libutee/tee_api_arith_mpi.c:106
    2628:	79400e93 	ldrh	w19, [x20, #6]
/home/hei/Desktop/optee-qemu/optee_os/lib/libutee/tee_api_arith_mpi.c:105
    262c:	91002296 	add	x22, x20, #0x8
/home/hei/Desktop/optee-qemu/optee_os/lib/libutee/tee_api_arith_mpi.c:109
    2630:	91001281 	add	x1, x20, #0x4
    2634:	b4000073 	cbz	x19, 2640 <get_mpi+0x38>
/home/hei/Desktop/optee-qemu/optee_os/lib/libutee/tee_api_arith_mpi.c:109 (discriminator 1)
    2638:	b8737820 	ldr	w0, [x1, x19, lsl #2]
    263c:	34000140 	cbz	w0, 2664 <get_mpi+0x5c>
/home/hei/Desktop/optee-qemu/optee_os/lib/libutee/tee_api_arith_mpi.c:112
    2640:	aa1303e1 	mov	x1, x19
    2644:	aa1503e0 	mov	x0, x21
    2648:	940007b8 	bl	4528 <mbedtls_mpi_grow>
    264c:	34000100 	cbz	w0, 266c <get_mpi+0x64>
/home/hei/Desktop/optee-qemu/optee_os/lib/libutee/tee_api_arith_mpi.c:112 (discriminator 1)
    2650:	2a0003e2 	mov	w2, w0
    2654:	52800e01 	mov	w1, #0x70                  	// #112
    2658:	90000040 	adrp	x0, a000 <__text_end+0x1540>
    265c:	91303400 	add	x0, x0, #0xc0d
    2660:	97ffffde 	bl	25d8 <mpi_panic>
/home/hei/Desktop/optee-qemu/optee_os/lib/libutee/tee_api_arith_mpi.c:110
    2664:	d1000673 	sub	x19, x19, #0x1
    2668:	17fffff3 	b	2634 <get_mpi+0x2c>
/home/hei/Desktop/optee-qemu/optee_os/lib/libutee/tee_api_arith_mpi.c:113
    266c:	b9400280 	ldr	w0, [x20]
/home/hei/Desktop/optee-qemu/optee_os/lib/libutee/tee_api_arith_mpi.c:114
    2670:	d37ef662 	lsl	x2, x19, #2
/home/hei/Desktop/optee-qemu/optee_os/lib/libutee/tee_api_arith_mpi.c:113
    2674:	790002a0 	strh	w0, [x21]
/home/hei/Desktop/optee-qemu/optee_os/lib/libutee/tee_api_arith_mpi.c:114
    2678:	aa1603e1 	mov	x1, x22
/home/hei/Desktop/optee-qemu/optee_os/lib/libutee/tee_api_arith_mpi.c:116
    267c:	a94153f3 	ldp	x19, x20, [sp, #16]
/home/hei/Desktop/optee-qemu/optee_os/lib/libutee/tee_api_arith_mpi.c:114
    2680:	f9400aa0 	ldr	x0, [x21, #16]
/home/hei/Desktop/optee-qemu/optee_os/lib/libutee/tee_api_arith_mpi.c:116
    2684:	a9425bf5 	ldp	x21, x22, [sp, #32]
    2688:	a8c37bfd 	ldp	x29, x30, [sp], #48
/home/hei/Desktop/optee-qemu/optee_os/lib/libutee/tee_api_arith_mpi.c:114
    268c:	17fff721 	b	310 <memcpy>
/home/hei/Desktop/optee-qemu/optee_os/lib/libutee/tee_api_arith_mpi.c:116
    2690:	a94153f3 	ldp	x19, x20, [sp, #16]
    2694:	a9425bf5 	ldp	x21, x22, [sp, #32]
    2698:	a8c37bfd 	ldp	x29, x30, [sp], #48
    269c:	d65f03c0 	ret

00000000000026a0 <copy_mpi_to_bigint>:
copy_mpi_to_bigint():
/home/hei/Desktop/optee-qemu/optee_os/lib/libutee/tee_api_arith_mpi.c:61
    26a0:	aa0103e3 	mov	x3, x1
/home/hei/Desktop/optee-qemu/optee_os/lib/libutee/tee_api_arith_mpi.c:63
    26a4:	a9408402 	ldp	x2, x1, [x0, #8]
    26a8:	aa0203e4 	mov	x4, x2
/home/hei/Desktop/optee-qemu/optee_os/lib/libutee/tee_api_arith_mpi.c:66
    26ac:	b40000e4 	cbz	x4, 26c8 <copy_mpi_to_bigint+0x28>
/home/hei/Desktop/optee-qemu/optee_os/lib/libutee/tee_api_arith_mpi.c:66 (discriminator 1)
    26b0:	8b040825 	add	x5, x1, x4, lsl #2
    26b4:	b85fc0a5 	ldur	w5, [x5, #-4]
    26b8:	340001e5 	cbz	w5, 26f4 <copy_mpi_to_bigint+0x54>
/home/hei/Desktop/optee-qemu/optee_os/lib/libutee/tee_api_arith_mpi.c:69
    26bc:	79400865 	ldrh	w5, [x3, #4]
    26c0:	eb0400bf 	cmp	x5, x4
    26c4:	540001c3 	b.cc	26fc <copy_mpi_to_bigint+0x5c>  // b.lo, b.ul, b.last
/home/hei/Desktop/optee-qemu/optee_os/lib/libutee/tee_api_arith_mpi.c:61
    26c8:	a9bf7bfd 	stp	x29, x30, [sp, #-16]!
/home/hei/Desktop/optee-qemu/optee_os/lib/libutee/tee_api_arith_mpi.c:74
    26cc:	d37ef442 	lsl	x2, x2, #2
/home/hei/Desktop/optee-qemu/optee_os/lib/libutee/tee_api_arith_mpi.c:61
    26d0:	910003fd 	mov	x29, sp
/home/hei/Desktop/optee-qemu/optee_os/lib/libutee/tee_api_arith_mpi.c:72
    26d4:	79000c64 	strh	w4, [x3, #6]
/home/hei/Desktop/optee-qemu/optee_os/lib/libutee/tee_api_arith_mpi.c:73
    26d8:	79c00004 	ldrsh	w4, [x0]
    26dc:	aa0303e0 	mov	x0, x3
    26e0:	b8008404 	str	w4, [x0], #8
/home/hei/Desktop/optee-qemu/optee_os/lib/libutee/tee_api_arith_mpi.c:74
    26e4:	97fff70b 	bl	310 <memcpy>
/home/hei/Desktop/optee-qemu/optee_os/lib/libutee/tee_api_arith_mpi.c:76
    26e8:	52800000 	mov	w0, #0x0                   	// #0
/home/hei/Desktop/optee-qemu/optee_os/lib/libutee/tee_api_arith_mpi.c:77
    26ec:	a8c17bfd 	ldp	x29, x30, [sp], #16
    26f0:	d65f03c0 	ret
/home/hei/Desktop/optee-qemu/optee_os/lib/libutee/tee_api_arith_mpi.c:67
    26f4:	d1000484 	sub	x4, x4, #0x1
    26f8:	17ffffed 	b	26ac <copy_mpi_to_bigint+0xc>
/home/hei/Desktop/optee-qemu/optee_os/lib/libutee/tee_api_arith_mpi.c:70
    26fc:	1299fe00 	mov	w0, #0xffff300f            	// #-53233
/home/hei/Desktop/optee-qemu/optee_os/lib/libutee/tee_api_arith_mpi.c:77
    2700:	d65f03c0 	ret

0000000000002704 <bigint_binary>:
bigint_binary():
/home/hei/Desktop/optee-qemu/optee_os/lib/libutee/tee_api_arith_mpi.c:321
    2704:	a9b67bfd 	stp	x29, x30, [sp, #-160]!
    2708:	910003fd 	mov	x29, sp
    270c:	a90153f3 	stp	x19, x20, [sp, #16]
/home/hei/Desktop/optee-qemu/optee_os/lib/libutee/tee_api_arith_mpi.c:328
    2710:	910163f3 	add	x19, sp, #0x58
/home/hei/Desktop/optee-qemu/optee_os/lib/libutee/tee_api_arith_mpi.c:321
    2714:	aa0203f4 	mov	x20, x2
    2718:	a9025bf5 	stp	x21, x22, [sp, #32]
    271c:	aa0003f6 	mov	x22, x0
    2720:	a90363f7 	stp	x23, x24, [sp, #48]
    2724:	9101c3f8 	add	x24, sp, #0x70
    2728:	a9046bf9 	stp	x25, x26, [sp, #64]
    272c:	aa0103f9 	mov	x25, x1
    2730:	aa0303fa 	mov	x26, x3
/home/hei/Desktop/optee-qemu/optee_os/lib/libutee/tee_api_arith_mpi.c:328
    2734:	aa0003e1 	mov	x1, x0
    2738:	aa1303e0 	mov	x0, x19
    273c:	97ffffb3 	bl	2608 <get_mpi>
/home/hei/Desktop/optee-qemu/optee_os/lib/libutee/tee_api_arith_mpi.c:330
    2740:	eb1902df 	cmp	x22, x25
    2744:	54000320 	b.eq	27a8 <bigint_binary+0xa4>  // b.none
/home/hei/Desktop/optee-qemu/optee_os/lib/libutee/tee_api_arith_mpi.c:325
    2748:	aa1803f5 	mov	x21, x24
/home/hei/Desktop/optee-qemu/optee_os/lib/libutee/tee_api_arith_mpi.c:333
    274c:	aa1903e1 	mov	x1, x25
    2750:	aa1803e0 	mov	x0, x24
    2754:	97ffffad 	bl	2608 <get_mpi>
/home/hei/Desktop/optee-qemu/optee_os/lib/libutee/tee_api_arith_mpi.c:335
    2758:	eb1402df 	cmp	x22, x20
    275c:	910223f7 	add	x23, sp, #0x88
    2760:	54000280 	b.eq	27b0 <bigint_binary+0xac>  // b.none
/home/hei/Desktop/optee-qemu/optee_os/lib/libutee/tee_api_arith_mpi.c:337
    2764:	eb14033f 	cmp	x25, x20
    2768:	54000280 	b.eq	27b8 <bigint_binary+0xb4>  // b.none
/home/hei/Desktop/optee-qemu/optee_os/lib/libutee/tee_api_arith_mpi.c:340
    276c:	aa1403e1 	mov	x1, x20
/home/hei/Desktop/optee-qemu/optee_os/lib/libutee/tee_api_arith_mpi.c:326
    2770:	aa1703f4 	mov	x20, x23
/home/hei/Desktop/optee-qemu/optee_os/lib/libutee/tee_api_arith_mpi.c:340
    2774:	aa1703e0 	mov	x0, x23
    2778:	97ffffa4 	bl	2608 <get_mpi>
/home/hei/Desktop/optee-qemu/optee_os/lib/libutee/tee_api_arith_mpi.c:342
    277c:	aa1403e2 	mov	x2, x20
    2780:	aa1503e1 	mov	x1, x21
    2784:	aa1303e0 	mov	x0, x19
    2788:	d63f0340 	blr	x26
    278c:	340001a0 	cbz	w0, 27c0 <bigint_binary+0xbc>
/home/hei/Desktop/optee-qemu/optee_os/lib/libutee/tee_api_arith_mpi.c:342 (discriminator 1)
    2790:	2a0003e2 	mov	w2, w0
    2794:	52802ac1 	mov	w1, #0x156                 	// #342
/home/hei/Desktop/optee-qemu/optee_os/lib/libutee/tee_api_arith_mpi.c:344 (discriminator 1)
    2798:	90000040 	adrp	x0, a000 <__text_end+0x1540>
    279c:	91303400 	add	x0, x0, #0xc0d
    27a0:	91002000 	add	x0, x0, #0x8
    27a4:	97ffff8d 	bl	25d8 <mpi_panic>
/home/hei/Desktop/optee-qemu/optee_os/lib/libutee/tee_api_arith_mpi.c:331
    27a8:	aa1303f5 	mov	x21, x19
    27ac:	17ffffeb 	b	2758 <bigint_binary+0x54>
/home/hei/Desktop/optee-qemu/optee_os/lib/libutee/tee_api_arith_mpi.c:336
    27b0:	aa1303f4 	mov	x20, x19
    27b4:	17fffff2 	b	277c <bigint_binary+0x78>
/home/hei/Desktop/optee-qemu/optee_os/lib/libutee/tee_api_arith_mpi.c:338
    27b8:	aa1503f4 	mov	x20, x21
    27bc:	17fffff0 	b	277c <bigint_binary+0x78>
/home/hei/Desktop/optee-qemu/optee_os/lib/libutee/tee_api_arith_mpi.c:344
    27c0:	aa1603e1 	mov	x1, x22
    27c4:	aa1303e0 	mov	x0, x19
    27c8:	97ffffb6 	bl	26a0 <copy_mpi_to_bigint>
    27cc:	34000080 	cbz	w0, 27dc <bigint_binary+0xd8>
/home/hei/Desktop/optee-qemu/optee_os/lib/libutee/tee_api_arith_mpi.c:344 (discriminator 1)
    27d0:	2a0003e2 	mov	w2, w0
    27d4:	52802b01 	mov	w1, #0x158                 	// #344
    27d8:	17fffff0 	b	2798 <bigint_binary+0x94>
/home/hei/Desktop/optee-qemu/optee_os/lib/libutee/tee_api_arith_mpi.c:345
    27dc:	aa1303e0 	mov	x0, x19
    27e0:	94000737 	bl	44bc <mbedtls_mpi_free>
/home/hei/Desktop/optee-qemu/optee_os/lib/libutee/tee_api_arith_mpi.c:346
    27e4:	eb1802bf 	cmp	x21, x24
    27e8:	54000061 	b.ne	27f4 <bigint_binary+0xf0>  // b.any
/home/hei/Desktop/optee-qemu/optee_os/lib/libutee/tee_api_arith_mpi.c:347
    27ec:	aa1503e0 	mov	x0, x21
    27f0:	94000733 	bl	44bc <mbedtls_mpi_free>
/home/hei/Desktop/optee-qemu/optee_os/lib/libutee/tee_api_arith_mpi.c:348
    27f4:	eb17029f 	cmp	x20, x23
    27f8:	54000061 	b.ne	2804 <bigint_binary+0x100>  // b.any
/home/hei/Desktop/optee-qemu/optee_os/lib/libutee/tee_api_arith_mpi.c:349
    27fc:	aa1403e0 	mov	x0, x20
    2800:	9400072f 	bl	44bc <mbedtls_mpi_free>
/home/hei/Desktop/optee-qemu/optee_os/lib/libutee/tee_api_arith_mpi.c:350
    2804:	a94153f3 	ldp	x19, x20, [sp, #16]
    2808:	a9425bf5 	ldp	x21, x22, [sp, #32]
    280c:	a94363f7 	ldp	x23, x24, [sp, #48]
    2810:	a9446bf9 	ldp	x25, x26, [sp, #64]
    2814:	a8ca7bfd 	ldp	x29, x30, [sp], #160
    2818:	d65f03c0 	ret

000000000000281c <mpi_is_odd>:
mpi_is_odd():
/home/hei/Desktop/optee-qemu/optee_os/lib/libutee/tee_api_arith_mpi.c:590
    281c:	a9bf7bfd 	stp	x29, x30, [sp, #-16]!
/home/hei/Desktop/optee-qemu/optee_os/lib/libutee/tee_api_arith_mpi.c:591
    2820:	d2800001 	mov	x1, #0x0                   	// #0
/home/hei/Desktop/optee-qemu/optee_os/lib/libutee/tee_api_arith_mpi.c:590
    2824:	910003fd 	mov	x29, sp
/home/hei/Desktop/optee-qemu/optee_os/lib/libutee/tee_api_arith_mpi.c:591
    2828:	9400088e 	bl	4a60 <mbedtls_mpi_get_bit>
    282c:	7100001f 	cmp	w0, #0x0
/home/hei/Desktop/optee-qemu/optee_os/lib/libutee/tee_api_arith_mpi.c:592
    2830:	1a9f07e0 	cset	w0, ne  // ne = any
    2834:	a8c17bfd 	ldp	x29, x30, [sp], #16
    2838:	d65f03c0 	ret

000000000000283c <rng_read>:
rng_read():
/home/hei/Desktop/optee-qemu/optee_os/lib/libutee/tee_api_arith_mpi.c:757
    283c:	a9bf7bfd 	stp	x29, x30, [sp, #-16]!
    2840:	aa0103e0 	mov	x0, x1
/home/hei/Desktop/optee-qemu/optee_os/lib/libutee/tee_api_arith_mpi.c:758
    2844:	aa0203e1 	mov	x1, x2
/home/hei/Desktop/optee-qemu/optee_os/lib/libutee/tee_api_arith_mpi.c:757
    2848:	910003fd 	mov	x29, sp
/home/hei/Desktop/optee-qemu/optee_os/lib/libutee/tee_api_arith_mpi.c:758
    284c:	97fffbfc 	bl	183c <utee_cryp_random_number_generate>
/home/hei/Desktop/optee-qemu/optee_os/lib/libutee/tee_api_arith_mpi.c:759
    2850:	7100001f 	cmp	w0, #0x0
/home/hei/Desktop/optee-qemu/optee_os/lib/libutee/tee_api_arith_mpi.c:761
    2854:	a8c17bfd 	ldp	x29, x30, [sp], #16
    2858:	12800020 	mov	w0, #0xfffffffe            	// #-2
    285c:	1a9f1000 	csel	w0, w0, wzr, ne  // ne = any
    2860:	d65f03c0 	ret

0000000000002864 <mpi_egcd>:
mpi_egcd():
/home/hei/Desktop/optee-qemu/optee_os/lib/libutee/tee_api_arith_mpi.c:605
    2864:	a9ae7bfd 	stp	x29, x30, [sp, #-288]!
    2868:	910003fd 	mov	x29, sp
    286c:	6d0627e8 	stp	d8, d9, [sp, #96]
    2870:	9e670028 	fmov	d8, x1
    2874:	9e670069 	fmov	d9, x3
    2878:	a90363f7 	stp	x23, x24, [sp, #48]
get_mpi():
/home/hei/Desktop/optee-qemu/optee_os/lib/libutee/tee_api_arith_mpi.c:101
    287c:	9101e3f7 	add	x23, sp, #0x78
mpi_egcd():
/home/hei/Desktop/optee-qemu/optee_os/lib/libutee/tee_api_arith_mpi.c:605
    2880:	aa0003f8 	mov	x24, x0
get_mpi():
/home/hei/Desktop/optee-qemu/optee_os/lib/libutee/tee_api_arith_mpi.c:101
    2884:	aa1703e0 	mov	x0, x23
mpi_egcd():
/home/hei/Desktop/optee-qemu/optee_os/lib/libutee/tee_api_arith_mpi.c:605
    2888:	a90153f3 	stp	x19, x20, [sp, #16]
get_mpi():
/home/hei/Desktop/optee-qemu/optee_os/lib/libutee/tee_api_arith_mpi.c:101
    288c:	9102a3f4 	add	x20, sp, #0xa8
mpi_egcd():
/home/hei/Desktop/optee-qemu/optee_os/lib/libutee/tee_api_arith_mpi.c:605
    2890:	a9025bf5 	stp	x21, x22, [sp, #32]
get_mpi():
/home/hei/Desktop/optee-qemu/optee_os/lib/libutee/tee_api_arith_mpi.c:101
    2894:	910243f6 	add	x22, sp, #0x90
    2898:	910303f3 	add	x19, sp, #0xc0
mpi_egcd():
/home/hei/Desktop/optee-qemu/optee_os/lib/libutee/tee_api_arith_mpi.c:605
    289c:	a9046bf9 	stp	x25, x26, [sp, #64]
get_mpi():
/home/hei/Desktop/optee-qemu/optee_os/lib/libutee/tee_api_arith_mpi.c:101
    28a0:	910363fa 	add	x26, sp, #0xd8
    28a4:	9103c3f9 	add	x25, sp, #0xf0
mpi_egcd():
/home/hei/Desktop/optee-qemu/optee_os/lib/libutee/tee_api_arith_mpi.c:605
    28a8:	a90573fb 	stp	x27, x28, [sp, #80]
    28ac:	aa0403fb 	mov	x27, x4
    28b0:	aa0203fc 	mov	x28, x2
get_mpi():
/home/hei/Desktop/optee-qemu/optee_os/lib/libutee/tee_api_arith_mpi.c:101
    28b4:	940006f8 	bl	4494 <mbedtls_mpi_init_mempool>
    28b8:	910423f5 	add	x21, sp, #0x108
    28bc:	aa1603e0 	mov	x0, x22
    28c0:	940006f5 	bl	4494 <mbedtls_mpi_init_mempool>
    28c4:	aa1403e0 	mov	x0, x20
    28c8:	940006f3 	bl	4494 <mbedtls_mpi_init_mempool>
    28cc:	aa1303e0 	mov	x0, x19
    28d0:	940006f1 	bl	4494 <mbedtls_mpi_init_mempool>
    28d4:	aa1a03e0 	mov	x0, x26
    28d8:	940006ef 	bl	4494 <mbedtls_mpi_init_mempool>
    28dc:	aa1903e0 	mov	x0, x25
    28e0:	940006ed 	bl	4494 <mbedtls_mpi_init_mempool>
    28e4:	aa1503e0 	mov	x0, x21
    28e8:	940006eb 	bl	4494 <mbedtls_mpi_init_mempool>
mpi_egcd():
/home/hei/Desktop/optee-qemu/optee_os/lib/libutee/tee_api_arith_mpi.c:624
    28ec:	52800001 	mov	w1, #0x0                   	// #0
    28f0:	aa1b03e0 	mov	x0, x27
    28f4:	940009ea 	bl	509c <mbedtls_mpi_cmp_int>
    28f8:	35000320 	cbnz	w0, 295c <mpi_egcd+0xf8>
/home/hei/Desktop/optee-qemu/optee_os/lib/libutee/tee_api_arith_mpi.c:625
    28fc:	9e660100 	fmov	x0, d8
    2900:	52800021 	mov	w1, #0x1                   	// #1
    2904:	9400083d 	bl	49f8 <mbedtls_mpi_lset>
    2908:	340000e0 	cbz	w0, 2924 <mpi_egcd+0xc0>
/home/hei/Desktop/optee-qemu/optee_os/lib/libutee/tee_api_arith_mpi.c:625 (discriminator 1)
    290c:	2a0003e2 	mov	w2, w0
    2910:	52804e21 	mov	w1, #0x271                 	// #625
/home/hei/Desktop/optee-qemu/optee_os/lib/libutee/tee_api_arith_mpi.c:626 (discriminator 1)
    2914:	90000040 	adrp	x0, a000 <__text_end+0x1540>
    2918:	91303400 	add	x0, x0, #0xc0d
    291c:	91005800 	add	x0, x0, #0x16
    2920:	97ffff2e 	bl	25d8 <mpi_panic>
/home/hei/Desktop/optee-qemu/optee_os/lib/libutee/tee_api_arith_mpi.c:626
    2924:	52800001 	mov	w1, #0x0                   	// #0
    2928:	aa1c03e0 	mov	x0, x28
    292c:	94000833 	bl	49f8 <mbedtls_mpi_lset>
    2930:	34000080 	cbz	w0, 2940 <mpi_egcd+0xdc>
/home/hei/Desktop/optee-qemu/optee_os/lib/libutee/tee_api_arith_mpi.c:626 (discriminator 1)
    2934:	2a0003e2 	mov	w2, w0
    2938:	52804e41 	mov	w1, #0x272                 	// #626
    293c:	17fffff6 	b	2914 <mpi_egcd+0xb0>
/home/hei/Desktop/optee-qemu/optee_os/lib/libutee/tee_api_arith_mpi.c:627
    2940:	9e660121 	fmov	x1, d9
    2944:	aa1803e0 	mov	x0, x24
    2948:	9400077e 	bl	4740 <mbedtls_mpi_copy>
    294c:	34002060 	cbz	w0, 2d58 <mpi_egcd+0x4f4>
/home/hei/Desktop/optee-qemu/optee_os/lib/libutee/tee_api_arith_mpi.c:627 (discriminator 1)
    2950:	2a0003e2 	mov	w2, w0
    2954:	52804e61 	mov	w1, #0x273                 	// #627
    2958:	17ffffef 	b	2914 <mpi_egcd+0xb0>
/home/hei/Desktop/optee-qemu/optee_os/lib/libutee/tee_api_arith_mpi.c:631
    295c:	9e660121 	fmov	x1, d9
    2960:	aa1a03e0 	mov	x0, x26
    2964:	94000777 	bl	4740 <mbedtls_mpi_copy>
    2968:	34000080 	cbz	w0, 2978 <mpi_egcd+0x114>
/home/hei/Desktop/optee-qemu/optee_os/lib/libutee/tee_api_arith_mpi.c:631 (discriminator 1)
    296c:	2a0003e2 	mov	w2, w0
    2970:	52804ee1 	mov	w1, #0x277                 	// #631
    2974:	17ffffe8 	b	2914 <mpi_egcd+0xb0>
/home/hei/Desktop/optee-qemu/optee_os/lib/libutee/tee_api_arith_mpi.c:632
    2978:	aa1b03e1 	mov	x1, x27
    297c:	aa1903e0 	mov	x0, x25
/home/hei/Desktop/optee-qemu/optee_os/lib/libutee/tee_api_arith_mpi.c:634
    2980:	5280001b 	mov	w27, #0x0                   	// #0
/home/hei/Desktop/optee-qemu/optee_os/lib/libutee/tee_api_arith_mpi.c:632
    2984:	9400076f 	bl	4740 <mbedtls_mpi_copy>
    2988:	34000160 	cbz	w0, 29b4 <mpi_egcd+0x150>
/home/hei/Desktop/optee-qemu/optee_os/lib/libutee/tee_api_arith_mpi.c:632 (discriminator 1)
    298c:	2a0003e2 	mov	w2, w0
    2990:	52804f01 	mov	w1, #0x278                 	// #632
    2994:	17ffffe0 	b	2914 <mpi_egcd+0xb0>
/home/hei/Desktop/optee-qemu/optee_os/lib/libutee/tee_api_arith_mpi.c:638
    2998:	d2800021 	mov	x1, #0x1                   	// #1
    299c:	aa1903e0 	mov	x0, x25
    29a0:	94000930 	bl	4e60 <mbedtls_mpi_shift_r>
    29a4:	34000080 	cbz	w0, 29b4 <mpi_egcd+0x150>
/home/hei/Desktop/optee-qemu/optee_os/lib/libutee/tee_api_arith_mpi.c:638 (discriminator 1)
    29a8:	2a0003e2 	mov	w2, w0
    29ac:	52804fc1 	mov	w1, #0x27e                 	// #638
    29b0:	17ffffd9 	b	2914 <mpi_egcd+0xb0>
mpi_is_even():
/home/hei/Desktop/optee-qemu/optee_os/lib/libutee/tee_api_arith_mpi.c:596
    29b4:	aa1a03e0 	mov	x0, x26
    29b8:	97ffff99 	bl	281c <mpi_is_odd>
mpi_egcd():
/home/hei/Desktop/optee-qemu/optee_os/lib/libutee/tee_api_arith_mpi.c:635
    29bc:	72001c1f 	tst	w0, #0xff
    29c0:	54000100 	b.eq	29e0 <mpi_egcd+0x17c>  // b.none
/home/hei/Desktop/optee-qemu/optee_os/lib/libutee/tee_api_arith_mpi.c:641
    29c4:	aa1a03e1 	mov	x1, x26
    29c8:	aa1503e0 	mov	x0, x21
    29cc:	9400075d 	bl	4740 <mbedtls_mpi_copy>
    29d0:	34000200 	cbz	w0, 2a10 <mpi_egcd+0x1ac>
/home/hei/Desktop/optee-qemu/optee_os/lib/libutee/tee_api_arith_mpi.c:641 (discriminator 1)
    29d4:	2a0003e2 	mov	w2, w0
    29d8:	52805021 	mov	w1, #0x281                 	// #641
    29dc:	17ffffce 	b	2914 <mpi_egcd+0xb0>
mpi_is_even():
/home/hei/Desktop/optee-qemu/optee_os/lib/libutee/tee_api_arith_mpi.c:596
    29e0:	aa1903e0 	mov	x0, x25
    29e4:	97ffff8e 	bl	281c <mpi_is_odd>
mpi_egcd():
/home/hei/Desktop/optee-qemu/optee_os/lib/libutee/tee_api_arith_mpi.c:635
    29e8:	72001c1f 	tst	w0, #0xff
    29ec:	54fffec1 	b.ne	29c4 <mpi_egcd+0x160>  // b.any
/home/hei/Desktop/optee-qemu/optee_os/lib/libutee/tee_api_arith_mpi.c:636
    29f0:	1100077b 	add	w27, w27, #0x1
/home/hei/Desktop/optee-qemu/optee_os/lib/libutee/tee_api_arith_mpi.c:637
    29f4:	d2800021 	mov	x1, #0x1                   	// #1
    29f8:	aa1a03e0 	mov	x0, x26
    29fc:	94000919 	bl	4e60 <mbedtls_mpi_shift_r>
    2a00:	34fffcc0 	cbz	w0, 2998 <mpi_egcd+0x134>
/home/hei/Desktop/optee-qemu/optee_os/lib/libutee/tee_api_arith_mpi.c:637 (discriminator 1)
    2a04:	2a0003e2 	mov	w2, w0
    2a08:	52804fa1 	mov	w1, #0x27d                 	// #637
    2a0c:	17ffffc2 	b	2914 <mpi_egcd+0xb0>
/home/hei/Desktop/optee-qemu/optee_os/lib/libutee/tee_api_arith_mpi.c:642
    2a10:	aa1903e1 	mov	x1, x25
    2a14:	aa1803e0 	mov	x0, x24
    2a18:	9400074a 	bl	4740 <mbedtls_mpi_copy>
    2a1c:	34000080 	cbz	w0, 2a2c <mpi_egcd+0x1c8>
/home/hei/Desktop/optee-qemu/optee_os/lib/libutee/tee_api_arith_mpi.c:642 (discriminator 1)
    2a20:	2a0003e2 	mov	w2, w0
    2a24:	52805041 	mov	w1, #0x282                 	// #642
    2a28:	17ffffbb 	b	2914 <mpi_egcd+0xb0>
/home/hei/Desktop/optee-qemu/optee_os/lib/libutee/tee_api_arith_mpi.c:643
    2a2c:	52800021 	mov	w1, #0x1                   	// #1
    2a30:	aa1703e0 	mov	x0, x23
    2a34:	940007f1 	bl	49f8 <mbedtls_mpi_lset>
    2a38:	34000080 	cbz	w0, 2a48 <mpi_egcd+0x1e4>
/home/hei/Desktop/optee-qemu/optee_os/lib/libutee/tee_api_arith_mpi.c:643 (discriminator 1)
    2a3c:	2a0003e2 	mov	w2, w0
    2a40:	52805061 	mov	w1, #0x283                 	// #643
    2a44:	17ffffb4 	b	2914 <mpi_egcd+0xb0>
/home/hei/Desktop/optee-qemu/optee_os/lib/libutee/tee_api_arith_mpi.c:644
    2a48:	52800001 	mov	w1, #0x0                   	// #0
    2a4c:	aa1603e0 	mov	x0, x22
    2a50:	940007ea 	bl	49f8 <mbedtls_mpi_lset>
    2a54:	34000080 	cbz	w0, 2a64 <mpi_egcd+0x200>
/home/hei/Desktop/optee-qemu/optee_os/lib/libutee/tee_api_arith_mpi.c:644 (discriminator 1)
    2a58:	2a0003e2 	mov	w2, w0
    2a5c:	52805081 	mov	w1, #0x284                 	// #644
    2a60:	17ffffad 	b	2914 <mpi_egcd+0xb0>
/home/hei/Desktop/optee-qemu/optee_os/lib/libutee/tee_api_arith_mpi.c:645
    2a64:	52800001 	mov	w1, #0x0                   	// #0
    2a68:	aa1403e0 	mov	x0, x20
    2a6c:	940007e3 	bl	49f8 <mbedtls_mpi_lset>
    2a70:	34000080 	cbz	w0, 2a80 <mpi_egcd+0x21c>
/home/hei/Desktop/optee-qemu/optee_os/lib/libutee/tee_api_arith_mpi.c:645 (discriminator 1)
    2a74:	2a0003e2 	mov	w2, w0
    2a78:	528050a1 	mov	w1, #0x285                 	// #645
    2a7c:	17ffffa6 	b	2914 <mpi_egcd+0xb0>
/home/hei/Desktop/optee-qemu/optee_os/lib/libutee/tee_api_arith_mpi.c:646
    2a80:	52800021 	mov	w1, #0x1                   	// #1
    2a84:	aa1303e0 	mov	x0, x19
    2a88:	940007dc 	bl	49f8 <mbedtls_mpi_lset>
    2a8c:	34001340 	cbz	w0, 2cf4 <mpi_egcd+0x490>
/home/hei/Desktop/optee-qemu/optee_os/lib/libutee/tee_api_arith_mpi.c:646 (discriminator 1)
    2a90:	2a0003e2 	mov	w2, w0
    2a94:	528050c1 	mov	w1, #0x286                 	// #646
    2a98:	17ffff9f 	b	2914 <mpi_egcd+0xb0>
/home/hei/Desktop/optee-qemu/optee_os/lib/libutee/tee_api_arith_mpi.c:650
    2a9c:	d2800021 	mov	x1, #0x1                   	// #1
    2aa0:	aa1503e0 	mov	x0, x21
    2aa4:	940008ef 	bl	4e60 <mbedtls_mpi_shift_r>
    2aa8:	34000080 	cbz	w0, 2ab8 <mpi_egcd+0x254>
/home/hei/Desktop/optee-qemu/optee_os/lib/libutee/tee_api_arith_mpi.c:650 (discriminator 1)
    2aac:	2a0003e2 	mov	w2, w0
    2ab0:	52805141 	mov	w1, #0x28a                 	// #650
    2ab4:	17ffff98 	b	2914 <mpi_egcd+0xb0>
/home/hei/Desktop/optee-qemu/optee_os/lib/libutee/tee_api_arith_mpi.c:651
    2ab8:	aa1703e0 	mov	x0, x23
    2abc:	97ffff58 	bl	281c <mpi_is_odd>
    2ac0:	72001c1f 	tst	w0, #0xff
    2ac4:	54000120 	b.eq	2ae8 <mpi_egcd+0x284>  // b.none
/home/hei/Desktop/optee-qemu/optee_os/lib/libutee/tee_api_arith_mpi.c:652
    2ac8:	aa1903e2 	mov	x2, x25
    2acc:	aa1703e1 	mov	x1, x23
    2ad0:	aa1703e0 	mov	x0, x23
    2ad4:	94000a02 	bl	52dc <mbedtls_mpi_add_mpi>
    2ad8:	340001e0 	cbz	w0, 2b14 <mpi_egcd+0x2b0>
/home/hei/Desktop/optee-qemu/optee_os/lib/libutee/tee_api_arith_mpi.c:652 (discriminator 1)
    2adc:	2a0003e2 	mov	w2, w0
    2ae0:	52805181 	mov	w1, #0x28c                 	// #652
    2ae4:	17ffff8c 	b	2914 <mpi_egcd+0xb0>
/home/hei/Desktop/optee-qemu/optee_os/lib/libutee/tee_api_arith_mpi.c:651 (discriminator 1)
    2ae8:	aa1603e0 	mov	x0, x22
    2aec:	97ffff4c 	bl	281c <mpi_is_odd>
    2af0:	72001c1f 	tst	w0, #0xff
    2af4:	54fffea1 	b.ne	2ac8 <mpi_egcd+0x264>  // b.any
/home/hei/Desktop/optee-qemu/optee_os/lib/libutee/tee_api_arith_mpi.c:655
    2af8:	d2800021 	mov	x1, #0x1                   	// #1
    2afc:	aa1703e0 	mov	x0, x23
    2b00:	940008d8 	bl	4e60 <mbedtls_mpi_shift_r>
    2b04:	34000180 	cbz	w0, 2b34 <mpi_egcd+0x2d0>
/home/hei/Desktop/optee-qemu/optee_os/lib/libutee/tee_api_arith_mpi.c:655 (discriminator 1)
    2b08:	2a0003e2 	mov	w2, w0
    2b0c:	528051e1 	mov	w1, #0x28f                 	// #655
    2b10:	17ffff81 	b	2914 <mpi_egcd+0xb0>
/home/hei/Desktop/optee-qemu/optee_os/lib/libutee/tee_api_arith_mpi.c:653
    2b14:	aa1a03e2 	mov	x2, x26
    2b18:	aa1603e1 	mov	x1, x22
    2b1c:	aa1603e0 	mov	x0, x22
    2b20:	94000a11 	bl	5364 <mbedtls_mpi_sub_mpi>
    2b24:	34fffea0 	cbz	w0, 2af8 <mpi_egcd+0x294>
/home/hei/Desktop/optee-qemu/optee_os/lib/libutee/tee_api_arith_mpi.c:653 (discriminator 1)
    2b28:	2a0003e2 	mov	w2, w0
    2b2c:	528051a1 	mov	w1, #0x28d                 	// #653
    2b30:	17ffff79 	b	2914 <mpi_egcd+0xb0>
/home/hei/Desktop/optee-qemu/optee_os/lib/libutee/tee_api_arith_mpi.c:656
    2b34:	d2800021 	mov	x1, #0x1                   	// #1
    2b38:	aa1603e0 	mov	x0, x22
    2b3c:	940008c9 	bl	4e60 <mbedtls_mpi_shift_r>
    2b40:	34000080 	cbz	w0, 2b50 <mpi_egcd+0x2ec>
/home/hei/Desktop/optee-qemu/optee_os/lib/libutee/tee_api_arith_mpi.c:656 (discriminator 1)
    2b44:	2a0003e2 	mov	w2, w0
    2b48:	52805201 	mov	w1, #0x290                 	// #656
    2b4c:	17ffff72 	b	2914 <mpi_egcd+0xb0>
mpi_is_even():
/home/hei/Desktop/optee-qemu/optee_os/lib/libutee/tee_api_arith_mpi.c:596
    2b50:	aa1503e0 	mov	x0, x21
    2b54:	97ffff32 	bl	281c <mpi_is_odd>
mpi_egcd():
/home/hei/Desktop/optee-qemu/optee_os/lib/libutee/tee_api_arith_mpi.c:649
    2b58:	72001c1f 	tst	w0, #0xff
    2b5c:	54fffa00 	b.eq	2a9c <mpi_egcd+0x238>  // b.none
mpi_is_even():
/home/hei/Desktop/optee-qemu/optee_os/lib/libutee/tee_api_arith_mpi.c:596
    2b60:	aa1803e0 	mov	x0, x24
    2b64:	97ffff2e 	bl	281c <mpi_is_odd>
mpi_egcd():
/home/hei/Desktop/optee-qemu/optee_os/lib/libutee/tee_api_arith_mpi.c:659
    2b68:	72001c1f 	tst	w0, #0xff
    2b6c:	540001a0 	b.eq	2ba0 <mpi_egcd+0x33c>  // b.none
/home/hei/Desktop/optee-qemu/optee_os/lib/libutee/tee_api_arith_mpi.c:670
    2b70:	aa1803e1 	mov	x1, x24
    2b74:	aa1503e0 	mov	x0, x21
    2b78:	94000913 	bl	4fc4 <mbedtls_mpi_cmp_mpi>
    2b7c:	37f808c0 	tbnz	w0, #31, 2c94 <mpi_egcd+0x430>
/home/hei/Desktop/optee-qemu/optee_os/lib/libutee/tee_api_arith_mpi.c:671
    2b80:	aa1803e2 	mov	x2, x24
    2b84:	aa1503e1 	mov	x1, x21
    2b88:	aa1503e0 	mov	x0, x21
    2b8c:	940009f6 	bl	5364 <mbedtls_mpi_sub_mpi>
    2b90:	34000620 	cbz	w0, 2c54 <mpi_egcd+0x3f0>
/home/hei/Desktop/optee-qemu/optee_os/lib/libutee/tee_api_arith_mpi.c:671 (discriminator 1)
    2b94:	2a0003e2 	mov	w2, w0
    2b98:	528053e1 	mov	w1, #0x29f                 	// #671
    2b9c:	17ffff5e 	b	2914 <mpi_egcd+0xb0>
/home/hei/Desktop/optee-qemu/optee_os/lib/libutee/tee_api_arith_mpi.c:660
    2ba0:	d2800021 	mov	x1, #0x1                   	// #1
    2ba4:	aa1803e0 	mov	x0, x24
    2ba8:	940008ae 	bl	4e60 <mbedtls_mpi_shift_r>
    2bac:	34000080 	cbz	w0, 2bbc <mpi_egcd+0x358>
/home/hei/Desktop/optee-qemu/optee_os/lib/libutee/tee_api_arith_mpi.c:660 (discriminator 1)
    2bb0:	2a0003e2 	mov	w2, w0
    2bb4:	52805281 	mov	w1, #0x294                 	// #660
    2bb8:	17ffff57 	b	2914 <mpi_egcd+0xb0>
/home/hei/Desktop/optee-qemu/optee_os/lib/libutee/tee_api_arith_mpi.c:661
    2bbc:	aa1403e0 	mov	x0, x20
    2bc0:	97ffff17 	bl	281c <mpi_is_odd>
    2bc4:	72001c1f 	tst	w0, #0xff
    2bc8:	54000120 	b.eq	2bec <mpi_egcd+0x388>  // b.none
/home/hei/Desktop/optee-qemu/optee_os/lib/libutee/tee_api_arith_mpi.c:662
    2bcc:	aa1903e2 	mov	x2, x25
    2bd0:	aa1403e1 	mov	x1, x20
    2bd4:	aa1403e0 	mov	x0, x20
    2bd8:	940009c1 	bl	52dc <mbedtls_mpi_add_mpi>
    2bdc:	340001e0 	cbz	w0, 2c18 <mpi_egcd+0x3b4>
/home/hei/Desktop/optee-qemu/optee_os/lib/libutee/tee_api_arith_mpi.c:662 (discriminator 1)
    2be0:	2a0003e2 	mov	w2, w0
    2be4:	528052c1 	mov	w1, #0x296                 	// #662
    2be8:	17ffff4b 	b	2914 <mpi_egcd+0xb0>
/home/hei/Desktop/optee-qemu/optee_os/lib/libutee/tee_api_arith_mpi.c:661 (discriminator 1)
    2bec:	aa1303e0 	mov	x0, x19
    2bf0:	97ffff0b 	bl	281c <mpi_is_odd>
    2bf4:	72001c1f 	tst	w0, #0xff
    2bf8:	54fffea1 	b.ne	2bcc <mpi_egcd+0x368>  // b.any
/home/hei/Desktop/optee-qemu/optee_os/lib/libutee/tee_api_arith_mpi.c:665
    2bfc:	d2800021 	mov	x1, #0x1                   	// #1
    2c00:	aa1403e0 	mov	x0, x20
    2c04:	94000897 	bl	4e60 <mbedtls_mpi_shift_r>
    2c08:	34000180 	cbz	w0, 2c38 <mpi_egcd+0x3d4>
/home/hei/Desktop/optee-qemu/optee_os/lib/libutee/tee_api_arith_mpi.c:665 (discriminator 1)
    2c0c:	2a0003e2 	mov	w2, w0
    2c10:	52805321 	mov	w1, #0x299                 	// #665
    2c14:	17ffff40 	b	2914 <mpi_egcd+0xb0>
/home/hei/Desktop/optee-qemu/optee_os/lib/libutee/tee_api_arith_mpi.c:663
    2c18:	aa1a03e2 	mov	x2, x26
    2c1c:	aa1303e1 	mov	x1, x19
    2c20:	aa1303e0 	mov	x0, x19
    2c24:	940009d0 	bl	5364 <mbedtls_mpi_sub_mpi>
    2c28:	34fffea0 	cbz	w0, 2bfc <mpi_egcd+0x398>
/home/hei/Desktop/optee-qemu/optee_os/lib/libutee/tee_api_arith_mpi.c:663 (discriminator 1)
    2c2c:	2a0003e2 	mov	w2, w0
    2c30:	528052e1 	mov	w1, #0x297                 	// #663
    2c34:	17ffff38 	b	2914 <mpi_egcd+0xb0>
/home/hei/Desktop/optee-qemu/optee_os/lib/libutee/tee_api_arith_mpi.c:666
    2c38:	d2800021 	mov	x1, #0x1                   	// #1
    2c3c:	aa1303e0 	mov	x0, x19
    2c40:	94000888 	bl	4e60 <mbedtls_mpi_shift_r>
    2c44:	34fff8e0 	cbz	w0, 2b60 <mpi_egcd+0x2fc>
/home/hei/Desktop/optee-qemu/optee_os/lib/libutee/tee_api_arith_mpi.c:666 (discriminator 1)
    2c48:	2a0003e2 	mov	w2, w0
    2c4c:	52805341 	mov	w1, #0x29a                 	// #666
    2c50:	17ffff31 	b	2914 <mpi_egcd+0xb0>
/home/hei/Desktop/optee-qemu/optee_os/lib/libutee/tee_api_arith_mpi.c:672
    2c54:	aa1403e2 	mov	x2, x20
    2c58:	aa1703e1 	mov	x1, x23
    2c5c:	aa1703e0 	mov	x0, x23
    2c60:	940009c1 	bl	5364 <mbedtls_mpi_sub_mpi>
    2c64:	34000080 	cbz	w0, 2c74 <mpi_egcd+0x410>
/home/hei/Desktop/optee-qemu/optee_os/lib/libutee/tee_api_arith_mpi.c:672 (discriminator 1)
    2c68:	2a0003e2 	mov	w2, w0
    2c6c:	52805401 	mov	w1, #0x2a0                 	// #672
    2c70:	17ffff29 	b	2914 <mpi_egcd+0xb0>
/home/hei/Desktop/optee-qemu/optee_os/lib/libutee/tee_api_arith_mpi.c:673
    2c74:	aa1303e2 	mov	x2, x19
    2c78:	aa1603e1 	mov	x1, x22
    2c7c:	aa1603e0 	mov	x0, x22
    2c80:	940009b9 	bl	5364 <mbedtls_mpi_sub_mpi>
    2c84:	34000380 	cbz	w0, 2cf4 <mpi_egcd+0x490>
/home/hei/Desktop/optee-qemu/optee_os/lib/libutee/tee_api_arith_mpi.c:673 (discriminator 1)
    2c88:	2a0003e2 	mov	w2, w0
    2c8c:	52805421 	mov	w1, #0x2a1                 	// #673
    2c90:	17ffff21 	b	2914 <mpi_egcd+0xb0>
/home/hei/Desktop/optee-qemu/optee_os/lib/libutee/tee_api_arith_mpi.c:675
    2c94:	aa1503e2 	mov	x2, x21
    2c98:	aa1803e1 	mov	x1, x24
    2c9c:	aa1803e0 	mov	x0, x24
    2ca0:	940009b1 	bl	5364 <mbedtls_mpi_sub_mpi>
    2ca4:	34000080 	cbz	w0, 2cb4 <mpi_egcd+0x450>
/home/hei/Desktop/optee-qemu/optee_os/lib/libutee/tee_api_arith_mpi.c:675 (discriminator 1)
    2ca8:	2a0003e2 	mov	w2, w0
    2cac:	52805461 	mov	w1, #0x2a3                 	// #675
    2cb0:	17ffff19 	b	2914 <mpi_egcd+0xb0>
/home/hei/Desktop/optee-qemu/optee_os/lib/libutee/tee_api_arith_mpi.c:676
    2cb4:	aa1703e2 	mov	x2, x23
    2cb8:	aa1403e1 	mov	x1, x20
    2cbc:	aa1403e0 	mov	x0, x20
    2cc0:	940009a9 	bl	5364 <mbedtls_mpi_sub_mpi>
    2cc4:	34000080 	cbz	w0, 2cd4 <mpi_egcd+0x470>
/home/hei/Desktop/optee-qemu/optee_os/lib/libutee/tee_api_arith_mpi.c:676 (discriminator 1)
    2cc8:	2a0003e2 	mov	w2, w0
    2ccc:	52805481 	mov	w1, #0x2a4                 	// #676
    2cd0:	17ffff11 	b	2914 <mpi_egcd+0xb0>
/home/hei/Desktop/optee-qemu/optee_os/lib/libutee/tee_api_arith_mpi.c:677
    2cd4:	aa1603e2 	mov	x2, x22
    2cd8:	aa1303e1 	mov	x1, x19
    2cdc:	aa1303e0 	mov	x0, x19
    2ce0:	940009a1 	bl	5364 <mbedtls_mpi_sub_mpi>
    2ce4:	34000080 	cbz	w0, 2cf4 <mpi_egcd+0x490>
/home/hei/Desktop/optee-qemu/optee_os/lib/libutee/tee_api_arith_mpi.c:677 (discriminator 1)
    2ce8:	2a0003e2 	mov	w2, w0
    2cec:	528054a1 	mov	w1, #0x2a5                 	// #677
    2cf0:	17ffff09 	b	2914 <mpi_egcd+0xb0>
/home/hei/Desktop/optee-qemu/optee_os/lib/libutee/tee_api_arith_mpi.c:648
    2cf4:	52800001 	mov	w1, #0x0                   	// #0
    2cf8:	aa1503e0 	mov	x0, x21
    2cfc:	940008e8 	bl	509c <mbedtls_mpi_cmp_int>
    2d00:	35fff280 	cbnz	w0, 2b50 <mpi_egcd+0x2ec>
/home/hei/Desktop/optee-qemu/optee_os/lib/libutee/tee_api_arith_mpi.c:681
    2d04:	9e660100 	fmov	x0, d8
    2d08:	aa1403e1 	mov	x1, x20
    2d0c:	9400068d 	bl	4740 <mbedtls_mpi_copy>
    2d10:	34000080 	cbz	w0, 2d20 <mpi_egcd+0x4bc>
/home/hei/Desktop/optee-qemu/optee_os/lib/libutee/tee_api_arith_mpi.c:681 (discriminator 1)
    2d14:	2a0003e2 	mov	w2, w0
    2d18:	52805521 	mov	w1, #0x2a9                 	// #681
    2d1c:	17fffefe 	b	2914 <mpi_egcd+0xb0>
/home/hei/Desktop/optee-qemu/optee_os/lib/libutee/tee_api_arith_mpi.c:682
    2d20:	aa1303e1 	mov	x1, x19
    2d24:	aa1c03e0 	mov	x0, x28
    2d28:	94000686 	bl	4740 <mbedtls_mpi_copy>
    2d2c:	34000080 	cbz	w0, 2d3c <mpi_egcd+0x4d8>
/home/hei/Desktop/optee-qemu/optee_os/lib/libutee/tee_api_arith_mpi.c:682 (discriminator 1)
    2d30:	2a0003e2 	mov	w2, w0
    2d34:	52805541 	mov	w1, #0x2aa                 	// #682
    2d38:	17fffef7 	b	2914 <mpi_egcd+0xb0>
/home/hei/Desktop/optee-qemu/optee_os/lib/libutee/tee_api_arith_mpi.c:683
    2d3c:	2a1b03e1 	mov	w1, w27
    2d40:	aa1803e0 	mov	x0, x24
    2d44:	94000807 	bl	4d60 <mbedtls_mpi_shift_l>
    2d48:	34000080 	cbz	w0, 2d58 <mpi_egcd+0x4f4>
/home/hei/Desktop/optee-qemu/optee_os/lib/libutee/tee_api_arith_mpi.c:683 (discriminator 1)
    2d4c:	2a0003e2 	mov	w2, w0
    2d50:	52805561 	mov	w1, #0x2ab                 	// #683
    2d54:	17fffef0 	b	2914 <mpi_egcd+0xb0>
/home/hei/Desktop/optee-qemu/optee_os/lib/libutee/tee_api_arith_mpi.c:686
    2d58:	aa1703e0 	mov	x0, x23
    2d5c:	940005d8 	bl	44bc <mbedtls_mpi_free>
/home/hei/Desktop/optee-qemu/optee_os/lib/libutee/tee_api_arith_mpi.c:687
    2d60:	aa1603e0 	mov	x0, x22
    2d64:	940005d6 	bl	44bc <mbedtls_mpi_free>
/home/hei/Desktop/optee-qemu/optee_os/lib/libutee/tee_api_arith_mpi.c:688
    2d68:	aa1403e0 	mov	x0, x20
    2d6c:	940005d4 	bl	44bc <mbedtls_mpi_free>
/home/hei/Desktop/optee-qemu/optee_os/lib/libutee/tee_api_arith_mpi.c:689
    2d70:	aa1303e0 	mov	x0, x19
    2d74:	940005d2 	bl	44bc <mbedtls_mpi_free>
/home/hei/Desktop/optee-qemu/optee_os/lib/libutee/tee_api_arith_mpi.c:690
    2d78:	aa1a03e0 	mov	x0, x26
    2d7c:	940005d0 	bl	44bc <mbedtls_mpi_free>
/home/hei/Desktop/optee-qemu/optee_os/lib/libutee/tee_api_arith_mpi.c:691
    2d80:	aa1903e0 	mov	x0, x25
    2d84:	940005ce 	bl	44bc <mbedtls_mpi_free>
/home/hei/Desktop/optee-qemu/optee_os/lib/libutee/tee_api_arith_mpi.c:692
    2d88:	aa1503e0 	mov	x0, x21
    2d8c:	940005cc 	bl	44bc <mbedtls_mpi_free>
/home/hei/Desktop/optee-qemu/optee_os/lib/libutee/tee_api_arith_mpi.c:693
    2d90:	a94153f3 	ldp	x19, x20, [sp, #16]
    2d94:	a9425bf5 	ldp	x21, x22, [sp, #32]
    2d98:	a94363f7 	ldp	x23, x24, [sp, #48]
    2d9c:	a9446bf9 	ldp	x25, x26, [sp, #64]
    2da0:	a94573fb 	ldp	x27, x28, [sp, #80]
    2da4:	6d4627e8 	ldp	d8, d9, [sp, #96]
    2da8:	a8d27bfd 	ldp	x29, x30, [sp], #288
    2dac:	d65f03c0 	ret

0000000000002db0 <_TEE_MathAPI_Init>:
_TEE_MathAPI_Init():
/home/hei/Desktop/optee-qemu/optee_os/lib/libutee/tee_api_arith_mpi.c:44
    2db0:	a9bf7bfd 	stp	x29, x30, [sp, #-16]!
/home/hei/Desktop/optee-qemu/optee_os/lib/libutee/tee_api_arith_mpi.c:47
    2db4:	d2860001 	mov	x1, #0x3000                	// #12288
    2db8:	d2800002 	mov	x2, #0x0                   	// #0
/home/hei/Desktop/optee-qemu/optee_os/lib/libutee/tee_api_arith_mpi.c:44
    2dbc:	910003fd 	mov	x29, sp
/home/hei/Desktop/optee-qemu/optee_os/lib/libutee/tee_api_arith_mpi.c:47
    2dc0:	d0000040 	adrp	x0, c000 <_DYNAMIC>
    2dc4:	91120000 	add	x0, x0, #0x480
    2dc8:	940016a2 	bl	8850 <mempool_alloc_pool>
    2dcc:	d0000041 	adrp	x1, c000 <_DYNAMIC>
    2dd0:	f940c421 	ldr	x1, [x1, #392]
    2dd4:	f9000020 	str	x0, [x1]
/home/hei/Desktop/optee-qemu/optee_os/lib/libutee/tee_api_arith_mpi.c:48
    2dd8:	b5000100 	cbnz	x0, 2df8 <_TEE_MathAPI_Init+0x48>
/home/hei/Desktop/optee-qemu/optee_os/lib/libutee/tee_api_arith_mpi.c:49
    2ddc:	90000040 	adrp	x0, a000 <__text_end+0x1540>
    2de0:	91303400 	add	x0, x0, #0xc0d
    2de4:	90000042 	adrp	x2, a000 <__text_end+0x1540>
    2de8:	52800621 	mov	w1, #0x31                  	// #49
    2dec:	91363c42 	add	x2, x2, #0xd8f
    2df0:	91007c00 	add	x0, x0, #0x1f
    2df4:	97fffded 	bl	25a8 <api_panic>
/home/hei/Desktop/optee-qemu/optee_os/lib/libutee/tee_api_arith_mpi.c:50
    2df8:	a8c17bfd 	ldp	x29, x30, [sp], #16
    2dfc:	d65f03c0 	ret

0000000000002e00 <TEE_BigIntInit>:
TEE_BigIntInit():
/home/hei/Desktop/optee-qemu/optee_os/lib/libutee/tee_api_arith_mpi.c:120
    2e00:	11007c22 	add	w2, w1, #0x1f
/home/hei/Desktop/optee-qemu/optee_os/lib/libutee/tee_api_arith_mpi.c:119
    2e04:	a9be7bfd 	stp	x29, x30, [sp, #-32]!
/home/hei/Desktop/optee-qemu/optee_os/lib/libutee/tee_api_arith_mpi.c:120
    2e08:	53057c42 	lsr	w2, w2, #5
/home/hei/Desktop/optee-qemu/optee_os/lib/libutee/tee_api_arith_mpi.c:119
    2e0c:	910003fd 	mov	x29, sp
/home/hei/Desktop/optee-qemu/optee_os/lib/libutee/tee_api_arith_mpi.c:120
    2e10:	11000842 	add	w2, w2, #0x2
/home/hei/Desktop/optee-qemu/optee_os/lib/libutee/tee_api_arith_mpi.c:119
    2e14:	f9000bf3 	str	x19, [sp, #16]
    2e18:	2a0103f3 	mov	w19, w1
/home/hei/Desktop/optee-qemu/optee_os/lib/libutee/tee_api_arith_mpi.c:120
    2e1c:	d37e6c42 	ubfiz	x2, x2, #2, #28
    2e20:	52800001 	mov	w1, #0x0                   	// #0
    2e24:	94001684 	bl	8834 <memset>
    2e28:	aa0003e3 	mov	x3, x0
/home/hei/Desktop/optee-qemu/optee_os/lib/libutee/tee_api_arith_mpi.c:125
    2e2c:	52800020 	mov	w0, #0x1                   	// #1
/home/hei/Desktop/optee-qemu/optee_os/lib/libutee/tee_api_arith_mpi.c:126
    2e30:	51000a73 	sub	w19, w19, #0x2
/home/hei/Desktop/optee-qemu/optee_os/lib/libutee/tee_api_arith_mpi.c:125
    2e34:	b9000060 	str	w0, [x3]
/home/hei/Desktop/optee-qemu/optee_os/lib/libutee/tee_api_arith_mpi.c:126
    2e38:	5284e200 	mov	w0, #0x2710                	// #10000
    2e3c:	6b00027f 	cmp	w19, w0
    2e40:	54000109 	b.ls	2e60 <TEE_BigIntInit+0x60>  // b.plast
/home/hei/Desktop/optee-qemu/optee_os/lib/libutee/tee_api_arith_mpi.c:127
    2e44:	90000040 	adrp	x0, a000 <__text_end+0x1540>
    2e48:	91303400 	add	x0, x0, #0xc0d
    2e4c:	90000042 	adrp	x2, a000 <__text_end+0x1540>
    2e50:	52800fe1 	mov	w1, #0x7f                  	// #127
    2e54:	9136c042 	add	x2, x2, #0xdb0
    2e58:	9100c400 	add	x0, x0, #0x31
    2e5c:	97fffdd3 	bl	25a8 <api_panic>
/home/hei/Desktop/optee-qemu/optee_os/lib/libutee/tee_api_arith_mpi.c:128
    2e60:	79000873 	strh	w19, [x3, #4]
/home/hei/Desktop/optee-qemu/optee_os/lib/libutee/tee_api_arith_mpi.c:129
    2e64:	f9400bf3 	ldr	x19, [sp, #16]
    2e68:	a8c27bfd 	ldp	x29, x30, [sp], #32
    2e6c:	d65f03c0 	ret

0000000000002e70 <TEE_BigIntConvertFromOctetString>:
TEE_BigIntConvertFromOctetString():
/home/hei/Desktop/optee-qemu/optee_os/lib/libutee/tee_api_arith_mpi.c:134
    2e70:	a9ba7bfd 	stp	x29, x30, [sp, #-96]!
    2e74:	910003fd 	mov	x29, sp
    2e78:	a90153f3 	stp	x19, x20, [sp, #16]
get_mpi():
/home/hei/Desktop/optee-qemu/optee_os/lib/libutee/tee_api_arith_mpi.c:101
    2e7c:	910123f3 	add	x19, sp, #0x48
TEE_BigIntConvertFromOctetString():
/home/hei/Desktop/optee-qemu/optee_os/lib/libutee/tee_api_arith_mpi.c:134
    2e80:	2a0303f4 	mov	w20, w3
    2e84:	a9025bf5 	stp	x21, x22, [sp, #32]
    2e88:	2a0203f6 	mov	w22, w2
    2e8c:	aa0003f5 	mov	x21, x0
get_mpi():
/home/hei/Desktop/optee-qemu/optee_os/lib/libutee/tee_api_arith_mpi.c:101
    2e90:	aa1303e0 	mov	x0, x19
TEE_BigIntConvertFromOctetString():
/home/hei/Desktop/optee-qemu/optee_os/lib/libutee/tee_api_arith_mpi.c:134
    2e94:	f9001fe1 	str	x1, [sp, #56]
get_mpi():
/home/hei/Desktop/optee-qemu/optee_os/lib/libutee/tee_api_arith_mpi.c:101
    2e98:	9400057f 	bl	4494 <mbedtls_mpi_init_mempool>
TEE_BigIntConvertFromOctetString():
/home/hei/Desktop/optee-qemu/optee_os/lib/libutee/tee_api_arith_mpi.c:140
    2e9c:	f9401fe1 	ldr	x1, [sp, #56]
    2ea0:	2a1603e2 	mov	w2, w22
    2ea4:	aa1303e0 	mov	x0, x19
    2ea8:	9400074f 	bl	4be4 <mbedtls_mpi_read_binary>
    2eac:	350001e0 	cbnz	w0, 2ee8 <TEE_BigIntConvertFromOctetString+0x78>
/home/hei/Desktop/optee-qemu/optee_os/lib/libutee/tee_api_arith_mpi.c:145
    2eb0:	36f80074 	tbz	w20, #31, 2ebc <TEE_BigIntConvertFromOctetString+0x4c>
/home/hei/Desktop/optee-qemu/optee_os/lib/libutee/tee_api_arith_mpi.c:146
    2eb4:	12800000 	mov	w0, #0xffffffff            	// #-1
    2eb8:	790093e0 	strh	w0, [sp, #72]
/home/hei/Desktop/optee-qemu/optee_os/lib/libutee/tee_api_arith_mpi.c:149
    2ebc:	aa1503e1 	mov	x1, x21
    2ec0:	aa1303e0 	mov	x0, x19
    2ec4:	97fffdf7 	bl	26a0 <copy_mpi_to_bigint>
    2ec8:	2a0003f4 	mov	w20, w0
/home/hei/Desktop/optee-qemu/optee_os/lib/libutee/tee_api_arith_mpi.c:151
    2ecc:	aa1303e0 	mov	x0, x19
    2ed0:	9400057b 	bl	44bc <mbedtls_mpi_free>
/home/hei/Desktop/optee-qemu/optee_os/lib/libutee/tee_api_arith_mpi.c:154
    2ed4:	2a1403e0 	mov	w0, w20
    2ed8:	a94153f3 	ldp	x19, x20, [sp, #16]
    2edc:	a9425bf5 	ldp	x21, x22, [sp, #32]
    2ee0:	a8c67bfd 	ldp	x29, x30, [sp], #96
    2ee4:	d65f03c0 	ret
/home/hei/Desktop/optee-qemu/optee_os/lib/libutee/tee_api_arith_mpi.c:145
    2ee8:	36f80074 	tbz	w20, #31, 2ef4 <TEE_BigIntConvertFromOctetString+0x84>
/home/hei/Desktop/optee-qemu/optee_os/lib/libutee/tee_api_arith_mpi.c:146
    2eec:	12800000 	mov	w0, #0xffffffff            	// #-1
    2ef0:	790093e0 	strh	w0, [sp, #72]
/home/hei/Desktop/optee-qemu/optee_os/lib/libutee/tee_api_arith_mpi.c:141
    2ef4:	1299fe14 	mov	w20, #0xffff300f            	// #-53233
    2ef8:	17fffff5 	b	2ecc <TEE_BigIntConvertFromOctetString+0x5c>

0000000000002efc <TEE_BigIntConvertToOctetString>:
TEE_BigIntConvertToOctetString():
/home/hei/Desktop/optee-qemu/optee_os/lib/libutee/tee_api_arith_mpi.c:158
    2efc:	a9bb7bfd 	stp	x29, x30, [sp, #-80]!
    2f00:	910003fd 	mov	x29, sp
    2f04:	a9025bf5 	stp	x21, x22, [sp, #32]
    2f08:	aa0103f6 	mov	x22, x1
/home/hei/Desktop/optee-qemu/optee_os/lib/libutee/tee_api_arith_mpi.c:163
    2f0c:	aa0203e1 	mov	x1, x2
/home/hei/Desktop/optee-qemu/optee_os/lib/libutee/tee_api_arith_mpi.c:158
    2f10:	a90153f3 	stp	x19, x20, [sp, #16]
/home/hei/Desktop/optee-qemu/optee_os/lib/libutee/tee_api_arith_mpi.c:163
    2f14:	9100e3f3 	add	x19, sp, #0x38
/home/hei/Desktop/optee-qemu/optee_os/lib/libutee/tee_api_arith_mpi.c:158
    2f18:	aa0003f5 	mov	x21, x0
/home/hei/Desktop/optee-qemu/optee_os/lib/libutee/tee_api_arith_mpi.c:163
    2f1c:	aa1303e0 	mov	x0, x19
    2f20:	97fffdba 	bl	2608 <get_mpi>
/home/hei/Desktop/optee-qemu/optee_os/lib/libutee/tee_api_arith_mpi.c:165
    2f24:	aa1303e0 	mov	x0, x19
    2f28:	94000728 	bl	4bc8 <mbedtls_mpi_size>
    2f2c:	aa0003f4 	mov	x20, x0
/home/hei/Desktop/optee-qemu/optee_os/lib/libutee/tee_api_arith_mpi.c:166
    2f30:	b94002c0 	ldr	w0, [x22]
    2f34:	eb14001f 	cmp	x0, x20
    2f38:	540001a3 	b.cc	2f6c <TEE_BigIntConvertToOctetString+0x70>  // b.lo, b.ul, b.last
/home/hei/Desktop/optee-qemu/optee_os/lib/libutee/tee_api_arith_mpi.c:167
    2f3c:	aa1503e1 	mov	x1, x21
    2f40:	aa1403e2 	mov	x2, x20
    2f44:	aa1303e0 	mov	x0, x19
/home/hei/Desktop/optee-qemu/optee_os/lib/libutee/tee_api_arith_mpi.c:159
    2f48:	52800015 	mov	w21, #0x0                   	// #0
/home/hei/Desktop/optee-qemu/optee_os/lib/libutee/tee_api_arith_mpi.c:167
    2f4c:	94000754 	bl	4c9c <mbedtls_mpi_write_binary>
    2f50:	34000100 	cbz	w0, 2f70 <TEE_BigIntConvertToOctetString+0x74>
/home/hei/Desktop/optee-qemu/optee_os/lib/libutee/tee_api_arith_mpi.c:167 (discriminator 1)
    2f54:	2a0003e2 	mov	w2, w0
    2f58:	90000040 	adrp	x0, a000 <__text_end+0x1540>
    2f5c:	91303400 	add	x0, x0, #0xc0d
    2f60:	528014e1 	mov	w1, #0xa7                  	// #167
    2f64:	91010000 	add	x0, x0, #0x40
    2f68:	97fffd9c 	bl	25d8 <mpi_panic>
/home/hei/Desktop/optee-qemu/optee_os/lib/libutee/tee_api_arith_mpi.c:169
    2f6c:	129ffdf5 	mov	w21, #0xffff0010            	// #-65520
/home/hei/Desktop/optee-qemu/optee_os/lib/libutee/tee_api_arith_mpi.c:171
    2f70:	b90002d4 	str	w20, [x22]
/home/hei/Desktop/optee-qemu/optee_os/lib/libutee/tee_api_arith_mpi.c:173
    2f74:	aa1303e0 	mov	x0, x19
    2f78:	94000551 	bl	44bc <mbedtls_mpi_free>
/home/hei/Desktop/optee-qemu/optee_os/lib/libutee/tee_api_arith_mpi.c:176
    2f7c:	2a1503e0 	mov	w0, w21
    2f80:	a94153f3 	ldp	x19, x20, [sp, #16]
    2f84:	a9425bf5 	ldp	x21, x22, [sp, #32]
    2f88:	a8c57bfd 	ldp	x29, x30, [sp], #80
    2f8c:	d65f03c0 	ret

0000000000002f90 <TEE_BigIntConvertFromS32>:
TEE_BigIntConvertFromS32():
/home/hei/Desktop/optee-qemu/optee_os/lib/libutee/tee_api_arith_mpi.c:179
    2f90:	a9bb7bfd 	stp	x29, x30, [sp, #-80]!
    2f94:	910003fd 	mov	x29, sp
    2f98:	a90153f3 	stp	x19, x20, [sp, #16]
/home/hei/Desktop/optee-qemu/optee_os/lib/libutee/tee_api_arith_mpi.c:182
    2f9c:	9100e3f3 	add	x19, sp, #0x38
/home/hei/Desktop/optee-qemu/optee_os/lib/libutee/tee_api_arith_mpi.c:179
    2fa0:	aa0003f4 	mov	x20, x0
    2fa4:	f90013f5 	str	x21, [sp, #32]
    2fa8:	2a0103f5 	mov	w21, w1
/home/hei/Desktop/optee-qemu/optee_os/lib/libutee/tee_api_arith_mpi.c:182
    2fac:	aa0003e1 	mov	x1, x0
    2fb0:	aa1303e0 	mov	x0, x19
    2fb4:	97fffd95 	bl	2608 <get_mpi>
/home/hei/Desktop/optee-qemu/optee_os/lib/libutee/tee_api_arith_mpi.c:184
    2fb8:	2a1503e1 	mov	w1, w21
    2fbc:	aa1303e0 	mov	x0, x19
    2fc0:	9400068e 	bl	49f8 <mbedtls_mpi_lset>
    2fc4:	340000e0 	cbz	w0, 2fe0 <TEE_BigIntConvertFromS32+0x50>
/home/hei/Desktop/optee-qemu/optee_os/lib/libutee/tee_api_arith_mpi.c:184 (discriminator 1)
    2fc8:	2a0003e2 	mov	w2, w0
    2fcc:	52801701 	mov	w1, #0xb8                  	// #184
/home/hei/Desktop/optee-qemu/optee_os/lib/libutee/tee_api_arith_mpi.c:186 (discriminator 1)
    2fd0:	90000040 	adrp	x0, a000 <__text_end+0x1540>
    2fd4:	91303400 	add	x0, x0, #0xc0d
    2fd8:	91017c00 	add	x0, x0, #0x5f
    2fdc:	97fffd7f 	bl	25d8 <mpi_panic>
/home/hei/Desktop/optee-qemu/optee_os/lib/libutee/tee_api_arith_mpi.c:186
    2fe0:	aa1403e1 	mov	x1, x20
    2fe4:	aa1303e0 	mov	x0, x19
    2fe8:	97fffdae 	bl	26a0 <copy_mpi_to_bigint>
    2fec:	34000080 	cbz	w0, 2ffc <TEE_BigIntConvertFromS32+0x6c>
/home/hei/Desktop/optee-qemu/optee_os/lib/libutee/tee_api_arith_mpi.c:186 (discriminator 1)
    2ff0:	2a0003e2 	mov	w2, w0
    2ff4:	52801741 	mov	w1, #0xba                  	// #186
    2ff8:	17fffff6 	b	2fd0 <TEE_BigIntConvertFromS32+0x40>
/home/hei/Desktop/optee-qemu/optee_os/lib/libutee/tee_api_arith_mpi.c:187
    2ffc:	aa1303e0 	mov	x0, x19
    3000:	9400052f 	bl	44bc <mbedtls_mpi_free>
/home/hei/Desktop/optee-qemu/optee_os/lib/libutee/tee_api_arith_mpi.c:188
    3004:	a94153f3 	ldp	x19, x20, [sp, #16]
    3008:	f94013f5 	ldr	x21, [sp, #32]
    300c:	a8c57bfd 	ldp	x29, x30, [sp], #80
    3010:	d65f03c0 	ret

0000000000003014 <TEE_BigIntConvertToS32>:
TEE_BigIntConvertToS32():
/home/hei/Desktop/optee-qemu/optee_os/lib/libutee/tee_api_arith_mpi.c:191
    3014:	a9bc7bfd 	stp	x29, x30, [sp, #-64]!
    3018:	910003fd 	mov	x29, sp
    301c:	a90153f3 	stp	x19, x20, [sp, #16]
/home/hei/Desktop/optee-qemu/optee_os/lib/libutee/tee_api_arith_mpi.c:196
    3020:	9100a3f3 	add	x19, sp, #0x28
/home/hei/Desktop/optee-qemu/optee_os/lib/libutee/tee_api_arith_mpi.c:191
    3024:	aa0003f4 	mov	x20, x0
/home/hei/Desktop/optee-qemu/optee_os/lib/libutee/tee_api_arith_mpi.c:196
    3028:	aa1303e0 	mov	x0, x19
    302c:	97fffd77 	bl	2608 <get_mpi>
/home/hei/Desktop/optee-qemu/optee_os/lib/libutee/tee_api_arith_mpi.c:198
    3030:	d2800082 	mov	x2, #0x4                   	// #4
    3034:	910093e1 	add	x1, sp, #0x24
    3038:	aa1303e0 	mov	x0, x19
    303c:	94000718 	bl	4c9c <mbedtls_mpi_write_binary>
    3040:	34000100 	cbz	w0, 3060 <TEE_BigIntConvertToS32+0x4c>
/home/hei/Desktop/optee-qemu/optee_os/lib/libutee/tee_api_arith_mpi.c:199
    3044:	1299fe14 	mov	w20, #0xffff300f            	// #-53233
/home/hei/Desktop/optee-qemu/optee_os/lib/libutee/tee_api_arith_mpi.c:212
    3048:	aa1303e0 	mov	x0, x19
    304c:	9400051c 	bl	44bc <mbedtls_mpi_free>
/home/hei/Desktop/optee-qemu/optee_os/lib/libutee/tee_api_arith_mpi.c:215
    3050:	2a1403e0 	mov	w0, w20
    3054:	a94153f3 	ldp	x19, x20, [sp, #16]
    3058:	a8c47bfd 	ldp	x29, x30, [sp], #64
    305c:	d65f03c0 	ret
/home/hei/Desktop/optee-qemu/optee_os/lib/libutee/tee_api_arith_mpi.c:203
    3060:	b94027e1 	ldr	w1, [sp, #36]
    3064:	79c053e0 	ldrsh	w0, [sp, #40]
    3068:	5ac00821 	rev	w1, w1
    306c:	7100001f 	cmp	w0, #0x0
    3070:	2a0103e0 	mov	w0, w1
    3074:	540000cd 	b.le	308c <TEE_BigIntConvertToS32+0x78>
/home/hei/Desktop/optee-qemu/optee_os/lib/libutee/tee_api_arith_mpi.c:204
    3078:	eb21c01f 	cmp	x0, w1, sxtw
    307c:	b9000281 	str	w1, [x20]
/home/hei/Desktop/optee-qemu/optee_os/lib/libutee/tee_api_arith_mpi.c:207
    3080:	54fffe21 	b.ne	3044 <TEE_BigIntConvertToS32+0x30>  // b.any
/home/hei/Desktop/optee-qemu/optee_os/lib/libutee/tee_api_arith_mpi.c:192
    3084:	52800014 	mov	w20, #0x0                   	// #0
    3088:	17fffff0 	b	3048 <TEE_BigIntConvertToS32+0x34>
/home/hei/Desktop/optee-qemu/optee_os/lib/libutee/tee_api_arith_mpi.c:207
    308c:	cb0003e0 	neg	x0, x0
    3090:	b9000280 	str	w0, [x20]
    3094:	eb20c01f 	cmp	x0, w0, sxtw
    3098:	17fffffa 	b	3080 <TEE_BigIntConvertToS32+0x6c>

000000000000309c <TEE_BigIntCmp>:
TEE_BigIntCmp():
/home/hei/Desktop/optee-qemu/optee_os/lib/libutee/tee_api_arith_mpi.c:218
    309c:	a9ba7bfd 	stp	x29, x30, [sp, #-96]!
    30a0:	910003fd 	mov	x29, sp
    30a4:	a90153f3 	stp	x19, x20, [sp, #16]
/home/hei/Desktop/optee-qemu/optee_os/lib/libutee/tee_api_arith_mpi.c:223
    30a8:	9100c3f4 	add	x20, sp, #0x30
/home/hei/Desktop/optee-qemu/optee_os/lib/libutee/tee_api_arith_mpi.c:224
    30ac:	910123f3 	add	x19, sp, #0x48
/home/hei/Desktop/optee-qemu/optee_os/lib/libutee/tee_api_arith_mpi.c:218
    30b0:	f90013f5 	str	x21, [sp, #32]
    30b4:	aa0103f5 	mov	x21, x1
/home/hei/Desktop/optee-qemu/optee_os/lib/libutee/tee_api_arith_mpi.c:223
    30b8:	aa0003e1 	mov	x1, x0
    30bc:	aa1403e0 	mov	x0, x20
    30c0:	97fffd52 	bl	2608 <get_mpi>
