
63704294-2514-11ed-861d-0242ac120002.elf:     file format elf64-littleaarch64
63704294-2514-11ed-861d-0242ac120002.elf
architecture: aarch64, flags 0x00000150:
HAS_SYMS, DYNAMIC, D_PAGED
start address 0x00000000000002f4

Program Header:
    LOAD off    0x0000000000001000 vaddr 0x0000000000000000 paddr 0x0000000000000000 align 2**12
         filesz 0x000000000000b8d0 memsz 0x000000000000b8d0 flags r-x
    LOAD off    0x000000000000d000 vaddr 0x000000000000c000 paddr 0x000000000000c000 align 2**12
         filesz 0x0000000000000424 memsz 0x000000000000b490 flags rw-
 DYNAMIC off    0x000000000000d000 vaddr 0x000000000000c000 paddr 0x000000000000c000 align 2**3
         filesz 0x0000000000000110 memsz 0x0000000000000110 flags rw-
   STACK off    0x0000000000000000 vaddr 0x0000000000000000 paddr 0x0000000000000000 align 2**4
         filesz 0x0000000000000000 memsz 0x0000000000000000 flags rw-

Dynamic Section:
  HASH                 0x000000000000b6a8
  GNU_HASH             0x000000000000b638
  STRTAB               0x000000000000b6a0
  SYMTAB               0x000000000000b658
  STRSZ                0x0000000000000001
  SYMENT               0x0000000000000018
  DEBUG                0x0000000000000000
  RELA                 0x000000000000b6c0
  RELASZ               0x0000000000000330
  RELAENT              0x0000000000000018
  FLAGS_1              0x0000000008000000
  RELACOUNT            0x0000000000000016
private flags = 0:

Sections:
Idx Name          Size      VMA               LMA               File off  Algn
  0 .ta_head      00000020  0000000000000000  0000000000000000  00001000  2**3
                  CONTENTS, ALLOC, LOAD, READONLY, DATA
  1 .text         00008aa0  0000000000000020  0000000000000020  00001020  2**2
                  CONTENTS, ALLOC, LOAD, READONLY, CODE
  2 .eh_frame     00001ae0  0000000000008ac0  0000000000008ac0  00009ac0  2**3
                  CONTENTS, ALLOC, LOAD, READONLY, DATA
  3 .rodata       00001092  000000000000a5a0  000000000000a5a0  0000b5a0  2**3
                  CONTENTS, ALLOC, LOAD, READONLY, DATA
  4 .gnu.hash     0000001c  000000000000b638  000000000000b638  0000c638  2**3
                  CONTENTS, ALLOC, LOAD, READONLY, DATA
  5 .dynsym       00000048  000000000000b658  000000000000b658  0000c658  2**3
                  CONTENTS, ALLOC, LOAD, READONLY, DATA
  6 .dynstr       00000001  000000000000b6a0  000000000000b6a0  0000c6a0  2**0
                  CONTENTS, ALLOC, LOAD, READONLY, DATA
  7 .hash         00000018  000000000000b6a8  000000000000b6a8  0000c6a8  2**3
                  CONTENTS, ALLOC, LOAD, READONLY, DATA
  8 .rela.dyn     00000210  000000000000b6c0  000000000000b6c0  0000c6c0  2**3
                  CONTENTS, ALLOC, LOAD, READONLY, DATA
  9 .dynamic      00000110  000000000000c000  000000000000c000  0000d000  2**3
                  CONTENTS, ALLOC, LOAD, DATA
 10 .got          00000080  000000000000c110  000000000000c110  0000d110  2**3
                  CONTENTS, ALLOC, LOAD, DATA
 11 .rela.got     00000120  000000000000c190  000000000000c190  0000d190  2**3
                  CONTENTS, ALLOC, LOAD, READONLY, DATA
 12 .data         00000174  000000000000c2b0  000000000000c2b0  0000d2b0  2**3
                  CONTENTS, ALLOC, LOAD, DATA
 13 .bss          0000b068  000000000000c428  000000000000c428  0000d424  2**3
                  ALLOC
 14 .debug_info   00011748  0000000000000000  0000000000000000  0000d424  2**0
                  CONTENTS, READONLY, DEBUGGING
 15 .debug_abbrev 00002d47  0000000000000000  0000000000000000  0001eb6c  2**0
                  CONTENTS, READONLY, DEBUGGING
 16 .debug_loc    00019419  0000000000000000  0000000000000000  000218b3  2**0
                  CONTENTS, READONLY, DEBUGGING
 17 .debug_aranges 000007d0  0000000000000000  0000000000000000  0003acd0  2**4
                  CONTENTS, READONLY, DEBUGGING
 18 .debug_ranges 000016b0  0000000000000000  0000000000000000  0003b4a0  2**4
                  CONTENTS, READONLY, DEBUGGING
 19 .debug_macro  000101bf  0000000000000000  0000000000000000  0003cb50  2**0
                  CONTENTS, READONLY, DEBUGGING
 20 .debug_line   000099af  0000000000000000  0000000000000000  0004cd0f  2**0
                  CONTENTS, READONLY, DEBUGGING
 21 .debug_str    00011f91  0000000000000000  0000000000000000  000566be  2**0
                  CONTENTS, READONLY, DEBUGGING
 22 .comment      00000055  0000000000000000  0000000000000000  0006864f  2**0
                  CONTENTS, READONLY
SYMBOL TABLE:
0000000000000000 l    d  .ta_head	0000000000000000 .ta_head
0000000000000020 l    d  .text	0000000000000000 .text
0000000000008ac0 l    d  .eh_frame	0000000000000000 .eh_frame
000000000000a5a0 l    d  .rodata	0000000000000000 .rodata
000000000000b638 l    d  .gnu.hash	0000000000000000 .gnu.hash
000000000000b658 l    d  .dynsym	0000000000000000 .dynsym
000000000000b6a0 l    d  .dynstr	0000000000000000 .dynstr
000000000000b6a8 l    d  .hash	0000000000000000 .hash
000000000000b6c0 l    d  .rela.dyn	0000000000000000 .rela.dyn
000000000000c000 l    d  .dynamic	0000000000000000 .dynamic
000000000000c110 l    d  .got	0000000000000000 .got
000000000000c190 l    d  .rela.got	0000000000000000 .rela.got
000000000000c2b0 l    d  .data	0000000000000000 .data
000000000000c428 l    d  .bss	0000000000000000 .bss
0000000000000000 l    d  .debug_info	0000000000000000 .debug_info
0000000000000000 l    d  .debug_abbrev	0000000000000000 .debug_abbrev
0000000000000000 l    d  .debug_loc	0000000000000000 .debug_loc
0000000000000000 l    d  .debug_aranges	0000000000000000 .debug_aranges
0000000000000000 l    d  .debug_ranges	0000000000000000 .debug_ranges
0000000000000000 l    d  .debug_macro	0000000000000000 .debug_macro
0000000000000000 l    d  .debug_line	0000000000000000 .debug_line
0000000000000000 l    d  .debug_str	0000000000000000 .debug_str
0000000000000000 l    d  .comment	0000000000000000 .comment
0000000000000000 l    df *ABS*	0000000000000000 user_ta_header.c
000000000000a5a8 l     O .rodata	0000000000000004 __compound_literal.5
000000000000a5ac l     O .rodata	0000000000000004 __compound_literal.4
000000000000a5b0 l     O .rodata	0000000000000004 __compound_literal.3
000000000000a5b4 l     O .rodata	0000000000000001 __compound_literal.2
000000000000a5b5 l     O .rodata	0000000000000001 __compound_literal.1
000000000000a5b6 l     O .rodata	0000000000000001 __compound_literal.0
0000000000000000 l    df *ABS*	0000000000000000 toctou.c
000000000000a8d0 l     O .rodata	0000000000000014 __func__.4126
000000000000a8e4 l     O .rodata	0000000000000015 __func__.4131
000000000000a8f9 l     O .rodata	0000000000000019 __func__.4138
000000000000a912 l     O .rodata	000000000000001a __func__.4142
000000000000a92c l     O .rodata	0000000000000014 __func__.4149
0000000000000000 l    df *ABS*	0000000000000000 memcpy.c
0000000000000000 l    df *ABS*	0000000000000000 trace.c
0000000000000330 l     F .text	00000000000000c4 append
000000000000ab32 l     O .rodata	0000000000000005 lvl_strs.3494
000000000000ab37 l     O .rodata	000000000000000a __func__.3556
0000000000000000 l    df *ABS*	0000000000000000 snprintk.c
000000000000ab78 l     O .rodata	0000000000000011 hexdigits
000000000000ab89 l     O .rodata	0000000000000011 HEXDIGITS
0000000000000000 l    df *ABS*	0000000000000000 memchr.c
0000000000000000 l    df *ABS*	0000000000000000 strlen.c
0000000000000000 l    df *ABS*	0000000000000000 trace_ext.c
0000000000000000 l    df *ABS*	0000000000000000 utee_syscalls_a64.o
0000000000000000 l    df *ABS*	0000000000000000 user_ta_entry.c
0000000000001950 l     F .text	0000000000000028 ta_header_get_session
0000000000001978 l     F .text	0000000000000078 to_utee_params
00000000000019f0 l     F .text	0000000000000068 from_utee_params
0000000000001a58 l     F .text	0000000000000094 ta_header_remove_session
0000000000001aec l     F .text	0000000000000014 ta_header_save_params.part.0
0000000000017488 l     O .bss	0000000000000001 init_done
000000000000c388 l     O .data	0000000000000010 ta_sessions
0000000000000000 l    df *ABS*	0000000000000000 tee_api.c
0000000000001cfc l     F .text	00000000000000b8 update_out_param
0000000000001e74 l     F .text	00000000000001d0 copy_param.constprop.1
000000000000c470 l     O .bss	0000000000000008 tee_api_instance_data
000000000000a5e3 l     O .rodata	000000000000000b __func__.4702
0000000000000000 l    df *ABS*	0000000000000000 tee_api_panic.c
0000000000000000 l    df *ABS*	0000000000000000 tee_system_pta.c
0000000000002420 l     F .text	0000000000000088 invoke_system_pta
000000000000a5f0 l     O .rodata	0000000000000010 uuid.4139
000000000000a600 l     O .rodata	000000000000000a __func__.4159
000000000000c478 l     O .bss	0000000000000008 sess.4138
0000000000000000 l    df *ABS*	0000000000000000 tee_api_arith_mpi.c
00000000000025a8 l     F .text	0000000000000030 api_panic
00000000000025d8 l     F .text	0000000000000030 mpi_panic
0000000000002608 l     F .text	0000000000000098 get_mpi
00000000000026a0 l     F .text	0000000000000064 copy_mpi_to_bigint
0000000000002704 l     F .text	0000000000000118 bigint_binary
000000000000281c l     F .text	0000000000000020 mpi_is_odd
000000000000283c l     F .text	0000000000000028 rng_read
0000000000002864 l     F .text	000000000000054c mpi_egcd
000000000000c480 l     O .bss	0000000000003000 data.4684
000000000000314c l     F .text	0000000000000194 bigint_binary_mod
000000000000ac0d l     O .rodata	0000000000000008 __func__.4718
000000000000ac15 l     O .rodata	000000000000000e __func__.4815
000000000000ac23 l     O .rodata	0000000000000009 __func__.4961
000000000000ac2c l     O .rodata	0000000000000012 __func__.4685
000000000000ac3e l     O .rodata	000000000000000f __func__.4724
000000000000ac4d l     O .rodata	000000000000001f __func__.4742
000000000000ac6c l     O .rodata	0000000000000019 __func__.4749
000000000000ac85 l     O .rodata	0000000000000012 __func__.4827
000000000000ac97 l     O .rodata	0000000000000015 __func__.4780
000000000000acac l     O .rodata	000000000000000e __func__.4855
000000000000acba l     O .rodata	000000000000000e __func__.4884
000000000000acc8 l     O .rodata	000000000000000e __func__.4892
000000000000acd6 l     O .rodata	0000000000000011 __func__.4921
000000000000ace7 l     O .rodata	0000000000000018 __func__.4938
000000000000acff l     O .rodata	000000000000001d __func__.5018
000000000000ad1c l     O .rodata	0000000000000019 __func__.5071
000000000000ad35 l     O .rodata	0000000000000015 __func__.5086
0000000000000000 l    df *ABS*	0000000000000000 bignum.c
0000000000003eec l     F .text	0000000000000064 mpi_get_digit
0000000000003f50 l     F .text	0000000000000060 mpi_sub_hlp
0000000000003fb0 l     F .text	00000000000004d4 mpi_mul_hlp
0000000000005e98 l     F .text	00000000000000d4 mpi_write_hlp
0000000000006140 l     F .text	0000000000000098 mpi_check_small_factors
0000000000006c54 l     F .text	0000000000000288 mpi_miller_rabin
000000000000a60c l     O .rodata	00000000000002a0 small_prime
000000000000a8ac l     O .rodata	0000000000000024 gcd_pairs
0000000000000000 l    df *ABS*	0000000000000000 platform_util.c
000000000000c398 l     O .data	0000000000000008 memset_func
0000000000000000 l    df *ABS*	0000000000000000 bget_malloc.c
0000000000007ac8 l     F .text	0000000000000044 raw_malloc_return_hook.constprop.21
000000000000b25e l     O .rodata	0000000000000005 __func__.3641
000000000000b263 l     O .rodata	0000000000000006 __func__.3656
000000000000b269 l     O .rodata	0000000000000005 __func__.3674
000000000000b26e l     O .rodata	0000000000000006 __func__.3665
000000000000b274 l     O .rodata	0000000000000006 __func__.3683
000000000000b27a l     O .rodata	0000000000000007 __func__.3693
000000000000b281 l     O .rodata	0000000000000014 __func__.3857
000000000000b295 l     O .rodata	000000000000000e __func__.3808
000000000000b2a3 l     O .rodata	0000000000000013 __func__.3755
000000000000c3a0 l     O .data	0000000000000080 malloc_ctx
0000000000000000 l    df *ABS*	0000000000000000 snprintf.c
0000000000000000 l    df *ABS*	0000000000000000 memmove.c
0000000000000000 l    df *ABS*	0000000000000000 memset.c
0000000000000000 l    df *ABS*	0000000000000000 mempool.c
000000000000b570 l     O .rodata	0000000000000013 __func__.3549
000000000000b583 l     O .rodata	000000000000000e __func__.3558
0000000000000000 l    df *ABS*	0000000000000000 consttime_memcmp.c
0000000000000000 l    df *ABS*	0000000000000000 assert.c
0000000000000000 l    df *ABS*	0000000000000000 
000000000000c000 l     O *ABS*	0000000000000000 _DYNAMIC
000000000000c128 l     O *ABS*	0000000000000000 _GLOBAL_OFFSET_TABLE_
0000000000001668 g     F .text	000000000000003c putchar
0000000000003d34 g     F .text	0000000000000004 TEE_BigIntConvertToFMM
0000000000003890 g     F .text	000000000000000c TEE_BigIntSquareMod
00000000000032e0 g     F .text	000000000000016c TEE_BigIntShiftRight
00000000000018a8 g     F .text	000000000000000c utee_storage_obj_create
0000000000004528 g     F .text	00000000000000f8 mbedtls_mpi_grow
00000000000016b0 g     F .text	000000000000000c utee_return
00000000000023f4 g     F .text	0000000000000008 TEE_Realloc
0000000000001560 g     F .text	00000000000000c8 printf
00000000000016bc g     F .text	000000000000000c utee_log
0000000000002044 g     F .text	0000000000000104 TEE_InvokeTACommand
0000000000004494 g     F .text	0000000000000028 mbedtls_mpi_init_mempool
0000000000004c9c g     F .text	00000000000000c4 mbedtls_mpi_write_binary
0000000000001420 g     F .text	0000000000000054 vsnprintk
0000000000005430 g     F .text	0000000000000040 mbedtls_mpi_sub_int
00000000000087d8 g     F .text	000000000000005c memmove
000000000000870c g     F .text	0000000000000078 snprintf
0000000000003104 g     F .text	0000000000000048 TEE_BigIntCmpS32
0000000000004620 g     F .text	0000000000000120 mbedtls_mpi_shrink
00000000000034d8 g     F .text	000000000000000c TEE_BigIntAdd
00000000000016e0 g     F .text	000000000000000c utee_get_property_name_to_index
000000000000a5b8 g     O .rodata	0000000000000008 ta_heap_size
0000000000001764 g     F .text	000000000000000c utee_cryp_state_alloc
000000000000186c g     F .text	000000000000000c utee_authenc_enc_final
00000000000055f4 g     F .text	00000000000001e4 mbedtls_mpi_read_string
00000000000034f0 g     F .text	00000000000000b0 TEE_BigIntNeg
0000000000000020 g       .text	0000000000000000 __text_start
0000000000004e60 g     F .text	00000000000000c8 mbedtls_mpi_shift_r
00000000000086a0 g     F .text	000000000000006c malloc_buffer_overlaps_heap
0000000000003878 g     F .text	000000000000000c TEE_BigIntSubMod
00000000000073cc g     F .text	000000000000030c mbedtls_mpi_gen_prime
0000000000004a60 g     F .text	000000000000002c mbedtls_mpi_get_bit
0000000000004be4 g     F .text	00000000000000b8 mbedtls_mpi_read_binary
0000000000000610 g     F .text	0000000000000070 trace_printf
0000000000006214 g     F .text	0000000000000134 mbedtls_mpi_montmul
0000000000000310 g     F .text	0000000000000020 memcpy
000000000000177c g     F .text	000000000000000c utee_cryp_state_free
0000000000003d38 g     F .text	000000000000009c TEE_BigIntConvertFromFMM
0000000000002418 g     F .text	0000000000000008 TEE_Panic
0000000000001628 g     F .text	0000000000000040 puts
0000000000003dd4 g     F .text	0000000000000118 TEE_BigIntComputeFMM
0000000000008264 g     F .text	0000000000000038 malloc_get_stats
00000000000017c4 g     F .text	000000000000000c utee_cipher_final
0000000000002370 g     F .text	0000000000000028 TEE_GetREETime
000000000000c2b0 g     O .data	00000000000000d8 ta_props
000000000000829c g     F .text	0000000000000050 malloc
0000000000001800 g     F .text	000000000000000c utee_cryp_obj_close
0000000000008784 g     F .text	0000000000000054 vsnprintf
000000000000c420 g     O .data	0000000000000004 trace_level
000000000000309c g     F .text	0000000000000068 TEE_BigIntCmp
000000000000a5a0 g     O .rodata	0000000000000008 ta_num_props
0000000000008014 g     F .text	00000000000000cc bgetr
0000000000001860 g     F .text	000000000000000c utee_authenc_update_payload
00000000000089b4 g     F .text	0000000000000044 mempool_free
0000000000002efc g     F .text	0000000000000094 TEE_BigIntConvertToOctetString
0000000000001944 g     F .text	000000000000000c utee_cache_operation
0000000000004b6c g     F .text	000000000000005c mbedtls_mpi_bitlen
0000000000001848 g     F .text	000000000000000c utee_authenc_init
000000000000344c g     F .text	000000000000004c TEE_BigIntGetBit
000000000000a5c0 g     O .rodata	0000000000000003 trace_ext_prefix
0000000000007ccc g     F .text	000000000000008c bgetz
0000000000002230 g     F .text	000000000000000c TEE_GetInstanceData
000000000000227c g     F .text	000000000000003c TEE_Wait
0000000000001914 g     F .text	000000000000000c utee_storage_obj_write
0000000000005470 g     F .text	0000000000000150 mbedtls_mpi_mul_mpi
0000000000002408 g     F .text	0000000000000008 TEE_CacheFlush
0000000000000420 g     F .text	00000000000001f0 trace_vprintf
000000000000008c g     F .text	0000000000000024 TA_DestroyEntryPoint
0000000000004484 g     F .text	0000000000000010 mbedtls_mpi_init
0000000000004b18 g     F .text	0000000000000054 mbedtls_mpi_lsb
0000000000008a68 g     F .text	0000000000000044 _assert_log
0000000000003d2c g     F .text	0000000000000008 TEE_BigIntFMMContextSizeInU32
000000000000251c g     F .text	000000000000008c tee_unmap
0000000000002db0 g     F .text	0000000000000050 _TEE_MathAPI_Init
00000000000052dc g     F .text	0000000000000088 mbedtls_mpi_add_mpi
00000000000018fc g     F .text	000000000000000c utee_storage_next_enum
000000000000f488 g     O .bss	0000000000008000 ta_heap
000000000000389c g     F .text	000000000000011c TEE_BigIntInvMod
0000000000000120 g     F .text	0000000000000024 TA_CloseSessionEntryPoint
0000000000005364 g     F .text	000000000000008c mbedtls_mpi_sub_mpi
00000000000089f8 g     F .text	0000000000000070 consttime_memcmp
00000000000016c8 g     F .text	000000000000000c __utee_panic
0000000000001770 g     F .text	000000000000000c utee_cryp_state_copy
0000000000000144 g     F .text	00000000000001b0 TA_InvokeCommandEntryPoint
00000000000083b8 g     F .text	0000000000000018 free_wipe
00000000000088b8 g     F .text	00000000000000ac mempool_alloc
00000000000017f4 g     F .text	000000000000000c utee_cryp_obj_alloc
0000000000001758 g     F .text	000000000000000c utee_set_ta_time
00000000000017e8 g     F .text	000000000000000c utee_cryp_obj_get_attr
0000000000008964 g     F .text	0000000000000050 mempool_calloc
00000000000082ec g     F .text	0000000000000064 calloc
0000000000002398 g     F .text	000000000000005c TEE_Malloc
0000000000001734 g     F .text	000000000000000c utee_mask_cancellation
000000000000180c g     F .text	000000000000000c utee_cryp_obj_reset
0000000000001e60 g     F .text	0000000000000014 TEE_CheckMemoryAccessRights
00000000000049f8 g     F .text	0000000000000068 mbedtls_mpi_lset
00000000000000b0 g     F .text	0000000000000070 TA_OpenSessionEntryPoint
00000000000018f0 g     F .text	000000000000000c utee_storage_start_enum
00000000000018c0 g     F .text	000000000000000c utee_storage_obj_rename
0000000000017490 g       .bss	0000000000000000 __ftrace_buf_end
000000000000c428 g     O .bss	0000000000000004 ta_param_types
0000000000005d04 g     F .text	0000000000000040 mbedtls_mpi_div_int
0000000000007314 g     F .text	00000000000000a8 mbedtls_mpi_is_prime_ext
0000000000003cc4 g     F .text	0000000000000050 TEE_BigIntIsProbablePrime
00000000000055c0 g     F .text	0000000000000034 mbedtls_mpi_mul_int
0000000000006388 g     F .text	000000000000068c mbedtls_mpi_exp_mod
0000000000004854 g     F .text	00000000000000c0 mbedtls_mpi_safe_cond_assign
00000000000016d4 g     F .text	000000000000000c utee_get_property
0000000000002e00 g     F .text	0000000000000070 TEE_BigIntInit
000000000000223c g     F .text	0000000000000008 TEE_MemMove
0000000000007ab4 g     F .text	0000000000000014 mbedtls_platform_zeroize
0000000000002e70 g     F .text	000000000000008c TEE_BigIntConvertFromOctetString
0000000000004f28 g     F .text	000000000000009c mbedtls_mpi_cmp_abs
00000000000014e8 g     F .text	000000000000002c memchr
0000000000001e08 g     F .text	000000000000002c TEE_UnmaskCancellation
00000000000076d8 g     F .text	00000000000003dc mbedtls_mpi_self_test
00000000000018b4 g     F .text	000000000000000c utee_storage_obj_del
000000000000192c g     F .text	000000000000000c utee_storage_obj_seek
000000000000509c g     F .text	0000000000000040 mbedtls_mpi_cmp_int
0000000000001794 g     F .text	000000000000000c utee_hash_update
0000000000003808 g     F .text	0000000000000064 TEE_BigIntMod
0000000000005df8 g     F .text	00000000000000a0 mbedtls_mpi_mod_int
00000000000016f8 g     F .text	000000000000000c utee_close_ta_session
0000000000003690 g     F .text	0000000000000178 TEE_BigIntDiv
0000000000017490 g       .bss	0000000000000000 __ftrace_buf_start
0000000000004740 g     F .text	00000000000000b4 mbedtls_mpi_copy
000000000000824c g     F .text	0000000000000018 malloc_reset_stats
00000000000017b8 g     F .text	000000000000000c utee_cipher_update
0000000000008350 g     F .text	0000000000000050 realloc
00000000000047f4 g     F .text	0000000000000060 mbedtls_mpi_swap
0000000000008850 g     F .text	0000000000000068 mempool_alloc_pool
0000000000001890 g     F .text	000000000000000c utee_asymm_verify
00000000000035a0 g     F .text	00000000000000e8 TEE_BigIntMul
0000000000004d60 g     F .text	0000000000000100 mbedtls_mpi_shift_l
0000000000004fc4 g     F .text	00000000000000d8 mbedtls_mpi_cmp_mpi
000000000000224c g     F .text	0000000000000008 TEE_MemFill
00000000000083d0 g     F .text	0000000000000150 malloc_add_pool
0000000000000410 g     F .text	0000000000000010 trace_get_level
00000000000050dc g     F .text	000000000000012c mbedtls_mpi_add_abs
000000000000183c g     F .text	000000000000000c utee_cryp_random_number_generate
0000000000003d1c g     F .text	0000000000000010 TEE_BigIntFMMSizeInU32
0000000000003d14 g     F .text	0000000000000004 TEE_BigIntInitFMM
0000000000001884 g     F .text	000000000000000c utee_asymm_operate
0000000000001b00 g     F .text	00000000000001fc __utee_entry
0000000000008ac0 g       .text	0000000000000000 __text_end
00000000000039b8 g     F .text	00000000000000d4 TEE_BigIntRelativePrime
0000000000005d44 g     F .text	00000000000000b4 mbedtls_mpi_mod_mpi
00000000000080e0 g     F .text	00000000000000d4 bpool
0000000000001ddc g     F .text	000000000000002c TEE_GetCancellationFlag
0000000000006a14 g     F .text	00000000000001bc mbedtls_mpi_gcd
000000000000232c g     F .text	0000000000000044 TEE_SetTAPersistentTime
0000000000008834 g     F .text	000000000000001c memset
00000000000022b8 g     F .text	0000000000000074 TEE_GetTAPersistentTime
0000000000000680 g     F .text	000000000000016c dhex_dump
0000000000001e34 g     F .text	000000000000002c TEE_MaskCancellation
0000000000001908 g     F .text	000000000000000c utee_storage_obj_read
0000000000001818 g     F .text	000000000000000c utee_cryp_obj_populate
00000000000003f4 g     F .text	000000000000001c trace_set_level
00000000000017d0 g     F .text	000000000000000c utee_cryp_obj_get_info
00000000000018cc g     F .text	000000000000000c utee_storage_alloc_enum
00000000000018e4 g     F .text	000000000000000c utee_storage_reset_enum
0000000000001920 g     F .text	000000000000000c utee_storage_obj_trunc
0000000000003014 g     F .text	0000000000000088 TEE_BigIntConvertToS32
00000000000034e4 g     F .text	000000000000000c TEE_BigIntSub
0000000000001710 g     F .text	000000000000000c utee_get_cancellation_flag
0000000000001788 g     F .text	000000000000000c utee_hash_init
0000000000000308 g     F .text	0000000000000008 tahead_get_trace_level
00000000000024a8 g     F .text	0000000000000074 tee_map_zi
0000000000006348 g     F .text	0000000000000040 mbedtls_mpi_montred
0000000000002f90 g     F .text	0000000000000084 TEE_BigIntConvertFromS32
00000000000053f0 g     F .text	0000000000000040 mbedtls_mpi_add_int
00000000000017dc g     F .text	000000000000000c utee_cryp_obj_restrict_usage
0000000000008520 g     F .text	0000000000000180 malloc_buffer_is_within_alloced
0000000000001824 g     F .text	000000000000000c utee_cryp_obj_copy
0000000000003d18 g     F .text	0000000000000004 TEE_BigIntInitFMMContext
0000000000001830 g     F .text	000000000000000c utee_cryp_derive_key
0000000000001878 g     F .text	000000000000000c utee_authenc_dec_final
0000000000003688 g     F .text	0000000000000008 TEE_BigIntSquare
0000000000000020 g     F .text	000000000000006c TA_CreateEntryPoint
00000000000002f4 g     F .text	0000000000000014 __ta_entry
00000000000061d8 g     F .text	000000000000003c mbedtls_mpi_montg_init
0000000000001474 g     F .text	0000000000000074 snprintk
0000000000003498 g     F .text	0000000000000040 TEE_BigIntGetBitCount
0000000000003884 g     F .text	000000000000000c TEE_BigIntMulMod
0000000000006edc g     F .text	0000000000000438 mbedtls_mpi_inv_mod
000000000000c430 g     O .bss	0000000000000040 ta_params
00000000000057d8 g     F .text	000000000000052c mbedtls_mpi_div_mpi
0000000000004bc8 g     F .text	000000000000001c mbedtls_mpi_size
0000000000007b0c g     F .text	00000000000001c0 bget
0000000000004a8c g     F .text	000000000000008c mbedtls_mpi_set_bit
00000000000023fc g     F .text	0000000000000004 TEE_Free
00000000000073bc g     F .text	0000000000000010 mbedtls_mpi_is_prime
0000000000002410 g     F .text	0000000000000008 TEE_CacheInvalidate
00000000000017ac g     F .text	000000000000000c utee_cipher_init
0000000000008aac g     F .text	0000000000000014 _assert_break
000000000000386c g     F .text	000000000000000c TEE_BigIntAddMod
00000000000018d8 g     F .text	000000000000000c utee_storage_free_enum
0000000000001854 g     F .text	000000000000000c utee_authenc_update_aad
0000000000002244 g     F .text	0000000000000008 TEE_MemCompare
00000000000007ec g     F .text	0000000000000c34 __vsnprintf
0000000000002148 g     F .text	00000000000000dc TEE_OpenTASession
00000000000016a4 g     F .text	000000000000000c utee_panic
0000000000001530 g     F .text	0000000000000028 trace_ext_puts
0000000000001558 g     F .text	0000000000000008 trace_ext_get_thread_id
00000000000044bc g     F .text	000000000000006c mbedtls_mpi_free
0000000000002400 g     F .text	0000000000000008 TEE_CacheClean
00000000000016ec g     F .text	000000000000000c utee_open_ta_session
0000000000004914 g     F .text	00000000000000e4 mbedtls_mpi_safe_cond_swap
00000000000017a0 g     F .text	000000000000000c utee_hash_final
0000000000001514 g     F .text	000000000000001c strlen
0000000000003a8c g     F .text	0000000000000238 TEE_BigIntComputeExtendedGcd
000000000000189c g     F .text	000000000000000c utee_storage_obj_open
0000000000001704 g     F .text	000000000000000c utee_invoke_ta_command
0000000000001740 g     F .text	000000000000000c utee_wait
0000000000002254 g     F .text	0000000000000028 TEE_GetSystemTime
0000000000000000 g     O .ta_head	0000000000000020 ta_head
0000000000007d58 g     F .text	00000000000002bc brel
0000000000005208 g     F .text	00000000000000d4 mbedtls_mpi_sub_abs
000000000000174c g     F .text	000000000000000c utee_get_time
0000000000006bd0 g     F .text	0000000000000084 mbedtls_mpi_fill_random
0000000000002224 g     F .text	000000000000000c TEE_SetInstanceData
0000000000001728 g     F .text	000000000000000c utee_unmask_cancellation
000000000000171c g     F .text	000000000000000c utee_check_access_rights
0000000000005f6c g     F .text	00000000000001d4 mbedtls_mpi_write_string
0000000000001938 g     F .text	000000000000000c utee_cryp_obj_generate_key
0000000000001db4 g     F .text	0000000000000028 TEE_CloseTASession
00000000000083a0 g     F .text	0000000000000018 free
00000000000081b4 g     F .text	0000000000000098 bstats
000000000000f480 g     O .bss	0000000000000008 mbedtls_mpi_mempool



Disassembly of section .text:

0000000000000020 <TA_CreateEntryPoint>:
TA_CreateEntryPoint():
/home/hei/Desktop/optee-qemu/optee_examples/toctou/ta/toctou.c:14
      20:	a9bd7bfd 	stp	x29, x30, [sp, #-48]!
/home/hei/Desktop/optee-qemu/optee_examples/toctou/ta/toctou.c:15
      24:	52800023 	mov	w3, #0x1                   	// #1
      28:	52800062 	mov	w2, #0x3                   	// #3
/home/hei/Desktop/optee-qemu/optee_examples/toctou/ta/toctou.c:14
      2c:	910003fd 	mov	x29, sp
      30:	f9000bf3 	str	x19, [sp, #16]
/home/hei/Desktop/optee-qemu/optee_examples/toctou/ta/toctou.c:15
      34:	d0000053 	adrp	x19, a000 <__text_end+0x1540>
      38:	91234273 	add	x19, x19, #0x8d0
      3c:	528001e1 	mov	w1, #0xf                   	// #15
      40:	aa1303e0 	mov	x0, x19
      44:	d0000044 	adrp	x4, a000 <__text_end+0x1540>
      48:	91250084 	add	x4, x4, #0x940
      4c:	94000171 	bl	610 <trace_printf>
/home/hei/Desktop/optee-qemu/optee_examples/toctou/ta/toctou.c:17
      50:	d28c0e05 	mov	x5, #0x6070                	// #24688
      54:	aa1303e0 	mov	x0, x19
      58:	f2a80a05 	movk	x5, #0x4050, lsl #16
      5c:	52800023 	mov	w3, #0x1                   	// #1
      60:	f2c40605 	movk	x5, #0x2030, lsl #32
      64:	52800062 	mov	w2, #0x3                   	// #3
      68:	f2e10205 	movk	x5, #0x810, lsl #48
      6c:	52800221 	mov	w1, #0x11                  	// #17
      70:	d0000044 	adrp	x4, a000 <__text_end+0x1540>
      74:	91254084 	add	x4, x4, #0x950
      78:	94000166 	bl	610 <trace_printf>
/home/hei/Desktop/optee-qemu/optee_examples/toctou/ta/toctou.c:19
      7c:	52800000 	mov	w0, #0x0                   	// #0
      80:	f9400bf3 	ldr	x19, [sp, #16]
      84:	a8c37bfd 	ldp	x29, x30, [sp], #48
      88:	d65f03c0 	ret

000000000000008c <TA_DestroyEntryPoint>:
TA_DestroyEntryPoint():
/home/hei/Desktop/optee-qemu/optee_examples/toctou/ta/toctou.c:24
      8c:	d0000040 	adrp	x0, a000 <__text_end+0x1540>
      90:	91234000 	add	x0, x0, #0x8d0
      94:	d0000044 	adrp	x4, a000 <__text_end+0x1540>
      98:	52800023 	mov	w3, #0x1                   	// #1
      9c:	91250084 	add	x4, x4, #0x940
      a0:	52800062 	mov	w2, #0x3                   	// #3
      a4:	52800301 	mov	w1, #0x18                  	// #24
      a8:	91005000 	add	x0, x0, #0x14
      ac:	14000159 	b	610 <trace_printf>

00000000000000b0 <TA_OpenSessionEntryPoint>:
TA_OpenSessionEntryPoint():
/home/hei/Desktop/optee-qemu/optee_examples/toctou/ta/toctou.c:30
      b0:	a9be7bfd 	stp	x29, x30, [sp, #-32]!
/home/hei/Desktop/optee-qemu/optee_examples/toctou/ta/toctou.c:36
      b4:	d0000044 	adrp	x4, a000 <__text_end+0x1540>
      b8:	52800023 	mov	w3, #0x1                   	// #1
/home/hei/Desktop/optee-qemu/optee_examples/toctou/ta/toctou.c:30
      bc:	910003fd 	mov	x29, sp
      c0:	a90153f3 	stp	x19, x20, [sp, #16]
/home/hei/Desktop/optee-qemu/optee_examples/toctou/ta/toctou.c:36
      c4:	d0000053 	adrp	x19, a000 <__text_end+0x1540>
      c8:	91234273 	add	x19, x19, #0x8d0
      cc:	9100a673 	add	x19, x19, #0x29
/home/hei/Desktop/optee-qemu/optee_examples/toctou/ta/toctou.c:30
      d0:	2a0003f4 	mov	w20, w0
/home/hei/Desktop/optee-qemu/optee_examples/toctou/ta/toctou.c:36
      d4:	91250084 	add	x4, x4, #0x940
      d8:	52800062 	mov	w2, #0x3                   	// #3
      dc:	52800481 	mov	w1, #0x24                  	// #36
      e0:	aa1303e0 	mov	x0, x19
      e4:	9400014b 	bl	610 <trace_printf>
/home/hei/Desktop/optee-qemu/optee_examples/toctou/ta/toctou.c:38
      e8:	35000194 	cbnz	w20, 118 <TA_OpenSessionEntryPoint+0x68>
/home/hei/Desktop/optee-qemu/optee_examples/toctou/ta/toctou.c:44
      ec:	d0000044 	adrp	x4, a000 <__text_end+0x1540>
      f0:	52800023 	mov	w3, #0x1                   	// #1
      f4:	91258884 	add	x4, x4, #0x962
      f8:	52800042 	mov	w2, #0x2                   	// #2
      fc:	52800581 	mov	w1, #0x2c                  	// #44
     100:	aa1303e0 	mov	x0, x19
     104:	94000143 	bl	610 <trace_printf>
/home/hei/Desktop/optee-qemu/optee_examples/toctou/ta/toctou.c:47
     108:	2a1403e0 	mov	w0, w20
     10c:	a94153f3 	ldp	x19, x20, [sp, #16]
     110:	a8c27bfd 	ldp	x29, x30, [sp], #32
     114:	d65f03c0 	ret
/home/hei/Desktop/optee-qemu/optee_examples/toctou/ta/toctou.c:39
     118:	129fff34 	mov	w20, #0xffff0006            	// #-65530
     11c:	17fffffb 	b	108 <TA_OpenSessionEntryPoint+0x58>

0000000000000120 <TA_CloseSessionEntryPoint>:
TA_CloseSessionEntryPoint():
/home/hei/Desktop/optee-qemu/optee_examples/toctou/ta/toctou.c:52
     120:	d0000040 	adrp	x0, a000 <__text_end+0x1540>
     124:	91234000 	add	x0, x0, #0x8d0
     128:	d0000044 	adrp	x4, a000 <__text_end+0x1540>
     12c:	52800023 	mov	w3, #0x1                   	// #1
     130:	9125c084 	add	x4, x4, #0x970
     134:	52800042 	mov	w2, #0x2                   	// #2
     138:	52800681 	mov	w1, #0x34                  	// #52
     13c:	91010800 	add	x0, x0, #0x42
     140:	14000134 	b	610 <trace_printf>

0000000000000144 <TA_InvokeCommandEntryPoint>:
TA_InvokeCommandEntryPoint():
/home/hei/Desktop/optee-qemu/optee_examples/toctou/ta/toctou.c:94
     144:	35000d41 	cbnz	w1, 2ec <TA_InvokeCommandEntryPoint+0x1a8>
/home/hei/Desktop/optee-qemu/optee_examples/toctou/ta/toctou.c:91
     148:	a9b77bfd 	stp	x29, x30, [sp, #-144]!
     14c:	910003fd 	mov	x29, sp
     150:	a90153f3 	stp	x19, x20, [sp, #16]
     154:	2a0103f4 	mov	w20, w1
create_share_memory():
/home/hei/Desktop/optee-qemu/optee_examples/toctou/ta/toctou.c:63
     158:	528007e1 	mov	w1, #0x3f                  	// #63
TA_InvokeCommandEntryPoint():
/home/hei/Desktop/optee-qemu/optee_examples/toctou/ta/toctou.c:91
     15c:	a9046bf9 	stp	x25, x26, [sp, #64]
create_share_memory():
/home/hei/Desktop/optee-qemu/optee_examples/toctou/ta/toctou.c:63
     160:	d000005a 	adrp	x26, a000 <__text_end+0x1540>
     164:	91234353 	add	x19, x26, #0x8d0
     168:	91017273 	add	x19, x19, #0x5c
TA_InvokeCommandEntryPoint():
/home/hei/Desktop/optee-qemu/optee_examples/toctou/ta/toctou.c:91
     16c:	a9025bf5 	stp	x21, x22, [sp, #32]
create_share_memory():
/home/hei/Desktop/optee-qemu/optee_examples/toctou/ta/toctou.c:63
     170:	aa1303e0 	mov	x0, x19
     174:	d0000056 	adrp	x22, a000 <__text_end+0x1540>
     178:	9125eac4 	add	x4, x22, #0x97a
TA_InvokeCommandEntryPoint():
/home/hei/Desktop/optee-qemu/optee_examples/toctou/ta/toctou.c:91
     17c:	a90363f7 	stp	x23, x24, [sp, #48]
     180:	2a0203f8 	mov	w24, w2
     184:	aa0303f7 	mov	x23, x3
create_share_memory():
/home/hei/Desktop/optee-qemu/optee_examples/toctou/ta/toctou.c:63
     188:	52800062 	mov	w2, #0x3                   	// #3
     18c:	52800023 	mov	w3, #0x1                   	// #1
     190:	94000120 	bl	610 <trace_printf>
/home/hei/Desktop/optee-qemu/optee_examples/toctou/ta/toctou.c:64
     194:	d0000044 	adrp	x4, a000 <__text_end+0x1540>
     198:	52800023 	mov	w3, #0x1                   	// #1
     19c:	91250084 	add	x4, x4, #0x940
     1a0:	52800062 	mov	w2, #0x3                   	// #3
     1a4:	52800801 	mov	w1, #0x40                  	// #64
     1a8:	aa1303e0 	mov	x0, x19
     1ac:	94000119 	bl	610 <trace_printf>
/home/hei/Desktop/optee-qemu/optee_examples/toctou/ta/toctou.c:67
     1b0:	71001f1f 	cmp	w24, #0x7
     1b4:	54000981 	b.ne	2e4 <TA_InvokeCommandEntryPoint+0x1a0>  // b.any
/home/hei/Desktop/optee-qemu/optee_examples/toctou/ta/toctou.c:69
     1b8:	f94002f5 	ldr	x21, [x23]
/home/hei/Desktop/optee-qemu/optee_examples/toctou/ta/toctou.c:70
     1bc:	aa1303e0 	mov	x0, x19
     1c0:	d0000044 	adrp	x4, a000 <__text_end+0x1540>
     1c4:	52800023 	mov	w3, #0x1                   	// #1
     1c8:	91265884 	add	x4, x4, #0x996
     1cc:	52800062 	mov	w2, #0x3                   	// #3
     1d0:	b94002a5 	ldr	w5, [x21]
     1d4:	528008c1 	mov	w1, #0x46                  	// #70
     1d8:	9400010e 	bl	610 <trace_printf>
/home/hei/Desktop/optee-qemu/optee_examples/toctou/ta/toctou.c:72
     1dc:	b94002a0 	ldr	w0, [x21]
     1e0:	7101001f 	cmp	w0, #0x40
     1e4:	5400052c 	b.gt	288 <TA_InvokeCommandEntryPoint+0x144>
/home/hei/Desktop/optee-qemu/optee_examples/toctou/ta/toctou.c:75
     1e8:	d0000059 	adrp	x25, a000 <__text_end+0x1540>
     1ec:	9126d739 	add	x25, x25, #0x9b5
/home/hei/Desktop/optee-qemu/optee_examples/toctou/ta/toctou.c:73
     1f0:	52800158 	mov	w24, #0xa                   	// #10
     1f4:	910012b7 	add	x23, x21, #0x4
     1f8:	aa1703e5 	mov	x5, x23
     1fc:	d0000044 	adrp	x4, a000 <__text_end+0x1540>
     200:	52800023 	mov	w3, #0x1                   	// #1
     204:	91269084 	add	x4, x4, #0x9a4
     208:	52800062 	mov	w2, #0x3                   	// #3
     20c:	52800921 	mov	w1, #0x49                  	// #73
     210:	aa1303e0 	mov	x0, x19
     214:	940000ff 	bl	610 <trace_printf>
/home/hei/Desktop/optee-qemu/optee_examples/toctou/ta/toctou.c:75
     218:	aa1903e4 	mov	x4, x25
     21c:	52800023 	mov	w3, #0x1                   	// #1
     220:	52800062 	mov	w2, #0x3                   	// #3
     224:	52800961 	mov	w1, #0x4b                  	// #75
     228:	aa1303e0 	mov	x0, x19
     22c:	940000f9 	bl	610 <trace_printf>
/home/hei/Desktop/optee-qemu/optee_examples/toctou/ta/toctou.c:74
     230:	71000718 	subs	w24, w24, #0x1
     234:	54ffff21 	b.ne	218 <TA_InvokeCommandEntryPoint+0xd4>  // b.any
/home/hei/Desktop/optee-qemu/optee_examples/toctou/ta/toctou.c:77
     238:	b94002a5 	ldr	w5, [x21]
     23c:	52800023 	mov	w3, #0x1                   	// #1
     240:	52800062 	mov	w2, #0x3                   	// #3
     244:	528009a1 	mov	w1, #0x4d                  	// #77
     248:	aa1303e0 	mov	x0, x19
     24c:	d0000044 	adrp	x4, a000 <__text_end+0x1540>
     250:	91277884 	add	x4, x4, #0x9de
     254:	940000ef 	bl	610 <trace_printf>
/home/hei/Desktop/optee-qemu/optee_examples/toctou/ta/toctou.c:78
     258:	52800062 	mov	w2, #0x3                   	// #3
     25c:	528009c1 	mov	w1, #0x4e                  	// #78
     260:	aa1303e0 	mov	x0, x19
     264:	aa1703e5 	mov	x5, x23
     268:	d0000044 	adrp	x4, a000 <__text_end+0x1540>
     26c:	52800023 	mov	w3, #0x1                   	// #1
     270:	9127b484 	add	x4, x4, #0x9ed
     274:	940000e7 	bl	610 <trace_printf>
/home/hei/Desktop/optee-qemu/optee_examples/toctou/ta/toctou.c:79
     278:	b98002a2 	ldrsw	x2, [x21]
     27c:	aa1703e1 	mov	x1, x23
     280:	910143e0 	add	x0, sp, #0x50
     284:	94000023 	bl	310 <memcpy>
/home/hei/Desktop/optee-qemu/optee_examples/toctou/ta/toctou.c:81
     288:	91234353 	add	x19, x26, #0x8d0
     28c:	910143e5 	add	x5, sp, #0x50
     290:	91017273 	add	x19, x19, #0x5c
     294:	52800023 	mov	w3, #0x1                   	// #1
     298:	52800062 	mov	w2, #0x3                   	// #3
     29c:	52800a21 	mov	w1, #0x51                  	// #81
     2a0:	aa1303e0 	mov	x0, x19
     2a4:	d0000044 	adrp	x4, a000 <__text_end+0x1540>
     2a8:	9127f884 	add	x4, x4, #0x9fe
     2ac:	940000d9 	bl	610 <trace_printf>
/home/hei/Desktop/optee-qemu/optee_examples/toctou/ta/toctou.c:82
     2b0:	9125eac4 	add	x4, x22, #0x97a
     2b4:	52800023 	mov	w3, #0x1                   	// #1
     2b8:	52800062 	mov	w2, #0x3                   	// #3
     2bc:	52800a41 	mov	w1, #0x52                  	// #82
     2c0:	aa1303e0 	mov	x0, x19
     2c4:	940000d3 	bl	610 <trace_printf>
TA_InvokeCommandEntryPoint():
/home/hei/Desktop/optee-qemu/optee_examples/toctou/ta/toctou.c:96
     2c8:	2a1403e0 	mov	w0, w20
/home/hei/Desktop/optee-qemu/optee_examples/toctou/ta/toctou.c:100
     2cc:	a94153f3 	ldp	x19, x20, [sp, #16]
     2d0:	a9425bf5 	ldp	x21, x22, [sp, #32]
     2d4:	a94363f7 	ldp	x23, x24, [sp, #48]
     2d8:	a9446bf9 	ldp	x25, x26, [sp, #64]
     2dc:	a8c97bfd 	ldp	x29, x30, [sp], #144
     2e0:	d65f03c0 	ret
create_share_memory():
/home/hei/Desktop/optee-qemu/optee_examples/toctou/ta/toctou.c:68
     2e4:	129fff34 	mov	w20, #0xffff0006            	// #-65530
     2e8:	17fffff8 	b	2c8 <TA_InvokeCommandEntryPoint+0x184>
TA_InvokeCommandEntryPoint():
/home/hei/Desktop/optee-qemu/optee_examples/toctou/ta/toctou.c:98
     2ec:	129fff20 	mov	w0, #0xffff0006            	// #-65530
/home/hei/Desktop/optee-qemu/optee_examples/toctou/ta/toctou.c:100
     2f0:	d65f03c0 	ret

00000000000002f4 <__ta_entry>:
__ta_entry():
/home/hei/Desktop/optee-qemu/optee_os/out/arm/export-ta_arm64/src/user_ta_header.c:47
     2f4:	a9bf7bfd 	stp	x29, x30, [sp, #-16]!
     2f8:	910003fd 	mov	x29, sp
/home/hei/Desktop/optee-qemu/optee_os/out/arm/export-ta_arm64/src/user_ta_header.c:48
     2fc:	94000601 	bl	1b00 <__utee_entry>
/home/hei/Desktop/optee-qemu/optee_os/out/arm/export-ta_arm64/src/user_ta_header.c:59
     300:	2a0003e0 	mov	w0, w0
     304:	940004eb 	bl	16b0 <utee_return>

0000000000000308 <tahead_get_trace_level>:
tahead_get_trace_level():
/home/hei/Desktop/optee-qemu/optee_os/out/arm/export-ta_arm64/src/user_ta_header.c:149
     308:	52800080 	mov	w0, #0x4                   	// #4
     30c:	d65f03c0 	ret

0000000000000310 <memcpy>:
memcpy():
/home/hei/Desktop/optee-qemu/optee_os/lib/libutils/isoc/newlib/memcpy.c:94
     310:	d2800003 	mov	x3, #0x0                   	// #0
     314:	eb03005f 	cmp	x2, x3
     318:	54000041 	b.ne	320 <memcpy+0x10>  // b.any
/home/hei/Desktop/optee-qemu/optee_os/lib/libutils/isoc/newlib/memcpy.c:135
     31c:	d65f03c0 	ret
/home/hei/Desktop/optee-qemu/optee_os/lib/libutils/isoc/newlib/memcpy.c:95
     320:	38636824 	ldrb	w4, [x1, x3]
     324:	38236804 	strb	w4, [x0, x3]
     328:	91000463 	add	x3, x3, #0x1
     32c:	17fffffa 	b	314 <memcpy+0x4>

0000000000000330 <append>:
append():
/home/hei/Desktop/optee-qemu/optee_os/lib/libutils/ext/trace.c:204
     330:	a9af7bfd 	stp	x29, x30, [sp, #-272]!
     334:	910003fd 	mov	x29, sp
     338:	3d801be0 	str	q0, [sp, #96]
     33c:	3d801fe1 	str	q1, [sp, #112]
     340:	3d8023e2 	str	q2, [sp, #128]
     344:	3d8027e3 	str	q3, [sp, #144]
     348:	3d802be4 	str	q4, [sp, #160]
     34c:	3d802fe5 	str	q5, [sp, #176]
     350:	3d8033e6 	str	q6, [sp, #192]
     354:	3d8037e7 	str	q7, [sp, #208]
     358:	a90e0fe2 	stp	x2, x3, [sp, #224]
     35c:	a90f17e4 	stp	x4, x5, [sp, #240]
     360:	a9101fe6 	stp	x6, x7, [sp, #256]
     364:	a90153f3 	stp	x19, x20, [sp, #16]
     368:	aa0003f3 	mov	x19, x0
/home/hei/Desktop/optee-qemu/optee_os/lib/libutils/ext/trace.c:209
     36c:	f9408000 	ldr	x0, [x0, #256]
     370:	b5000040 	cbnz	x0, 378 <append+0x48>
/home/hei/Desktop/optee-qemu/optee_os/lib/libutils/ext/trace.c:210
     374:	f9008273 	str	x19, [x19, #256]
/home/hei/Desktop/optee-qemu/optee_os/lib/libutils/ext/trace.c:212
     378:	910443e2 	add	x2, sp, #0x110
     37c:	a9040be2 	stp	x2, x2, [sp, #64]
     380:	910383e2 	add	x2, sp, #0xe0
     384:	f9002be2 	str	x2, [sp, #80]
     388:	128005e2 	mov	w2, #0xffffffd0            	// #-48
/home/hei/Desktop/optee-qemu/optee_os/lib/libutils/ext/trace.c:211
     38c:	f9408260 	ldr	x0, [x19, #256]
/home/hei/Desktop/optee-qemu/optee_os/lib/libutils/ext/trace.c:212
     390:	b9005be2 	str	w2, [sp, #88]
     394:	12800fe2 	mov	w2, #0xffffff80            	// #-128
     398:	b9005fe2 	str	w2, [sp, #92]
/home/hei/Desktop/optee-qemu/optee_os/lib/libutils/ext/trace.c:213
     39c:	a9440fe2 	ldp	x2, x3, [sp, #64]
/home/hei/Desktop/optee-qemu/optee_os/lib/libutils/ext/trace.c:211
     3a0:	4b000274 	sub	w20, w19, w0
/home/hei/Desktop/optee-qemu/optee_os/lib/libutils/ext/trace.c:213
     3a4:	a9020fe2 	stp	x2, x3, [sp, #32]
/home/hei/Desktop/optee-qemu/optee_os/lib/libutils/ext/trace.c:211
     3a8:	11040294 	add	w20, w20, #0x100
/home/hei/Desktop/optee-qemu/optee_os/lib/libutils/ext/trace.c:213
     3ac:	a9450fe2 	ldp	x2, x3, [sp, #80]
     3b0:	a9030fe2 	stp	x2, x3, [sp, #48]
     3b4:	aa0103e2 	mov	x2, x1
     3b8:	910083e3 	add	x3, sp, #0x20
     3bc:	93407e81 	sxtw	x1, w20
     3c0:	94000418 	bl	1420 <vsnprintk>
/home/hei/Desktop/optee-qemu/optee_os/lib/libutils/ext/trace.c:215
     3c4:	37f80140 	tbnz	w0, #31, 3ec <append+0xbc>
/home/hei/Desktop/optee-qemu/optee_os/lib/libutils/ext/trace.c:219
     3c8:	6b00029f 	cmp	w20, w0
     3cc:	5400010d 	b.le	3ec <append+0xbc>
/home/hei/Desktop/optee-qemu/optee_os/lib/libutils/ext/trace.c:223
     3d0:	f9408261 	ldr	x1, [x19, #256]
     3d4:	8b20c020 	add	x0, x1, w0, sxtw
     3d8:	f9008260 	str	x0, [x19, #256]
/home/hei/Desktop/optee-qemu/optee_os/lib/libutils/ext/trace.c:224
     3dc:	52800020 	mov	w0, #0x1                   	// #1
/home/hei/Desktop/optee-qemu/optee_os/lib/libutils/ext/trace.c:225
     3e0:	a94153f3 	ldp	x19, x20, [sp, #16]
     3e4:	a8d17bfd 	ldp	x29, x30, [sp], #272
     3e8:	d65f03c0 	ret
/home/hei/Desktop/optee-qemu/optee_os/lib/libutils/ext/trace.c:217
     3ec:	52800000 	mov	w0, #0x0                   	// #0
     3f0:	17fffffc 	b	3e0 <append+0xb0>

00000000000003f4 <trace_set_level>:
trace_set_level():
/home/hei/Desktop/optee-qemu/optee_os/lib/libutils/ext/trace.c:29
     3f4:	7100141f 	cmp	w0, #0x5
     3f8:	52800081 	mov	w1, #0x4                   	// #4
     3fc:	1a813000 	csel	w0, w0, w1, cc  // cc = lo, ul, last
     400:	90000061 	adrp	x1, c000 <_DYNAMIC>
     404:	f9409c21 	ldr	x1, [x1, #312]
     408:	b9000020 	str	w0, [x1]
/home/hei/Desktop/optee-qemu/optee_os/lib/libutils/ext/trace.c:30
     40c:	d65f03c0 	ret

0000000000000410 <trace_get_level>:
trace_get_level():
/home/hei/Desktop/optee-qemu/optee_os/lib/libutils/ext/trace.c:34
     410:	90000060 	adrp	x0, c000 <_DYNAMIC>
/home/hei/Desktop/optee-qemu/optee_os/lib/libutils/ext/trace.c:35
     414:	f9409c00 	ldr	x0, [x0, #312]
     418:	b9400000 	ldr	w0, [x0]
     41c:	d65f03c0 	ret

0000000000000420 <trace_vprintf>:
trace_vprintf():
/home/hei/Desktop/optee-qemu/optee_os/lib/libutils/ext/trace.c:106
     420:	a9a87bfd 	stp	x29, x30, [sp, #-384]!
     424:	910003fd 	mov	x29, sp
     428:	a90153f3 	stp	x19, x20, [sp, #16]
     42c:	a9025bf5 	stp	x21, x22, [sp, #32]
     430:	a90363f7 	stp	x23, x24, [sp, #48]
/home/hei/Desktop/optee-qemu/optee_os/lib/libutils/ext/trace.c:111
     434:	72001c77 	ands	w23, w3, #0xff
/home/hei/Desktop/optee-qemu/optee_os/lib/libutils/ext/trace.c:106
     438:	a9046bf9 	stp	x25, x26, [sp, #64]
     43c:	f9002bfb 	str	x27, [sp, #80]
/home/hei/Desktop/optee-qemu/optee_os/lib/libutils/ext/trace.c:111
     440:	54000c00 	b.eq	5c0 <trace_vprintf+0x1a0>  // b.none
/home/hei/Desktop/optee-qemu/optee_os/lib/libutils/ext/trace.c:111 (discriminator 1)
     444:	90000063 	adrp	x3, c000 <_DYNAMIC>
     448:	f9409c63 	ldr	x3, [x3, #312]
     44c:	b9400063 	ldr	w3, [x3]
     450:	6b02007f 	cmp	w3, w2
     454:	54000a8b 	b.lt	5a4 <trace_vprintf+0x184>  // b.tstop
trace_level_to_string():
/home/hei/Desktop/optee-qemu/optee_os/lib/libutils/ext/trace.c:52
     458:	7100105f 	cmp	w2, #0x4
/home/hei/Desktop/optee-qemu/optee_os/lib/libutils/ext/trace.c:55
     45c:	d0000043 	adrp	x3, a000 <__text_end+0x1540>
/home/hei/Desktop/optee-qemu/optee_os/lib/libutils/ext/trace.c:52
     460:	1a9f9046 	csel	w6, w2, wzr, ls  // ls = plast
/home/hei/Desktop/optee-qemu/optee_os/lib/libutils/ext/trace.c:55
     464:	912cc863 	add	x3, x3, #0xb32
     468:	3866c863 	ldrb	w3, [x3, w6, sxtw]
trace_vprintf():
/home/hei/Desktop/optee-qemu/optee_os/lib/libutils/ext/trace.c:115
     46c:	910203f4 	add	x20, sp, #0x80
     470:	2a0203f8 	mov	w24, w2
     474:	2a0103fb 	mov	w27, w1
     478:	aa0003f6 	mov	x22, x0
     47c:	d0000042 	adrp	x2, a000 <__text_end+0x1540>
     480:	aa0503fa 	mov	x26, x5
     484:	aa0403f9 	mov	x25, x4
     488:	912d0442 	add	x2, x2, #0xb41
     48c:	d2802001 	mov	x1, #0x100                 	// #256
     490:	aa1403e0 	mov	x0, x20
     494:	940003f8 	bl	1474 <snprintk>
/home/hei/Desktop/optee-qemu/optee_os/lib/libutils/ext/trace.c:117
     498:	37f80860 	tbnz	w0, #31, 5a4 <trace_vprintf+0x184>
/home/hei/Desktop/optee-qemu/optee_os/lib/libutils/ext/trace.c:122
     49c:	90000063 	adrp	x3, c000 <_DYNAMIC>
/home/hei/Desktop/optee-qemu/optee_os/lib/libutils/ext/trace.c:119
     4a0:	93407c15 	sxtw	x21, w0
/home/hei/Desktop/optee-qemu/optee_os/lib/libutils/ext/trace.c:122
     4a4:	d2802013 	mov	x19, #0x100                 	// #256
     4a8:	d0000042 	adrp	x2, a000 <__text_end+0x1540>
     4ac:	f940a063 	ldr	x3, [x3, #320]
     4b0:	912d1442 	add	x2, x2, #0xb45
     4b4:	cb150261 	sub	x1, x19, x21
     4b8:	8b150280 	add	x0, x20, x21
     4bc:	940003ee 	bl	1474 <snprintk>
/home/hei/Desktop/optee-qemu/optee_os/lib/libutils/ext/trace.c:124
     4c0:	37f80720 	tbnz	w0, #31, 5a4 <trace_vprintf+0x184>
/home/hei/Desktop/optee-qemu/optee_os/lib/libutils/ext/trace.c:126
     4c4:	8b20c2b5 	add	x21, x21, w0, sxtw
/home/hei/Desktop/optee-qemu/optee_os/lib/libutils/ext/trace.c:128
     4c8:	34000937 	cbz	w23, 5ec <trace_vprintf+0x1cc>
/home/hei/Desktop/optee-qemu/optee_os/lib/libutils/ext/trace.c:128 (discriminator 1)
     4cc:	52800342 	mov	w2, #0x1a                  	// #26
     4d0:	1ad82442 	lsr	w2, w2, w24
     4d4:	360008c2 	tbz	w2, #0, 5ec <trace_vprintf+0x1cc>
/home/hei/Desktop/optee-qemu/optee_os/lib/libutils/ext/trace.c:130
     4d8:	8b150297 	add	x23, x20, x21
     4dc:	cb150273 	sub	x19, x19, x21
print_thread_id():
/home/hei/Desktop/optee-qemu/optee_os/lib/libutils/ext/trace.c:65
     4e0:	9400041e 	bl	1558 <trace_ext_get_thread_id>
/home/hei/Desktop/optee-qemu/optee_os/lib/libutils/ext/trace.c:67
     4e4:	37f80720 	tbnz	w0, #31, 5c8 <trace_vprintf+0x1a8>
/home/hei/Desktop/optee-qemu/optee_os/lib/libutils/ext/trace.c:68
     4e8:	2a0003e4 	mov	w4, w0
     4ec:	d0000042 	adrp	x2, a000 <__text_end+0x1540>
     4f0:	52800023 	mov	w3, #0x1                   	// #1
     4f4:	912d2442 	add	x2, x2, #0xb49
     4f8:	aa1303e1 	mov	x1, x19
     4fc:	aa1703e0 	mov	x0, x23
     500:	940003dd 	bl	1474 <snprintk>
trace_vprintf():
/home/hei/Desktop/optee-qemu/optee_os/lib/libutils/ext/trace.c:137
     504:	37f80500 	tbnz	w0, #31, 5a4 <trace_vprintf+0x184>
/home/hei/Desktop/optee-qemu/optee_os/lib/libutils/ext/trace.c:139
     508:	8b20c2b3 	add	x19, x21, w0, sxtw
/home/hei/Desktop/optee-qemu/optee_os/lib/libutils/ext/trace.c:141
     50c:	b4000176 	cbz	x22, 538 <trace_vprintf+0x118>
/home/hei/Desktop/optee-qemu/optee_os/lib/libutils/ext/trace.c:142
     510:	d0000042 	adrp	x2, a000 <__text_end+0x1540>
     514:	d2802001 	mov	x1, #0x100                 	// #256
     518:	2a1b03e4 	mov	w4, w27
     51c:	aa1603e3 	mov	x3, x22
     520:	912d5042 	add	x2, x2, #0xb54
     524:	cb130021 	sub	x1, x1, x19
     528:	8b130280 	add	x0, x20, x19
     52c:	940003d2 	bl	1474 <snprintk>
/home/hei/Desktop/optee-qemu/optee_os/lib/libutils/ext/trace.c:144
     530:	37f803a0 	tbnz	w0, #31, 5a4 <trace_vprintf+0x184>
/home/hei/Desktop/optee-qemu/optee_os/lib/libutils/ext/trace.c:146
     534:	8b20c273 	add	x19, x19, w0, sxtw
/home/hei/Desktop/optee-qemu/optee_os/lib/libutils/ext/trace.c:156
     538:	910183e3 	add	x3, sp, #0x60
     53c:	d2800402 	mov	x2, #0x20                  	// #32
     540:	aa1a03e1 	mov	x1, x26
     544:	aa0303e0 	mov	x0, x3
     548:	97ffff72 	bl	310 <memcpy>
     54c:	aa0003e3 	mov	x3, x0
     550:	aa1903e2 	mov	x2, x25
     554:	d2802001 	mov	x1, #0x100                 	// #256
     558:	8b130280 	add	x0, x20, x19
     55c:	cb130021 	sub	x1, x1, x19
     560:	940003b0 	bl	1420 <vsnprintk>
/home/hei/Desktop/optee-qemu/optee_os/lib/libutils/ext/trace.c:157
     564:	7100001f 	cmp	w0, #0x0
     568:	5400004d 	b.le	570 <trace_vprintf+0x150>
/home/hei/Desktop/optee-qemu/optee_os/lib/libutils/ext/trace.c:158
     56c:	8b20c273 	add	x19, x19, w0, sxtw
/home/hei/Desktop/optee-qemu/optee_os/lib/libutils/ext/trace.c:160
     570:	f103fa7f 	cmp	x19, #0xfe
     574:	d2801fc0 	mov	x0, #0xfe                  	// #254
     578:	9a809273 	csel	x19, x19, x0, ls  // ls = plast
/home/hei/Desktop/optee-qemu/optee_os/lib/libutils/ext/trace.c:163
     57c:	52800140 	mov	w0, #0xa                   	// #10
     580:	38336a80 	strb	w0, [x20, x19]
/home/hei/Desktop/optee-qemu/optee_os/lib/libutils/ext/trace.c:164
     584:	b4000093 	cbz	x19, 594 <trace_vprintf+0x174>
/home/hei/Desktop/optee-qemu/optee_os/lib/libutils/ext/trace.c:164 (discriminator 1)
     588:	38736a80 	ldrb	w0, [x20, x19]
     58c:	7100281f 	cmp	w0, #0xa
     590:	540003c0 	b.eq	608 <trace_vprintf+0x1e8>  // b.none
/home/hei/Desktop/optee-qemu/optee_os/lib/libutils/ext/trace.c:167
     594:	91020be0 	add	x0, sp, #0x82
     598:	3833681f 	strb	wzr, [x0, x19]
/home/hei/Desktop/optee-qemu/optee_os/lib/libutils/ext/trace.c:169
     59c:	aa1403e0 	mov	x0, x20
     5a0:	940003e4 	bl	1530 <trace_ext_puts>
/home/hei/Desktop/optee-qemu/optee_os/lib/libutils/ext/trace.c:170
     5a4:	a94153f3 	ldp	x19, x20, [sp, #16]
     5a8:	a9425bf5 	ldp	x21, x22, [sp, #32]
     5ac:	a94363f7 	ldp	x23, x24, [sp, #48]
     5b0:	a9446bf9 	ldp	x25, x26, [sp, #64]
     5b4:	f9402bfb 	ldr	x27, [sp, #80]
     5b8:	a8d87bfd 	ldp	x29, x30, [sp], #384
     5bc:	d65f03c0 	ret
trace_level_to_string():
/home/hei/Desktop/optee-qemu/optee_os/lib/libutils/ext/trace.c:50
     5c0:	528009a3 	mov	w3, #0x4d                  	// #77
     5c4:	17ffffaa 	b	46c <trace_vprintf+0x4c>
print_thread_id():
/home/hei/Desktop/optee-qemu/optee_os/lib/libutils/ext/trace.c:70
     5c8:	d0000044 	adrp	x4, a000 <__text_end+0x1540>
     5cc:	52800023 	mov	w3, #0x1                   	// #1
     5d0:	9125bc84 	add	x4, x4, #0x96f
     5d4:	d0000042 	adrp	x2, a000 <__text_end+0x1540>
     5d8:	aa1303e1 	mov	x1, x19
     5dc:	912d3c42 	add	x2, x2, #0xb4f
     5e0:	aa1703e0 	mov	x0, x23
     5e4:	940003a4 	bl	1474 <snprintk>
     5e8:	17ffffc7 	b	504 <trace_vprintf+0xe4>
trace_vprintf():
/home/hei/Desktop/optee-qemu/optee_os/lib/libutils/ext/trace.c:150
     5ec:	f103fabf 	cmp	x21, #0xfe
     5f0:	54fffda8 	b.hi	5a4 <trace_vprintf+0x184>  // b.pmore
/home/hei/Desktop/optee-qemu/optee_os/lib/libutils/ext/trace.c:152
     5f4:	910006b3 	add	x19, x21, #0x1
     5f8:	52800400 	mov	w0, #0x20                  	// #32
     5fc:	38356a80 	strb	w0, [x20, x21]
/home/hei/Desktop/optee-qemu/optee_os/lib/libutils/ext/trace.c:153
     600:	38336a9f 	strb	wzr, [x20, x19]
     604:	17ffffcd 	b	538 <trace_vprintf+0x118>
/home/hei/Desktop/optee-qemu/optee_os/lib/libutils/ext/trace.c:165
     608:	d1000673 	sub	x19, x19, #0x1
     60c:	17ffffde 	b	584 <trace_vprintf+0x164>

0000000000000610 <trace_printf>:
trace_printf():
/home/hei/Desktop/optee-qemu/optee_os/lib/libutils/ext/trace.c:97
     610:	a9b17bfd 	stp	x29, x30, [sp, #-240]!
     614:	910003fd 	mov	x29, sp
     618:	a90d9be5 	stp	x5, x6, [sp, #216]
/home/hei/Desktop/optee-qemu/optee_os/lib/libutils/ext/trace.c:100
     61c:	9103c3e5 	add	x5, sp, #0xf0
     620:	a90317e5 	stp	x5, x5, [sp, #48]
     624:	910343e5 	add	x5, sp, #0xd0
     628:	f90023e5 	str	x5, [sp, #64]
     62c:	128002e5 	mov	w5, #0xffffffe8            	// #-24
     630:	b9004be5 	str	w5, [sp, #72]
     634:	12800fe5 	mov	w5, #0xffffff80            	// #-128
     638:	b9004fe5 	str	w5, [sp, #76]
/home/hei/Desktop/optee-qemu/optee_os/lib/libutils/ext/trace.c:101
     63c:	910043e5 	add	x5, sp, #0x10
/home/hei/Desktop/optee-qemu/optee_os/lib/libutils/ext/trace.c:97
     640:	f90077e7 	str	x7, [sp, #232]
/home/hei/Desktop/optee-qemu/optee_os/lib/libutils/ext/trace.c:101
     644:	a9431fe6 	ldp	x6, x7, [sp, #48]
     648:	a9011fe6 	stp	x6, x7, [sp, #16]
     64c:	a9441fe6 	ldp	x6, x7, [sp, #64]
     650:	a9021fe6 	stp	x6, x7, [sp, #32]
/home/hei/Desktop/optee-qemu/optee_os/lib/libutils/ext/trace.c:97
     654:	3d8017e0 	str	q0, [sp, #80]
     658:	3d801be1 	str	q1, [sp, #96]
     65c:	3d801fe2 	str	q2, [sp, #112]
     660:	3d8023e3 	str	q3, [sp, #128]
     664:	3d8027e4 	str	q4, [sp, #144]
     668:	3d802be5 	str	q5, [sp, #160]
     66c:	3d802fe6 	str	q6, [sp, #176]
     670:	3d8033e7 	str	q7, [sp, #192]
/home/hei/Desktop/optee-qemu/optee_os/lib/libutils/ext/trace.c:101
     674:	97ffff6b 	bl	420 <trace_vprintf>
/home/hei/Desktop/optee-qemu/optee_os/lib/libutils/ext/trace.c:103
     678:	a8cf7bfd 	ldp	x29, x30, [sp], #240
     67c:	d65f03c0 	ret

0000000000000680 <dhex_dump>:
dhex_dump():
/home/hei/Desktop/optee-qemu/optee_os/lib/libutils/ext/trace.c:235
     680:	90000065 	adrp	x5, c000 <_DYNAMIC>
     684:	f9409ca5 	ldr	x5, [x5, #312]
     688:	b94000a5 	ldr	w5, [x5]
     68c:	6b0200bf 	cmp	w5, w2
     690:	54000acb 	b.lt	7e8 <dhex_dump+0x168>  // b.tstop
/home/hei/Desktop/optee-qemu/optee_os/lib/libutils/ext/trace.c:229
     694:	a9a97bfd 	stp	x29, x30, [sp, #-368]!
     698:	910003fd 	mov	x29, sp
     69c:	a90153f3 	stp	x19, x20, [sp, #16]
     6a0:	2a0203f4 	mov	w20, w2
/home/hei/Desktop/optee-qemu/optee_os/lib/libutils/ext/trace.c:237
     6a4:	d2800013 	mov	x19, #0x0                   	// #0
/home/hei/Desktop/optee-qemu/optee_os/lib/libutils/ext/trace.c:229
     6a8:	a9025bf5 	stp	x21, x22, [sp, #32]
     6ac:	2a0103f6 	mov	w22, w1
     6b0:	aa0003f5 	mov	x21, x0
     6b4:	a90363f7 	stp	x23, x24, [sp, #48]
     6b8:	aa0303f8 	mov	x24, x3
     6bc:	9101a3f7 	add	x23, sp, #0x68
     6c0:	a9046bf9 	stp	x25, x26, [sp, #64]
/home/hei/Desktop/optee-qemu/optee_os/lib/libutils/ext/trace.c:239
     6c4:	d000005a 	adrp	x26, a000 <__text_end+0x1540>
     6c8:	2a0403f9 	mov	w25, w4
     6cc:	912d875a 	add	x26, x26, #0xb61
/home/hei/Desktop/optee-qemu/optee_os/lib/libutils/ext/trace.c:229
     6d0:	a90573fb 	stp	x27, x28, [sp, #80]
/home/hei/Desktop/optee-qemu/optee_os/lib/libutils/ext/trace.c:244
     6d4:	d000005b 	adrp	x27, a000 <__text_end+0x1540>
     6d8:	912d6f7b 	add	x27, x27, #0xb5b
/home/hei/Desktop/optee-qemu/optee_os/lib/libutils/ext/trace.c:236
     6dc:	f900b7ff 	str	xzr, [sp, #360]
/home/hei/Desktop/optee-qemu/optee_os/lib/libutils/ext/trace.c:237
     6e0:	2a1303fc 	mov	w28, w19
/home/hei/Desktop/optee-qemu/optee_os/lib/libutils/ext/trace.c:237 (discriminator 1)
     6e4:	6b13033f 	cmp	w25, w19
     6e8:	5400024c 	b.gt	730 <dhex_dump+0xb0>
/home/hei/Desktop/optee-qemu/optee_os/lib/libutils/ext/trace.c:257
     6ec:	f940b7e0 	ldr	x0, [sp, #360]
     6f0:	b4000120 	cbz	x0, 714 <dhex_dump+0x94>
/home/hei/Desktop/optee-qemu/optee_os/lib/libutils/ext/trace.c:259
     6f4:	d0000044 	adrp	x4, a000 <__text_end+0x1540>
     6f8:	9101a3e5 	add	x5, sp, #0x68
     6fc:	9127ec84 	add	x4, x4, #0x9fb
     700:	52800023 	mov	w3, #0x1                   	// #1
     704:	2a1403e2 	mov	w2, w20
     708:	2a1603e1 	mov	w1, w22
     70c:	aa1503e0 	mov	x0, x21
     710:	97ffffc0 	bl	610 <trace_printf>
/home/hei/Desktop/optee-qemu/optee_os/lib/libutils/ext/trace.c:267
     714:	a94153f3 	ldp	x19, x20, [sp, #16]
     718:	a9425bf5 	ldp	x21, x22, [sp, #32]
     71c:	a94363f7 	ldp	x23, x24, [sp, #48]
     720:	a9446bf9 	ldp	x25, x26, [sp, #64]
     724:	a94573fb 	ldp	x27, x28, [sp, #80]
     728:	a8d77bfd 	ldp	x29, x30, [sp], #368
     72c:	d65f03c0 	ret
/home/hei/Desktop/optee-qemu/optee_os/lib/libutils/ext/trace.c:238
     730:	f2400e7f 	tst	x19, #0xf
     734:	54000200 	b.eq	774 <dhex_dump+0xf4>  // b.none
/home/hei/Desktop/optee-qemu/optee_os/lib/libutils/ext/trace.c:244
     738:	38736b02 	ldrb	w2, [x24, x19]
     73c:	aa1b03e1 	mov	x1, x27
     740:	aa1703e0 	mov	x0, x23
     744:	97fffefb 	bl	330 <append>
/home/hei/Desktop/optee-qemu/optee_os/lib/libutils/ext/trace.c:245
     748:	35000240 	cbnz	w0, 790 <dhex_dump+0x110>
/home/hei/Desktop/optee-qemu/optee_os/lib/libutils/ext/trace.c:266
     74c:	d0000040 	adrp	x0, a000 <__text_end+0x1540>
     750:	912cc800 	add	x0, x0, #0xb32
     754:	d0000044 	adrp	x4, a000 <__text_end+0x1540>
     758:	52800023 	mov	w3, #0x1                   	// #1
     75c:	912da484 	add	x4, x4, #0xb69
     760:	52800062 	mov	w2, #0x3                   	// #3
     764:	52802141 	mov	w1, #0x10a                 	// #266
     768:	91001400 	add	x0, x0, #0x5
     76c:	97ffffa9 	bl	610 <trace_printf>
     770:	17ffffe9 	b	714 <dhex_dump+0x94>
/home/hei/Desktop/optee-qemu/optee_os/lib/libutils/ext/trace.c:239
     774:	8b130303 	add	x3, x24, x19
     778:	52800202 	mov	w2, #0x10                  	// #16
     77c:	aa1a03e1 	mov	x1, x26
     780:	aa1703e0 	mov	x0, x23
     784:	97fffeeb 	bl	330 <append>
/home/hei/Desktop/optee-qemu/optee_os/lib/libutils/ext/trace.c:241
     788:	35fffd80 	cbnz	w0, 738 <dhex_dump+0xb8>
     78c:	17fffff0 	b	74c <dhex_dump+0xcc>
/home/hei/Desktop/optee-qemu/optee_os/lib/libutils/ext/trace.c:247
     790:	12000f80 	and	w0, w28, #0xf
     794:	71001c1f 	cmp	w0, #0x7
     798:	54000101 	b.ne	7b8 <dhex_dump+0x138>  // b.any
/home/hei/Desktop/optee-qemu/optee_os/lib/libutils/ext/trace.c:248
     79c:	d0000041 	adrp	x1, a000 <__text_end+0x1540>
     7a0:	aa1703e0 	mov	x0, x23
     7a4:	912d9c21 	add	x1, x1, #0xb67
     7a8:	97fffee2 	bl	330 <append>
/home/hei/Desktop/optee-qemu/optee_os/lib/libutils/ext/trace.c:249
     7ac:	34fffd00 	cbz	w0, 74c <dhex_dump+0xcc>
     7b0:	91000673 	add	x19, x19, #0x1
     7b4:	17ffffcb 	b	6e0 <dhex_dump+0x60>
/home/hei/Desktop/optee-qemu/optee_os/lib/libutils/ext/trace.c:251
     7b8:	71003c1f 	cmp	w0, #0xf
     7bc:	54ffffa1 	b.ne	7b0 <dhex_dump+0x130>  // b.any
/home/hei/Desktop/optee-qemu/optee_os/lib/libutils/ext/trace.c:252
     7c0:	aa1703e5 	mov	x5, x23
     7c4:	d0000044 	adrp	x4, a000 <__text_end+0x1540>
     7c8:	52800023 	mov	w3, #0x1                   	// #1
     7cc:	9127ec84 	add	x4, x4, #0x9fb
     7d0:	2a1403e2 	mov	w2, w20
     7d4:	2a1603e1 	mov	w1, w22
     7d8:	aa1503e0 	mov	x0, x21
     7dc:	97ffff8d 	bl	610 <trace_printf>
/home/hei/Desktop/optee-qemu/optee_os/lib/libutils/ext/trace.c:254
     7e0:	f900b7ff 	str	xzr, [sp, #360]
     7e4:	17fffff3 	b	7b0 <dhex_dump+0x130>
     7e8:	d65f03c0 	ret

00000000000007ec <__vsnprintf>:
__vsnprintf():
/home/hei/Desktop/optee-qemu/optee_os/lib/libutils/ext/snprintk.c:137
     7ec:	d10403ff 	sub	sp, sp, #0x100
     7f0:	aa0203e9 	mov	x9, x2
kprintf():
/home/hei/Desktop/optee-qemu/optee_os/lib/libutils/ext/snprintk.c:537
     7f4:	910363ed 	add	x13, sp, #0xd8
__vsnprintf():
/home/hei/Desktop/optee-qemu/optee_os/lib/libutils/ext/snprintk.c:137
     7f8:	a9037bfd 	stp	x29, x30, [sp, #48]
     7fc:	9100c3fd 	add	x29, sp, #0x30
     800:	a90987e0 	stp	x0, x1, [sp, #152]
     804:	12001c80 	and	w0, w4, #0xff
     808:	a90453f3 	stp	x19, x20, [sp, #64]
     80c:	b9401874 	ldr	w20, [x3, #24]
     810:	a90873fb 	stp	x27, x28, [sp, #128]
     814:	b900afe0 	str	w0, [sp, #172]
     818:	a9407073 	ldp	x19, x28, [x3]
     81c:	a9076bf9 	stp	x25, x26, [sp, #112]
kprintf():
/home/hei/Desktop/optee-qemu/optee_os/lib/libutils/ext/snprintk.c:267
     820:	5280001a 	mov	w26, #0x0                   	// #0
__vsnprintf():
/home/hei/Desktop/optee-qemu/optee_os/lib/libutils/ext/snprintk.c:141
     824:	f9404fe0 	ldr	x0, [sp, #152]
/home/hei/Desktop/optee-qemu/optee_os/lib/libutils/ext/snprintk.c:137
     828:	a9055bf5 	stp	x21, x22, [sp, #80]
kprintf():
/home/hei/Desktop/optee-qemu/optee_os/lib/libutils/ext/snprintk.c:269
     82c:	d2800016 	mov	x22, #0x0                   	// #0
__vsnprintf():
/home/hei/Desktop/optee-qemu/optee_os/lib/libutils/ext/snprintk.c:141
     830:	8b010019 	add	x25, x0, x1
     834:	aa0003fb 	mov	x27, x0
/home/hei/Desktop/optee-qemu/optee_os/lib/libutils/ext/snprintk.c:137
     838:	a90663f7 	stp	x23, x24, [sp, #96]
kprintf():
/home/hei/Desktop/optee-qemu/optee_os/lib/libutils/ext/snprintk.c:275
     83c:	39400120 	ldrb	w0, [x9]
     840:	7100941f 	cmp	w0, #0x25
     844:	7a401804 	ccmp	w0, #0x0, #0x4, ne  // ne = any
     848:	540003c1 	b.ne	8c0 <__vsnprintf+0xd4>  // b.any
/home/hei/Desktop/optee-qemu/optee_os/lib/libutils/ext/snprintk.c:279
     84c:	34005be0 	cbz	w0, 13c8 <__vsnprintf+0xbdc>
/home/hei/Desktop/optee-qemu/optee_os/lib/libutils/ext/snprintk.c:287
     850:	12800003 	mov	w3, #0xffffffff            	// #-1
/home/hei/Desktop/optee-qemu/optee_os/lib/libutils/ext/snprintk.c:282
     854:	91000529 	add	x9, x9, #0x1
     858:	2a1403e1 	mov	w1, w20
     85c:	aa1303e0 	mov	x0, x19
/home/hei/Desktop/optee-qemu/optee_os/lib/libutils/ext/snprintk.c:324
     860:	2a0303e6 	mov	w6, w3
/home/hei/Desktop/optee-qemu/optee_os/lib/libutils/ext/snprintk.c:288
     864:	52800002 	mov	w2, #0x0                   	// #0
/home/hei/Desktop/optee-qemu/optee_os/lib/libutils/ext/snprintk.c:286
     868:	52800017 	mov	w23, #0x0                   	// #0
/home/hei/Desktop/optee-qemu/optee_os/lib/libutils/ext/snprintk.c:284
     86c:	52800015 	mov	w21, #0x0                   	// #0
/home/hei/Desktop/optee-qemu/optee_os/lib/libutils/ext/snprintk.c:299
     870:	52800407 	mov	w7, #0x20                  	// #32
/home/hei/Desktop/optee-qemu/optee_os/lib/libutils/ext/snprintk.c:290
     874:	38401538 	ldrb	w24, [x9], #1
/home/hei/Desktop/optee-qemu/optee_os/lib/libutils/ext/snprintk.c:291
     878:	71018f1f 	cmp	w24, #0x63
     87c:	540019e0 	b.eq	bb8 <__vsnprintf+0x3cc>  // b.none
     880:	540007ec 	b.gt	97c <__vsnprintf+0x190>
     884:	7100c31f 	cmp	w24, #0x30
     888:	540017c0 	b.eq	b80 <__vsnprintf+0x394>  // b.none
     88c:	5400038c 	b.gt	8fc <__vsnprintf+0x110>
     890:	7100ab1f 	cmp	w24, #0x2a
     894:	54001100 	b.eq	ab4 <__vsnprintf+0x2c8>  // b.none
     898:	5400022c 	b.gt	8dc <__vsnprintf+0xf0>
     89c:	7100831f 	cmp	w24, #0x20
     8a0:	54001000 	b.eq	aa0 <__vsnprintf+0x2b4>  // b.none
     8a4:	71008f1f 	cmp	w24, #0x23
     8a8:	54001020 	b.eq	aac <__vsnprintf+0x2c0>  // b.none
/home/hei/Desktop/optee-qemu/optee_os/lib/libutils/ext/snprintk.c:541
     8ac:	340058f8 	cbz	w24, 13c8 <__vsnprintf+0xbdc>
/home/hei/Desktop/optee-qemu/optee_os/lib/libutils/ext/snprintk.c:545
     8b0:	2a0103f4 	mov	w20, w1
     8b4:	aa0003f3 	mov	x19, x0
     8b8:	390363f8 	strb	w24, [sp, #216]
/home/hei/Desktop/optee-qemu/optee_os/lib/libutils/ext/snprintk.c:548
     8bc:	140000c5 	b	bd0 <__vsnprintf+0x3e4>
/home/hei/Desktop/optee-qemu/optee_os/lib/libutils/ext/snprintk.c:276
     8c0:	1100075a 	add	w26, w26, #0x1
/home/hei/Desktop/optee-qemu/optee_os/lib/libutils/ext/snprintk.c:277
     8c4:	b400009b 	cbz	x27, 8d4 <__vsnprintf+0xe8>
     8c8:	eb1b033f 	cmp	x25, x27
     8cc:	54000049 	b.ls	8d4 <__vsnprintf+0xe8>  // b.plast
     8d0:	38001760 	strb	w0, [x27], #1
/home/hei/Desktop/optee-qemu/optee_os/lib/libutils/ext/snprintk.c:275
     8d4:	91000529 	add	x9, x9, #0x1
     8d8:	17ffffd9 	b	83c <__vsnprintf+0x50>
/home/hei/Desktop/optee-qemu/optee_os/lib/libutils/ext/snprintk.c:291
     8dc:	7100b71f 	cmp	w24, #0x2d
     8e0:	54000f80 	b.eq	ad0 <__vsnprintf+0x2e4>  // b.none
     8e4:	7100bb1f 	cmp	w24, #0x2e
     8e8:	540010e0 	b.eq	b04 <__vsnprintf+0x318>  // b.none
     8ec:	7100af1f 	cmp	w24, #0x2b
     8f0:	54fffde1 	b.ne	8ac <__vsnprintf+0xc0>  // b.any
/home/hei/Desktop/optee-qemu/optee_os/lib/libutils/ext/snprintk.c:319
     8f4:	2a1803e2 	mov	w2, w24
     8f8:	17ffffdf 	b	874 <__vsnprintf+0x88>
/home/hei/Desktop/optee-qemu/optee_os/lib/libutils/ext/snprintk.c:291
     8fc:	7101131f 	cmp	w24, #0x44
     900:	54001840 	b.eq	c08 <__vsnprintf+0x41c>  // b.none
     904:	5400018c 	b.gt	934 <__vsnprintf+0x148>
     908:	7100e71f 	cmp	w24, #0x39
     90c:	54fffd0c 	b.gt	8ac <__vsnprintf+0xc0>
/home/hei/Desktop/optee-qemu/optee_os/lib/libutils/ext/snprintk.c:344
     910:	52800017 	mov	w23, #0x0                   	// #0
/home/hei/Desktop/optee-qemu/optee_os/lib/libutils/ext/snprintk.c:346
     914:	5100c308 	sub	w8, w24, #0x30
     918:	52800144 	mov	w4, #0xa                   	// #10
/home/hei/Desktop/optee-qemu/optee_os/lib/libutils/ext/snprintk.c:347
     91c:	38401538 	ldrb	w24, [x9], #1
/home/hei/Desktop/optee-qemu/optee_os/lib/libutils/ext/snprintk.c:346
     920:	1b0422f7 	madd	w23, w23, w4, w8
/home/hei/Desktop/optee-qemu/optee_os/lib/libutils/ext/snprintk.c:348
     924:	5100c304 	sub	w4, w24, #0x30
     928:	7100249f 	cmp	w4, #0x9
     92c:	54ffff49 	b.ls	914 <__vsnprintf+0x128>  // b.plast
     930:	17ffffd2 	b	878 <__vsnprintf+0x8c>
/home/hei/Desktop/optee-qemu/optee_os/lib/libutils/ext/snprintk.c:291
     934:	7101571f 	cmp	w24, #0x55
     938:	54003e20 	b.eq	10fc <__vsnprintf+0x910>  // b.none
     93c:	7101631f 	cmp	w24, #0x58
     940:	540043a0 	b.eq	11b4 <__vsnprintf+0x9c8>  // b.none
     944:	71013f1f 	cmp	w24, #0x4f
     948:	54fffb21 	b.ne	8ac <__vsnprintf+0xc0>  // b.any
/home/hei/Desktop/optee-qemu/optee_os/lib/libutils/ext/snprintk.c:408
     94c:	321c02b5 	orr	w21, w21, #0x10
/home/hei/Desktop/optee-qemu/optee_os/lib/libutils/ext/snprintk.c:411
     950:	36382675 	tbz	w21, #7, e1c <__vsnprintf+0x630>
     954:	37f827a1 	tbnz	w1, #31, e48 <__vsnprintf+0x65c>
     958:	91003c13 	add	x19, x0, #0xf
     95c:	2a0103f4 	mov	w20, w1
     960:	927df273 	and	x19, x19, #0xfffffffffffffff8
     964:	f9400000 	ldr	x0, [x0]
/home/hei/Desktop/optee-qemu/optee_os/lib/libutils/ext/snprintk.c:488
     968:	52800002 	mov	w2, #0x0                   	// #0
     96c:	3100047f 	cmn	w3, #0x1
     970:	540016e0 	b.eq	c4c <__vsnprintf+0x460>  // b.none
     974:	52800001 	mov	w1, #0x0                   	// #0
     978:	1400024e 	b	12b0 <__vsnprintf+0xac4>
/home/hei/Desktop/optee-qemu/optee_os/lib/libutils/ext/snprintk.c:291
     97c:	7101bf1f 	cmp	w24, #0x6f
     980:	54fffe80 	b.eq	950 <__vsnprintf+0x164>  // b.none
     984:	5400024c 	b.gt	9cc <__vsnprintf+0x1e0>
     988:	7101a71f 	cmp	w24, #0x69
     98c:	54001400 	b.eq	c0c <__vsnprintf+0x420>  // b.none
     990:	540000ec 	b.gt	9ac <__vsnprintf+0x1c0>
     994:	7101931f 	cmp	w24, #0x64
     998:	540013a0 	b.eq	c0c <__vsnprintf+0x420>  // b.none
     99c:	7101a31f 	cmp	w24, #0x68
     9a0:	54fff861 	b.ne	8ac <__vsnprintf+0xc0>  // b.any
/home/hei/Desktop/optee-qemu/optee_os/lib/libutils/ext/snprintk.c:352
     9a4:	321a02b5 	orr	w21, w21, #0x40
/home/hei/Desktop/optee-qemu/optee_os/lib/libutils/ext/snprintk.c:353
     9a8:	17ffffb3 	b	874 <__vsnprintf+0x88>
/home/hei/Desktop/optee-qemu/optee_os/lib/libutils/ext/snprintk.c:291
     9ac:	7101b31f 	cmp	w24, #0x6c
     9b0:	54000ec0 	b.eq	b88 <__vsnprintf+0x39c>  // b.none
     9b4:	7101bb1f 	cmp	w24, #0x6e
     9b8:	54001c40 	b.eq	d40 <__vsnprintf+0x554>  // b.none
     9bc:	7101ab1f 	cmp	w24, #0x6a
     9c0:	54fff761 	b.ne	8ac <__vsnprintf+0xc0>  // b.any
/home/hei/Desktop/optee-qemu/optee_os/lib/libutils/ext/snprintk.c:355
     9c4:	321902b5 	orr	w21, w21, #0x80
/home/hei/Desktop/optee-qemu/optee_os/lib/libutils/ext/snprintk.c:356
     9c8:	17ffffab 	b	874 <__vsnprintf+0x88>
/home/hei/Desktop/optee-qemu/optee_os/lib/libutils/ext/snprintk.c:291
     9cc:	7101d31f 	cmp	w24, #0x74
     9d0:	54000ec0 	b.eq	ba8 <__vsnprintf+0x3bc>  // b.none
     9d4:	5400042c 	b.gt	a58 <__vsnprintf+0x26c>
     9d8:	7101c71f 	cmp	w24, #0x71
     9dc:	54000de0 	b.eq	b98 <__vsnprintf+0x3ac>  // b.none
     9e0:	5400276b 	b.lt	ecc <__vsnprintf+0x6e0>  // b.tstop
     9e4:	7101cf1f 	cmp	w24, #0x73
     9e8:	54fff621 	b.ne	8ac <__vsnprintf+0xc0>  // b.any
/home/hei/Desktop/optee-qemu/optee_os/lib/libutils/ext/snprintk.c:442
     9ec:	37f83621 	tbnz	w1, #31, 10b0 <__vsnprintf+0x8c4>
     9f0:	91003c13 	add	x19, x0, #0xf
     9f4:	2a0103f4 	mov	w20, w1
     9f8:	927df273 	and	x19, x19, #0xfffffffffffffff8
     9fc:	f9400004 	ldr	x4, [x0]
     a00:	b5000064 	cbnz	x4, a0c <__vsnprintf+0x220>
/home/hei/Desktop/optee-qemu/optee_os/lib/libutils/ext/snprintk.c:444
     a04:	d0000044 	adrp	x4, a000 <__text_end+0x1540>
     a08:	912e6884 	add	x4, x4, #0xb9a
/home/hei/Desktop/optee-qemu/optee_os/lib/libutils/ext/snprintk.c:445
     a0c:	3100047f 	cmn	w3, #0x1
     a10:	54003620 	b.eq	10d4 <__vsnprintf+0x8e8>  // b.none
/home/hei/Desktop/optee-qemu/optee_os/lib/libutils/ext/snprintk.c:451
     a14:	93407c62 	sxtw	x2, w3
     a18:	aa0403e0 	mov	x0, x4
     a1c:	52800001 	mov	w1, #0x0                   	// #0
     a20:	f9005be4 	str	x4, [sp, #176]
     a24:	b900bbe3 	str	w3, [sp, #184]
     a28:	a90c37e9 	stp	x9, x13, [sp, #192]
     a2c:	940002af 	bl	14e8 <memchr>
/home/hei/Desktop/optee-qemu/optee_os/lib/libutils/ext/snprintk.c:453
     a30:	b940bbe3 	ldr	w3, [sp, #184]
     a34:	f9405be4 	ldr	x4, [sp, #176]
     a38:	a94c37e9 	ldp	x9, x13, [sp, #192]
     a3c:	b4000080 	cbz	x0, a4c <__vsnprintf+0x260>
/home/hei/Desktop/optee-qemu/optee_os/lib/libutils/ext/snprintk.c:454
     a40:	cb040000 	sub	x0, x0, x4
     a44:	6b00007f 	cmp	w3, w0
     a48:	1a80d063 	csel	w3, w3, w0, le
/home/hei/Desktop/optee-qemu/optee_os/lib/libutils/ext/snprintk.c:285
     a4c:	52800001 	mov	w1, #0x0                   	// #0
/home/hei/Desktop/optee-qemu/optee_os/lib/libutils/ext/snprintk.c:461
     a50:	52800002 	mov	w2, #0x0                   	// #0
     a54:	14000148 	b	f74 <__vsnprintf+0x788>
/home/hei/Desktop/optee-qemu/optee_os/lib/libutils/ext/snprintk.c:291
     a58:	7101e31f 	cmp	w24, #0x78
     a5c:	54003ca0 	b.eq	11f0 <__vsnprintf+0xa04>  // b.none
     a60:	7101eb1f 	cmp	w24, #0x7a
     a64:	54000a60 	b.eq	bb0 <__vsnprintf+0x3c4>  // b.none
     a68:	7101d71f 	cmp	w24, #0x75
     a6c:	54fff201 	b.ne	8ac <__vsnprintf+0xc0>  // b.any
/home/hei/Desktop/optee-qemu/optee_os/lib/libutils/ext/snprintk.c:467
     a70:	363834b5 	tbz	w21, #7, 1104 <__vsnprintf+0x918>
     a74:	37f835e1 	tbnz	w1, #31, 1130 <__vsnprintf+0x944>
     a78:	91003c13 	add	x19, x0, #0xf
     a7c:	2a0103f4 	mov	w20, w1
     a80:	927df273 	and	x19, x19, #0xfffffffffffffff8
     a84:	f9400000 	ldr	x0, [x0]
/home/hei/Desktop/optee-qemu/optee_os/lib/libutils/ext/snprintk.c:482
     a88:	52800002 	mov	w2, #0x0                   	// #0
/home/hei/Desktop/optee-qemu/optee_os/lib/libutils/ext/snprintk.c:488
     a8c:	3100047f 	cmn	w3, #0x1
     a90:	540041e1 	b.ne	12cc <__vsnprintf+0xae0>  // b.any
/home/hei/Desktop/optee-qemu/optee_os/lib/libutils/ext/snprintk.c:508
     a94:	910095a1 	add	x1, x13, #0x25
/home/hei/Desktop/optee-qemu/optee_os/lib/libutils/ext/snprintk.c:517
     a98:	d2800145 	mov	x5, #0xa                   	// #10
     a9c:	14000216 	b	12f4 <__vsnprintf+0xb08>
/home/hei/Desktop/optee-qemu/optee_os/lib/libutils/ext/snprintk.c:299
     aa0:	7100005f 	cmp	w2, #0x0
     aa4:	1a871042 	csel	w2, w2, w7, ne  // ne = any
     aa8:	17ffff73 	b	874 <__vsnprintf+0x88>
/home/hei/Desktop/optee-qemu/optee_os/lib/libutils/ext/snprintk.c:302
     aac:	320002b5 	orr	w21, w21, #0x1
/home/hei/Desktop/optee-qemu/optee_os/lib/libutils/ext/snprintk.c:303
     ab0:	17ffff71 	b	874 <__vsnprintf+0x88>
/home/hei/Desktop/optee-qemu/optee_os/lib/libutils/ext/snprintk.c:311
     ab4:	37f80121 	tbnz	w1, #31, ad8 <__vsnprintf+0x2ec>
     ab8:	91002c05 	add	x5, x0, #0xb
     abc:	aa0003e4 	mov	x4, x0
     ac0:	927df0a0 	and	x0, x5, #0xfffffffffffffff8
     ac4:	b9400097 	ldr	w23, [x4]
     ac8:	36ffed77 	tbz	w23, #31, 874 <__vsnprintf+0x88>
/home/hei/Desktop/optee-qemu/optee_os/lib/libutils/ext/snprintk.c:313
     acc:	4b1703f7 	neg	w23, w23
/home/hei/Desktop/optee-qemu/optee_os/lib/libutils/ext/snprintk.c:316
     ad0:	321e02b5 	orr	w21, w21, #0x4
/home/hei/Desktop/optee-qemu/optee_os/lib/libutils/ext/snprintk.c:317
     ad4:	17ffff68 	b	874 <__vsnprintf+0x88>
/home/hei/Desktop/optee-qemu/optee_os/lib/libutils/ext/snprintk.c:311
     ad8:	11002025 	add	w5, w1, #0x8
     adc:	710000bf 	cmp	w5, #0x0
     ae0:	540000cd 	b.le	af8 <__vsnprintf+0x30c>
     ae4:	91002c08 	add	x8, x0, #0xb
     ae8:	aa0003e4 	mov	x4, x0
     aec:	2a0503e1 	mov	w1, w5
     af0:	927df100 	and	x0, x8, #0xfffffffffffffff8
     af4:	17fffff4 	b	ac4 <__vsnprintf+0x2d8>
     af8:	8b21c384 	add	x4, x28, w1, sxtw
     afc:	2a0503e1 	mov	w1, w5
     b00:	17fffff1 	b	ac4 <__vsnprintf+0x2d8>
/home/hei/Desktop/optee-qemu/optee_os/lib/libutils/ext/snprintk.c:322
     b04:	38401538 	ldrb	w24, [x9], #1
     b08:	7100ab1f 	cmp	w24, #0x2a
     b0c:	54000361 	b.ne	b78 <__vsnprintf+0x38c>  // b.any
/home/hei/Desktop/optee-qemu/optee_os/lib/libutils/ext/snprintk.c:323
     b10:	37f80141 	tbnz	w1, #31, b38 <__vsnprintf+0x34c>
     b14:	91002c04 	add	x4, x0, #0xb
     b18:	2a0103e5 	mov	w5, w1
     b1c:	927df084 	and	x4, x4, #0xfffffffffffffff8
/home/hei/Desktop/optee-qemu/optee_os/lib/libutils/ext/snprintk.c:324
     b20:	b9400003 	ldr	w3, [x0]
     b24:	2a0503e1 	mov	w1, w5
     b28:	aa0403e0 	mov	x0, x4
     b2c:	7100007f 	cmp	w3, #0x0
     b30:	1a86a063 	csel	w3, w3, w6, ge  // ge = tcont
/home/hei/Desktop/optee-qemu/optee_os/lib/libutils/ext/snprintk.c:325
     b34:	17ffff50 	b	874 <__vsnprintf+0x88>
/home/hei/Desktop/optee-qemu/optee_os/lib/libutils/ext/snprintk.c:323
     b38:	11002025 	add	w5, w1, #0x8
     b3c:	710000bf 	cmp	w5, #0x0
     b40:	5400008d 	b.le	b50 <__vsnprintf+0x364>
     b44:	91002c04 	add	x4, x0, #0xb
     b48:	927df084 	and	x4, x4, #0xfffffffffffffff8
     b4c:	17fffff5 	b	b20 <__vsnprintf+0x334>
     b50:	aa0003e4 	mov	x4, x0
     b54:	8b21c380 	add	x0, x28, w1, sxtw
     b58:	17fffff2 	b	b20 <__vsnprintf+0x334>
/home/hei/Desktop/optee-qemu/optee_os/lib/libutils/ext/snprintk.c:329
     b5c:	52800145 	mov	w5, #0xa                   	// #10
/home/hei/Desktop/optee-qemu/optee_os/lib/libutils/ext/snprintk.c:330
     b60:	38401538 	ldrb	w24, [x9], #1
/home/hei/Desktop/optee-qemu/optee_os/lib/libutils/ext/snprintk.c:329
     b64:	1b051063 	madd	w3, w3, w5, w4
/home/hei/Desktop/optee-qemu/optee_os/lib/libutils/ext/snprintk.c:328
     b68:	5100c304 	sub	w4, w24, #0x30
     b6c:	7100249f 	cmp	w4, #0x9
     b70:	54ffff69 	b.ls	b5c <__vsnprintf+0x370>  // b.plast
     b74:	17ffff41 	b	878 <__vsnprintf+0x8c>
/home/hei/Desktop/optee-qemu/optee_os/lib/libutils/ext/snprintk.c:327
     b78:	52800003 	mov	w3, #0x0                   	// #0
     b7c:	17fffffb 	b	b68 <__vsnprintf+0x37c>
/home/hei/Desktop/optee-qemu/optee_os/lib/libutils/ext/snprintk.c:340
     b80:	321602b5 	orr	w21, w21, #0x400
/home/hei/Desktop/optee-qemu/optee_os/lib/libutils/ext/snprintk.c:341
     b84:	17ffff3c 	b	874 <__vsnprintf+0x88>
/home/hei/Desktop/optee-qemu/optee_os/lib/libutils/ext/snprintk.c:358
     b88:	39400124 	ldrb	w4, [x9]
     b8c:	7101b09f 	cmp	w4, #0x6c
     b90:	54000081 	b.ne	ba0 <__vsnprintf+0x3b4>  // b.any
     b94:	91000529 	add	x9, x9, #0x1
/home/hei/Desktop/optee-qemu/optee_os/lib/libutils/ext/snprintk.c:366
     b98:	321b02b5 	orr	w21, w21, #0x20
/home/hei/Desktop/optee-qemu/optee_os/lib/libutils/ext/snprintk.c:367
     b9c:	17ffff36 	b	874 <__vsnprintf+0x88>
/home/hei/Desktop/optee-qemu/optee_os/lib/libutils/ext/snprintk.c:362
     ba0:	321c02b5 	orr	w21, w21, #0x10
     ba4:	17ffff34 	b	874 <__vsnprintf+0x88>
/home/hei/Desktop/optee-qemu/optee_os/lib/libutils/ext/snprintk.c:369
     ba8:	321802b5 	orr	w21, w21, #0x100
/home/hei/Desktop/optee-qemu/optee_os/lib/libutils/ext/snprintk.c:370
     bac:	17ffff32 	b	874 <__vsnprintf+0x88>
/home/hei/Desktop/optee-qemu/optee_os/lib/libutils/ext/snprintk.c:372
     bb0:	321702b5 	orr	w21, w21, #0x200
/home/hei/Desktop/optee-qemu/optee_os/lib/libutils/ext/snprintk.c:373
     bb4:	17ffff30 	b	874 <__vsnprintf+0x88>
/home/hei/Desktop/optee-qemu/optee_os/lib/libutils/ext/snprintk.c:375
     bb8:	37f80161 	tbnz	w1, #31, be4 <__vsnprintf+0x3f8>
     bbc:	91002c13 	add	x19, x0, #0xb
     bc0:	2a0103f4 	mov	w20, w1
     bc4:	927df273 	and	x19, x19, #0xfffffffffffffff8
     bc8:	b9400000 	ldr	w0, [x0]
     bcc:	390363e0 	strb	w0, [sp, #216]
/home/hei/Desktop/optee-qemu/optee_os/lib/libutils/ext/snprintk.c:546
     bd0:	52800023 	mov	w3, #0x1                   	// #1
/home/hei/Desktop/optee-qemu/optee_os/lib/libutils/ext/snprintk.c:285
     bd4:	52800001 	mov	w1, #0x0                   	// #0
/home/hei/Desktop/optee-qemu/optee_os/lib/libutils/ext/snprintk.c:547
     bd8:	52800002 	mov	w2, #0x0                   	// #0
/home/hei/Desktop/optee-qemu/optee_os/lib/libutils/ext/snprintk.c:544
     bdc:	910363e4 	add	x4, sp, #0xd8
     be0:	140000e5 	b	f74 <__vsnprintf+0x788>
/home/hei/Desktop/optee-qemu/optee_os/lib/libutils/ext/snprintk.c:375
     be4:	11002034 	add	w20, w1, #0x8
     be8:	7100029f 	cmp	w20, #0x0
     bec:	5400008d 	b.le	bfc <__vsnprintf+0x410>
     bf0:	91002c13 	add	x19, x0, #0xb
     bf4:	927df273 	and	x19, x19, #0xfffffffffffffff8
     bf8:	17fffff4 	b	bc8 <__vsnprintf+0x3dc>
     bfc:	aa0003f3 	mov	x19, x0
     c00:	8b21c380 	add	x0, x28, w1, sxtw
     c04:	17fffff1 	b	bc8 <__vsnprintf+0x3dc>
/home/hei/Desktop/optee-qemu/optee_os/lib/libutils/ext/snprintk.c:380
     c08:	321c02b5 	orr	w21, w21, #0x10
/home/hei/Desktop/optee-qemu/optee_os/lib/libutils/ext/snprintk.c:384
     c0c:	36380435 	tbz	w21, #7, c90 <__vsnprintf+0x4a4>
     c10:	37f80561 	tbnz	w1, #31, cbc <__vsnprintf+0x4d0>
     c14:	91003c13 	add	x19, x0, #0xf
     c18:	2a0103f4 	mov	w20, w1
     c1c:	927df273 	and	x19, x19, #0xfffffffffffffff8
     c20:	f9400000 	ldr	x0, [x0]
/home/hei/Desktop/optee-qemu/optee_os/lib/libutils/ext/snprintk.c:385
     c24:	b6fff340 	tbz	x0, #63, a8c <__vsnprintf+0x2a0>
/home/hei/Desktop/optee-qemu/optee_os/lib/libutils/ext/snprintk.c:386
     c28:	cb0003e0 	neg	x0, x0
/home/hei/Desktop/optee-qemu/optee_os/lib/libutils/ext/snprintk.c:389
     c2c:	52800021 	mov	w1, #0x1                   	// #1
/home/hei/Desktop/optee-qemu/optee_os/lib/libutils/ext/snprintk.c:387
     c30:	528005a2 	mov	w2, #0x2d                  	// #45
/home/hei/Desktop/optee-qemu/optee_os/lib/libutils/ext/snprintk.c:488
     c34:	3100047f 	cmn	w3, #0x1
     c38:	540033c1 	b.ne	12b0 <__vsnprintf+0xac4>  // b.any
/home/hei/Desktop/optee-qemu/optee_os/lib/libutils/ext/snprintk.c:503
     c3c:	7100043f 	cmp	w1, #0x1
     c40:	54fff2a0 	b.eq	a94 <__vsnprintf+0x2a8>  // b.none
     c44:	7100083f 	cmp	w1, #0x2
     c48:	54002140 	b.eq	1070 <__vsnprintf+0x884>  // b.none
/home/hei/Desktop/optee-qemu/optee_os/lib/libutils/ext/snprintk.c:488
     c4c:	910095a1 	add	x1, x13, #0x25
/home/hei/Desktop/optee-qemu/optee_os/lib/libutils/ext/snprintk.c:506
     c50:	12000805 	and	w5, w0, #0x7
     c54:	d1000424 	sub	x4, x1, #0x1
     c58:	1100c0a5 	add	w5, w5, #0x30
     c5c:	381ff025 	sturb	w5, [x1, #-1]
/home/hei/Desktop/optee-qemu/optee_os/lib/libutils/ext/snprintk.c:507
     c60:	d343fc00 	lsr	x0, x0, #3
/home/hei/Desktop/optee-qemu/optee_os/lib/libutils/ext/snprintk.c:508
     c64:	b5003380 	cbnz	x0, 12d4 <__vsnprintf+0xae8>
/home/hei/Desktop/optee-qemu/optee_os/lib/libutils/ext/snprintk.c:510
     c68:	360000d5 	tbz	w21, #0, c80 <__vsnprintf+0x494>
     c6c:	7100c0bf 	cmp	w5, #0x30
     c70:	54000080 	b.eq	c80 <__vsnprintf+0x494>  // b.none
/home/hei/Desktop/optee-qemu/optee_os/lib/libutils/ext/snprintk.c:511
     c74:	52800600 	mov	w0, #0x30                  	// #48
     c78:	381ff080 	sturb	w0, [x4, #-1]
     c7c:	d1000824 	sub	x4, x1, #0x2
/home/hei/Desktop/optee-qemu/optee_os/lib/libutils/ext/snprintk.c:537
     c80:	910095a0 	add	x0, x13, #0x25
     c84:	2a0303e1 	mov	w1, w3
     c88:	4b040003 	sub	w3, w0, w4
     c8c:	140000ba 	b	f74 <__vsnprintf+0x788>
/home/hei/Desktop/optee-qemu/optee_os/lib/libutils/ext/snprintk.c:384
     c90:	3747fc15 	tbnz	w21, #8, c10 <__vsnprintf+0x424>
     c94:	374ffbf5 	tbnz	w21, #9, c10 <__vsnprintf+0x424>
     c98:	372ffbd5 	tbnz	w21, #5, c10 <__vsnprintf+0x424>
     c9c:	3727fbb5 	tbnz	w21, #4, c10 <__vsnprintf+0x424>
     ca0:	36300335 	tbz	w21, #6, d04 <__vsnprintf+0x518>
     ca4:	37f801e1 	tbnz	w1, #31, ce0 <__vsnprintf+0x4f4>
     ca8:	91002c13 	add	x19, x0, #0xb
     cac:	2a0103f4 	mov	w20, w1
     cb0:	927df273 	and	x19, x19, #0xfffffffffffffff8
     cb4:	79800000 	ldrsh	x0, [x0]
     cb8:	17ffffdb 	b	c24 <__vsnprintf+0x438>
     cbc:	11002034 	add	w20, w1, #0x8
     cc0:	7100029f 	cmp	w20, #0x0
     cc4:	5400008d 	b.le	cd4 <__vsnprintf+0x4e8>
     cc8:	91003c13 	add	x19, x0, #0xf
     ccc:	927df273 	and	x19, x19, #0xfffffffffffffff8
     cd0:	17ffffd4 	b	c20 <__vsnprintf+0x434>
     cd4:	aa0003f3 	mov	x19, x0
     cd8:	8b21c380 	add	x0, x28, w1, sxtw
     cdc:	17ffffd1 	b	c20 <__vsnprintf+0x434>
     ce0:	11002034 	add	w20, w1, #0x8
     ce4:	7100029f 	cmp	w20, #0x0
     ce8:	5400008d 	b.le	cf8 <__vsnprintf+0x50c>
     cec:	91002c13 	add	x19, x0, #0xb
     cf0:	927df273 	and	x19, x19, #0xfffffffffffffff8
     cf4:	17fffff0 	b	cb4 <__vsnprintf+0x4c8>
     cf8:	aa0003f3 	mov	x19, x0
     cfc:	8b21c380 	add	x0, x28, w1, sxtw
     d00:	17ffffed 	b	cb4 <__vsnprintf+0x4c8>
     d04:	37f800c1 	tbnz	w1, #31, d1c <__vsnprintf+0x530>
     d08:	91002c13 	add	x19, x0, #0xb
     d0c:	2a0103f4 	mov	w20, w1
     d10:	927df273 	and	x19, x19, #0xfffffffffffffff8
     d14:	b9800000 	ldrsw	x0, [x0]
     d18:	17ffffc3 	b	c24 <__vsnprintf+0x438>
     d1c:	11002034 	add	w20, w1, #0x8
     d20:	7100029f 	cmp	w20, #0x0
     d24:	5400008d 	b.le	d34 <__vsnprintf+0x548>
     d28:	91002c13 	add	x19, x0, #0xb
     d2c:	927df273 	and	x19, x19, #0xfffffffffffffff8
     d30:	17fffff9 	b	d14 <__vsnprintf+0x528>
     d34:	aa0003f3 	mov	x19, x0
     d38:	8b21c380 	add	x0, x28, w1, sxtw
     d3c:	17fffff6 	b	d14 <__vsnprintf+0x528>
/home/hei/Desktop/optee-qemu/optee_os/lib/libutils/ext/snprintk.c:392
     d40:	36380135 	tbz	w21, #7, d64 <__vsnprintf+0x578>
/home/hei/Desktop/optee-qemu/optee_os/lib/libutils/ext/snprintk.c:401
     d44:	37f80281 	tbnz	w1, #31, d94 <__vsnprintf+0x5a8>
     d48:	91003c13 	add	x19, x0, #0xf
     d4c:	2a0103f4 	mov	w20, w1
     d50:	927df273 	and	x19, x19, #0xfffffffffffffff8
     d54:	f9400000 	ldr	x0, [x0]
     d58:	93407f41 	sxtw	x1, w26
     d5c:	f9000001 	str	x1, [x0]
     d60:	17fffeb7 	b	83c <__vsnprintf+0x50>
/home/hei/Desktop/optee-qemu/optee_os/lib/libutils/ext/snprintk.c:394
     d64:	3747ff15 	tbnz	w21, #8, d44 <__vsnprintf+0x558>
/home/hei/Desktop/optee-qemu/optee_os/lib/libutils/ext/snprintk.c:396
     d68:	374ffef5 	tbnz	w21, #9, d44 <__vsnprintf+0x558>
/home/hei/Desktop/optee-qemu/optee_os/lib/libutils/ext/snprintk.c:398
     d6c:	372ffed5 	tbnz	w21, #5, d44 <__vsnprintf+0x558>
/home/hei/Desktop/optee-qemu/optee_os/lib/libutils/ext/snprintk.c:400
     d70:	3727feb5 	tbnz	w21, #4, d44 <__vsnprintf+0x558>
/home/hei/Desktop/optee-qemu/optee_os/lib/libutils/ext/snprintk.c:402
     d74:	36300355 	tbz	w21, #6, ddc <__vsnprintf+0x5f0>
/home/hei/Desktop/optee-qemu/optee_os/lib/libutils/ext/snprintk.c:403
     d78:	37f80201 	tbnz	w1, #31, db8 <__vsnprintf+0x5cc>
     d7c:	91003c13 	add	x19, x0, #0xf
     d80:	2a0103f4 	mov	w20, w1
     d84:	927df273 	and	x19, x19, #0xfffffffffffffff8
     d88:	f9400000 	ldr	x0, [x0]
     d8c:	7900001a 	strh	w26, [x0]
     d90:	17fffeab 	b	83c <__vsnprintf+0x50>
/home/hei/Desktop/optee-qemu/optee_os/lib/libutils/ext/snprintk.c:401
     d94:	11002034 	add	w20, w1, #0x8
     d98:	7100029f 	cmp	w20, #0x0
     d9c:	5400008d 	b.le	dac <__vsnprintf+0x5c0>
     da0:	91003c13 	add	x19, x0, #0xf
     da4:	927df273 	and	x19, x19, #0xfffffffffffffff8
     da8:	17ffffeb 	b	d54 <__vsnprintf+0x568>
     dac:	aa0003f3 	mov	x19, x0
     db0:	8b21c380 	add	x0, x28, w1, sxtw
     db4:	17ffffe8 	b	d54 <__vsnprintf+0x568>
/home/hei/Desktop/optee-qemu/optee_os/lib/libutils/ext/snprintk.c:403
     db8:	11002034 	add	w20, w1, #0x8
     dbc:	7100029f 	cmp	w20, #0x0
     dc0:	5400008d 	b.le	dd0 <__vsnprintf+0x5e4>
     dc4:	91003c13 	add	x19, x0, #0xf
     dc8:	927df273 	and	x19, x19, #0xfffffffffffffff8
     dcc:	17ffffef 	b	d88 <__vsnprintf+0x59c>
     dd0:	aa0003f3 	mov	x19, x0
     dd4:	8b21c380 	add	x0, x28, w1, sxtw
     dd8:	17ffffec 	b	d88 <__vsnprintf+0x59c>
/home/hei/Desktop/optee-qemu/optee_os/lib/libutils/ext/snprintk.c:405
     ddc:	37f800e1 	tbnz	w1, #31, df8 <__vsnprintf+0x60c>
     de0:	91003c13 	add	x19, x0, #0xf
     de4:	2a0103f4 	mov	w20, w1
     de8:	927df273 	and	x19, x19, #0xfffffffffffffff8
     dec:	f9400000 	ldr	x0, [x0]
     df0:	b900001a 	str	w26, [x0]
     df4:	17fffe92 	b	83c <__vsnprintf+0x50>
     df8:	11002034 	add	w20, w1, #0x8
     dfc:	7100029f 	cmp	w20, #0x0
     e00:	5400008d 	b.le	e10 <__vsnprintf+0x624>
     e04:	91003c13 	add	x19, x0, #0xf
     e08:	927df273 	and	x19, x19, #0xfffffffffffffff8
     e0c:	17fffff8 	b	dec <__vsnprintf+0x600>
     e10:	aa0003f3 	mov	x19, x0
     e14:	8b21c380 	add	x0, x28, w1, sxtw
     e18:	17fffff5 	b	dec <__vsnprintf+0x600>
/home/hei/Desktop/optee-qemu/optee_os/lib/libutils/ext/snprintk.c:411
     e1c:	3747d9d5 	tbnz	w21, #8, 954 <__vsnprintf+0x168>
     e20:	374fd9b5 	tbnz	w21, #9, 954 <__vsnprintf+0x168>
     e24:	372fd995 	tbnz	w21, #5, 954 <__vsnprintf+0x168>
     e28:	3727d975 	tbnz	w21, #4, 954 <__vsnprintf+0x168>
     e2c:	36300335 	tbz	w21, #6, e90 <__vsnprintf+0x6a4>
     e30:	37f801e1 	tbnz	w1, #31, e6c <__vsnprintf+0x680>
     e34:	91002c13 	add	x19, x0, #0xb
     e38:	2a0103f4 	mov	w20, w1
     e3c:	927df273 	and	x19, x19, #0xfffffffffffffff8
     e40:	79400000 	ldrh	w0, [x0]
     e44:	17fffec9 	b	968 <__vsnprintf+0x17c>
     e48:	11002034 	add	w20, w1, #0x8
     e4c:	7100029f 	cmp	w20, #0x0
     e50:	5400008d 	b.le	e60 <__vsnprintf+0x674>
     e54:	91003c13 	add	x19, x0, #0xf
     e58:	927df273 	and	x19, x19, #0xfffffffffffffff8
     e5c:	17fffec2 	b	964 <__vsnprintf+0x178>
     e60:	aa0003f3 	mov	x19, x0
     e64:	8b21c380 	add	x0, x28, w1, sxtw
     e68:	17fffebf 	b	964 <__vsnprintf+0x178>
     e6c:	11002034 	add	w20, w1, #0x8
     e70:	7100029f 	cmp	w20, #0x0
     e74:	5400008d 	b.le	e84 <__vsnprintf+0x698>
     e78:	91002c13 	add	x19, x0, #0xb
     e7c:	927df273 	and	x19, x19, #0xfffffffffffffff8
     e80:	17fffff0 	b	e40 <__vsnprintf+0x654>
     e84:	aa0003f3 	mov	x19, x0
     e88:	8b21c380 	add	x0, x28, w1, sxtw
     e8c:	17ffffed 	b	e40 <__vsnprintf+0x654>
     e90:	37f800c1 	tbnz	w1, #31, ea8 <__vsnprintf+0x6bc>
     e94:	91002c13 	add	x19, x0, #0xb
     e98:	2a0103f4 	mov	w20, w1
     e9c:	927df273 	and	x19, x19, #0xfffffffffffffff8
     ea0:	b9400000 	ldr	w0, [x0]
     ea4:	17fffeb1 	b	968 <__vsnprintf+0x17c>
     ea8:	11002034 	add	w20, w1, #0x8
     eac:	7100029f 	cmp	w20, #0x0
     eb0:	5400008d 	b.le	ec0 <__vsnprintf+0x6d4>
     eb4:	91002c13 	add	x19, x0, #0xb
     eb8:	927df273 	and	x19, x19, #0xfffffffffffffff8
     ebc:	17fffff9 	b	ea0 <__vsnprintf+0x6b4>
     ec0:	aa0003f3 	mov	x19, x0
     ec4:	8b21c380 	add	x0, x28, w1, sxtw
     ec8:	17fffff6 	b	ea0 <__vsnprintf+0x6b4>
/home/hei/Desktop/optee-qemu/optee_os/lib/libutils/ext/snprintk.c:415
     ecc:	b940afe2 	ldr	w2, [sp, #172]
     ed0:	34000b82 	cbz	w2, 1040 <__vsnprintf+0x854>
     ed4:	39400122 	ldrb	w2, [x9]
     ed8:	7101545f 	cmp	w2, #0x55
     edc:	54000b21 	b.ne	1040 <__vsnprintf+0x854>  // b.any
     ee0:	39400522 	ldrb	w2, [x9, #1]
     ee4:	7101b05f 	cmp	w2, #0x6c
     ee8:	54000ac1 	b.ne	1040 <__vsnprintf+0x854>  // b.any
/home/hei/Desktop/optee-qemu/optee_os/lib/libutils/ext/snprintk.c:420
     eec:	91000929 	add	x9, x9, #0x2
/home/hei/Desktop/optee-qemu/optee_os/lib/libutils/ext/snprintk.c:421
     ef0:	37f80961 	tbnz	w1, #31, 101c <__vsnprintf+0x830>
     ef4:	91003c13 	add	x19, x0, #0xf
     ef8:	2a0103f4 	mov	w20, w1
     efc:	927df273 	and	x19, x19, #0xfffffffffffffff8
     f00:	f9400000 	ldr	x0, [x0]
uuid2str():
/home/hei/Desktop/optee-qemu/optee_os/lib/libutils/ext/snprintk.c:223
     f04:	d0000042 	adrp	x2, a000 <__text_end+0x1540>
     f08:	912e8442 	add	x2, x2, #0xba1
     f0c:	a90b27ed 	stp	x13, x9, [sp, #176]
     f10:	39403c01 	ldrb	w1, [x0, #15]
     f14:	79400804 	ldrh	w4, [x0, #4]
     f18:	39402407 	ldrb	w7, [x0, #9]
     f1c:	39402006 	ldrb	w6, [x0, #8]
     f20:	79400c05 	ldrh	w5, [x0, #6]
     f24:	b9002be1 	str	w1, [sp, #40]
     f28:	39403801 	ldrb	w1, [x0, #14]
     f2c:	b90023e1 	str	w1, [sp, #32]
     f30:	39403401 	ldrb	w1, [x0, #13]
     f34:	b9001be1 	str	w1, [sp, #24]
     f38:	39403001 	ldrb	w1, [x0, #12]
     f3c:	b90013e1 	str	w1, [sp, #16]
     f40:	39402c01 	ldrb	w1, [x0, #11]
     f44:	b9000be1 	str	w1, [sp, #8]
     f48:	39402801 	ldrb	w1, [x0, #10]
     f4c:	b90003e1 	str	w1, [sp]
     f50:	d28004a1 	mov	x1, #0x25                  	// #37
     f54:	b9400003 	ldr	w3, [x0]
     f58:	aa0d03e0 	mov	x0, x13
     f5c:	94000146 	bl	1474 <snprintk>
     f60:	2a0003e3 	mov	w3, w0
kprintf():
/home/hei/Desktop/optee-qemu/optee_os/lib/libutils/ext/snprintk.c:425
     f64:	a94b27ed 	ldp	x13, x9, [sp, #176]
/home/hei/Desktop/optee-qemu/optee_os/lib/libutils/ext/snprintk.c:285
     f68:	52800001 	mov	w1, #0x0                   	// #0
/home/hei/Desktop/optee-qemu/optee_os/lib/libutils/ext/snprintk.c:424
     f6c:	52800002 	mov	w2, #0x0                   	// #0
/home/hei/Desktop/optee-qemu/optee_os/lib/libutils/ext/snprintk.c:423
     f70:	aa0d03e4 	mov	x4, x13
/home/hei/Desktop/optee-qemu/optee_os/lib/libutils/ext/snprintk.c:565
     f74:	6b03003f 	cmp	w1, w3
     f78:	1a83a020 	csel	w0, w1, w3, ge  // ge = tcont
/home/hei/Desktop/optee-qemu/optee_os/lib/libutils/ext/snprintk.c:566
     f7c:	34001c82 	cbz	w2, 130c <__vsnprintf+0xb20>
/home/hei/Desktop/optee-qemu/optee_os/lib/libutils/ext/snprintk.c:567
     f80:	11000400 	add	w0, w0, #0x1
/home/hei/Desktop/optee-qemu/optee_os/lib/libutils/ext/snprintk.c:572
     f84:	6b17001f 	cmp	w0, w23
     f88:	1a97a005 	csel	w5, w0, w23, ge  // ge = tcont
     f8c:	0b05035a 	add	w26, w26, w5
/home/hei/Desktop/optee-qemu/optee_os/lib/libutils/ext/snprintk.c:575
     f90:	52808085 	mov	w5, #0x404                 	// #1028
     f94:	6a0502a5 	ands	w5, w21, w5
     f98:	540000a1 	b.ne	fac <__vsnprintf+0x7c0>  // b.any
/home/hei/Desktop/optee-qemu/optee_os/lib/libutils/ext/snprintk.c:576
     f9c:	4b0002e6 	sub	w6, w23, w0
/home/hei/Desktop/optee-qemu/optee_os/lib/libutils/ext/snprintk.c:578
     fa0:	52800407 	mov	w7, #0x20                  	// #32
/home/hei/Desktop/optee-qemu/optee_os/lib/libutils/ext/snprintk.c:577
     fa4:	710000df 	cmp	w6, #0x0
     fa8:	54001b8c 	b.gt	1318 <__vsnprintf+0xb2c>
/home/hei/Desktop/optee-qemu/optee_os/lib/libutils/ext/snprintk.c:582
     fac:	34001ca2 	cbz	w2, 1340 <__vsnprintf+0xb54>
/home/hei/Desktop/optee-qemu/optee_os/lib/libutils/ext/snprintk.c:583
     fb0:	b5001c1b 	cbnz	x27, 1330 <__vsnprintf+0xb44>
/home/hei/Desktop/optee-qemu/optee_os/lib/libutils/ext/snprintk.c:586
     fb4:	d280001b 	mov	x27, #0x0                   	// #0
/home/hei/Desktop/optee-qemu/optee_os/lib/libutils/ext/snprintk.c:590
     fb8:	711000bf 	cmp	w5, #0x400
     fbc:	540000a1 	b.ne	fd0 <__vsnprintf+0x7e4>  // b.any
/home/hei/Desktop/optee-qemu/optee_os/lib/libutils/ext/snprintk.c:591
     fc0:	4b0002e2 	sub	w2, w23, w0
/home/hei/Desktop/optee-qemu/optee_os/lib/libutils/ext/snprintk.c:593
     fc4:	52800605 	mov	w5, #0x30                  	// #48
/home/hei/Desktop/optee-qemu/optee_os/lib/libutils/ext/snprintk.c:592
     fc8:	7100005f 	cmp	w2, #0x0
     fcc:	54001d8c 	b.gt	137c <__vsnprintf+0xb90>
/home/hei/Desktop/optee-qemu/optee_os/lib/libutils/ext/snprintk.c:597
     fd0:	4b030021 	sub	w1, w1, w3
/home/hei/Desktop/optee-qemu/optee_os/lib/libutils/ext/snprintk.c:599
     fd4:	52800602 	mov	w2, #0x30                  	// #48
/home/hei/Desktop/optee-qemu/optee_os/lib/libutils/ext/snprintk.c:598
     fd8:	7100003f 	cmp	w1, #0x0
     fdc:	54001dcc 	b.gt	1394 <__vsnprintf+0xba8>
     fe0:	2a0303e3 	mov	w3, w3
     fe4:	d2800001 	mov	x1, #0x0                   	// #0
/home/hei/Desktop/optee-qemu/optee_os/lib/libutils/ext/snprintk.c:602
     fe8:	eb01007f 	cmp	x3, x1
     fec:	54001e01 	b.ne	13ac <__vsnprintf+0xbc0>  // b.any
/home/hei/Desktop/optee-qemu/optee_os/lib/libutils/ext/snprintk.c:605
     ff0:	3617c275 	tbz	w21, #2, 83c <__vsnprintf+0x50>
/home/hei/Desktop/optee-qemu/optee_os/lib/libutils/ext/snprintk.c:606
     ff4:	4b0002eb 	sub	w11, w23, w0
/home/hei/Desktop/optee-qemu/optee_os/lib/libutils/ext/snprintk.c:608
     ff8:	52800400 	mov	w0, #0x20                  	// #32
/home/hei/Desktop/optee-qemu/optee_os/lib/libutils/ext/snprintk.c:607
     ffc:	7100017f 	cmp	w11, #0x0
    1000:	54ffc1ed 	b.le	83c <__vsnprintf+0x50>
/home/hei/Desktop/optee-qemu/optee_os/lib/libutils/ext/snprintk.c:608
    1004:	b400009b 	cbz	x27, 1014 <__vsnprintf+0x828>
    1008:	eb1b033f 	cmp	x25, x27
    100c:	54000049 	b.ls	1014 <__vsnprintf+0x828>  // b.plast
    1010:	38001760 	strb	w0, [x27], #1
    1014:	5100056b 	sub	w11, w11, #0x1
    1018:	17fffff9 	b	ffc <__vsnprintf+0x810>
/home/hei/Desktop/optee-qemu/optee_os/lib/libutils/ext/snprintk.c:421
    101c:	11002034 	add	w20, w1, #0x8
    1020:	7100029f 	cmp	w20, #0x0
    1024:	5400008d 	b.le	1034 <__vsnprintf+0x848>
    1028:	91003c13 	add	x19, x0, #0xf
    102c:	927df273 	and	x19, x19, #0xfffffffffffffff8
    1030:	17ffffb4 	b	f00 <__vsnprintf+0x714>
    1034:	aa0003f3 	mov	x19, x0
    1038:	8b21c380 	add	x0, x28, w1, sxtw
    103c:	17ffffb1 	b	f00 <__vsnprintf+0x714>
/home/hei/Desktop/optee-qemu/optee_os/lib/libutils/ext/snprintk.c:435
    1040:	37f80261 	tbnz	w1, #31, 108c <__vsnprintf+0x8a0>
    1044:	91003c13 	add	x19, x0, #0xf
    1048:	2a0103f4 	mov	w20, w1
    104c:	927df273 	and	x19, x19, #0xfffffffffffffff8
    1050:	f9400000 	ldr	x0, [x0]
/home/hei/Desktop/optee-qemu/optee_os/lib/libutils/ext/snprintk.c:437
    1054:	b0000056 	adrp	x22, a000 <__text_end+0x1540>
/home/hei/Desktop/optee-qemu/optee_os/lib/libutils/ext/snprintk.c:438
    1058:	321f02b5 	orr	w21, w21, #0x2
/home/hei/Desktop/optee-qemu/optee_os/lib/libutils/ext/snprintk.c:437
    105c:	912de2d6 	add	x22, x22, #0xb78
/home/hei/Desktop/optee-qemu/optee_os/lib/libutils/ext/snprintk.c:439
    1060:	52800f18 	mov	w24, #0x78                  	// #120
/home/hei/Desktop/optee-qemu/optee_os/lib/libutils/ext/snprintk.c:488
    1064:	52800002 	mov	w2, #0x0                   	// #0
    1068:	3100047f 	cmn	w3, #0x1
    106c:	54001201 	b.ne	12ac <__vsnprintf+0xac0>  // b.any
    1070:	910095a4 	add	x4, x13, #0x25
/home/hei/Desktop/optee-qemu/optee_os/lib/libutils/ext/snprintk.c:525
    1074:	92400c01 	and	x1, x0, #0xf
/home/hei/Desktop/optee-qemu/optee_os/lib/libutils/ext/snprintk.c:526
    1078:	d344fc00 	lsr	x0, x0, #4
/home/hei/Desktop/optee-qemu/optee_os/lib/libutils/ext/snprintk.c:525
    107c:	38616ac1 	ldrb	w1, [x22, x1]
    1080:	381ffc81 	strb	w1, [x4, #-1]!
/home/hei/Desktop/optee-qemu/optee_os/lib/libutils/ext/snprintk.c:527
    1084:	b5ffff80 	cbnz	x0, 1074 <__vsnprintf+0x888>
    1088:	17fffefe 	b	c80 <__vsnprintf+0x494>
/home/hei/Desktop/optee-qemu/optee_os/lib/libutils/ext/snprintk.c:435
    108c:	11002034 	add	w20, w1, #0x8
    1090:	7100029f 	cmp	w20, #0x0
    1094:	5400008d 	b.le	10a4 <__vsnprintf+0x8b8>
    1098:	91003c13 	add	x19, x0, #0xf
    109c:	927df273 	and	x19, x19, #0xfffffffffffffff8
    10a0:	17ffffec 	b	1050 <__vsnprintf+0x864>
    10a4:	aa0003f3 	mov	x19, x0
    10a8:	8b21c380 	add	x0, x28, w1, sxtw
    10ac:	17ffffe9 	b	1050 <__vsnprintf+0x864>
/home/hei/Desktop/optee-qemu/optee_os/lib/libutils/ext/snprintk.c:442
    10b0:	11002034 	add	w20, w1, #0x8
    10b4:	7100029f 	cmp	w20, #0x0
    10b8:	5400008d 	b.le	10c8 <__vsnprintf+0x8dc>
    10bc:	91003c13 	add	x19, x0, #0xf
    10c0:	927df273 	and	x19, x19, #0xfffffffffffffff8
    10c4:	17fffe4e 	b	9fc <__vsnprintf+0x210>
    10c8:	aa0003f3 	mov	x19, x0
    10cc:	8b21c380 	add	x0, x28, w1, sxtw
    10d0:	17fffe4b 	b	9fc <__vsnprintf+0x210>
/home/hei/Desktop/optee-qemu/optee_os/lib/libutils/ext/snprintk.c:460
    10d4:	aa0403e0 	mov	x0, x4
    10d8:	a90b27e4 	stp	x4, x9, [sp, #176]
    10dc:	f90063ed 	str	x13, [sp, #192]
    10e0:	9400010d 	bl	1514 <strlen>
/home/hei/Desktop/optee-qemu/optee_os/lib/libutils/ext/snprintk.c:285
    10e4:	52800001 	mov	w1, #0x0                   	// #0
/home/hei/Desktop/optee-qemu/optee_os/lib/libutils/ext/snprintk.c:460
    10e8:	2a0003e3 	mov	w3, w0
/home/hei/Desktop/optee-qemu/optee_os/lib/libutils/ext/snprintk.c:461
    10ec:	52800002 	mov	w2, #0x0                   	// #0
    10f0:	a94b27e4 	ldp	x4, x9, [sp, #176]
    10f4:	f94063ed 	ldr	x13, [sp, #192]
    10f8:	17ffff9f 	b	f74 <__vsnprintf+0x788>
/home/hei/Desktop/optee-qemu/optee_os/lib/libutils/ext/snprintk.c:464
    10fc:	321c02b5 	orr	w21, w21, #0x10
    1100:	17fffe5c 	b	a70 <__vsnprintf+0x284>
/home/hei/Desktop/optee-qemu/optee_os/lib/libutils/ext/snprintk.c:467
    1104:	3747cb95 	tbnz	w21, #8, a74 <__vsnprintf+0x288>
    1108:	374fcb75 	tbnz	w21, #9, a74 <__vsnprintf+0x288>
    110c:	372fcb55 	tbnz	w21, #5, a74 <__vsnprintf+0x288>
    1110:	3727cb35 	tbnz	w21, #4, a74 <__vsnprintf+0x288>
    1114:	36300335 	tbz	w21, #6, 1178 <__vsnprintf+0x98c>
    1118:	37f801e1 	tbnz	w1, #31, 1154 <__vsnprintf+0x968>
    111c:	91002c13 	add	x19, x0, #0xb
    1120:	2a0103f4 	mov	w20, w1
    1124:	927df273 	and	x19, x19, #0xfffffffffffffff8
    1128:	79400000 	ldrh	w0, [x0]
    112c:	17fffe57 	b	a88 <__vsnprintf+0x29c>
    1130:	11002034 	add	w20, w1, #0x8
    1134:	7100029f 	cmp	w20, #0x0
    1138:	5400008d 	b.le	1148 <__vsnprintf+0x95c>
    113c:	91003c13 	add	x19, x0, #0xf
    1140:	927df273 	and	x19, x19, #0xfffffffffffffff8
    1144:	17fffe50 	b	a84 <__vsnprintf+0x298>
    1148:	aa0003f3 	mov	x19, x0
    114c:	8b21c380 	add	x0, x28, w1, sxtw
    1150:	17fffe4d 	b	a84 <__vsnprintf+0x298>
    1154:	11002034 	add	w20, w1, #0x8
    1158:	7100029f 	cmp	w20, #0x0
    115c:	5400008d 	b.le	116c <__vsnprintf+0x980>
    1160:	91002c13 	add	x19, x0, #0xb
    1164:	927df273 	and	x19, x19, #0xfffffffffffffff8
    1168:	17fffff0 	b	1128 <__vsnprintf+0x93c>
    116c:	aa0003f3 	mov	x19, x0
    1170:	8b21c380 	add	x0, x28, w1, sxtw
    1174:	17ffffed 	b	1128 <__vsnprintf+0x93c>
    1178:	37f800c1 	tbnz	w1, #31, 1190 <__vsnprintf+0x9a4>
    117c:	91002c13 	add	x19, x0, #0xb
    1180:	2a0103f4 	mov	w20, w1
    1184:	927df273 	and	x19, x19, #0xfffffffffffffff8
    1188:	b9400000 	ldr	w0, [x0]
    118c:	17fffe3f 	b	a88 <__vsnprintf+0x29c>
    1190:	11002034 	add	w20, w1, #0x8
    1194:	7100029f 	cmp	w20, #0x0
    1198:	5400008d 	b.le	11a8 <__vsnprintf+0x9bc>
    119c:	91002c13 	add	x19, x0, #0xb
    11a0:	927df273 	and	x19, x19, #0xfffffffffffffff8
    11a4:	17fffff9 	b	1188 <__vsnprintf+0x99c>
    11a8:	aa0003f3 	mov	x19, x0
    11ac:	8b21c380 	add	x0, x28, w1, sxtw
    11b0:	17fffff6 	b	1188 <__vsnprintf+0x99c>
/home/hei/Desktop/optee-qemu/optee_os/lib/libutils/ext/snprintk.c:471
    11b4:	b0000056 	adrp	x22, a000 <__text_end+0x1540>
    11b8:	912de2d6 	add	x22, x22, #0xb78
    11bc:	910046d6 	add	x22, x22, #0x11
/home/hei/Desktop/optee-qemu/optee_os/lib/libutils/ext/snprintk.c:475
    11c0:	363801f5 	tbz	w21, #7, 11fc <__vsnprintf+0xa10>
    11c4:	37f80321 	tbnz	w1, #31, 1228 <__vsnprintf+0xa3c>
    11c8:	91003c13 	add	x19, x0, #0xf
    11cc:	2a0103f4 	mov	w20, w1
    11d0:	927df273 	and	x19, x19, #0xfffffffffffffff8
    11d4:	f9400000 	ldr	x0, [x0]
/home/hei/Desktop/optee-qemu/optee_os/lib/libutils/ext/snprintk.c:478
    11d8:	3607f475 	tbz	w21, #0, 1064 <__vsnprintf+0x878>
    11dc:	b4fff440 	cbz	x0, 1064 <__vsnprintf+0x878>
/home/hei/Desktop/optee-qemu/optee_os/lib/libutils/ext/snprintk.c:479
    11e0:	321f02b5 	orr	w21, w21, #0x2
/home/hei/Desktop/optee-qemu/optee_os/lib/libutils/ext/snprintk.c:476
    11e4:	52800041 	mov	w1, #0x2                   	// #2
/home/hei/Desktop/optee-qemu/optee_os/lib/libutils/ext/snprintk.c:482
    11e8:	52800002 	mov	w2, #0x0                   	// #0
    11ec:	17fffe92 	b	c34 <__vsnprintf+0x448>
/home/hei/Desktop/optee-qemu/optee_os/lib/libutils/ext/snprintk.c:474
    11f0:	b0000056 	adrp	x22, a000 <__text_end+0x1540>
    11f4:	912de2d6 	add	x22, x22, #0xb78
    11f8:	17fffff2 	b	11c0 <__vsnprintf+0x9d4>
/home/hei/Desktop/optee-qemu/optee_os/lib/libutils/ext/snprintk.c:475
    11fc:	3747fe55 	tbnz	w21, #8, 11c4 <__vsnprintf+0x9d8>
    1200:	374ffe35 	tbnz	w21, #9, 11c4 <__vsnprintf+0x9d8>
    1204:	372ffe15 	tbnz	w21, #5, 11c4 <__vsnprintf+0x9d8>
    1208:	3727fdf5 	tbnz	w21, #4, 11c4 <__vsnprintf+0x9d8>
    120c:	36300335 	tbz	w21, #6, 1270 <__vsnprintf+0xa84>
    1210:	37f801e1 	tbnz	w1, #31, 124c <__vsnprintf+0xa60>
    1214:	91002c13 	add	x19, x0, #0xb
    1218:	2a0103f4 	mov	w20, w1
    121c:	927df273 	and	x19, x19, #0xfffffffffffffff8
    1220:	79400000 	ldrh	w0, [x0]
    1224:	17ffffed 	b	11d8 <__vsnprintf+0x9ec>
    1228:	11002034 	add	w20, w1, #0x8
    122c:	7100029f 	cmp	w20, #0x0
    1230:	5400008d 	b.le	1240 <__vsnprintf+0xa54>
    1234:	91003c13 	add	x19, x0, #0xf
    1238:	927df273 	and	x19, x19, #0xfffffffffffffff8
    123c:	17ffffe6 	b	11d4 <__vsnprintf+0x9e8>
    1240:	aa0003f3 	mov	x19, x0
    1244:	8b21c380 	add	x0, x28, w1, sxtw
    1248:	17ffffe3 	b	11d4 <__vsnprintf+0x9e8>
    124c:	11002034 	add	w20, w1, #0x8
    1250:	7100029f 	cmp	w20, #0x0
    1254:	5400008d 	b.le	1264 <__vsnprintf+0xa78>
    1258:	91002c13 	add	x19, x0, #0xb
    125c:	927df273 	and	x19, x19, #0xfffffffffffffff8
    1260:	17fffff0 	b	1220 <__vsnprintf+0xa34>
    1264:	aa0003f3 	mov	x19, x0
    1268:	8b21c380 	add	x0, x28, w1, sxtw
    126c:	17ffffed 	b	1220 <__vsnprintf+0xa34>
    1270:	37f800c1 	tbnz	w1, #31, 1288 <__vsnprintf+0xa9c>
    1274:	91002c13 	add	x19, x0, #0xb
    1278:	2a0103f4 	mov	w20, w1
    127c:	927df273 	and	x19, x19, #0xfffffffffffffff8
    1280:	b9400000 	ldr	w0, [x0]
    1284:	17ffffd5 	b	11d8 <__vsnprintf+0x9ec>
    1288:	11002034 	add	w20, w1, #0x8
    128c:	7100029f 	cmp	w20, #0x0
    1290:	5400008d 	b.le	12a0 <__vsnprintf+0xab4>
    1294:	91002c13 	add	x19, x0, #0xb
    1298:	927df273 	and	x19, x19, #0xfffffffffffffff8
    129c:	17fffff9 	b	1280 <__vsnprintf+0xa94>
    12a0:	aa0003f3 	mov	x19, x0
    12a4:	8b21c380 	add	x0, x28, w1, sxtw
    12a8:	17fffff6 	b	1280 <__vsnprintf+0xa94>
/home/hei/Desktop/optee-qemu/optee_os/lib/libutils/ext/snprintk.c:488
    12ac:	52800041 	mov	w1, #0x2                   	// #2
/home/hei/Desktop/optee-qemu/optee_os/lib/libutils/ext/snprintk.c:497
    12b0:	f100001f 	cmp	x0, #0x0
/home/hei/Desktop/optee-qemu/optee_os/lib/libutils/ext/snprintk.c:489
    12b4:	12157ab5 	and	w21, w21, #0xfffffbff
/home/hei/Desktop/optee-qemu/optee_os/lib/libutils/ext/snprintk.c:497
    12b8:	7a400860 	ccmp	w3, #0x0, #0x0, eq  // eq = none
    12bc:	54ffcc01 	b.ne	c3c <__vsnprintf+0x450>  // b.any
    12c0:	52800003 	mov	w3, #0x0                   	// #0
/home/hei/Desktop/optee-qemu/optee_os/lib/libutils/ext/snprintk.c:496
    12c4:	910095a4 	add	x4, x13, #0x25
    12c8:	17fffe6e 	b	c80 <__vsnprintf+0x494>
/home/hei/Desktop/optee-qemu/optee_os/lib/libutils/ext/snprintk.c:488
    12cc:	52800021 	mov	w1, #0x1                   	// #1
    12d0:	17fffff8 	b	12b0 <__vsnprintf+0xac4>
/home/hei/Desktop/optee-qemu/optee_os/lib/libutils/ext/snprintk.c:508
    12d4:	aa0403e1 	mov	x1, x4
    12d8:	17fffe5e 	b	c50 <__vsnprintf+0x464>
/home/hei/Desktop/optee-qemu/optee_os/lib/libutils/ext/snprintk.c:517
    12dc:	9ac50806 	udiv	x6, x0, x5
    12e0:	9b0580c0 	msub	x0, x6, x5, x0
    12e4:	1100c000 	add	w0, w0, #0x30
    12e8:	381ff020 	sturb	w0, [x1, #-1]
/home/hei/Desktop/optee-qemu/optee_os/lib/libutils/ext/snprintk.c:518
    12ec:	aa0603e0 	mov	x0, x6
    12f0:	aa0403e1 	mov	x1, x4
    12f4:	d1000424 	sub	x4, x1, #0x1
/home/hei/Desktop/optee-qemu/optee_os/lib/libutils/ext/snprintk.c:516
    12f8:	f100241f 	cmp	x0, #0x9
    12fc:	54ffff08 	b.hi	12dc <__vsnprintf+0xaf0>  // b.pmore
/home/hei/Desktop/optee-qemu/optee_os/lib/libutils/ext/snprintk.c:520
    1300:	1100c000 	add	w0, w0, #0x30
    1304:	381ff020 	sturb	w0, [x1, #-1]
/home/hei/Desktop/optee-qemu/optee_os/lib/libutils/ext/snprintk.c:521
    1308:	17fffe5e 	b	c80 <__vsnprintf+0x494>
/home/hei/Desktop/optee-qemu/optee_os/lib/libutils/ext/snprintk.c:568
    130c:	360fe3d5 	tbz	w21, #1, f84 <__vsnprintf+0x798>
/home/hei/Desktop/optee-qemu/optee_os/lib/libutils/ext/snprintk.c:569
    1310:	11000800 	add	w0, w0, #0x2
    1314:	17ffff1c 	b	f84 <__vsnprintf+0x798>
/home/hei/Desktop/optee-qemu/optee_os/lib/libutils/ext/snprintk.c:578
    1318:	b400009b 	cbz	x27, 1328 <__vsnprintf+0xb3c>
    131c:	eb1b033f 	cmp	x25, x27
    1320:	54000049 	b.ls	1328 <__vsnprintf+0xb3c>  // b.plast
    1324:	38001767 	strb	w7, [x27], #1
    1328:	510004c6 	sub	w6, w6, #0x1
    132c:	17ffff1e 	b	fa4 <__vsnprintf+0x7b8>
/home/hei/Desktop/optee-qemu/optee_os/lib/libutils/ext/snprintk.c:583
    1330:	eb1b033f 	cmp	x25, x27
    1334:	54ffe429 	b.ls	fb8 <__vsnprintf+0x7cc>  // b.plast
    1338:	38001762 	strb	w2, [x27], #1
    133c:	17ffff1f 	b	fb8 <__vsnprintf+0x7cc>
/home/hei/Desktop/optee-qemu/optee_os/lib/libutils/ext/snprintk.c:584
    1340:	360fe3d5 	tbz	w21, #1, fb8 <__vsnprintf+0x7cc>
/home/hei/Desktop/optee-qemu/optee_os/lib/libutils/ext/snprintk.c:585
    1344:	b4ffe39b 	cbz	x27, fb4 <__vsnprintf+0x7c8>
    1348:	eb1b033f 	cmp	x25, x27
    134c:	54ffe369 	b.ls	fb8 <__vsnprintf+0x7cc>  // b.plast
    1350:	aa1b03e2 	mov	x2, x27
    1354:	52800606 	mov	w6, #0x30                  	// #48
    1358:	38001446 	strb	w6, [x2], #1
/home/hei/Desktop/optee-qemu/optee_os/lib/libutils/ext/snprintk.c:586
    135c:	b4ffe2c2 	cbz	x2, fb4 <__vsnprintf+0x7c8>
    1360:	eb02033f 	cmp	x25, x2
    1364:	54000089 	b.ls	1374 <__vsnprintf+0xb88>  // b.plast
    1368:	91000b7b 	add	x27, x27, #0x2
    136c:	381ff378 	sturb	w24, [x27, #-1]
    1370:	17ffff12 	b	fb8 <__vsnprintf+0x7cc>
    1374:	aa0203fb 	mov	x27, x2
    1378:	17ffff10 	b	fb8 <__vsnprintf+0x7cc>
/home/hei/Desktop/optee-qemu/optee_os/lib/libutils/ext/snprintk.c:593
    137c:	b400009b 	cbz	x27, 138c <__vsnprintf+0xba0>
    1380:	eb1b033f 	cmp	x25, x27
    1384:	54000049 	b.ls	138c <__vsnprintf+0xba0>  // b.plast
    1388:	38001765 	strb	w5, [x27], #1
    138c:	51000442 	sub	w2, w2, #0x1
    1390:	17ffff0e 	b	fc8 <__vsnprintf+0x7dc>
/home/hei/Desktop/optee-qemu/optee_os/lib/libutils/ext/snprintk.c:599
    1394:	b400009b 	cbz	x27, 13a4 <__vsnprintf+0xbb8>
    1398:	eb1b033f 	cmp	x25, x27
    139c:	54000049 	b.ls	13a4 <__vsnprintf+0xbb8>  // b.plast
    13a0:	38001762 	strb	w2, [x27], #1
    13a4:	51000421 	sub	w1, w1, #0x1
    13a8:	17ffff0c 	b	fd8 <__vsnprintf+0x7ec>
/home/hei/Desktop/optee-qemu/optee_os/lib/libutils/ext/snprintk.c:603
    13ac:	b40000bb 	cbz	x27, 13c0 <__vsnprintf+0xbd4>
    13b0:	eb1b033f 	cmp	x25, x27
    13b4:	54000069 	b.ls	13c0 <__vsnprintf+0xbd4>  // b.plast
    13b8:	38616882 	ldrb	w2, [x4, x1]
    13bc:	38001762 	strb	w2, [x27], #1
    13c0:	91000421 	add	x1, x1, #0x1
    13c4:	17ffff09 	b	fe8 <__vsnprintf+0x7fc>
__vsnprintf():
/home/hei/Desktop/optee-qemu/optee_os/lib/libutils/ext/snprintk.c:143
    13c8:	f9404fe0 	ldr	x0, [sp, #152]
    13cc:	f100001f 	cmp	x0, #0x0
    13d0:	f94053e0 	ldr	x0, [sp, #160]
    13d4:	fa401804 	ccmp	x0, #0x0, #0x4, ne  // ne = any
    13d8:	540000c0 	b.eq	13f0 <__vsnprintf+0xc04>  // b.none
/home/hei/Desktop/optee-qemu/optee_os/lib/libutils/ext/snprintk.c:145
    13dc:	f94053e1 	ldr	x1, [sp, #160]
    13e0:	93407f40 	sxtw	x0, w26
    13e4:	eb01001f 	cmp	x0, x1
    13e8:	54000163 	b.cc	1414 <__vsnprintf+0xc28>  // b.lo, b.ul, b.last
/home/hei/Desktop/optee-qemu/optee_os/lib/libutils/ext/snprintk.c:146
    13ec:	381ff33f 	sturb	wzr, [x25, #-1]
/home/hei/Desktop/optee-qemu/optee_os/lib/libutils/ext/snprintk.c:151
    13f0:	2a1a03e0 	mov	w0, w26
    13f4:	a9437bfd 	ldp	x29, x30, [sp, #48]
    13f8:	a94453f3 	ldp	x19, x20, [sp, #64]
    13fc:	a9455bf5 	ldp	x21, x22, [sp, #80]
    1400:	a94663f7 	ldp	x23, x24, [sp, #96]
    1404:	a9476bf9 	ldp	x25, x26, [sp, #112]
    1408:	a94873fb 	ldp	x27, x28, [sp, #128]
    140c:	910403ff 	add	sp, sp, #0x100
    1410:	d65f03c0 	ret
/home/hei/Desktop/optee-qemu/optee_os/lib/libutils/ext/snprintk.c:148
    1414:	f9404fe1 	ldr	x1, [sp, #152]
    1418:	3820683f 	strb	wzr, [x1, x0]
/home/hei/Desktop/optee-qemu/optee_os/lib/libutils/ext/snprintk.c:150
    141c:	17fffff5 	b	13f0 <__vsnprintf+0xc04>

0000000000001420 <vsnprintk>:
vsnprintk():
/home/hei/Desktop/optee-qemu/optee_os/lib/libutils/ext/snprintk.c:129
    1420:	a9bb7bfd 	stp	x29, x30, [sp, #-80]!
    1424:	910003fd 	mov	x29, sp
    1428:	a90153f3 	stp	x19, x20, [sp, #16]
    142c:	aa0003f3 	mov	x19, x0
    1430:	aa0103f4 	mov	x20, x1
/home/hei/Desktop/optee-qemu/optee_os/lib/libutils/ext/snprintk.c:130
    1434:	9100c3e0 	add	x0, sp, #0x30
    1438:	aa0303e1 	mov	x1, x3
/home/hei/Desktop/optee-qemu/optee_os/lib/libutils/ext/snprintk.c:129
    143c:	f90013f5 	str	x21, [sp, #32]
    1440:	aa0203f5 	mov	x21, x2
/home/hei/Desktop/optee-qemu/optee_os/lib/libutils/ext/snprintk.c:130
    1444:	d2800402 	mov	x2, #0x20                  	// #32
    1448:	97fffbb2 	bl	310 <memcpy>
    144c:	aa1503e2 	mov	x2, x21
    1450:	aa0003e3 	mov	x3, x0
    1454:	aa1403e1 	mov	x1, x20
    1458:	52800024 	mov	w4, #0x1                   	// #1
    145c:	aa1303e0 	mov	x0, x19
    1460:	97fffce3 	bl	7ec <__vsnprintf>
/home/hei/Desktop/optee-qemu/optee_os/lib/libutils/ext/snprintk.c:131
    1464:	a94153f3 	ldp	x19, x20, [sp, #16]
    1468:	f94013f5 	ldr	x21, [sp, #32]
    146c:	a8c57bfd 	ldp	x29, x30, [sp], #80
    1470:	d65f03c0 	ret

0000000000001474 <snprintk>:
snprintk():
/home/hei/Desktop/optee-qemu/optee_os/lib/libutils/ext/snprintk.c:112
    1474:	a9b07bfd 	stp	x29, x30, [sp, #-256]!
    1478:	910003fd 	mov	x29, sp
    147c:	a90d93e3 	stp	x3, x4, [sp, #216]
/home/hei/Desktop/optee-qemu/optee_os/lib/libutils/ext/snprintk.c:116
    1480:	910403e3 	add	x3, sp, #0x100
    1484:	a9030fe3 	stp	x3, x3, [sp, #48]
    1488:	910343e3 	add	x3, sp, #0xd0
    148c:	f90023e3 	str	x3, [sp, #64]
    1490:	128004e3 	mov	w3, #0xffffffd8            	// #-40
    1494:	b9004be3 	str	w3, [sp, #72]
    1498:	12800fe3 	mov	w3, #0xffffff80            	// #-128
    149c:	b9004fe3 	str	w3, [sp, #76]
/home/hei/Desktop/optee-qemu/optee_os/lib/libutils/ext/snprintk.c:117
    14a0:	910043e3 	add	x3, sp, #0x10
/home/hei/Desktop/optee-qemu/optee_os/lib/libutils/ext/snprintk.c:112
    14a4:	a90e9be5 	stp	x5, x6, [sp, #232]
/home/hei/Desktop/optee-qemu/optee_os/lib/libutils/ext/snprintk.c:117
    14a8:	a94317e4 	ldp	x4, x5, [sp, #48]
    14ac:	a90117e4 	stp	x4, x5, [sp, #16]
    14b0:	a94417e4 	ldp	x4, x5, [sp, #64]
    14b4:	a90217e4 	stp	x4, x5, [sp, #32]
/home/hei/Desktop/optee-qemu/optee_os/lib/libutils/ext/snprintk.c:112
    14b8:	3d8017e0 	str	q0, [sp, #80]
    14bc:	3d801be1 	str	q1, [sp, #96]
    14c0:	3d801fe2 	str	q2, [sp, #112]
    14c4:	3d8023e3 	str	q3, [sp, #128]
    14c8:	3d8027e4 	str	q4, [sp, #144]
    14cc:	3d802be5 	str	q5, [sp, #160]
    14d0:	3d802fe6 	str	q6, [sp, #176]
    14d4:	3d8033e7 	str	q7, [sp, #192]
    14d8:	f9007fe7 	str	x7, [sp, #248]
/home/hei/Desktop/optee-qemu/optee_os/lib/libutils/ext/snprintk.c:117
    14dc:	97ffffd1 	bl	1420 <vsnprintk>
/home/hei/Desktop/optee-qemu/optee_os/lib/libutils/ext/snprintk.c:121
    14e0:	a8d07bfd 	ldp	x29, x30, [sp], #256
    14e4:	d65f03c0 	ret

00000000000014e8 <memchr>:
memchr():
/home/hei/Desktop/optee-qemu/optee_os/lib/libutils/isoc/newlib/memchr.c:109
    14e8:	12001c21 	and	w1, w1, #0xff
/home/hei/Desktop/optee-qemu/optee_os/lib/libutils/isoc/newlib/memchr.c:153
    14ec:	8b020002 	add	x2, x0, x2
    14f0:	eb02001f 	cmp	x0, x2
    14f4:	54000061 	b.ne	1500 <memchr+0x18>  // b.any
/home/hei/Desktop/optee-qemu/optee_os/lib/libutils/isoc/newlib/memchr.c:159
    14f8:	d2800000 	mov	x0, #0x0                   	// #0
/home/hei/Desktop/optee-qemu/optee_os/lib/libutils/isoc/newlib/memchr.c:160
    14fc:	d65f03c0 	ret
/home/hei/Desktop/optee-qemu/optee_os/lib/libutils/isoc/newlib/memchr.c:154
    1500:	39400003 	ldrb	w3, [x0]
    1504:	6b01007f 	cmp	w3, w1
    1508:	54ffffa0 	b.eq	14fc <memchr+0x14>  // b.none
/home/hei/Desktop/optee-qemu/optee_os/lib/libutils/isoc/newlib/memchr.c:156
    150c:	91000400 	add	x0, x0, #0x1
    1510:	17fffff8 	b	14f0 <memchr+0x8>

0000000000001514 <strlen>:
strlen():
/home/hei/Desktop/optee-qemu/optee_os/lib/libutils/isoc/newlib/strlen.c:117
    1514:	aa0003e1 	mov	x1, x0
    1518:	39400022 	ldrb	w2, [x1]
    151c:	35000062 	cbnz	w2, 1528 <strlen+0x14>
/home/hei/Desktop/optee-qemu/optee_os/lib/libutils/isoc/newlib/strlen.c:120
    1520:	cb000020 	sub	x0, x1, x0
    1524:	d65f03c0 	ret
/home/hei/Desktop/optee-qemu/optee_os/lib/libutils/isoc/newlib/strlen.c:118
    1528:	91000421 	add	x1, x1, #0x1
    152c:	17fffffb 	b	1518 <strlen+0x4>

0000000000001530 <trace_ext_puts>:
trace_ext_puts():
/home/hei/Desktop/optee-qemu/optee_os/lib/libutee/trace_ext.c:17
    1530:	a9be7bfd 	stp	x29, x30, [sp, #-32]!
    1534:	910003fd 	mov	x29, sp
    1538:	f9000bf3 	str	x19, [sp, #16]
    153c:	aa0003f3 	mov	x19, x0
/home/hei/Desktop/optee-qemu/optee_os/lib/libutee/trace_ext.c:18
    1540:	97fffff5 	bl	1514 <strlen>
    1544:	aa0003e1 	mov	x1, x0
    1548:	aa1303e0 	mov	x0, x19
/home/hei/Desktop/optee-qemu/optee_os/lib/libutee/trace_ext.c:19
    154c:	f9400bf3 	ldr	x19, [sp, #16]
    1550:	a8c27bfd 	ldp	x29, x30, [sp], #32
/home/hei/Desktop/optee-qemu/optee_os/lib/libutee/trace_ext.c:18
    1554:	1400005a 	b	16bc <utee_log>

0000000000001558 <trace_ext_get_thread_id>:
trace_ext_get_thread_id():
/home/hei/Desktop/optee-qemu/optee_os/lib/libutee/trace_ext.c:24
    1558:	12800000 	mov	w0, #0xffffffff            	// #-1
    155c:	d65f03c0 	ret

0000000000001560 <printf>:
printf():
/home/hei/Desktop/optee-qemu/optee_os/lib/libutee/trace_ext.c:32
    1560:	d10883ff 	sub	sp, sp, #0x220
    1564:	a9007bfd 	stp	x29, x30, [sp]
    1568:	910003fd 	mov	x29, sp
    156c:	a90153f3 	stp	x19, x20, [sp, #16]
    1570:	aa0003f3 	mov	x19, x0
    1574:	3d805be0 	str	q0, [sp, #352]
    1578:	3d805fe1 	str	q1, [sp, #368]
    157c:	3d8063e2 	str	q2, [sp, #384]
    1580:	3d8067e3 	str	q3, [sp, #400]
    1584:	3d806be4 	str	q4, [sp, #416]
    1588:	3d806fe5 	str	q5, [sp, #432]
    158c:	3d8073e6 	str	q6, [sp, #448]
    1590:	3d8077e7 	str	q7, [sp, #464]
    1594:	a91e8be1 	stp	x1, x2, [sp, #488]
    1598:	a91f93e3 	stp	x3, x4, [sp, #504]
    159c:	f90107e5 	str	x5, [sp, #520]
    15a0:	f9010be6 	str	x6, [sp, #528]
    15a4:	f9010fe7 	str	x7, [sp, #536]
/home/hei/Desktop/optee-qemu/optee_os/lib/libutee/trace_ext.c:37
    15a8:	97fffb9a 	bl	410 <trace_get_level>
    15ac:	7100001f 	cmp	w0, #0x0
    15b0:	5400038d 	b.le	1620 <printf+0xc0>
/home/hei/Desktop/optee-qemu/optee_os/lib/libutee/trace_ext.c:40
    15b4:	910883e0 	add	x0, sp, #0x220
    15b8:	a90403e0 	stp	x0, x0, [sp, #64]
    15bc:	910783e0 	add	x0, sp, #0x1e0
    15c0:	f9002be0 	str	x0, [sp, #80]
    15c4:	128006e0 	mov	w0, #0xffffffc8            	// #-56
    15c8:	b9005be0 	str	w0, [sp, #88]
    15cc:	12800fe0 	mov	w0, #0xffffff80            	// #-128
    15d0:	b9005fe0 	str	w0, [sp, #92]
/home/hei/Desktop/optee-qemu/optee_os/lib/libutee/trace_ext.c:41
    15d4:	910183f4 	add	x20, sp, #0x60
    15d8:	a94407e0 	ldp	x0, x1, [sp, #64]
    15dc:	a90207e0 	stp	x0, x1, [sp, #32]
    15e0:	aa1303e2 	mov	x2, x19
    15e4:	a94507e0 	ldp	x0, x1, [sp, #80]
    15e8:	910083e3 	add	x3, sp, #0x20
    15ec:	a90307e0 	stp	x0, x1, [sp, #48]
    15f0:	aa1403e0 	mov	x0, x20
    15f4:	d2802001 	mov	x1, #0x100                 	// #256
    15f8:	94001c63 	bl	8784 <vsnprintf>
    15fc:	2a0003f3 	mov	w19, w0
/home/hei/Desktop/optee-qemu/optee_os/lib/libutee/trace_ext.c:44
    1600:	37f80060 	tbnz	w0, #31, 160c <printf+0xac>
/home/hei/Desktop/optee-qemu/optee_os/lib/libutee/trace_ext.c:47
    1604:	aa1403e0 	mov	x0, x20
    1608:	97ffffca 	bl	1530 <trace_ext_puts>
/home/hei/Desktop/optee-qemu/optee_os/lib/libutee/trace_ext.c:50
    160c:	2a1303e0 	mov	w0, w19
    1610:	a9407bfd 	ldp	x29, x30, [sp]
    1614:	a94153f3 	ldp	x19, x20, [sp, #16]
    1618:	910883ff 	add	sp, sp, #0x220
    161c:	d65f03c0 	ret
/home/hei/Desktop/optee-qemu/optee_os/lib/libutee/trace_ext.c:38
    1620:	52800013 	mov	w19, #0x0                   	// #0
    1624:	17fffffa 	b	160c <printf+0xac>

0000000000001628 <puts>:
puts():
/home/hei/Desktop/optee-qemu/optee_os/lib/libutee/trace_ext.c:53
    1628:	a9be7bfd 	stp	x29, x30, [sp, #-32]!
    162c:	910003fd 	mov	x29, sp
    1630:	f9000bf3 	str	x19, [sp, #16]
    1634:	aa0003f3 	mov	x19, x0
/home/hei/Desktop/optee-qemu/optee_os/lib/libutee/trace_ext.c:54
    1638:	97fffb76 	bl	410 <trace_get_level>
    163c:	7100001f 	cmp	w0, #0x0
    1640:	540000cd 	b.le	1658 <puts+0x30>
/home/hei/Desktop/optee-qemu/optee_os/lib/libutee/trace_ext.c:55
    1644:	aa1303e0 	mov	x0, x19
    1648:	97ffffba 	bl	1530 <trace_ext_puts>
/home/hei/Desktop/optee-qemu/optee_os/lib/libutee/trace_ext.c:56
    164c:	b0000040 	adrp	x0, a000 <__text_end+0x1540>
    1650:	9125b800 	add	x0, x0, #0x96e
    1654:	97ffffb7 	bl	1530 <trace_ext_puts>
/home/hei/Desktop/optee-qemu/optee_os/lib/libutee/trace_ext.c:59
    1658:	52800020 	mov	w0, #0x1                   	// #1
    165c:	f9400bf3 	ldr	x19, [sp, #16]
    1660:	a8c27bfd 	ldp	x29, x30, [sp], #32
    1664:	d65f03c0 	ret

0000000000001668 <putchar>:
putchar():
/home/hei/Desktop/optee-qemu/optee_os/lib/libutee/trace_ext.c:62
    1668:	a9bd7bfd 	stp	x29, x30, [sp, #-48]!
    166c:	910003fd 	mov	x29, sp
    1670:	f9000bf3 	str	x19, [sp, #16]
    1674:	2a0003f3 	mov	w19, w0
/home/hei/Desktop/optee-qemu/optee_os/lib/libutee/trace_ext.c:63
    1678:	3900a3e0 	strb	w0, [sp, #40]
    167c:	3900a7ff 	strb	wzr, [sp, #41]
/home/hei/Desktop/optee-qemu/optee_os/lib/libutee/trace_ext.c:65
    1680:	97fffb64 	bl	410 <trace_get_level>
    1684:	7100001f 	cmp	w0, #0x0
    1688:	5400006d 	b.le	1694 <putchar+0x2c>
/home/hei/Desktop/optee-qemu/optee_os/lib/libutee/trace_ext.c:66
    168c:	9100a3e0 	add	x0, sp, #0x28
    1690:	97ffffa8 	bl	1530 <trace_ext_puts>
/home/hei/Desktop/optee-qemu/optee_os/lib/libutee/trace_ext.c:73
    1694:	12001e60 	and	w0, w19, #0xff
    1698:	f9400bf3 	ldr	x19, [sp, #16]
    169c:	a8c37bfd 	ldp	x29, x30, [sp], #48
    16a0:	d65f03c0 	ret

00000000000016a4 <utee_panic>:
utee_panic():
/home/hei/Desktop/optee-qemu/optee_os/lib/libutee/arch/arm/utee_syscalls_a64.S:41
    16a4:	a9bf7bfd 	stp	x29, x30, [sp, #-16]!
/home/hei/Desktop/optee-qemu/optee_os/lib/libutee/arch/arm/utee_syscalls_a64.S:42
    16a8:	910003e1 	mov	x1, sp
/home/hei/Desktop/optee-qemu/optee_os/lib/libutee/arch/arm/utee_syscalls_a64.S:43
    16ac:	94000007 	bl	16c8 <__utee_panic>

00000000000016b0 <utee_return>:
utee_return():
/home/hei/Desktop/optee-qemu/optee_os/lib/libutee/arch/arm/utee_syscalls_asm.S:8
    16b0:	d2800008 	mov	x8, #0x0                   	// #0
    16b4:	d4000001 	svc	#0x0
    16b8:	d65f03c0 	ret

00000000000016bc <utee_log>:
utee_log():
/home/hei/Desktop/optee-qemu/optee_os/lib/libutee/arch/arm/utee_syscalls_asm.S:10
    16bc:	d2800028 	mov	x8, #0x1                   	// #1
    16c0:	d4000001 	svc	#0x0
    16c4:	d65f03c0 	ret

00000000000016c8 <__utee_panic>:
__utee_panic():
/home/hei/Desktop/optee-qemu/optee_os/lib/libutee/arch/arm/utee_syscalls_asm.S:12
    16c8:	d2800048 	mov	x8, #0x2                   	// #2
    16cc:	d4000001 	svc	#0x0
    16d0:	d65f03c0 	ret

00000000000016d4 <utee_get_property>:
utee_get_property():
/home/hei/Desktop/optee-qemu/optee_os/lib/libutee/arch/arm/utee_syscalls_asm.S:14
    16d4:	d2800068 	mov	x8, #0x3                   	// #3
    16d8:	d4000001 	svc	#0x0
    16dc:	d65f03c0 	ret

00000000000016e0 <utee_get_property_name_to_index>:
utee_get_property_name_to_index():
/home/hei/Desktop/optee-qemu/optee_os/lib/libutee/arch/arm/utee_syscalls_asm.S:16
    16e0:	d2800088 	mov	x8, #0x4                   	// #4
    16e4:	d4000001 	svc	#0x0
    16e8:	d65f03c0 	ret

00000000000016ec <utee_open_ta_session>:
utee_open_ta_session():
/home/hei/Desktop/optee-qemu/optee_os/lib/libutee/arch/arm/utee_syscalls_asm.S:19
    16ec:	d28000a8 	mov	x8, #0x5                   	// #5
    16f0:	d4000001 	svc	#0x0
    16f4:	d65f03c0 	ret

00000000000016f8 <utee_close_ta_session>:
utee_close_ta_session():
/home/hei/Desktop/optee-qemu/optee_os/lib/libutee/arch/arm/utee_syscalls_asm.S:21
    16f8:	d28000c8 	mov	x8, #0x6                   	// #6
    16fc:	d4000001 	svc	#0x0
    1700:	d65f03c0 	ret

0000000000001704 <utee_invoke_ta_command>:
utee_invoke_ta_command():
/home/hei/Desktop/optee-qemu/optee_os/lib/libutee/arch/arm/utee_syscalls_asm.S:23
    1704:	d28000e8 	mov	x8, #0x7                   	// #7
    1708:	d4000001 	svc	#0x0
    170c:	d65f03c0 	ret

0000000000001710 <utee_get_cancellation_flag>:
utee_get_cancellation_flag():
/home/hei/Desktop/optee-qemu/optee_os/lib/libutee/arch/arm/utee_syscalls_asm.S:25
    1710:	d2800128 	mov	x8, #0x9                   	// #9
    1714:	d4000001 	svc	#0x0
    1718:	d65f03c0 	ret

000000000000171c <utee_check_access_rights>:
utee_check_access_rights():
/home/hei/Desktop/optee-qemu/optee_os/lib/libutee/arch/arm/utee_syscalls_asm.S:28
    171c:	d2800108 	mov	x8, #0x8                   	// #8
    1720:	d4000001 	svc	#0x0
    1724:	d65f03c0 	ret

0000000000001728 <utee_unmask_cancellation>:
utee_unmask_cancellation():
/home/hei/Desktop/optee-qemu/optee_os/lib/libutee/arch/arm/utee_syscalls_asm.S:30
    1728:	d2800148 	mov	x8, #0xa                   	// #10
    172c:	d4000001 	svc	#0x0
    1730:	d65f03c0 	ret

0000000000001734 <utee_mask_cancellation>:
utee_mask_cancellation():
/home/hei/Desktop/optee-qemu/optee_os/lib/libutee/arch/arm/utee_syscalls_asm.S:32
    1734:	d2800168 	mov	x8, #0xb                   	// #11
    1738:	d4000001 	svc	#0x0
    173c:	d65f03c0 	ret

0000000000001740 <utee_wait>:
utee_wait():
/home/hei/Desktop/optee-qemu/optee_os/lib/libutee/arch/arm/utee_syscalls_asm.S:34
    1740:	d2800188 	mov	x8, #0xc                   	// #12
    1744:	d4000001 	svc	#0x0
    1748:	d65f03c0 	ret

000000000000174c <utee_get_time>:
utee_get_time():
/home/hei/Desktop/optee-qemu/optee_os/lib/libutee/arch/arm/utee_syscalls_asm.S:36
    174c:	d28001a8 	mov	x8, #0xd                   	// #13
    1750:	d4000001 	svc	#0x0
    1754:	d65f03c0 	ret

0000000000001758 <utee_set_ta_time>:
utee_set_ta_time():
/home/hei/Desktop/optee-qemu/optee_os/lib/libutee/arch/arm/utee_syscalls_asm.S:38
    1758:	d28001c8 	mov	x8, #0xe                   	// #14
    175c:	d4000001 	svc	#0x0
    1760:	d65f03c0 	ret

0000000000001764 <utee_cryp_state_alloc>:
utee_cryp_state_alloc():
/home/hei/Desktop/optee-qemu/optee_os/lib/libutee/arch/arm/utee_syscalls_asm.S:40
    1764:	d28001e8 	mov	x8, #0xf                   	// #15
    1768:	d4000001 	svc	#0x0
    176c:	d65f03c0 	ret

0000000000001770 <utee_cryp_state_copy>:
utee_cryp_state_copy():
/home/hei/Desktop/optee-qemu/optee_os/lib/libutee/arch/arm/utee_syscalls_asm.S:42
    1770:	d2800208 	mov	x8, #0x10                  	// #16
    1774:	d4000001 	svc	#0x0
    1778:	d65f03c0 	ret

000000000000177c <utee_cryp_state_free>:
utee_cryp_state_free():
/home/hei/Desktop/optee-qemu/optee_os/lib/libutee/arch/arm/utee_syscalls_asm.S:44
    177c:	d2800228 	mov	x8, #0x11                  	// #17
    1780:	d4000001 	svc	#0x0
    1784:	d65f03c0 	ret

0000000000001788 <utee_hash_init>:
utee_hash_init():
/home/hei/Desktop/optee-qemu/optee_os/lib/libutee/arch/arm/utee_syscalls_asm.S:46
    1788:	d2800248 	mov	x8, #0x12                  	// #18
    178c:	d4000001 	svc	#0x0
    1790:	d65f03c0 	ret

0000000000001794 <utee_hash_update>:
utee_hash_update():
/home/hei/Desktop/optee-qemu/optee_os/lib/libutee/arch/arm/utee_syscalls_asm.S:48
    1794:	d2800268 	mov	x8, #0x13                  	// #19
    1798:	d4000001 	svc	#0x0
    179c:	d65f03c0 	ret

00000000000017a0 <utee_hash_final>:
utee_hash_final():
/home/hei/Desktop/optee-qemu/optee_os/lib/libutee/arch/arm/utee_syscalls_asm.S:50
    17a0:	d2800288 	mov	x8, #0x14                  	// #20
    17a4:	d4000001 	svc	#0x0
    17a8:	d65f03c0 	ret

00000000000017ac <utee_cipher_init>:
utee_cipher_init():
/home/hei/Desktop/optee-qemu/optee_os/lib/libutee/arch/arm/utee_syscalls_asm.S:52
    17ac:	d28002a8 	mov	x8, #0x15                  	// #21
    17b0:	d4000001 	svc	#0x0
    17b4:	d65f03c0 	ret

00000000000017b8 <utee_cipher_update>:
utee_cipher_update():
/home/hei/Desktop/optee-qemu/optee_os/lib/libutee/arch/arm/utee_syscalls_asm.S:54
    17b8:	d28002c8 	mov	x8, #0x16                  	// #22
    17bc:	d4000001 	svc	#0x0
    17c0:	d65f03c0 	ret

00000000000017c4 <utee_cipher_final>:
utee_cipher_final():
/home/hei/Desktop/optee-qemu/optee_os/lib/libutee/arch/arm/utee_syscalls_asm.S:56
    17c4:	d28002e8 	mov	x8, #0x17                  	// #23
    17c8:	d4000001 	svc	#0x0
    17cc:	d65f03c0 	ret

00000000000017d0 <utee_cryp_obj_get_info>:
utee_cryp_obj_get_info():
/home/hei/Desktop/optee-qemu/optee_os/lib/libutee/arch/arm/utee_syscalls_asm.S:58
    17d0:	d2800308 	mov	x8, #0x18                  	// #24
    17d4:	d4000001 	svc	#0x0
    17d8:	d65f03c0 	ret

00000000000017dc <utee_cryp_obj_restrict_usage>:
utee_cryp_obj_restrict_usage():
/home/hei/Desktop/optee-qemu/optee_os/lib/libutee/arch/arm/utee_syscalls_asm.S:60
    17dc:	d2800328 	mov	x8, #0x19                  	// #25
    17e0:	d4000001 	svc	#0x0
    17e4:	d65f03c0 	ret

00000000000017e8 <utee_cryp_obj_get_attr>:
utee_cryp_obj_get_attr():
/home/hei/Desktop/optee-qemu/optee_os/lib/libutee/arch/arm/utee_syscalls_asm.S:63
    17e8:	d2800348 	mov	x8, #0x1a                  	// #26
    17ec:	d4000001 	svc	#0x0
    17f0:	d65f03c0 	ret

00000000000017f4 <utee_cryp_obj_alloc>:
utee_cryp_obj_alloc():
/home/hei/Desktop/optee-qemu/optee_os/lib/libutee/arch/arm/utee_syscalls_asm.S:65
    17f4:	d2800368 	mov	x8, #0x1b                  	// #27
    17f8:	d4000001 	svc	#0x0
    17fc:	d65f03c0 	ret

0000000000001800 <utee_cryp_obj_close>:
utee_cryp_obj_close():
/home/hei/Desktop/optee-qemu/optee_os/lib/libutee/arch/arm/utee_syscalls_asm.S:67
    1800:	d2800388 	mov	x8, #0x1c                  	// #28
    1804:	d4000001 	svc	#0x0
    1808:	d65f03c0 	ret

000000000000180c <utee_cryp_obj_reset>:
utee_cryp_obj_reset():
/home/hei/Desktop/optee-qemu/optee_os/lib/libutee/arch/arm/utee_syscalls_asm.S:69
    180c:	d28003a8 	mov	x8, #0x1d                  	// #29
    1810:	d4000001 	svc	#0x0
    1814:	d65f03c0 	ret

0000000000001818 <utee_cryp_obj_populate>:
utee_cryp_obj_populate():
/home/hei/Desktop/optee-qemu/optee_os/lib/libutee/arch/arm/utee_syscalls_asm.S:71
    1818:	d28003c8 	mov	x8, #0x1e                  	// #30
    181c:	d4000001 	svc	#0x0
    1820:	d65f03c0 	ret

0000000000001824 <utee_cryp_obj_copy>:
utee_cryp_obj_copy():
/home/hei/Desktop/optee-qemu/optee_os/lib/libutee/arch/arm/utee_syscalls_asm.S:73
    1824:	d28003e8 	mov	x8, #0x1f                  	// #31
    1828:	d4000001 	svc	#0x0
    182c:	d65f03c0 	ret

0000000000001830 <utee_cryp_derive_key>:
utee_cryp_derive_key():
/home/hei/Desktop/optee-qemu/optee_os/lib/libutee/arch/arm/utee_syscalls_asm.S:75
    1830:	d2800408 	mov	x8, #0x20                  	// #32
    1834:	d4000001 	svc	#0x0
    1838:	d65f03c0 	ret

000000000000183c <utee_cryp_random_number_generate>:
utee_cryp_random_number_generate():
/home/hei/Desktop/optee-qemu/optee_os/lib/libutee/arch/arm/utee_syscalls_asm.S:77
    183c:	d2800428 	mov	x8, #0x21                  	// #33
    1840:	d4000001 	svc	#0x0
    1844:	d65f03c0 	ret

0000000000001848 <utee_authenc_init>:
utee_authenc_init():
/home/hei/Desktop/optee-qemu/optee_os/lib/libutee/arch/arm/utee_syscalls_asm.S:80
    1848:	d2800448 	mov	x8, #0x22                  	// #34
    184c:	d4000001 	svc	#0x0
    1850:	d65f03c0 	ret

0000000000001854 <utee_authenc_update_aad>:
utee_authenc_update_aad():
/home/hei/Desktop/optee-qemu/optee_os/lib/libutee/arch/arm/utee_syscalls_asm.S:82
    1854:	d2800468 	mov	x8, #0x23                  	// #35
    1858:	d4000001 	svc	#0x0
    185c:	d65f03c0 	ret

0000000000001860 <utee_authenc_update_payload>:
utee_authenc_update_payload():
/home/hei/Desktop/optee-qemu/optee_os/lib/libutee/arch/arm/utee_syscalls_asm.S:84
    1860:	d2800488 	mov	x8, #0x24                  	// #36
    1864:	d4000001 	svc	#0x0
    1868:	d65f03c0 	ret

000000000000186c <utee_authenc_enc_final>:
utee_authenc_enc_final():
/home/hei/Desktop/optee-qemu/optee_os/lib/libutee/arch/arm/utee_syscalls_asm.S:87
    186c:	d28004a8 	mov	x8, #0x25                  	// #37
    1870:	d4000001 	svc	#0x0
    1874:	d65f03c0 	ret

0000000000001878 <utee_authenc_dec_final>:
utee_authenc_dec_final():
/home/hei/Desktop/optee-qemu/optee_os/lib/libutee/arch/arm/utee_syscalls_asm.S:89
    1878:	d28004c8 	mov	x8, #0x26                  	// #38
    187c:	d4000001 	svc	#0x0
    1880:	d65f03c0 	ret

0000000000001884 <utee_asymm_operate>:
utee_asymm_operate():
/home/hei/Desktop/optee-qemu/optee_os/lib/libutee/arch/arm/utee_syscalls_asm.S:91
    1884:	d28004e8 	mov	x8, #0x27                  	// #39
    1888:	d4000001 	svc	#0x0
    188c:	d65f03c0 	ret

0000000000001890 <utee_asymm_verify>:
utee_asymm_verify():
/home/hei/Desktop/optee-qemu/optee_os/lib/libutee/arch/arm/utee_syscalls_asm.S:93
    1890:	d2800508 	mov	x8, #0x28                  	// #40
    1894:	d4000001 	svc	#0x0
    1898:	d65f03c0 	ret

000000000000189c <utee_storage_obj_open>:
utee_storage_obj_open():
/home/hei/Desktop/optee-qemu/optee_os/lib/libutee/arch/arm/utee_syscalls_asm.S:95
    189c:	d2800528 	mov	x8, #0x29                  	// #41
    18a0:	d4000001 	svc	#0x0
    18a4:	d65f03c0 	ret

00000000000018a8 <utee_storage_obj_create>:
utee_storage_obj_create():
/home/hei/Desktop/optee-qemu/optee_os/lib/libutee/arch/arm/utee_syscalls_asm.S:97
    18a8:	d2800548 	mov	x8, #0x2a                  	// #42
    18ac:	d4000001 	svc	#0x0
    18b0:	d65f03c0 	ret

00000000000018b4 <utee_storage_obj_del>:
utee_storage_obj_del():
/home/hei/Desktop/optee-qemu/optee_os/lib/libutee/arch/arm/utee_syscalls_asm.S:99
    18b4:	d2800568 	mov	x8, #0x2b                  	// #43
    18b8:	d4000001 	svc	#0x0
    18bc:	d65f03c0 	ret

00000000000018c0 <utee_storage_obj_rename>:
utee_storage_obj_rename():
/home/hei/Desktop/optee-qemu/optee_os/lib/libutee/arch/arm/utee_syscalls_asm.S:101
    18c0:	d2800588 	mov	x8, #0x2c                  	// #44
    18c4:	d4000001 	svc	#0x0
    18c8:	d65f03c0 	ret

00000000000018cc <utee_storage_alloc_enum>:
utee_storage_alloc_enum():
/home/hei/Desktop/optee-qemu/optee_os/lib/libutee/arch/arm/utee_syscalls_asm.S:103
    18cc:	d28005a8 	mov	x8, #0x2d                  	// #45
    18d0:	d4000001 	svc	#0x0
    18d4:	d65f03c0 	ret

00000000000018d8 <utee_storage_free_enum>:
utee_storage_free_enum():
/home/hei/Desktop/optee-qemu/optee_os/lib/libutee/arch/arm/utee_syscalls_asm.S:105
    18d8:	d28005c8 	mov	x8, #0x2e                  	// #46
    18dc:	d4000001 	svc	#0x0
    18e0:	d65f03c0 	ret

00000000000018e4 <utee_storage_reset_enum>:
utee_storage_reset_enum():
/home/hei/Desktop/optee-qemu/optee_os/lib/libutee/arch/arm/utee_syscalls_asm.S:107
    18e4:	d28005e8 	mov	x8, #0x2f                  	// #47
    18e8:	d4000001 	svc	#0x0
    18ec:	d65f03c0 	ret

00000000000018f0 <utee_storage_start_enum>:
utee_storage_start_enum():
/home/hei/Desktop/optee-qemu/optee_os/lib/libutee/arch/arm/utee_syscalls_asm.S:109
    18f0:	d2800608 	mov	x8, #0x30                  	// #48
    18f4:	d4000001 	svc	#0x0
    18f8:	d65f03c0 	ret

00000000000018fc <utee_storage_next_enum>:
utee_storage_next_enum():
/home/hei/Desktop/optee-qemu/optee_os/lib/libutee/arch/arm/utee_syscalls_asm.S:111
    18fc:	d2800628 	mov	x8, #0x31                  	// #49
    1900:	d4000001 	svc	#0x0
    1904:	d65f03c0 	ret

0000000000001908 <utee_storage_obj_read>:
utee_storage_obj_read():
/home/hei/Desktop/optee-qemu/optee_os/lib/libutee/arch/arm/utee_syscalls_asm.S:113
    1908:	d2800648 	mov	x8, #0x32                  	// #50
    190c:	d4000001 	svc	#0x0
    1910:	d65f03c0 	ret

0000000000001914 <utee_storage_obj_write>:
utee_storage_obj_write():
/home/hei/Desktop/optee-qemu/optee_os/lib/libutee/arch/arm/utee_syscalls_asm.S:115
    1914:	d2800668 	mov	x8, #0x33                  	// #51
    1918:	d4000001 	svc	#0x0
    191c:	d65f03c0 	ret

0000000000001920 <utee_storage_obj_trunc>:
utee_storage_obj_trunc():
/home/hei/Desktop/optee-qemu/optee_os/lib/libutee/arch/arm/utee_syscalls_asm.S:117
    1920:	d2800688 	mov	x8, #0x34                  	// #52
    1924:	d4000001 	svc	#0x0
    1928:	d65f03c0 	ret

000000000000192c <utee_storage_obj_seek>:
utee_storage_obj_seek():
/home/hei/Desktop/optee-qemu/optee_os/lib/libutee/arch/arm/utee_syscalls_asm.S:119
    192c:	d28006a8 	mov	x8, #0x35                  	// #53
    1930:	d4000001 	svc	#0x0
    1934:	d65f03c0 	ret

0000000000001938 <utee_cryp_obj_generate_key>:
utee_cryp_obj_generate_key():
/home/hei/Desktop/optee-qemu/optee_os/lib/libutee/arch/arm/utee_syscalls_asm.S:121
    1938:	d28006c8 	mov	x8, #0x36                  	// #54
    193c:	d4000001 	svc	#0x0
    1940:	d65f03c0 	ret

0000000000001944 <utee_cache_operation>:
utee_cache_operation():
/home/hei/Desktop/optee-qemu/optee_os/lib/libutee/arch/arm/utee_syscalls_asm.S:124
    1944:	d28008c8 	mov	x8, #0x46                  	// #70
    1948:	d4000001 	svc	#0x0
    194c:	d65f03c0 	ret

0000000000001950 <ta_header_get_session>:
ta_header_get_session():
/home/hei/Desktop/optee-qemu/optee_os/lib/libutee/arch/arm/user_ta_entry.c:65
    1950:	2a0003e1 	mov	w1, w0
/home/hei/Desktop/optee-qemu/optee_os/lib/libutee/arch/arm/user_ta_entry.c:68
    1954:	f0000040 	adrp	x0, c000 <_DYNAMIC>
    1958:	f941c400 	ldr	x0, [x0, #904]
/home/hei/Desktop/optee-qemu/optee_os/lib/libutee/arch/arm/user_ta_entry.c:68 (discriminator 1)
    195c:	b5000040 	cbnz	x0, 1964 <ta_header_get_session+0x14>
/home/hei/Desktop/optee-qemu/optee_os/lib/libutee/arch/arm/user_ta_entry.c:73
    1960:	d65f03c0 	ret
/home/hei/Desktop/optee-qemu/optee_os/lib/libutee/arch/arm/user_ta_entry.c:69
    1964:	b9400002 	ldr	w2, [x0]
    1968:	6b01005f 	cmp	w2, w1
    196c:	54ffffa0 	b.eq	1960 <ta_header_get_session+0x10>  // b.none
/home/hei/Desktop/optee-qemu/optee_os/lib/libutee/arch/arm/user_ta_entry.c:68 (discriminator 2)
    1970:	f9400800 	ldr	x0, [x0, #16]
    1974:	17fffffa 	b	195c <ta_header_get_session+0xc>

0000000000001978 <to_utee_params>:
to_utee_params():
/home/hei/Desktop/optee-qemu/optee_os/lib/libutee/arch/arm/user_ta_entry.c:129
    1978:	b0000045 	adrp	x5, a000 <__text_end+0x1540>
    197c:	911710a5 	add	x5, x5, #0x5c4
/home/hei/Desktop/optee-qemu/optee_os/lib/libutee/arch/arm/user_ta_entry.c:127
    1980:	2a0103e3 	mov	w3, w1
    1984:	52800004 	mov	w4, #0x0                   	// #0
    1988:	f8008403 	str	x3, [x0], #8
/home/hei/Desktop/optee-qemu/optee_os/lib/libutee/arch/arm/user_ta_entry.c:129
    198c:	1ac42423 	lsr	w3, w1, w4
    1990:	12000c63 	and	w3, w3, #0xf
    1994:	51000463 	sub	w3, w3, #0x1
    1998:	7100187f 	cmp	w3, #0x6
    199c:	54000268 	b.hi	19e8 <to_utee_params+0x70>  // b.pmore
    19a0:	386348a3 	ldrb	w3, [x5, w3, uxtw]
    19a4:	10000066 	adr	x6, 19b0 <to_utee_params+0x38>
    19a8:	8b2388c3 	add	x3, x6, w3, sxtb #2
    19ac:	d61f0060 	br	x3
/home/hei/Desktop/optee-qemu/optee_os/lib/libutee/arch/arm/user_ta_entry.c:133
    19b0:	b9400043 	ldr	w3, [x2]
    19b4:	f9000003 	str	x3, [x0]
/home/hei/Desktop/optee-qemu/optee_os/lib/libutee/arch/arm/user_ta_entry.c:134
    19b8:	b9400443 	ldr	w3, [x2, #4]
/home/hei/Desktop/optee-qemu/optee_os/lib/libutee/arch/arm/user_ta_entry.c:140
    19bc:	f9000403 	str	x3, [x0, #8]
/home/hei/Desktop/optee-qemu/optee_os/lib/libutee/arch/arm/user_ta_entry.c:141
    19c0:	11001084 	add	w4, w4, #0x4
    19c4:	91004042 	add	x2, x2, #0x10
    19c8:	91004000 	add	x0, x0, #0x10
/home/hei/Desktop/optee-qemu/optee_os/lib/libutee/arch/arm/user_ta_entry.c:128 (discriminator 2)
    19cc:	7100409f 	cmp	w4, #0x10
    19d0:	54fffde1 	b.ne	198c <to_utee_params+0x14>  // b.any
/home/hei/Desktop/optee-qemu/optee_os/lib/libutee/arch/arm/user_ta_entry.c:148
    19d4:	d65f03c0 	ret
/home/hei/Desktop/optee-qemu/optee_os/lib/libutee/arch/arm/user_ta_entry.c:139
    19d8:	f9400043 	ldr	x3, [x2]
    19dc:	f9000003 	str	x3, [x0]
/home/hei/Desktop/optee-qemu/optee_os/lib/libutee/arch/arm/user_ta_entry.c:140
    19e0:	b9400843 	ldr	w3, [x2, #8]
    19e4:	17fffff6 	b	19bc <to_utee_params+0x44>
/home/hei/Desktop/optee-qemu/optee_os/lib/libutee/arch/arm/user_ta_entry.c:144
    19e8:	a9007c1f 	stp	xzr, xzr, [x0]
/home/hei/Desktop/optee-qemu/optee_os/lib/libutee/arch/arm/user_ta_entry.c:145
    19ec:	17fffff5 	b	19c0 <to_utee_params+0x48>

00000000000019f0 <from_utee_params>:
from_utee_params():
/home/hei/Desktop/optee-qemu/optee_os/lib/libutee/arch/arm/user_ta_entry.c:155
    19f0:	f8408446 	ldr	x6, [x2], #8
/home/hei/Desktop/optee-qemu/optee_os/lib/libutee/arch/arm/user_ta_entry.c:161
    19f4:	b0000045 	adrp	x5, a000 <__text_end+0x1540>
    19f8:	911730a5 	add	x5, x5, #0x5cc
/home/hei/Desktop/optee-qemu/optee_os/lib/libutee/arch/arm/user_ta_entry.c:155
    19fc:	52800004 	mov	w4, #0x0                   	// #0
    1a00:	2a0603e9 	mov	w9, w6
/home/hei/Desktop/optee-qemu/optee_os/lib/libutee/arch/arm/user_ta_entry.c:161
    1a04:	1ac42523 	lsr	w3, w9, w4
    1a08:	12000c63 	and	w3, w3, #0xf
    1a0c:	51000463 	sub	w3, w3, #0x1
    1a10:	7100187f 	cmp	w3, #0x6
/home/hei/Desktop/optee-qemu/optee_os/lib/libutee/arch/arm/user_ta_entry.c:159
    1a14:	a9401c48 	ldp	x8, x7, [x2]
/home/hei/Desktop/optee-qemu/optee_os/lib/libutee/arch/arm/user_ta_entry.c:161
    1a18:	540000c8 	b.hi	1a30 <from_utee_params+0x40>  // b.pmore
    1a1c:	386348a3 	ldrb	w3, [x5, w3, uxtw]
    1a20:	1000006a 	adr	x10, 1a2c <from_utee_params+0x3c>
    1a24:	8b238943 	add	x3, x10, w3, sxtb #2
    1a28:	d61f0060 	br	x3
/home/hei/Desktop/optee-qemu/optee_os/lib/libutee/arch/arm/user_ta_entry.c:166
    1a2c:	29001c08 	stp	w8, w7, [x0]
/home/hei/Desktop/optee-qemu/optee_os/lib/libutee/arch/arm/user_ta_entry.c:167
    1a30:	11001084 	add	w4, w4, #0x4
    1a34:	91004042 	add	x2, x2, #0x10
    1a38:	91004000 	add	x0, x0, #0x10
/home/hei/Desktop/optee-qemu/optee_os/lib/libutee/arch/arm/user_ta_entry.c:157 (discriminator 2)
    1a3c:	7100409f 	cmp	w4, #0x10
    1a40:	54fffe21 	b.ne	1a04 <from_utee_params+0x14>  // b.any
/home/hei/Desktop/optee-qemu/optee_os/lib/libutee/arch/arm/user_ta_entry.c:180
    1a44:	b9000026 	str	w6, [x1]
/home/hei/Desktop/optee-qemu/optee_os/lib/libutee/arch/arm/user_ta_entry.c:181
    1a48:	d65f03c0 	ret
/home/hei/Desktop/optee-qemu/optee_os/lib/libutee/arch/arm/user_ta_entry.c:171
    1a4c:	f9000008 	str	x8, [x0]
/home/hei/Desktop/optee-qemu/optee_os/lib/libutee/arch/arm/user_ta_entry.c:172
    1a50:	b9000807 	str	w7, [x0, #8]
/home/hei/Desktop/optee-qemu/optee_os/lib/libutee/arch/arm/user_ta_entry.c:173
    1a54:	17fffff7 	b	1a30 <from_utee_params+0x40>

0000000000001a58 <ta_header_remove_session>:
ta_header_remove_session():
/home/hei/Desktop/optee-qemu/optee_os/lib/libutee/arch/arm/user_ta_entry.c:102
    1a58:	a9be7bfd 	stp	x29, x30, [sp, #-32]!
    1a5c:	2a0003e2 	mov	w2, w0
    1a60:	910003fd 	mov	x29, sp
    1a64:	f9000bf3 	str	x19, [sp, #16]
/home/hei/Desktop/optee-qemu/optee_os/lib/libutee/arch/arm/user_ta_entry.c:106
    1a68:	f0000053 	adrp	x19, c000 <_DYNAMIC>
    1a6c:	f941c660 	ldr	x0, [x19, #904]
/home/hei/Desktop/optee-qemu/optee_os/lib/libutee/arch/arm/user_ta_entry.c:106 (discriminator 1)
    1a70:	b5000080 	cbnz	x0, 1a80 <ta_header_remove_session+0x28>
/home/hei/Desktop/optee-qemu/optee_os/lib/libutee/arch/arm/user_ta_entry.c:120
    1a74:	f9400bf3 	ldr	x19, [sp, #16]
    1a78:	a8c27bfd 	ldp	x29, x30, [sp], #32
    1a7c:	d65f03c0 	ret
/home/hei/Desktop/optee-qemu/optee_os/lib/libutee/arch/arm/user_ta_entry.c:107
    1a80:	b9400003 	ldr	w3, [x0]
    1a84:	f9400801 	ldr	x1, [x0, #16]
    1a88:	6b02007f 	cmp	w3, w2
    1a8c:	540002c1 	b.ne	1ae4 <ta_header_remove_session+0x8c>  // b.any
/home/hei/Desktop/optee-qemu/optee_os/lib/libutee/arch/arm/user_ta_entry.c:108
    1a90:	f9400c02 	ldr	x2, [x0, #24]
    1a94:	b4000221 	cbz	x1, 1ad8 <ta_header_remove_session+0x80>
/home/hei/Desktop/optee-qemu/optee_os/lib/libutee/arch/arm/user_ta_entry.c:108 (discriminator 1)
    1a98:	f9000c22 	str	x2, [x1, #24]
/home/hei/Desktop/optee-qemu/optee_os/lib/libutee/arch/arm/user_ta_entry.c:108 (discriminator 4)
    1a9c:	f9400c02 	ldr	x2, [x0, #24]
    1aa0:	f9000041 	str	x1, [x2]
/home/hei/Desktop/optee-qemu/optee_os/lib/libutee/arch/arm/user_ta_entry.c:109 (discriminator 4)
    1aa4:	94000256 	bl	23fc <TEE_Free>
/home/hei/Desktop/optee-qemu/optee_os/lib/libutee/arch/arm/user_ta_entry.c:114 (discriminator 4)
    1aa8:	f941c660 	ldr	x0, [x19, #904]
    1aac:	b5fffe40 	cbnz	x0, 1a74 <ta_header_remove_session+0x1c>
/home/hei/Desktop/optee-qemu/optee_os/lib/libutee/arch/arm/user_ta_entry.c:112 (discriminator 1)
    1ab0:	f0000040 	adrp	x0, c000 <_DYNAMIC>
    1ab4:	52800281 	mov	w1, #0x14                  	// #20
    1ab8:	f940c000 	ldr	x0, [x0, #384]
    1abc:	b9401400 	ldr	w0, [x0, #20]
    1ac0:	0a010000 	and	w0, w0, w1
/home/hei/Desktop/optee-qemu/optee_os/lib/libutee/arch/arm/user_ta_entry.c:114 (discriminator 1)
    1ac4:	6b01001f 	cmp	w0, w1
    1ac8:	54fffd60 	b.eq	1a74 <ta_header_remove_session+0x1c>  // b.none
/home/hei/Desktop/optee-qemu/optee_os/lib/libutee/arch/arm/user_ta_entry.c:120
    1acc:	f9400bf3 	ldr	x19, [sp, #16]
    1ad0:	a8c27bfd 	ldp	x29, x30, [sp], #32
uninit_instance():
/home/hei/Desktop/optee-qemu/optee_os/lib/libutee/arch/arm/user_ta_entry.c:50
    1ad4:	17fff96e 	b	8c <TA_DestroyEntryPoint>
ta_header_remove_session():
/home/hei/Desktop/optee-qemu/optee_os/lib/libutee/arch/arm/user_ta_entry.c:108 (discriminator 2)
    1ad8:	910e2263 	add	x3, x19, #0x388
    1adc:	f9000462 	str	x2, [x3, #8]
    1ae0:	17ffffef 	b	1a9c <ta_header_remove_session+0x44>
    1ae4:	aa0103e0 	mov	x0, x1
    1ae8:	17ffffe2 	b	1a70 <ta_header_remove_session+0x18>

0000000000001aec <ta_header_save_params.part.0>:
ta_header_save_params():
/home/hei/Desktop/optee-qemu/optee_os/lib/libutee/arch/arm/user_ta_entry.c:61
    1aec:	f0000040 	adrp	x0, c000 <_DYNAMIC>
    1af0:	d2800802 	mov	x2, #0x40                  	// #64
    1af4:	52800001 	mov	w1, #0x0                   	// #0
    1af8:	f940bc00 	ldr	x0, [x0, #376]
    1afc:	14001b4e 	b	8834 <memset>

0000000000001b00 <__utee_entry>:
__utee_entry():
/home/hei/Desktop/optee-qemu/optee_os/lib/libutee/arch/arm/user_ta_entry.c:248
    1b00:	a9b77bfd 	stp	x29, x30, [sp, #-144]!
/home/hei/Desktop/optee-qemu/optee_os/lib/libutee/arch/arm/user_ta_entry.c:251
    1b04:	f100041f 	cmp	x0, #0x1
/home/hei/Desktop/optee-qemu/optee_os/lib/libutee/arch/arm/user_ta_entry.c:248
    1b08:	910003fd 	mov	x29, sp
    1b0c:	a90153f3 	stp	x19, x20, [sp, #16]
    1b10:	f0000054 	adrp	x20, c000 <_DYNAMIC>
    1b14:	a9025bf5 	stp	x21, x22, [sp, #32]
    1b18:	aa0103f5 	mov	x21, x1
    1b1c:	a90363f7 	stp	x23, x24, [sp, #48]
/home/hei/Desktop/optee-qemu/optee_os/lib/libutee/arch/arm/user_ta_entry.c:251
    1b20:	54000a00 	b.eq	1c60 <__utee_entry+0x160>  // b.none
    1b24:	aa0203f7 	mov	x23, x2
    1b28:	b40000e0 	cbz	x0, 1b44 <__utee_entry+0x44>
    1b2c:	f100081f 	cmp	x0, #0x2
    1b30:	54000aa0 	b.eq	1c84 <__utee_entry+0x184>  // b.none
/home/hei/Desktop/optee-qemu/optee_os/lib/libutee/arch/arm/user_ta_entry.c:263
    1b34:	52800000 	mov	w0, #0x0                   	// #0
/home/hei/Desktop/optee-qemu/optee_os/lib/libutee/arch/arm/user_ta_entry.c:262
    1b38:	12800013 	mov	w19, #0xffffffff            	// #-1
/home/hei/Desktop/optee-qemu/optee_os/lib/libutee/arch/arm/user_ta_entry.c:263
    1b3c:	94000237 	bl	2418 <TEE_Panic>
/home/hei/Desktop/optee-qemu/optee_os/lib/libutee/arch/arm/user_ta_entry.c:264
    1b40:	14000019 	b	1ba4 <__utee_entry+0xa4>
ta_header_add_session():
/home/hei/Desktop/optee-qemu/optee_os/lib/libutee/arch/arm/user_ta_entry.c:77
    1b44:	2a0103e0 	mov	w0, w1
    1b48:	97ffff82 	bl	1950 <ta_header_get_session>
/home/hei/Desktop/optee-qemu/optee_os/lib/libutee/arch/arm/user_ta_entry.c:80
    1b4c:	b5000500 	cbnz	x0, 1bec <__utee_entry+0xec>
/home/hei/Desktop/optee-qemu/optee_os/lib/libutee/arch/arm/user_ta_entry.c:83
    1b50:	d00000a0 	adrp	x0, 17000 <ta_heap+0x7b78>
    1b54:	39522001 	ldrb	w1, [x0, #1160]
    1b58:	340000e1 	cbz	w1, 1b74 <__utee_entry+0x74>
/home/hei/Desktop/optee-qemu/optee_os/lib/libutee/arch/arm/user_ta_entry.c:90
    1b5c:	52b00001 	mov	w1, #0x80000000            	// #-2147483648
    1b60:	52800400 	mov	w0, #0x20                  	// #32
    1b64:	9400020d 	bl	2398 <TEE_Malloc>
/home/hei/Desktop/optee-qemu/optee_os/lib/libutee/arch/arm/user_ta_entry.c:92
    1b68:	b5000300 	cbnz	x0, 1bc8 <__utee_entry+0xc8>
/home/hei/Desktop/optee-qemu/optee_os/lib/libutee/arch/arm/user_ta_entry.c:93
    1b6c:	129ffe73 	mov	w19, #0xffff000c            	// #-65524
    1b70:	1400000d 	b	1ba4 <__utee_entry+0xa4>
/home/hei/Desktop/optee-qemu/optee_os/lib/libutee/arch/arm/user_ta_entry.c:84
    1b74:	52800021 	mov	w1, #0x1                   	// #1
    1b78:	39122001 	strb	w1, [x0, #1160]
init_instance():
/home/hei/Desktop/optee-qemu/optee_os/lib/libutee/arch/arm/user_ta_entry.c:40
    1b7c:	97fff9e3 	bl	308 <tahead_get_trace_level>
    1b80:	97fffa1d 	bl	3f4 <trace_set_level>
/home/hei/Desktop/optee-qemu/optee_os/lib/libutee/arch/arm/user_ta_entry.c:42
    1b84:	f9409a80 	ldr	x0, [x20, #304]
    1b88:	f9400001 	ldr	x1, [x0]
    1b8c:	f940ae80 	ldr	x0, [x20, #344]
    1b90:	94001a10 	bl	83d0 <malloc_add_pool>
/home/hei/Desktop/optee-qemu/optee_os/lib/libutee/arch/arm/user_ta_entry.c:43
    1b94:	94000487 	bl	2db0 <_TEE_MathAPI_Init>
/home/hei/Desktop/optee-qemu/optee_os/lib/libutee/arch/arm/user_ta_entry.c:44
    1b98:	97fff922 	bl	20 <TA_CreateEntryPoint>
    1b9c:	2a0003f3 	mov	w19, w0
ta_header_add_session():
/home/hei/Desktop/optee-qemu/optee_os/lib/libutee/arch/arm/user_ta_entry.c:86
    1ba0:	34fffde0 	cbz	w0, 1b5c <__utee_entry+0x5c>
ta_header_save_params():
/home/hei/Desktop/optee-qemu/optee_os/lib/libutee/arch/arm/user_ta_entry.c:56
    1ba4:	f940b694 	ldr	x20, [x20, #360]
    1ba8:	b900029f 	str	wzr, [x20]
/home/hei/Desktop/optee-qemu/optee_os/lib/libutee/arch/arm/user_ta_entry.c:58
    1bac:	97ffffd0 	bl	1aec <ta_header_save_params.part.0>
__utee_entry():
/home/hei/Desktop/optee-qemu/optee_os/lib/libutee/arch/arm/user_ta_entry.c:269
    1bb0:	2a1303e0 	mov	w0, w19
    1bb4:	a94153f3 	ldp	x19, x20, [sp, #16]
    1bb8:	a9425bf5 	ldp	x21, x22, [sp, #32]
    1bbc:	a94363f7 	ldp	x23, x24, [sp, #48]
    1bc0:	a8c97bfd 	ldp	x29, x30, [sp], #144
    1bc4:	d65f03c0 	ret
ta_header_add_session():
/home/hei/Desktop/optee-qemu/optee_os/lib/libutee/arch/arm/user_ta_entry.c:96
    1bc8:	f0000041 	adrp	x1, c000 <_DYNAMIC>
    1bcc:	910e2021 	add	x1, x1, #0x388
    1bd0:	f9400422 	ldr	x2, [x1, #8]
/home/hei/Desktop/optee-qemu/optee_os/lib/libutee/arch/arm/user_ta_entry.c:94
    1bd4:	b9000015 	str	w21, [x0]
/home/hei/Desktop/optee-qemu/optee_os/lib/libutee/arch/arm/user_ta_entry.c:96
    1bd8:	a900fc1f 	stp	xzr, xzr, [x0, #8]
    1bdc:	f9000c02 	str	x2, [x0, #24]
    1be0:	f9000040 	str	x0, [x2]
    1be4:	91004000 	add	x0, x0, #0x10
    1be8:	f9000420 	str	x0, [x1, #8]
entry_open_session():
/home/hei/Desktop/optee-qemu/optee_os/lib/libutee/arch/arm/user_ta_entry.c:195
    1bec:	2a1503e0 	mov	w0, w21
    1bf0:	97ffff58 	bl	1950 <ta_header_get_session>
    1bf4:	aa0003f8 	mov	x24, x0
/home/hei/Desktop/optee-qemu/optee_os/lib/libutee/arch/arm/user_ta_entry.c:196
    1bf8:	b40007e0 	cbz	x0, 1cf4 <__utee_entry+0x1f4>
/home/hei/Desktop/optee-qemu/optee_os/lib/libutee/arch/arm/user_ta_entry.c:199
    1bfc:	910143f6 	add	x22, sp, #0x50
    1c00:	aa1703e2 	mov	x2, x23
    1c04:	910133e1 	add	x1, sp, #0x4c
    1c08:	aa1603e0 	mov	x0, x22
    1c0c:	97ffff79 	bl	19f0 <from_utee_params>
/home/hei/Desktop/optee-qemu/optee_os/lib/libutee/arch/arm/user_ta_entry.c:200
    1c10:	b9404ff3 	ldr	w19, [sp, #76]
ta_header_save_params():
/home/hei/Desktop/optee-qemu/optee_os/lib/libutee/arch/arm/user_ta_entry.c:56
    1c14:	f940b680 	ldr	x0, [x20, #360]
/home/hei/Desktop/optee-qemu/optee_os/lib/libutee/arch/arm/user_ta_entry.c:59
    1c18:	d2800802 	mov	x2, #0x40                  	// #64
    1c1c:	aa1603e1 	mov	x1, x22
/home/hei/Desktop/optee-qemu/optee_os/lib/libutee/arch/arm/user_ta_entry.c:56
    1c20:	b9000013 	str	w19, [x0]
/home/hei/Desktop/optee-qemu/optee_os/lib/libutee/arch/arm/user_ta_entry.c:59
    1c24:	f940be80 	ldr	x0, [x20, #376]
    1c28:	97fff9ba 	bl	310 <memcpy>
entry_open_session():
/home/hei/Desktop/optee-qemu/optee_os/lib/libutee/arch/arm/user_ta_entry.c:202
    1c2c:	91002302 	add	x2, x24, #0x8
    1c30:	aa1603e1 	mov	x1, x22
    1c34:	2a1303e0 	mov	w0, w19
    1c38:	97fff91e 	bl	b0 <TA_OpenSessionEntryPoint>
/home/hei/Desktop/optee-qemu/optee_os/lib/libutee/arch/arm/user_ta_entry.c:205
    1c3c:	b9404fe1 	ldr	w1, [sp, #76]
/home/hei/Desktop/optee-qemu/optee_os/lib/libutee/arch/arm/user_ta_entry.c:202
    1c40:	2a0003f3 	mov	w19, w0
/home/hei/Desktop/optee-qemu/optee_os/lib/libutee/arch/arm/user_ta_entry.c:205
    1c44:	aa1603e2 	mov	x2, x22
    1c48:	aa1703e0 	mov	x0, x23
    1c4c:	97ffff4b 	bl	1978 <to_utee_params>
/home/hei/Desktop/optee-qemu/optee_os/lib/libutee/arch/arm/user_ta_entry.c:207
    1c50:	34fffab3 	cbz	w19, 1ba4 <__utee_entry+0xa4>
/home/hei/Desktop/optee-qemu/optee_os/lib/libutee/arch/arm/user_ta_entry.c:208
    1c54:	2a1503e0 	mov	w0, w21
    1c58:	97ffff80 	bl	1a58 <ta_header_remove_session>
    1c5c:	17ffffd2 	b	1ba4 <__utee_entry+0xa4>
entry_close_session():
/home/hei/Desktop/optee-qemu/optee_os/lib/libutee/arch/arm/user_ta_entry.c:214
    1c60:	2a0103e0 	mov	w0, w1
    1c64:	97ffff3b 	bl	1950 <ta_header_get_session>
/home/hei/Desktop/optee-qemu/optee_os/lib/libutee/arch/arm/user_ta_entry.c:216
    1c68:	b4000460 	cbz	x0, 1cf4 <__utee_entry+0x1f4>
/home/hei/Desktop/optee-qemu/optee_os/lib/libutee/arch/arm/user_ta_entry.c:219
    1c6c:	f9400400 	ldr	x0, [x0, #8]
/home/hei/Desktop/optee-qemu/optee_os/lib/libutee/arch/arm/user_ta_entry.c:222
    1c70:	52800013 	mov	w19, #0x0                   	// #0
/home/hei/Desktop/optee-qemu/optee_os/lib/libutee/arch/arm/user_ta_entry.c:219
    1c74:	97fff92b 	bl	120 <TA_CloseSessionEntryPoint>
/home/hei/Desktop/optee-qemu/optee_os/lib/libutee/arch/arm/user_ta_entry.c:221
    1c78:	2a1503e0 	mov	w0, w21
    1c7c:	97ffff77 	bl	1a58 <ta_header_remove_session>
/home/hei/Desktop/optee-qemu/optee_os/lib/libutee/arch/arm/user_ta_entry.c:222
    1c80:	17ffffc9 	b	1ba4 <__utee_entry+0xa4>
entry_invoke_command():
/home/hei/Desktop/optee-qemu/optee_os/lib/libutee/arch/arm/user_ta_entry.c:231
    1c84:	2a0103e0 	mov	w0, w1
    1c88:	97ffff32 	bl	1950 <ta_header_get_session>
    1c8c:	aa0003f3 	mov	x19, x0
/home/hei/Desktop/optee-qemu/optee_os/lib/libutee/arch/arm/user_ta_entry.c:233
    1c90:	b4000320 	cbz	x0, 1cf4 <__utee_entry+0x1f4>
/home/hei/Desktop/optee-qemu/optee_os/lib/libutee/arch/arm/user_ta_entry.c:236
    1c94:	910143f5 	add	x21, sp, #0x50
    1c98:	aa0303f8 	mov	x24, x3
    1c9c:	aa1703e2 	mov	x2, x23
    1ca0:	910133e1 	add	x1, sp, #0x4c
    1ca4:	aa1503e0 	mov	x0, x21
    1ca8:	97ffff52 	bl	19f0 <from_utee_params>
ta_header_save_params():
/home/hei/Desktop/optee-qemu/optee_os/lib/libutee/arch/arm/user_ta_entry.c:56
    1cac:	f940b680 	ldr	x0, [x20, #360]
/home/hei/Desktop/optee-qemu/optee_os/lib/libutee/arch/arm/user_ta_entry.c:59
    1cb0:	aa1503e1 	mov	x1, x21
entry_invoke_command():
/home/hei/Desktop/optee-qemu/optee_os/lib/libutee/arch/arm/user_ta_entry.c:237
    1cb4:	b9404ff6 	ldr	w22, [sp, #76]
ta_header_save_params():
/home/hei/Desktop/optee-qemu/optee_os/lib/libutee/arch/arm/user_ta_entry.c:59
    1cb8:	d2800802 	mov	x2, #0x40                  	// #64
/home/hei/Desktop/optee-qemu/optee_os/lib/libutee/arch/arm/user_ta_entry.c:56
    1cbc:	b9000016 	str	w22, [x0]
/home/hei/Desktop/optee-qemu/optee_os/lib/libutee/arch/arm/user_ta_entry.c:59
    1cc0:	f940be80 	ldr	x0, [x20, #376]
    1cc4:	97fff993 	bl	310 <memcpy>
entry_invoke_command():
/home/hei/Desktop/optee-qemu/optee_os/lib/libutee/arch/arm/user_ta_entry.c:239
    1cc8:	f9400660 	ldr	x0, [x19, #8]
    1ccc:	2a1603e2 	mov	w2, w22
    1cd0:	2a1803e1 	mov	w1, w24
    1cd4:	aa1503e3 	mov	x3, x21
    1cd8:	97fff91b 	bl	144 <TA_InvokeCommandEntryPoint>
    1cdc:	2a0003f3 	mov	w19, w0
/home/hei/Desktop/optee-qemu/optee_os/lib/libutee/arch/arm/user_ta_entry.c:242
    1ce0:	b9404fe1 	ldr	w1, [sp, #76]
    1ce4:	aa1503e2 	mov	x2, x21
    1ce8:	aa1703e0 	mov	x0, x23
    1cec:	97ffff23 	bl	1978 <to_utee_params>
/home/hei/Desktop/optee-qemu/optee_os/lib/libutee/arch/arm/user_ta_entry.c:243
    1cf0:	17ffffad 	b	1ba4 <__utee_entry+0xa4>
entry_close_session():
/home/hei/Desktop/optee-qemu/optee_os/lib/libutee/arch/arm/user_ta_entry.c:217
    1cf4:	129fff13 	mov	w19, #0xffff0007            	// #-65529
    1cf8:	17ffffab 	b	1ba4 <__utee_entry+0xa4>

0000000000001cfc <update_out_param>:
update_out_param():
/home/hei/Desktop/optee-qemu/optee_os/lib/libutee/tee_api.c:115
    1cfc:	a9bb7bfd 	stp	x29, x30, [sp, #-80]!
    1d00:	910003fd 	mov	x29, sp
    1d04:	a90153f3 	stp	x19, x20, [sp, #16]
/home/hei/Desktop/optee-qemu/optee_os/lib/libutee/tee_api.c:117
    1d08:	aa0203f4 	mov	x20, x2
    1d0c:	aa0003f3 	mov	x19, x0
/home/hei/Desktop/optee-qemu/optee_os/lib/libutee/tee_api.c:115
    1d10:	a90363f7 	stp	x23, x24, [sp, #48]
/home/hei/Desktop/optee-qemu/optee_os/lib/libutee/tee_api.c:123
    1d14:	b0000058 	adrp	x24, a000 <__text_end+0x1540>
    1d18:	91175318 	add	x24, x24, #0x5d4
/home/hei/Desktop/optee-qemu/optee_os/lib/libutee/tee_api.c:117
    1d1c:	f8408697 	ldr	x23, [x20], #8
/home/hei/Desktop/optee-qemu/optee_os/lib/libutee/tee_api.c:115
    1d20:	f90023f9 	str	x25, [sp, #64]
    1d24:	aa0103f9 	mov	x25, x1
    1d28:	a9025bf5 	stp	x21, x22, [sp, #32]
/home/hei/Desktop/optee-qemu/optee_os/lib/libutee/tee_api.c:119
    1d2c:	d2800015 	mov	x21, #0x0                   	// #0
/home/hei/Desktop/optee-qemu/optee_os/lib/libutee/tee_api.c:123
    1d30:	531e76a0 	lsl	w0, w21, #2
/home/hei/Desktop/optee-qemu/optee_os/lib/libutee/tee_api.c:121
    1d34:	f9400696 	ldr	x22, [x20, #8]
/home/hei/Desktop/optee-qemu/optee_os/lib/libutee/tee_api.c:123
    1d38:	1ac026e0 	lsr	w0, w23, w0
    1d3c:	12000c00 	and	w0, w0, #0xf
    1d40:	51000800 	sub	w0, w0, #0x2
    1d44:	7100141f 	cmp	w0, #0x5
    1d48:	540000e8 	b.hi	1d64 <update_out_param+0x68>  // b.pmore
    1d4c:	38604b00 	ldrb	w0, [x24, w0, uxtw]
    1d50:	10000061 	adr	x1, 1d5c <update_out_param+0x60>
    1d54:	8b208820 	add	x0, x1, w0, sxtb #2
    1d58:	d61f0000 	br	x0
/home/hei/Desktop/optee-qemu/optee_os/lib/libutee/tee_api.c:126
    1d5c:	f9400280 	ldr	x0, [x20]
/home/hei/Desktop/optee-qemu/optee_os/lib/libutee/tee_api.c:127
    1d60:	29005a60 	stp	w0, w22, [x19]
/home/hei/Desktop/optee-qemu/optee_os/lib/libutee/tee_api.c:119 (discriminator 2)
    1d64:	910006b5 	add	x21, x21, #0x1
    1d68:	91004294 	add	x20, x20, #0x10
    1d6c:	91004273 	add	x19, x19, #0x10
    1d70:	f10012bf 	cmp	x21, #0x4
    1d74:	54fffde1 	b.ne	1d30 <update_out_param+0x34>  // b.any
/home/hei/Desktop/optee-qemu/optee_os/lib/libutee/tee_api.c:140
    1d78:	a94153f3 	ldp	x19, x20, [sp, #16]
    1d7c:	a9425bf5 	ldp	x21, x22, [sp, #32]
    1d80:	a94363f7 	ldp	x23, x24, [sp, #48]
    1d84:	f94023f9 	ldr	x25, [sp, #64]
    1d88:	a8c57bfd 	ldp	x29, x30, [sp], #80
    1d8c:	d65f03c0 	ret
/home/hei/Desktop/optee-qemu/optee_os/lib/libutee/tee_api.c:131
    1d90:	f8757b21 	ldr	x1, [x25, x21, lsl #3]
    1d94:	b40000c1 	cbz	x1, 1dac <update_out_param+0xb0>
/home/hei/Desktop/optee-qemu/optee_os/lib/libutee/tee_api.c:133
    1d98:	b9400a62 	ldr	w2, [x19, #8]
/home/hei/Desktop/optee-qemu/optee_os/lib/libutee/tee_api.c:132
    1d9c:	f9400260 	ldr	x0, [x19]
/home/hei/Desktop/optee-qemu/optee_os/lib/libutee/tee_api.c:133
    1da0:	eb16005f 	cmp	x2, x22
/home/hei/Desktop/optee-qemu/optee_os/lib/libutee/tee_api.c:132
    1da4:	9a969042 	csel	x2, x2, x22, ls  // ls = plast
    1da8:	97fff95a 	bl	310 <memcpy>
/home/hei/Desktop/optee-qemu/optee_os/lib/libutee/tee_api.c:134
    1dac:	b9000a76 	str	w22, [x19, #8]
/home/hei/Desktop/optee-qemu/optee_os/lib/libutee/tee_api.c:135
    1db0:	17ffffed 	b	1d64 <update_out_param+0x68>

0000000000001db4 <TEE_CloseTASession>:
TEE_CloseTASession():
/home/hei/Desktop/optee-qemu/optee_os/lib/libutee/tee_api.c:184
    1db4:	b4000120 	cbz	x0, 1dd8 <TEE_CloseTASession+0x24>
/home/hei/Desktop/optee-qemu/optee_os/lib/libutee/tee_api.c:183
    1db8:	a9bf7bfd 	stp	x29, x30, [sp, #-16]!
    1dbc:	910003fd 	mov	x29, sp
/home/hei/Desktop/optee-qemu/optee_os/lib/libutee/tee_api.c:185
    1dc0:	97fffe4e 	bl	16f8 <utee_close_ta_session>
/home/hei/Desktop/optee-qemu/optee_os/lib/libutee/tee_api.c:187
    1dc4:	34000060 	cbz	w0, 1dd0 <TEE_CloseTASession+0x1c>
/home/hei/Desktop/optee-qemu/optee_os/lib/libutee/tee_api.c:190
    1dc8:	a8c17bfd 	ldp	x29, x30, [sp], #16
/home/hei/Desktop/optee-qemu/optee_os/lib/libutee/tee_api.c:188
    1dcc:	14000193 	b	2418 <TEE_Panic>
/home/hei/Desktop/optee-qemu/optee_os/lib/libutee/tee_api.c:190
    1dd0:	a8c17bfd 	ldp	x29, x30, [sp], #16
    1dd4:	d65f03c0 	ret
    1dd8:	d65f03c0 	ret

0000000000001ddc <TEE_GetCancellationFlag>:
TEE_GetCancellationFlag():
/home/hei/Desktop/optee-qemu/optee_os/lib/libutee/tee_api.c:237
    1ddc:	a9be7bfd 	stp	x29, x30, [sp, #-32]!
    1de0:	910003fd 	mov	x29, sp
/home/hei/Desktop/optee-qemu/optee_os/lib/libutee/tee_api.c:239
    1de4:	910073e0 	add	x0, sp, #0x1c
    1de8:	97fffe4a 	bl	1710 <utee_get_cancellation_flag>
/home/hei/Desktop/optee-qemu/optee_os/lib/libutee/tee_api.c:241
    1dec:	34000040 	cbz	w0, 1df4 <TEE_GetCancellationFlag+0x18>
/home/hei/Desktop/optee-qemu/optee_os/lib/libutee/tee_api.c:242
    1df0:	b9001fff 	str	wzr, [sp, #28]
/home/hei/Desktop/optee-qemu/optee_os/lib/libutee/tee_api.c:243
    1df4:	b9401fe0 	ldr	w0, [sp, #28]
/home/hei/Desktop/optee-qemu/optee_os/lib/libutee/tee_api.c:244
    1df8:	a8c27bfd 	ldp	x29, x30, [sp], #32
/home/hei/Desktop/optee-qemu/optee_os/lib/libutee/tee_api.c:243
    1dfc:	7100001f 	cmp	w0, #0x0
/home/hei/Desktop/optee-qemu/optee_os/lib/libutee/tee_api.c:244
    1e00:	1a9f07e0 	cset	w0, ne  // ne = any
    1e04:	d65f03c0 	ret

0000000000001e08 <TEE_UnmaskCancellation>:
TEE_UnmaskCancellation():
/home/hei/Desktop/optee-qemu/optee_os/lib/libutee/tee_api.c:247
    1e08:	a9be7bfd 	stp	x29, x30, [sp, #-32]!
    1e0c:	910003fd 	mov	x29, sp
/home/hei/Desktop/optee-qemu/optee_os/lib/libutee/tee_api.c:249
    1e10:	910073e0 	add	x0, sp, #0x1c
    1e14:	97fffe45 	bl	1728 <utee_unmask_cancellation>
/home/hei/Desktop/optee-qemu/optee_os/lib/libutee/tee_api.c:251
    1e18:	34000040 	cbz	w0, 1e20 <TEE_UnmaskCancellation+0x18>
/home/hei/Desktop/optee-qemu/optee_os/lib/libutee/tee_api.c:252
    1e1c:	9400017f 	bl	2418 <TEE_Panic>
/home/hei/Desktop/optee-qemu/optee_os/lib/libutee/tee_api.c:253
    1e20:	b9401fe0 	ldr	w0, [sp, #28]
/home/hei/Desktop/optee-qemu/optee_os/lib/libutee/tee_api.c:254
    1e24:	a8c27bfd 	ldp	x29, x30, [sp], #32
/home/hei/Desktop/optee-qemu/optee_os/lib/libutee/tee_api.c:253
    1e28:	7100001f 	cmp	w0, #0x0
/home/hei/Desktop/optee-qemu/optee_os/lib/libutee/tee_api.c:254
    1e2c:	1a9f07e0 	cset	w0, ne  // ne = any
    1e30:	d65f03c0 	ret

0000000000001e34 <TEE_MaskCancellation>:
TEE_MaskCancellation():
/home/hei/Desktop/optee-qemu/optee_os/lib/libutee/tee_api.c:257
    1e34:	a9be7bfd 	stp	x29, x30, [sp, #-32]!
    1e38:	910003fd 	mov	x29, sp
/home/hei/Desktop/optee-qemu/optee_os/lib/libutee/tee_api.c:259
    1e3c:	910073e0 	add	x0, sp, #0x1c
    1e40:	97fffe3d 	bl	1734 <utee_mask_cancellation>
/home/hei/Desktop/optee-qemu/optee_os/lib/libutee/tee_api.c:261
    1e44:	34000040 	cbz	w0, 1e4c <TEE_MaskCancellation+0x18>
/home/hei/Desktop/optee-qemu/optee_os/lib/libutee/tee_api.c:262
    1e48:	94000174 	bl	2418 <TEE_Panic>
/home/hei/Desktop/optee-qemu/optee_os/lib/libutee/tee_api.c:263
    1e4c:	b9401fe0 	ldr	w0, [sp, #28]
/home/hei/Desktop/optee-qemu/optee_os/lib/libutee/tee_api.c:264
    1e50:	a8c27bfd 	ldp	x29, x30, [sp], #32
/home/hei/Desktop/optee-qemu/optee_os/lib/libutee/tee_api.c:263
    1e54:	7100001f 	cmp	w0, #0x0
/home/hei/Desktop/optee-qemu/optee_os/lib/libutee/tee_api.c:264
    1e58:	1a9f07e0 	cset	w0, ne  // ne = any
    1e5c:	d65f03c0 	ret

0000000000001e60 <TEE_CheckMemoryAccessRights>:
TEE_CheckMemoryAccessRights():
/home/hei/Desktop/optee-qemu/optee_os/lib/libutee/tee_api.c:273
    1e60:	34000062 	cbz	w2, 1e6c <TEE_CheckMemoryAccessRights+0xc>
/home/hei/Desktop/optee-qemu/optee_os/lib/libutee/tee_api.c:277
    1e64:	2a0203e2 	mov	w2, w2
    1e68:	17fffe2d 	b	171c <utee_check_access_rights>
/home/hei/Desktop/optee-qemu/optee_os/lib/libutee/tee_api.c:289
    1e6c:	52800000 	mov	w0, #0x0                   	// #0
    1e70:	d65f03c0 	ret

0000000000001e74 <copy_param.constprop.1>:
copy_param():
/home/hei/Desktop/optee-qemu/optee_os/lib/libutee/tee_api.c:19
    1e74:	a9b87bfd 	stp	x29, x30, [sp, #-128]!
    1e78:	910003fd 	mov	x29, sp
    1e7c:	a9046bf9 	stp	x25, x26, [sp, #64]
    1e80:	aa0303f9 	mov	x25, x3
/home/hei/Desktop/optee-qemu/optee_os/lib/libutee/tee_api.c:60
    1e84:	9101e3e3 	add	x3, sp, #0x78
/home/hei/Desktop/optee-qemu/optee_os/lib/libutee/tee_api.c:19
    1e88:	a90363f7 	stp	x23, x24, [sp, #48]
    1e8c:	aa0403f8 	mov	x24, x4
    1e90:	aa0503f7 	mov	x23, x5
    1e94:	a90153f3 	stp	x19, x20, [sp, #16]
    1e98:	aa0003f3 	mov	x19, x0
    1e9c:	aa0203f4 	mov	x20, x2
    1ea0:	a9025bf5 	stp	x21, x22, [sp, #32]
    1ea4:	2a0103f6 	mov	w22, w1
/home/hei/Desktop/optee-qemu/optee_os/lib/libutee/tee_api.c:41
    1ea8:	d2800015 	mov	x21, #0x0                   	// #0
/home/hei/Desktop/optee-qemu/optee_os/lib/libutee/tee_api.c:19
    1eac:	a90573fb 	stp	x27, x28, [sp, #80]
/home/hei/Desktop/optee-qemu/optee_os/lib/libutee/tee_api.c:48
    1eb0:	9100205c 	add	x28, x2, #0x8
/home/hei/Desktop/optee-qemu/optee_os/lib/libutee/tee_api.c:26
    1eb4:	d280001b 	mov	x27, #0x0                   	// #0
/home/hei/Desktop/optee-qemu/optee_os/lib/libutee/tee_api.c:39
    1eb8:	f900033f 	str	xzr, [x25]
/home/hei/Desktop/optee-qemu/optee_os/lib/libutee/tee_api.c:60
    1ebc:	52800024 	mov	w4, #0x1                   	// #1
/home/hei/Desktop/optee-qemu/optee_os/lib/libutee/tee_api.c:40
    1ec0:	f900031f 	str	xzr, [x24]
/home/hei/Desktop/optee-qemu/optee_os/lib/libutee/tee_api.c:28
    1ec4:	b9007bff 	str	wzr, [sp, #120]
/home/hei/Desktop/optee-qemu/optee_os/lib/libutee/tee_api.c:43
    1ec8:	531e76a0 	lsl	w0, w21, #2
/home/hei/Desktop/optee-qemu/optee_os/lib/libutee/tee_api.c:42
    1ecc:	f8357aff 	str	xzr, [x23, x21, lsl #3]
/home/hei/Desktop/optee-qemu/optee_os/lib/libutee/tee_api.c:43
    1ed0:	1ac026c0 	lsr	w0, w22, w0
    1ed4:	12000c00 	and	w0, w0, #0xf
    1ed8:	51001400 	sub	w0, w0, #0x5
    1edc:	7100081f 	cmp	w0, #0x2
    1ee0:	54000268 	b.hi	1f2c <copy_param.constprop.1+0xb8>  // b.pmore
/home/hei/Desktop/optee-qemu/optee_os/lib/libutee/tee_api.c:47
    1ee4:	d37ceea0 	lsl	x0, x21, #4
/home/hei/Desktop/optee-qemu/optee_os/lib/libutee/tee_api.c:48
    1ee8:	b8606b82 	ldr	w2, [x28, x0]
/home/hei/Desktop/optee-qemu/optee_os/lib/libutee/tee_api.c:47
    1eec:	f8606a81 	ldr	x1, [x20, x0]
/home/hei/Desktop/optee-qemu/optee_os/lib/libutee/tee_api.c:48
    1ef0:	2a0203fa 	mov	w26, w2
/home/hei/Desktop/optee-qemu/optee_os/lib/libutee/tee_api.c:58
    1ef4:	f100003f 	cmp	x1, #0x0
    1ef8:	fa401b44 	ccmp	x26, #0x0, #0x4, ne  // ne = any
    1efc:	54000180 	b.eq	1f2c <copy_param.constprop.1+0xb8>  // b.none
/home/hei/Desktop/optee-qemu/optee_os/lib/libutee/tee_api.c:59
    1f00:	52800020 	mov	w0, #0x1                   	// #1
    1f04:	f90033e3 	str	x3, [sp, #96]
    1f08:	b9006fe4 	str	w4, [sp, #108]
    1f0c:	97ffffd5 	bl	1e60 <TEE_CheckMemoryAccessRights>
/home/hei/Desktop/optee-qemu/optee_os/lib/libutee/tee_api.c:58
    1f10:	b9406fe4 	ldr	w4, [sp, #108]
    1f14:	f94033e3 	ldr	x3, [sp, #96]
    1f18:	350000a0 	cbnz	w0, 1f2c <copy_param.constprop.1+0xb8>
/home/hei/Desktop/optee-qemu/optee_os/lib/libutee/tee_api.c:61
    1f1c:	91003f5a 	add	x26, x26, #0xf
/home/hei/Desktop/optee-qemu/optee_os/lib/libutee/tee_api.c:60
    1f20:	38236aa4 	strb	w4, [x21, x3]
/home/hei/Desktop/optee-qemu/optee_os/lib/libutee/tee_api.c:61
    1f24:	927cef5a 	and	x26, x26, #0xfffffffffffffff0
    1f28:	8b1a037b 	add	x27, x27, x26
/home/hei/Desktop/optee-qemu/optee_os/lib/libutee/tee_api.c:41
    1f2c:	910006b5 	add	x21, x21, #0x1
    1f30:	f10012bf 	cmp	x21, #0x4
    1f34:	54fffca1 	b.ne	1ec8 <copy_param.constprop.1+0x54>  // b.any
/home/hei/Desktop/optee-qemu/optee_os/lib/libutee/tee_api.c:69
    1f38:	b400031b 	cbz	x27, 1f98 <copy_param.constprop.1+0x124>
/home/hei/Desktop/optee-qemu/optee_os/lib/libutee/tee_api.c:70
    1f3c:	2a1503e1 	mov	w1, w21
    1f40:	aa1b03e0 	mov	x0, x27
    1f44:	94000159 	bl	24a8 <tee_map_zi>
    1f48:	aa0003e3 	mov	x3, x0
/home/hei/Desktop/optee-qemu/optee_os/lib/libutee/tee_api.c:71
    1f4c:	b4000780 	cbz	x0, 203c <copy_param.constprop.1+0x1c8>
/home/hei/Desktop/optee-qemu/optee_os/lib/libutee/tee_api.c:73
    1f50:	f9000320 	str	x0, [x25]
/home/hei/Desktop/optee-qemu/optee_os/lib/libutee/tee_api.c:74
    1f54:	f900031b 	str	x27, [x24]
/home/hei/Desktop/optee-qemu/optee_os/lib/libutee/tee_api.c:79
    1f58:	b0000059 	adrp	x25, a000 <__text_end+0x1540>
/home/hei/Desktop/optee-qemu/optee_os/lib/libutee/tee_api.c:89
    1f5c:	9101e3fb 	add	x27, sp, #0x78
/home/hei/Desktop/optee-qemu/optee_os/lib/libutee/tee_api.c:79
    1f60:	91177339 	add	x25, x25, #0x5dc
/home/hei/Desktop/optee-qemu/optee_os/lib/libutee/tee_api.c:77
    1f64:	2a1603e0 	mov	w0, w22
/home/hei/Desktop/optee-qemu/optee_os/lib/libutee/tee_api.c:78
    1f68:	d2800015 	mov	x21, #0x0                   	// #0
/home/hei/Desktop/optee-qemu/optee_os/lib/libutee/tee_api.c:77
    1f6c:	f8008660 	str	x0, [x19], #8
/home/hei/Desktop/optee-qemu/optee_os/lib/libutee/tee_api.c:79
    1f70:	531e76a0 	lsl	w0, w21, #2
    1f74:	1ac026c0 	lsr	w0, w22, w0
    1f78:	12000c00 	and	w0, w0, #0xf
    1f7c:	51000401 	sub	w1, w0, #0x1
    1f80:	7100183f 	cmp	w1, #0x6
    1f84:	54000588 	b.hi	2034 <copy_param.constprop.1+0x1c0>  // b.pmore
    1f88:	38614b21 	ldrb	w1, [x25, w1, uxtw]
    1f8c:	10000062 	adr	x2, 1f98 <copy_param.constprop.1+0x124>
    1f90:	8b218841 	add	x1, x2, w1, sxtb #2
    1f94:	d61f0020 	br	x1
/home/hei/Desktop/optee-qemu/optee_os/lib/libutee/tee_api.c:25
    1f98:	d2800003 	mov	x3, #0x0                   	// #0
    1f9c:	17ffffef 	b	1f58 <copy_param.constprop.1+0xe4>
/home/hei/Desktop/optee-qemu/optee_os/lib/libutee/tee_api.c:82
    1fa0:	b9400280 	ldr	w0, [x20]
    1fa4:	f9000260 	str	x0, [x19]
/home/hei/Desktop/optee-qemu/optee_os/lib/libutee/tee_api.c:83
    1fa8:	b9400680 	ldr	w0, [x20, #4]
    1fac:	f9000660 	str	x0, [x19, #8]
/home/hei/Desktop/optee-qemu/optee_os/lib/libutee/tee_api.c:78
    1fb0:	910006b5 	add	x21, x21, #0x1
    1fb4:	91004294 	add	x20, x20, #0x10
    1fb8:	91004273 	add	x19, x19, #0x10
    1fbc:	f10012bf 	cmp	x21, #0x4
    1fc0:	54fffd81 	b.ne	1f70 <copy_param.constprop.1+0xfc>  // b.any
/home/hei/Desktop/optee-qemu/optee_os/lib/libutee/tee_api.c:109
    1fc4:	52800000 	mov	w0, #0x0                   	// #0
/home/hei/Desktop/optee-qemu/optee_os/lib/libutee/tee_api.c:110
    1fc8:	a94153f3 	ldp	x19, x20, [sp, #16]
    1fcc:	a9425bf5 	ldp	x21, x22, [sp, #32]
    1fd0:	a94363f7 	ldp	x23, x24, [sp, #48]
    1fd4:	a9446bf9 	ldp	x25, x26, [sp, #64]
    1fd8:	a94573fb 	ldp	x27, x28, [sp, #80]
    1fdc:	a8c87bfd 	ldp	x29, x30, [sp], #128
    1fe0:	d65f03c0 	ret
/home/hei/Desktop/optee-qemu/optee_os/lib/libutee/tee_api.c:89
    1fe4:	387b6aa1 	ldrb	w1, [x21, x27]
/home/hei/Desktop/optee-qemu/optee_os/lib/libutee/tee_api.c:88
    1fe8:	b9400a9a 	ldr	w26, [x20, #8]
/home/hei/Desktop/optee-qemu/optee_os/lib/libutee/tee_api.c:89
    1fec:	340001e1 	cbz	w1, 2028 <copy_param.constprop.1+0x1b4>
/home/hei/Desktop/optee-qemu/optee_os/lib/libutee/tee_api.c:92
    1ff0:	91003f58 	add	x24, x26, #0xf
/home/hei/Desktop/optee-qemu/optee_os/lib/libutee/tee_api.c:91
    1ff4:	f8357ae3 	str	x3, [x23, x21, lsl #3]
/home/hei/Desktop/optee-qemu/optee_os/lib/libutee/tee_api.c:92
    1ff8:	927cef18 	and	x24, x24, #0xfffffffffffffff0
/home/hei/Desktop/optee-qemu/optee_os/lib/libutee/tee_api.c:93
    1ffc:	7100181f 	cmp	w0, #0x6
/home/hei/Desktop/optee-qemu/optee_os/lib/libutee/tee_api.c:92
    2000:	8b180078 	add	x24, x3, x24
/home/hei/Desktop/optee-qemu/optee_os/lib/libutee/tee_api.c:93
    2004:	540000c0 	b.eq	201c <copy_param.constprop.1+0x1a8>  // b.none
/home/hei/Desktop/optee-qemu/optee_os/lib/libutee/tee_api.c:95
    2008:	f9400281 	ldr	x1, [x20]
    200c:	aa0303e0 	mov	x0, x3
    2010:	aa1a03e2 	mov	x2, x26
    2014:	97fff8bf 	bl	310 <memcpy>
    2018:	aa0003e3 	mov	x3, x0
/home/hei/Desktop/optee-qemu/optee_os/lib/libutee/tee_api.c:100
    201c:	a9006a63 	stp	x3, x26, [x19]
    2020:	aa1803e3 	mov	x3, x24
    2024:	17ffffe3 	b	1fb0 <copy_param.constprop.1+0x13c>
/home/hei/Desktop/optee-qemu/optee_os/lib/libutee/tee_api.c:97
    2028:	aa0303f8 	mov	x24, x3
    202c:	f9400283 	ldr	x3, [x20]
    2030:	17fffffb 	b	201c <copy_param.constprop.1+0x1a8>
/home/hei/Desktop/optee-qemu/optee_os/lib/libutee/tee_api.c:104
    2034:	a9007e7f 	stp	xzr, xzr, [x19]
/home/hei/Desktop/optee-qemu/optee_os/lib/libutee/tee_api.c:105
    2038:	17ffffde 	b	1fb0 <copy_param.constprop.1+0x13c>
/home/hei/Desktop/optee-qemu/optee_os/lib/libutee/tee_api.c:72
    203c:	129ffe60 	mov	w0, #0xffff000c            	// #-65524
    2040:	17ffffe2 	b	1fc8 <copy_param.constprop.1+0x154>

0000000000002044 <TEE_InvokeTACommand>:
TEE_InvokeTACommand():
/home/hei/Desktop/optee-qemu/optee_os/lib/libutee/tee_api.c:197
    2044:	a9b37bfd 	stp	x29, x30, [sp, #-208]!
    2048:	910003fd 	mov	x29, sp
    204c:	a90153f3 	stp	x19, x20, [sp, #16]
/home/hei/Desktop/optee-qemu/optee_os/lib/libutee/tee_api.c:205
    2050:	910223f4 	add	x20, sp, #0x88
/home/hei/Desktop/optee-qemu/optee_os/lib/libutee/tee_api.c:197
    2054:	a9025bf5 	stp	x21, x22, [sp, #32]
    2058:	aa0403f6 	mov	x22, x4
    205c:	aa0503f5 	mov	x21, x5
    2060:	a90363f7 	stp	x23, x24, [sp, #48]
    2064:	aa0003f8 	mov	x24, x0
/home/hei/Desktop/optee-qemu/optee_os/lib/libutee/tee_api.c:205
    2068:	9101a3f7 	add	x23, sp, #0x68
/home/hei/Desktop/optee-qemu/optee_os/lib/libutee/tee_api.c:199
    206c:	52800060 	mov	w0, #0x3                   	// #3
/home/hei/Desktop/optee-qemu/optee_os/lib/libutee/tee_api.c:205
    2070:	aa1703e5 	mov	x5, x23
    2074:	910183e4 	add	x4, sp, #0x60
/home/hei/Desktop/optee-qemu/optee_os/lib/libutee/tee_api.c:197
    2078:	a9046bf9 	stp	x25, x26, [sp, #64]
    207c:	2a0103f9 	mov	w25, w1
    2080:	2a0203fa 	mov	w26, w2
    2084:	2a0303e1 	mov	w1, w3
/home/hei/Desktop/optee-qemu/optee_os/lib/libutee/tee_api.c:205
    2088:	aa1603e2 	mov	x2, x22
    208c:	910163e3 	add	x3, sp, #0x58
/home/hei/Desktop/optee-qemu/optee_os/lib/libutee/tee_api.c:199
    2090:	b90057e0 	str	w0, [sp, #84]
/home/hei/Desktop/optee-qemu/optee_os/lib/libutee/tee_api.c:205
    2094:	aa1403e0 	mov	x0, x20
/home/hei/Desktop/optee-qemu/optee_os/lib/libutee/tee_api.c:202
    2098:	a905ffff 	stp	xzr, xzr, [sp, #88]
/home/hei/Desktop/optee-qemu/optee_os/lib/libutee/tee_api.c:203
    209c:	a906ffff 	stp	xzr, xzr, [sp, #104]
    20a0:	a907ffff 	stp	xzr, xzr, [sp, #120]
/home/hei/Desktop/optee-qemu/optee_os/lib/libutee/tee_api.c:205
    20a4:	97ffff74 	bl	1e74 <copy_param.constprop.1>
    20a8:	2a0003f3 	mov	w19, w0
/home/hei/Desktop/optee-qemu/optee_os/lib/libutee/tee_api.c:206
    20ac:	35000240 	cbnz	w0, 20f4 <TEE_InvokeTACommand+0xb0>
/home/hei/Desktop/optee-qemu/optee_os/lib/libutee/tee_api.c:208
    20b0:	910153e4 	add	x4, sp, #0x54
    20b4:	aa1403e3 	mov	x3, x20
    20b8:	2a1a03e2 	mov	w2, w26
    20bc:	2a1903e1 	mov	w1, w25
    20c0:	aa1803e0 	mov	x0, x24
    20c4:	97fffd90 	bl	1704 <utee_invoke_ta_command>
/home/hei/Desktop/optee-qemu/optee_os/lib/libutee/tee_api.c:211
    20c8:	aa1403e2 	mov	x2, x20
/home/hei/Desktop/optee-qemu/optee_os/lib/libutee/tee_api.c:208
    20cc:	2a0003f3 	mov	w19, w0
/home/hei/Desktop/optee-qemu/optee_os/lib/libutee/tee_api.c:211
    20d0:	aa1703e1 	mov	x1, x23
    20d4:	aa1603e0 	mov	x0, x22
    20d8:	97ffff09 	bl	1cfc <update_out_param>
/home/hei/Desktop/optee-qemu/optee_os/lib/libutee/tee_api.c:212
    20dc:	f9402fe0 	ldr	x0, [sp, #88]
    20e0:	b40000a0 	cbz	x0, 20f4 <TEE_InvokeTACommand+0xb0>
/home/hei/Desktop/optee-qemu/optee_os/lib/libutee/tee_api.c:213
    20e4:	f94033e1 	ldr	x1, [sp, #96]
    20e8:	9400010d 	bl	251c <tee_unmap>
/home/hei/Desktop/optee-qemu/optee_os/lib/libutee/tee_api.c:215
    20ec:	34000040 	cbz	w0, 20f4 <TEE_InvokeTACommand+0xb0>
/home/hei/Desktop/optee-qemu/optee_os/lib/libutee/tee_api.c:216
    20f0:	940000ca 	bl	2418 <TEE_Panic>
/home/hei/Desktop/optee-qemu/optee_os/lib/libutee/tee_api.c:220
    20f4:	b94057e0 	ldr	w0, [sp, #84]
    20f8:	b4000055 	cbz	x21, 2100 <TEE_InvokeTACommand+0xbc>
/home/hei/Desktop/optee-qemu/optee_os/lib/libutee/tee_api.c:221
    20fc:	b90002a0 	str	w0, [x21]
/home/hei/Desktop/optee-qemu/optee_os/lib/libutee/tee_api.c:223
    2100:	7100101f 	cmp	w0, #0x4
    2104:	54000140 	b.eq	212c <TEE_InvokeTACommand+0xe8>  // b.none
/home/hei/Desktop/optee-qemu/optee_os/lib/libutee/tee_api.c:226
    2108:	7100027f 	cmp	w19, #0x0
    210c:	129ffe60 	mov	w0, #0xffff000c            	// #-65524
    2110:	7a401264 	ccmp	w19, w0, #0x4, ne  // ne = any
    2114:	540000c0 	b.eq	212c <TEE_InvokeTACommand+0xe8>  // b.none
/home/hei/Desktop/optee-qemu/optee_os/lib/libutee/tee_api.c:227
    2118:	1299fb60 	mov	w0, #0xffff3024            	// #-53212
    211c:	6b00027f 	cmp	w19, w0
    2120:	54000060 	b.eq	212c <TEE_InvokeTACommand+0xe8>  // b.none
/home/hei/Desktop/optee-qemu/optee_os/lib/libutee/tee_api.c:229
    2124:	2a1303e0 	mov	w0, w19
    2128:	940000bc 	bl	2418 <TEE_Panic>
/home/hei/Desktop/optee-qemu/optee_os/lib/libutee/tee_api.c:232
    212c:	2a1303e0 	mov	w0, w19
    2130:	a94153f3 	ldp	x19, x20, [sp, #16]
    2134:	a9425bf5 	ldp	x21, x22, [sp, #32]
    2138:	a94363f7 	ldp	x23, x24, [sp, #48]
    213c:	a9446bf9 	ldp	x25, x26, [sp, #64]
    2140:	a8cd7bfd 	ldp	x29, x30, [sp], #208
    2144:	d65f03c0 	ret

0000000000002148 <TEE_OpenTASession>:
TEE_OpenTASession():
/home/hei/Desktop/optee-qemu/optee_os/lib/libutee/tee_api.c:148
    2148:	a9b37bfd 	stp	x29, x30, [sp, #-208]!
    214c:	910003fd 	mov	x29, sp
    2150:	a90153f3 	stp	x19, x20, [sp, #16]
/home/hei/Desktop/optee-qemu/optee_os/lib/libutee/tee_api.c:156
    2154:	910223f4 	add	x20, sp, #0x88
/home/hei/Desktop/optee-qemu/optee_os/lib/libutee/tee_api.c:148
    2158:	a9025bf5 	stp	x21, x22, [sp, #32]
    215c:	aa0303f5 	mov	x21, x3
/home/hei/Desktop/optee-qemu/optee_os/lib/libutee/tee_api.c:156
    2160:	9101a3f6 	add	x22, sp, #0x68
    2164:	910163e3 	add	x3, sp, #0x58
/home/hei/Desktop/optee-qemu/optee_os/lib/libutee/tee_api.c:148
    2168:	a90363f7 	stp	x23, x24, [sp, #48]
    216c:	aa0003f8 	mov	x24, x0
    2170:	aa0403f7 	mov	x23, x4
/home/hei/Desktop/optee-qemu/optee_os/lib/libutee/tee_api.c:156
    2174:	aa1403e0 	mov	x0, x20
    2178:	910183e4 	add	x4, sp, #0x60
/home/hei/Desktop/optee-qemu/optee_os/lib/libutee/tee_api.c:148
    217c:	a9046bf9 	stp	x25, x26, [sp, #64]
    2180:	2a0103f9 	mov	w25, w1
    2184:	aa0503fa 	mov	x26, x5
    2188:	2a0203e1 	mov	w1, w2
/home/hei/Desktop/optee-qemu/optee_os/lib/libutee/tee_api.c:156
    218c:	aa1603e5 	mov	x5, x22
    2190:	aa1503e2 	mov	x2, x21
/home/hei/Desktop/optee-qemu/optee_os/lib/libutee/tee_api.c:151
    2194:	b90057ff 	str	wzr, [sp, #84]
/home/hei/Desktop/optee-qemu/optee_os/lib/libutee/tee_api.c:153
    2198:	a905ffff 	stp	xzr, xzr, [sp, #88]
/home/hei/Desktop/optee-qemu/optee_os/lib/libutee/tee_api.c:154
    219c:	a906ffff 	stp	xzr, xzr, [sp, #104]
    21a0:	a907ffff 	stp	xzr, xzr, [sp, #120]
/home/hei/Desktop/optee-qemu/optee_os/lib/libutee/tee_api.c:156
    21a4:	97ffff34 	bl	1e74 <copy_param.constprop.1>
/home/hei/Desktop/optee-qemu/optee_os/lib/libutee/tee_api.c:157
    21a8:	350003a0 	cbnz	w0, 221c <TEE_OpenTASession+0xd4>
/home/hei/Desktop/optee-qemu/optee_os/lib/libutee/tee_api.c:159
    21ac:	aa1a03e4 	mov	x4, x26
    21b0:	910153e3 	add	x3, sp, #0x54
    21b4:	aa1403e2 	mov	x2, x20
    21b8:	2a1903e1 	mov	w1, w25
    21bc:	aa1803e0 	mov	x0, x24
    21c0:	97fffd4b 	bl	16ec <utee_open_ta_session>
/home/hei/Desktop/optee-qemu/optee_os/lib/libutee/tee_api.c:161
    21c4:	aa1403e2 	mov	x2, x20
/home/hei/Desktop/optee-qemu/optee_os/lib/libutee/tee_api.c:159
    21c8:	2a0003f3 	mov	w19, w0
/home/hei/Desktop/optee-qemu/optee_os/lib/libutee/tee_api.c:161
    21cc:	aa1603e1 	mov	x1, x22
    21d0:	aa1503e0 	mov	x0, x21
    21d4:	97fffeca 	bl	1cfc <update_out_param>
/home/hei/Desktop/optee-qemu/optee_os/lib/libutee/tee_api.c:162
    21d8:	f9402fe0 	ldr	x0, [sp, #88]
    21dc:	b40000a0 	cbz	x0, 21f0 <TEE_OpenTASession+0xa8>
/home/hei/Desktop/optee-qemu/optee_os/lib/libutee/tee_api.c:163
    21e0:	f94033e1 	ldr	x1, [sp, #96]
    21e4:	940000ce 	bl	251c <tee_unmap>
/home/hei/Desktop/optee-qemu/optee_os/lib/libutee/tee_api.c:165
    21e8:	34000040 	cbz	w0, 21f0 <TEE_OpenTASession+0xa8>
/home/hei/Desktop/optee-qemu/optee_os/lib/libutee/tee_api.c:166
    21ec:	9400008b 	bl	2418 <TEE_Panic>
/home/hei/Desktop/optee-qemu/optee_os/lib/libutee/tee_api.c:175
    21f0:	34000053 	cbz	w19, 21f8 <TEE_OpenTASession+0xb0>
/home/hei/Desktop/optee-qemu/optee_os/lib/libutee/tee_api.c:176
    21f4:	b90057ff 	str	wzr, [sp, #84]
/home/hei/Desktop/optee-qemu/optee_os/lib/libutee/tee_api.c:178
    21f8:	b94057e0 	ldr	w0, [sp, #84]
/home/hei/Desktop/optee-qemu/optee_os/lib/libutee/tee_api.c:180
    21fc:	a9425bf5 	ldp	x21, x22, [sp, #32]
    2200:	a9446bf9 	ldp	x25, x26, [sp, #64]
/home/hei/Desktop/optee-qemu/optee_os/lib/libutee/tee_api.c:178
    2204:	f90002e0 	str	x0, [x23]
/home/hei/Desktop/optee-qemu/optee_os/lib/libutee/tee_api.c:180
    2208:	2a1303e0 	mov	w0, w19
    220c:	a94153f3 	ldp	x19, x20, [sp, #16]
    2210:	a94363f7 	ldp	x23, x24, [sp, #48]
    2214:	a8cd7bfd 	ldp	x29, x30, [sp], #208
    2218:	d65f03c0 	ret
    221c:	2a0003f3 	mov	w19, w0
    2220:	17fffff5 	b	21f4 <TEE_OpenTASession+0xac>

0000000000002224 <TEE_SetInstanceData>:
TEE_SetInstanceData():
/home/hei/Desktop/optee-qemu/optee_os/lib/libutee/tee_api.c:293
    2224:	d0000041 	adrp	x1, c000 <_DYNAMIC>
    2228:	f9023820 	str	x0, [x1, #1136]
/home/hei/Desktop/optee-qemu/optee_os/lib/libutee/tee_api.c:294
    222c:	d65f03c0 	ret

0000000000002230 <TEE_GetInstanceData>:
TEE_GetInstanceData():
/home/hei/Desktop/optee-qemu/optee_os/lib/libutee/tee_api.c:299
    2230:	d0000040 	adrp	x0, c000 <_DYNAMIC>
    2234:	f9423800 	ldr	x0, [x0, #1136]
    2238:	d65f03c0 	ret

000000000000223c <TEE_MemMove>:
TEE_MemMove():
/home/hei/Desktop/optee-qemu/optee_os/lib/libutee/tee_api.c:303
    223c:	2a0203e2 	mov	w2, w2
    2240:	14001966 	b	87d8 <memmove>

0000000000002244 <TEE_MemCompare>:
TEE_MemCompare():
/home/hei/Desktop/optee-qemu/optee_os/lib/libutee/tee_api.c:308
    2244:	2a0203e2 	mov	w2, w2
    2248:	140019ec 	b	89f8 <consttime_memcmp>

000000000000224c <TEE_MemFill>:
TEE_MemFill():
/home/hei/Desktop/optee-qemu/optee_os/lib/libutee/tee_api.c:313
    224c:	2a0203e2 	mov	w2, w2
    2250:	14001979 	b	8834 <memset>

0000000000002254 <TEE_GetSystemTime>:
TEE_GetSystemTime():
/home/hei/Desktop/optee-qemu/optee_os/lib/libutee/tee_api.c:319
    2254:	a9bf7bfd 	stp	x29, x30, [sp, #-16]!
/home/hei/Desktop/optee-qemu/optee_os/lib/libutee/tee_api.c:320
    2258:	aa0003e1 	mov	x1, x0
    225c:	d2800000 	mov	x0, #0x0                   	// #0
/home/hei/Desktop/optee-qemu/optee_os/lib/libutee/tee_api.c:319
    2260:	910003fd 	mov	x29, sp
/home/hei/Desktop/optee-qemu/optee_os/lib/libutee/tee_api.c:320
    2264:	97fffd3a 	bl	174c <utee_get_time>
/home/hei/Desktop/optee-qemu/optee_os/lib/libutee/tee_api.c:322
    2268:	34000060 	cbz	w0, 2274 <TEE_GetSystemTime+0x20>
/home/hei/Desktop/optee-qemu/optee_os/lib/libutee/tee_api.c:324
    226c:	a8c17bfd 	ldp	x29, x30, [sp], #16
/home/hei/Desktop/optee-qemu/optee_os/lib/libutee/tee_api.c:323
    2270:	1400006a 	b	2418 <TEE_Panic>
/home/hei/Desktop/optee-qemu/optee_os/lib/libutee/tee_api.c:324
    2274:	a8c17bfd 	ldp	x29, x30, [sp], #16
    2278:	d65f03c0 	ret

000000000000227c <TEE_Wait>:
TEE_Wait():
/home/hei/Desktop/optee-qemu/optee_os/lib/libutee/tee_api.c:327
    227c:	a9be7bfd 	stp	x29, x30, [sp, #-32]!
/home/hei/Desktop/optee-qemu/optee_os/lib/libutee/tee_api.c:328
    2280:	2a0003e0 	mov	w0, w0
/home/hei/Desktop/optee-qemu/optee_os/lib/libutee/tee_api.c:327
    2284:	910003fd 	mov	x29, sp
    2288:	f9000bf3 	str	x19, [sp, #16]
/home/hei/Desktop/optee-qemu/optee_os/lib/libutee/tee_api.c:328
    228c:	97fffd2d 	bl	1740 <utee_wait>
/home/hei/Desktop/optee-qemu/optee_os/lib/libutee/tee_api.c:330
    2290:	7100001f 	cmp	w0, #0x0
    2294:	129fffa1 	mov	w1, #0xffff0002            	// #-65534
/home/hei/Desktop/optee-qemu/optee_os/lib/libutee/tee_api.c:328
    2298:	2a0003f3 	mov	w19, w0
/home/hei/Desktop/optee-qemu/optee_os/lib/libutee/tee_api.c:330
    229c:	7a411004 	ccmp	w0, w1, #0x4, ne  // ne = any
    22a0:	54000040 	b.eq	22a8 <TEE_Wait+0x2c>  // b.none
/home/hei/Desktop/optee-qemu/optee_os/lib/libutee/tee_api.c:331
    22a4:	9400005d 	bl	2418 <TEE_Panic>
/home/hei/Desktop/optee-qemu/optee_os/lib/libutee/tee_api.c:334
    22a8:	2a1303e0 	mov	w0, w19
    22ac:	f9400bf3 	ldr	x19, [sp, #16]
    22b0:	a8c27bfd 	ldp	x29, x30, [sp], #32
    22b4:	d65f03c0 	ret

00000000000022b8 <TEE_GetTAPersistentTime>:
TEE_GetTAPersistentTime():
/home/hei/Desktop/optee-qemu/optee_os/lib/libutee/tee_api.c:337
    22b8:	a9be7bfd 	stp	x29, x30, [sp, #-32]!
/home/hei/Desktop/optee-qemu/optee_os/lib/libutee/tee_api.c:340
    22bc:	aa0003e1 	mov	x1, x0
/home/hei/Desktop/optee-qemu/optee_os/lib/libutee/tee_api.c:337
    22c0:	910003fd 	mov	x29, sp
    22c4:	a90153f3 	stp	x19, x20, [sp, #16]
    22c8:	aa0003f4 	mov	x20, x0
/home/hei/Desktop/optee-qemu/optee_os/lib/libutee/tee_api.c:340
    22cc:	d2800020 	mov	x0, #0x1                   	// #1
    22d0:	97fffd1f 	bl	174c <utee_get_time>
/home/hei/Desktop/optee-qemu/optee_os/lib/libutee/tee_api.c:342
    22d4:	7100001f 	cmp	w0, #0x0
/home/hei/Desktop/optee-qemu/optee_os/lib/libutee/tee_api.c:340
    22d8:	2a0003f3 	mov	w19, w0
/home/hei/Desktop/optee-qemu/optee_os/lib/libutee/tee_api.c:342
    22dc:	1a9f07e2 	cset	w2, ne  // ne = any
    22e0:	1299fe00 	mov	w0, #0xffff300f            	// #-53233
    22e4:	6b00027f 	cmp	w19, w0
    22e8:	1a9f1041 	csel	w1, w2, wzr, ne  // ne = any
    22ec:	34000041 	cbz	w1, 22f4 <TEE_GetTAPersistentTime+0x3c>
/home/hei/Desktop/optee-qemu/optee_os/lib/libutee/tee_api.c:344
    22f0:	29007e9f 	stp	wzr, wzr, [x20]
/home/hei/Desktop/optee-qemu/optee_os/lib/libutee/tee_api.c:348
    22f4:	11402e60 	add	w0, w19, #0xb, lsl #12
/home/hei/Desktop/optee-qemu/optee_os/lib/libutee/tee_api.c:347
    22f8:	7100005f 	cmp	w2, #0x0
    22fc:	7a411800 	ccmp	w0, #0x1, #0x0, ne  // ne = any
    2300:	540000e9 	b.ls	231c <TEE_GetTAPersistentTime+0x64>  // b.plast
/home/hei/Desktop/optee-qemu/optee_os/lib/libutee/tee_api.c:349
    2304:	340000c1 	cbz	w1, 231c <TEE_GetTAPersistentTime+0x64>
/home/hei/Desktop/optee-qemu/optee_os/lib/libutee/tee_api.c:350
    2308:	129ffe60 	mov	w0, #0xffff000c            	// #-65524
    230c:	6b00027f 	cmp	w19, w0
    2310:	54000060 	b.eq	231c <TEE_GetTAPersistentTime+0x64>  // b.none
/home/hei/Desktop/optee-qemu/optee_os/lib/libutee/tee_api.c:352
    2314:	2a1303e0 	mov	w0, w19
    2318:	94000040 	bl	2418 <TEE_Panic>
/home/hei/Desktop/optee-qemu/optee_os/lib/libutee/tee_api.c:355
    231c:	2a1303e0 	mov	w0, w19
    2320:	a94153f3 	ldp	x19, x20, [sp, #16]
    2324:	a8c27bfd 	ldp	x29, x30, [sp], #32
    2328:	d65f03c0 	ret

000000000000232c <TEE_SetTAPersistentTime>:
TEE_SetTAPersistentTime():
/home/hei/Desktop/optee-qemu/optee_os/lib/libutee/tee_api.c:358
    232c:	a9be7bfd 	stp	x29, x30, [sp, #-32]!
    2330:	910003fd 	mov	x29, sp
    2334:	f9000bf3 	str	x19, [sp, #16]
/home/hei/Desktop/optee-qemu/optee_os/lib/libutee/tee_api.c:361
    2338:	97fffd08 	bl	1758 <utee_set_ta_time>
/home/hei/Desktop/optee-qemu/optee_os/lib/libutee/tee_api.c:363
    233c:	7100001f 	cmp	w0, #0x0
    2340:	129ffe61 	mov	w1, #0xffff000c            	// #-65524
/home/hei/Desktop/optee-qemu/optee_os/lib/libutee/tee_api.c:361
    2344:	2a0003f3 	mov	w19, w0
/home/hei/Desktop/optee-qemu/optee_os/lib/libutee/tee_api.c:363
    2348:	7a411004 	ccmp	w0, w1, #0x4, ne  // ne = any
    234c:	540000a0 	b.eq	2360 <TEE_SetTAPersistentTime+0x34>  // b.none
/home/hei/Desktop/optee-qemu/optee_os/lib/libutee/tee_api.c:364
    2350:	1299f7c1 	mov	w1, #0xffff3041            	// #-53183
    2354:	6b01001f 	cmp	w0, w1
    2358:	54000040 	b.eq	2360 <TEE_SetTAPersistentTime+0x34>  // b.none
/home/hei/Desktop/optee-qemu/optee_os/lib/libutee/tee_api.c:366
    235c:	9400002f 	bl	2418 <TEE_Panic>
/home/hei/Desktop/optee-qemu/optee_os/lib/libutee/tee_api.c:369
    2360:	2a1303e0 	mov	w0, w19
    2364:	f9400bf3 	ldr	x19, [sp, #16]
    2368:	a8c27bfd 	ldp	x29, x30, [sp], #32
    236c:	d65f03c0 	ret

0000000000002370 <TEE_GetREETime>:
TEE_GetREETime():
/home/hei/Desktop/optee-qemu/optee_os/lib/libutee/tee_api.c:372
    2370:	a9bf7bfd 	stp	x29, x30, [sp, #-16]!
/home/hei/Desktop/optee-qemu/optee_os/lib/libutee/tee_api.c:373
    2374:	aa0003e1 	mov	x1, x0
    2378:	d2800040 	mov	x0, #0x2                   	// #2
/home/hei/Desktop/optee-qemu/optee_os/lib/libutee/tee_api.c:372
    237c:	910003fd 	mov	x29, sp
/home/hei/Desktop/optee-qemu/optee_os/lib/libutee/tee_api.c:373
    2380:	97fffcf3 	bl	174c <utee_get_time>
/home/hei/Desktop/optee-qemu/optee_os/lib/libutee/tee_api.c:375
    2384:	34000060 	cbz	w0, 2390 <TEE_GetREETime+0x20>
/home/hei/Desktop/optee-qemu/optee_os/lib/libutee/tee_api.c:377
    2388:	a8c17bfd 	ldp	x29, x30, [sp], #16
/home/hei/Desktop/optee-qemu/optee_os/lib/libutee/tee_api.c:376
    238c:	14000023 	b	2418 <TEE_Panic>
/home/hei/Desktop/optee-qemu/optee_os/lib/libutee/tee_api.c:377
    2390:	a8c17bfd 	ldp	x29, x30, [sp], #16
    2394:	d65f03c0 	ret

0000000000002398 <TEE_Malloc>:
TEE_Malloc():
/home/hei/Desktop/optee-qemu/optee_os/lib/libutee/tee_api.c:381
    2398:	35000081 	cbnz	w1, 23a8 <TEE_Malloc+0x10>
/home/hei/Desktop/optee-qemu/optee_os/lib/libutee/tee_api.c:382
    239c:	2a0003e1 	mov	w1, w0
    23a0:	d2800020 	mov	x0, #0x1                   	// #1
    23a4:	140017d2 	b	82ec <calloc>
/home/hei/Desktop/optee-qemu/optee_os/lib/libutee/tee_api.c:383
    23a8:	52b00002 	mov	w2, #0x80000000            	// #-2147483648
    23ac:	6b02003f 	cmp	w1, w2
    23b0:	54000061 	b.ne	23bc <TEE_Malloc+0x24>  // b.any
/home/hei/Desktop/optee-qemu/optee_os/lib/libutee/tee_api.c:384
    23b4:	2a0003e0 	mov	w0, w0
    23b8:	140017b9 	b	829c <malloc>
/home/hei/Desktop/optee-qemu/optee_os/lib/libutee/tee_api.c:380
    23bc:	a9bf7bfd 	stp	x29, x30, [sp, #-16]!
    23c0:	2a0103e5 	mov	w5, w1
/home/hei/Desktop/optee-qemu/optee_os/lib/libutee/tee_api.c:386
    23c4:	52800023 	mov	w3, #0x1                   	// #1
/home/hei/Desktop/optee-qemu/optee_os/lib/libutee/tee_api.c:380
    23c8:	910003fd 	mov	x29, sp
/home/hei/Desktop/optee-qemu/optee_os/lib/libutee/tee_api.c:386
    23cc:	52800022 	mov	w2, #0x1                   	// #1
    23d0:	52803041 	mov	w1, #0x182                 	// #386
    23d4:	90000044 	adrp	x4, a000 <__text_end+0x1540>
    23d8:	90000040 	adrp	x0, a000 <__text_end+0x1540>
    23dc:	912f4884 	add	x4, x4, #0xbd2
    23e0:	91178c00 	add	x0, x0, #0x5e3
    23e4:	97fff88b 	bl	610 <trace_printf>
/home/hei/Desktop/optee-qemu/optee_os/lib/libutee/tee_api.c:389
    23e8:	d2800000 	mov	x0, #0x0                   	// #0
    23ec:	a8c17bfd 	ldp	x29, x30, [sp], #16
    23f0:	d65f03c0 	ret

00000000000023f4 <TEE_Realloc>:
TEE_Realloc():
/home/hei/Desktop/optee-qemu/optee_os/lib/libutee/tee_api.c:393
    23f4:	2a0103e1 	mov	w1, w1
    23f8:	140017d6 	b	8350 <realloc>

00000000000023fc <TEE_Free>:
TEE_Free():
/home/hei/Desktop/optee-qemu/optee_os/lib/libutee/tee_api.c:398
    23fc:	140017e9 	b	83a0 <free>

0000000000002400 <TEE_CacheClean>:
TEE_CacheClean():
/home/hei/Desktop/optee-qemu/optee_os/lib/libutee/tee_api.c:404
    2400:	d2800002 	mov	x2, #0x0                   	// #0
    2404:	17fffd50 	b	1944 <utee_cache_operation>

0000000000002408 <TEE_CacheFlush>:
TEE_CacheFlush():
/home/hei/Desktop/optee-qemu/optee_os/lib/libutee/tee_api.c:408
    2408:	d2800022 	mov	x2, #0x1                   	// #1
    240c:	17fffd4e 	b	1944 <utee_cache_operation>

0000000000002410 <TEE_CacheInvalidate>:
TEE_CacheInvalidate():
/home/hei/Desktop/optee-qemu/optee_os/lib/libutee/tee_api.c:413
    2410:	d2800042 	mov	x2, #0x2                   	// #2
    2414:	17fffd4c 	b	1944 <utee_cache_operation>

0000000000002418 <TEE_Panic>:
TEE_Panic():
/home/hei/Desktop/optee-qemu/optee_os/lib/libutee/tee_api_panic.c:12
    2418:	2a0003e0 	mov	w0, w0
    241c:	17fffca2 	b	16a4 <utee_panic>

0000000000002420 <invoke_system_pta>:
invoke_system_pta():
/home/hei/Desktop/optee-qemu/optee_os/lib/libutee/tee_system_pta.c:15
    2420:	a9bd7bfd 	stp	x29, x30, [sp, #-48]!
    2424:	910003fd 	mov	x29, sp
    2428:	a90153f3 	stp	x19, x20, [sp, #16]
    242c:	2a0003f4 	mov	w20, w0
/home/hei/Desktop/optee-qemu/optee_os/lib/libutee/tee_system_pta.c:19
    2430:	d0000040 	adrp	x0, c000 <_DYNAMIC>
/home/hei/Desktop/optee-qemu/optee_os/lib/libutee/tee_system_pta.c:15
    2434:	a9025bf5 	stp	x21, x22, [sp, #32]
    2438:	2a0103f5 	mov	w21, w1
    243c:	aa0203f6 	mov	x22, x2
/home/hei/Desktop/optee-qemu/optee_os/lib/libutee/tee_system_pta.c:19
    2440:	f9423c01 	ldr	x1, [x0, #1144]
    2444:	aa0003f3 	mov	x19, x0
    2448:	b4000161 	cbz	x1, 2474 <invoke_system_pta+0x54>
/home/hei/Desktop/optee-qemu/optee_os/lib/libutee/tee_system_pta.c:27
    244c:	aa1603e4 	mov	x4, x22
    2450:	2a1503e3 	mov	w3, w21
    2454:	2a1403e2 	mov	w2, w20
    2458:	d2800005 	mov	x5, #0x0                   	// #0
    245c:	f9423e60 	ldr	x0, [x19, #1144]
    2460:	12800001 	mov	w1, #0xffffffff            	// #-1
/home/hei/Desktop/optee-qemu/optee_os/lib/libutee/tee_system_pta.c:29
    2464:	a94153f3 	ldp	x19, x20, [sp, #16]
    2468:	a9425bf5 	ldp	x21, x22, [sp, #32]
    246c:	a8c37bfd 	ldp	x29, x30, [sp], #48
/home/hei/Desktop/optee-qemu/optee_os/lib/libutee/tee_system_pta.c:27
    2470:	17fffef5 	b	2044 <TEE_InvokeTACommand>
    2474:	9111e004 	add	x4, x0, #0x478
/home/hei/Desktop/optee-qemu/optee_os/lib/libutee/tee_system_pta.c:20
    2478:	d2800005 	mov	x5, #0x0                   	// #0
    247c:	90000040 	adrp	x0, a000 <__text_end+0x1540>
    2480:	d2800003 	mov	x3, #0x0                   	// #0
    2484:	52800002 	mov	w2, #0x0                   	// #0
    2488:	12800001 	mov	w1, #0xffffffff            	// #-1
    248c:	9117c000 	add	x0, x0, #0x5f0
    2490:	97ffff2e 	bl	2148 <TEE_OpenTASession>
/home/hei/Desktop/optee-qemu/optee_os/lib/libutee/tee_system_pta.c:23
    2494:	34fffdc0 	cbz	w0, 244c <invoke_system_pta+0x2c>
/home/hei/Desktop/optee-qemu/optee_os/lib/libutee/tee_system_pta.c:29
    2498:	a94153f3 	ldp	x19, x20, [sp, #16]
    249c:	a9425bf5 	ldp	x21, x22, [sp, #32]
    24a0:	a8c37bfd 	ldp	x29, x30, [sp], #48
    24a4:	d65f03c0 	ret

00000000000024a8 <tee_map_zi>:
tee_map_zi():
/home/hei/Desktop/optee-qemu/optee_os/lib/libutee/tee_system_pta.c:32
    24a8:	a9ba7bfd 	stp	x29, x30, [sp, #-96]!
/home/hei/Desktop/optee-qemu/optee_os/lib/libutee/tee_system_pta.c:37
    24ac:	d2800782 	mov	x2, #0x3c                  	// #60
/home/hei/Desktop/optee-qemu/optee_os/lib/libutee/tee_system_pta.c:32
    24b0:	910003fd 	mov	x29, sp
    24b4:	a90153f3 	stp	x19, x20, [sp, #16]
    24b8:	aa0003f4 	mov	x20, x0
    24bc:	2a0103f3 	mov	w19, w1
/home/hei/Desktop/optee-qemu/optee_os/lib/libutee/tee_system_pta.c:37
    24c0:	910093e0 	add	x0, sp, #0x24
    24c4:	52800001 	mov	w1, #0x0                   	// #0
    24c8:	940018db 	bl	8834 <memset>
/home/hei/Desktop/optee-qemu/optee_os/lib/libutee/tee_system_pta.c:40
    24cc:	b90023f4 	str	w20, [sp, #32]
/home/hei/Desktop/optee-qemu/optee_os/lib/libutee/tee_system_pta.c:41
    24d0:	f2607e9f 	tst	x20, #0xffffffff00000000
    24d4:	54000060 	b.eq	24e0 <tee_map_zi+0x38>  // b.none
/home/hei/Desktop/optee-qemu/optee_os/lib/libutee/tee_system_pta.c:50
    24d8:	d2800000 	mov	x0, #0x0                   	// #0
    24dc:	1400000d 	b	2510 <tee_map_zi+0x68>
/home/hei/Desktop/optee-qemu/optee_os/lib/libutee/tee_system_pta.c:43
    24e0:	340000b3 	cbz	w19, 24f4 <tee_map_zi+0x4c>
    24e4:	7100127f 	cmp	w19, #0x4
    24e8:	54ffff81 	b.ne	24d8 <tee_map_zi+0x30>  // b.any
/home/hei/Desktop/optee-qemu/optee_os/lib/libutee/tee_system_pta.c:47
    24ec:	52800020 	mov	w0, #0x1                   	// #1
    24f0:	b90027e0 	str	w0, [sp, #36]
/home/hei/Desktop/optee-qemu/optee_os/lib/libutee/tee_system_pta.c:53
    24f4:	910083e2 	add	x2, sp, #0x20
    24f8:	52802621 	mov	w1, #0x131                 	// #305
    24fc:	52800040 	mov	w0, #0x2                   	// #2
    2500:	97ffffc8 	bl	2420 <invoke_system_pta>
/home/hei/Desktop/optee-qemu/optee_os/lib/libutee/tee_system_pta.c:54
    2504:	35fffea0 	cbnz	w0, 24d8 <tee_map_zi+0x30>
reg_pair_to_64():
/home/hei/Desktop/optee-qemu/optee_os/lib/libutils/ext/include/util.h:139
    2508:	294607e0 	ldp	w0, w1, [sp, #48]
    250c:	aa008020 	orr	x0, x1, x0, lsl #32
tee_map_zi():
/home/hei/Desktop/optee-qemu/optee_os/lib/libutee/tee_system_pta.c:59
    2510:	a94153f3 	ldp	x19, x20, [sp, #16]
    2514:	a8c67bfd 	ldp	x29, x30, [sp], #96
    2518:	d65f03c0 	ret

000000000000251c <tee_unmap>:
tee_unmap():
/home/hei/Desktop/optee-qemu/optee_os/lib/libutee/tee_system_pta.c:62
    251c:	a9b97bfd 	stp	x29, x30, [sp, #-112]!
/home/hei/Desktop/optee-qemu/optee_os/lib/libutee/tee_system_pta.c:68
    2520:	d2800782 	mov	x2, #0x3c                  	// #60
/home/hei/Desktop/optee-qemu/optee_os/lib/libutee/tee_system_pta.c:62
    2524:	910003fd 	mov	x29, sp
    2528:	a90153f3 	stp	x19, x20, [sp, #16]
    252c:	aa0003f3 	mov	x19, x0
/home/hei/Desktop/optee-qemu/optee_os/lib/libutee/tee_system_pta.c:68
    2530:	9100d3e0 	add	x0, sp, #0x34
/home/hei/Desktop/optee-qemu/optee_os/lib/libutee/tee_system_pta.c:62
    2534:	f90013f5 	str	x21, [sp, #32]
    2538:	aa0103f5 	mov	x21, x1
/home/hei/Desktop/optee-qemu/optee_os/lib/libutee/tee_system_pta.c:68
    253c:	52800001 	mov	w1, #0x0                   	// #0
    2540:	940018bd 	bl	8834 <memset>
reg_pair_from_64():
/home/hei/Desktop/optee-qemu/optee_os/lib/libutils/ext/include/util.h:145
    2544:	d360fe60 	lsr	x0, x19, #32
tee_unmap():
/home/hei/Desktop/optee-qemu/optee_os/lib/libutee/tee_system_pta.c:73
    2548:	9100c3e2 	add	x2, sp, #0x30
    254c:	52800221 	mov	w1, #0x11                  	// #17
/home/hei/Desktop/optee-qemu/optee_os/lib/libutee/tee_system_pta.c:70
    2550:	b90033f5 	str	w21, [sp, #48]
reg_pair_from_64():
/home/hei/Desktop/optee-qemu/optee_os/lib/libutils/ext/include/util.h:146
    2554:	29084fe0 	stp	w0, w19, [sp, #64]
tee_unmap():
/home/hei/Desktop/optee-qemu/optee_os/lib/libutee/tee_system_pta.c:73
    2558:	52800060 	mov	w0, #0x3                   	// #3
    255c:	97ffffb1 	bl	2420 <invoke_system_pta>
    2560:	2a0003f4 	mov	w20, w0
/home/hei/Desktop/optee-qemu/optee_os/lib/libutee/tee_system_pta.c:74
    2564:	34000180 	cbz	w0, 2594 <tee_unmap+0x78>
/home/hei/Desktop/optee-qemu/optee_os/lib/libutee/tee_system_pta.c:75
    2568:	90000040 	adrp	x0, a000 <__text_end+0x1540>
    256c:	9117c000 	add	x0, x0, #0x5f0
    2570:	90000044 	adrp	x4, a000 <__text_end+0x1540>
    2574:	aa1503e6 	mov	x6, x21
    2578:	aa1303e5 	mov	x5, x19
    257c:	912f8c84 	add	x4, x4, #0xbe3
    2580:	52800023 	mov	w3, #0x1                   	// #1
    2584:	52800022 	mov	w2, #0x1                   	// #1
    2588:	52800961 	mov	w1, #0x4b                  	// #75
    258c:	91004000 	add	x0, x0, #0x10
    2590:	97fff820 	bl	610 <trace_printf>
/home/hei/Desktop/optee-qemu/optee_os/lib/libutee/tee_system_pta.c:78
    2594:	2a1403e0 	mov	w0, w20
    2598:	a94153f3 	ldp	x19, x20, [sp, #16]
    259c:	f94013f5 	ldr	x21, [sp, #32]
    25a0:	a8c77bfd 	ldp	x29, x30, [sp], #112
    25a4:	d65f03c0 	ret

00000000000025a8 <api_panic>:
api_panic():
/home/hei/Desktop/optee-qemu/optee_os/lib/libutee/tee_api_arith_mpi.c:19
    25a8:	a9bf7bfd 	stp	x29, x30, [sp, #-16]!
/home/hei/Desktop/optee-qemu/optee_os/lib/libutee/tee_api_arith_mpi.c:20
    25ac:	aa0203e3 	mov	x3, x2
    25b0:	2a0103e2 	mov	w2, w1
    25b4:	aa0003e1 	mov	x1, x0
/home/hei/Desktop/optee-qemu/optee_os/lib/libutee/tee_api_arith_mpi.c:19
    25b8:	910003fd 	mov	x29, sp
/home/hei/Desktop/optee-qemu/optee_os/lib/libutee/tee_api_arith_mpi.c:20
    25bc:	90000040 	adrp	x0, a000 <__text_end+0x1540>
    25c0:	91352800 	add	x0, x0, #0xd4a
    25c4:	97fffbe7 	bl	1560 <printf>
/home/hei/Desktop/optee-qemu/optee_os/lib/libutee/tee_api_arith_mpi.c:21
    25c8:	528c24e0 	mov	w0, #0x6127                	// #24871
    25cc:	72a01620 	movk	w0, #0xb1, lsl #16
    25d0:	97ffff92 	bl	2418 <TEE_Panic>
/home/hei/Desktop/optee-qemu/optee_os/lib/libutee/tee_api_arith_mpi.c:23 (discriminator 1)
    25d4:	14000000 	b	25d4 <api_panic+0x2c>

00000000000025d8 <mpi_panic>:
mpi_panic():
/home/hei/Desktop/optee-qemu/optee_os/lib/libutee/tee_api_arith_mpi.c:29
    25d8:	a9bf7bfd 	stp	x29, x30, [sp, #-16]!
/home/hei/Desktop/optee-qemu/optee_os/lib/libutee/tee_api_arith_mpi.c:30
    25dc:	2a0203e3 	mov	w3, w2
    25e0:	2a0103e2 	mov	w2, w1
    25e4:	aa0003e1 	mov	x1, x0
/home/hei/Desktop/optee-qemu/optee_os/lib/libutee/tee_api_arith_mpi.c:29
    25e8:	910003fd 	mov	x29, sp
/home/hei/Desktop/optee-qemu/optee_os/lib/libutee/tee_api_arith_mpi.c:30
    25ec:	90000040 	adrp	x0, a000 <__text_end+0x1540>
    25f0:	9135a800 	add	x0, x0, #0xd6a
    25f4:	97fffbdb 	bl	1560 <printf>
/home/hei/Desktop/optee-qemu/optee_os/lib/libutee/tee_api_arith_mpi.c:31
    25f8:	528c24e0 	mov	w0, #0x6127                	// #24871
    25fc:	72a01620 	movk	w0, #0xb1, lsl #16
    2600:	97ffff86 	bl	2418 <TEE_Panic>
/home/hei/Desktop/optee-qemu/optee_os/lib/libutee/tee_api_arith_mpi.c:33 (discriminator 1)
    2604:	14000000 	b	2604 <mpi_panic+0x2c>

0000000000002608 <get_mpi>:
get_mpi():
/home/hei/Desktop/optee-qemu/optee_os/lib/libutee/tee_api_arith_mpi.c:86
    2608:	a9bd7bfd 	stp	x29, x30, [sp, #-48]!
    260c:	910003fd 	mov	x29, sp
    2610:	a90153f3 	stp	x19, x20, [sp, #16]
    2614:	aa0103f4 	mov	x20, x1
    2618:	a9025bf5 	stp	x21, x22, [sp, #32]
    261c:	aa0003f5 	mov	x21, x0
/home/hei/Desktop/optee-qemu/optee_os/lib/libutee/tee_api_arith_mpi.c:101
    2620:	9400079d 	bl	4494 <mbedtls_mpi_init_mempool>
/home/hei/Desktop/optee-qemu/optee_os/lib/libutee/tee_api_arith_mpi.c:103
    2624:	b4000374 	cbz	x20, 2690 <get_mpi+0x88>
/home/hei/Desktop/optee-qemu/optee_os/lib/libutee/tee_api_arith_mpi.c:106
    2628:	79400e93 	ldrh	w19, [x20, #6]
/home/hei/Desktop/optee-qemu/optee_os/lib/libutee/tee_api_arith_mpi.c:105
    262c:	91002296 	add	x22, x20, #0x8
/home/hei/Desktop/optee-qemu/optee_os/lib/libutee/tee_api_arith_mpi.c:109
    2630:	91001281 	add	x1, x20, #0x4
    2634:	b4000073 	cbz	x19, 2640 <get_mpi+0x38>
/home/hei/Desktop/optee-qemu/optee_os/lib/libutee/tee_api_arith_mpi.c:109 (discriminator 1)
    2638:	b8737820 	ldr	w0, [x1, x19, lsl #2]
    263c:	34000140 	cbz	w0, 2664 <get_mpi+0x5c>
/home/hei/Desktop/optee-qemu/optee_os/lib/libutee/tee_api_arith_mpi.c:112
    2640:	aa1303e1 	mov	x1, x19
    2644:	aa1503e0 	mov	x0, x21
    2648:	940007b8 	bl	4528 <mbedtls_mpi_grow>
    264c:	34000100 	cbz	w0, 266c <get_mpi+0x64>
/home/hei/Desktop/optee-qemu/optee_os/lib/libutee/tee_api_arith_mpi.c:112 (discriminator 1)
    2650:	2a0003e2 	mov	w2, w0
    2654:	52800e01 	mov	w1, #0x70                  	// #112
    2658:	90000040 	adrp	x0, a000 <__text_end+0x1540>
    265c:	91303400 	add	x0, x0, #0xc0d
    2660:	97ffffde 	bl	25d8 <mpi_panic>
/home/hei/Desktop/optee-qemu/optee_os/lib/libutee/tee_api_arith_mpi.c:110
    2664:	d1000673 	sub	x19, x19, #0x1
    2668:	17fffff3 	b	2634 <get_mpi+0x2c>
/home/hei/Desktop/optee-qemu/optee_os/lib/libutee/tee_api_arith_mpi.c:113
    266c:	b9400280 	ldr	w0, [x20]
/home/hei/Desktop/optee-qemu/optee_os/lib/libutee/tee_api_arith_mpi.c:114
    2670:	d37ef662 	lsl	x2, x19, #2
/home/hei/Desktop/optee-qemu/optee_os/lib/libutee/tee_api_arith_mpi.c:113
    2674:	790002a0 	strh	w0, [x21]
/home/hei/Desktop/optee-qemu/optee_os/lib/libutee/tee_api_arith_mpi.c:114
    2678:	aa1603e1 	mov	x1, x22
/home/hei/Desktop/optee-qemu/optee_os/lib/libutee/tee_api_arith_mpi.c:116
    267c:	a94153f3 	ldp	x19, x20, [sp, #16]
/home/hei/Desktop/optee-qemu/optee_os/lib/libutee/tee_api_arith_mpi.c:114
    2680:	f9400aa0 	ldr	x0, [x21, #16]
/home/hei/Desktop/optee-qemu/optee_os/lib/libutee/tee_api_arith_mpi.c:116
    2684:	a9425bf5 	ldp	x21, x22, [sp, #32]
    2688:	a8c37bfd 	ldp	x29, x30, [sp], #48
/home/hei/Desktop/optee-qemu/optee_os/lib/libutee/tee_api_arith_mpi.c:114
    268c:	17fff721 	b	310 <memcpy>
/home/hei/Desktop/optee-qemu/optee_os/lib/libutee/tee_api_arith_mpi.c:116
    2690:	a94153f3 	ldp	x19, x20, [sp, #16]
    2694:	a9425bf5 	ldp	x21, x22, [sp, #32]
    2698:	a8c37bfd 	ldp	x29, x30, [sp], #48
    269c:	d65f03c0 	ret

00000000000026a0 <copy_mpi_to_bigint>:
copy_mpi_to_bigint():
/home/hei/Desktop/optee-qemu/optee_os/lib/libutee/tee_api_arith_mpi.c:61
    26a0:	aa0103e3 	mov	x3, x1
/home/hei/Desktop/optee-qemu/optee_os/lib/libutee/tee_api_arith_mpi.c:63
    26a4:	a9408402 	ldp	x2, x1, [x0, #8]
    26a8:	aa0203e4 	mov	x4, x2
/home/hei/Desktop/optee-qemu/optee_os/lib/libutee/tee_api_arith_mpi.c:66
    26ac:	b40000e4 	cbz	x4, 26c8 <copy_mpi_to_bigint+0x28>
/home/hei/Desktop/optee-qemu/optee_os/lib/libutee/tee_api_arith_mpi.c:66 (discriminator 1)
    26b0:	8b040825 	add	x5, x1, x4, lsl #2
    26b4:	b85fc0a5 	ldur	w5, [x5, #-4]
    26b8:	340001e5 	cbz	w5, 26f4 <copy_mpi_to_bigint+0x54>
/home/hei/Desktop/optee-qemu/optee_os/lib/libutee/tee_api_arith_mpi.c:69
    26bc:	79400865 	ldrh	w5, [x3, #4]
    26c0:	eb0400bf 	cmp	x5, x4
    26c4:	540001c3 	b.cc	26fc <copy_mpi_to_bigint+0x5c>  // b.lo, b.ul, b.last
/home/hei/Desktop/optee-qemu/optee_os/lib/libutee/tee_api_arith_mpi.c:61
    26c8:	a9bf7bfd 	stp	x29, x30, [sp, #-16]!
/home/hei/Desktop/optee-qemu/optee_os/lib/libutee/tee_api_arith_mpi.c:74
    26cc:	d37ef442 	lsl	x2, x2, #2
/home/hei/Desktop/optee-qemu/optee_os/lib/libutee/tee_api_arith_mpi.c:61
    26d0:	910003fd 	mov	x29, sp
/home/hei/Desktop/optee-qemu/optee_os/lib/libutee/tee_api_arith_mpi.c:72
    26d4:	79000c64 	strh	w4, [x3, #6]
/home/hei/Desktop/optee-qemu/optee_os/lib/libutee/tee_api_arith_mpi.c:73
    26d8:	79c00004 	ldrsh	w4, [x0]
    26dc:	aa0303e0 	mov	x0, x3
    26e0:	b8008404 	str	w4, [x0], #8
/home/hei/Desktop/optee-qemu/optee_os/lib/libutee/tee_api_arith_mpi.c:74
    26e4:	97fff70b 	bl	310 <memcpy>
/home/hei/Desktop/optee-qemu/optee_os/lib/libutee/tee_api_arith_mpi.c:76
    26e8:	52800000 	mov	w0, #0x0                   	// #0
/home/hei/Desktop/optee-qemu/optee_os/lib/libutee/tee_api_arith_mpi.c:77
    26ec:	a8c17bfd 	ldp	x29, x30, [sp], #16
    26f0:	d65f03c0 	ret
/home/hei/Desktop/optee-qemu/optee_os/lib/libutee/tee_api_arith_mpi.c:67
    26f4:	d1000484 	sub	x4, x4, #0x1
    26f8:	17ffffed 	b	26ac <copy_mpi_to_bigint+0xc>
/home/hei/Desktop/optee-qemu/optee_os/lib/libutee/tee_api_arith_mpi.c:70
    26fc:	1299fe00 	mov	w0, #0xffff300f            	// #-53233
/home/hei/Desktop/optee-qemu/optee_os/lib/libutee/tee_api_arith_mpi.c:77
    2700:	d65f03c0 	ret

0000000000002704 <bigint_binary>:
bigint_binary():
/home/hei/Desktop/optee-qemu/optee_os/lib/libutee/tee_api_arith_mpi.c:321
    2704:	a9b67bfd 	stp	x29, x30, [sp, #-160]!
    2708:	910003fd 	mov	x29, sp
    270c:	a90153f3 	stp	x19, x20, [sp, #16]
/home/hei/Desktop/optee-qemu/optee_os/lib/libutee/tee_api_arith_mpi.c:328
    2710:	910163f3 	add	x19, sp, #0x58
/home/hei/Desktop/optee-qemu/optee_os/lib/libutee/tee_api_arith_mpi.c:321
    2714:	aa0203f4 	mov	x20, x2
    2718:	a9025bf5 	stp	x21, x22, [sp, #32]
    271c:	aa0003f6 	mov	x22, x0
    2720:	a90363f7 	stp	x23, x24, [sp, #48]
    2724:	9101c3f8 	add	x24, sp, #0x70
    2728:	a9046bf9 	stp	x25, x26, [sp, #64]
    272c:	aa0103f9 	mov	x25, x1
    2730:	aa0303fa 	mov	x26, x3
/home/hei/Desktop/optee-qemu/optee_os/lib/libutee/tee_api_arith_mpi.c:328
    2734:	aa0003e1 	mov	x1, x0
    2738:	aa1303e0 	mov	x0, x19
    273c:	97ffffb3 	bl	2608 <get_mpi>
/home/hei/Desktop/optee-qemu/optee_os/lib/libutee/tee_api_arith_mpi.c:330
    2740:	eb1902df 	cmp	x22, x25
    2744:	54000320 	b.eq	27a8 <bigint_binary+0xa4>  // b.none
/home/hei/Desktop/optee-qemu/optee_os/lib/libutee/tee_api_arith_mpi.c:325
    2748:	aa1803f5 	mov	x21, x24
/home/hei/Desktop/optee-qemu/optee_os/lib/libutee/tee_api_arith_mpi.c:333
    274c:	aa1903e1 	mov	x1, x25
    2750:	aa1803e0 	mov	x0, x24
    2754:	97ffffad 	bl	2608 <get_mpi>
/home/hei/Desktop/optee-qemu/optee_os/lib/libutee/tee_api_arith_mpi.c:335
    2758:	eb1402df 	cmp	x22, x20
    275c:	910223f7 	add	x23, sp, #0x88
    2760:	54000280 	b.eq	27b0 <bigint_binary+0xac>  // b.none
/home/hei/Desktop/optee-qemu/optee_os/lib/libutee/tee_api_arith_mpi.c:337
    2764:	eb14033f 	cmp	x25, x20
    2768:	54000280 	b.eq	27b8 <bigint_binary+0xb4>  // b.none
/home/hei/Desktop/optee-qemu/optee_os/lib/libutee/tee_api_arith_mpi.c:340
    276c:	aa1403e1 	mov	x1, x20
/home/hei/Desktop/optee-qemu/optee_os/lib/libutee/tee_api_arith_mpi.c:326
    2770:	aa1703f4 	mov	x20, x23
/home/hei/Desktop/optee-qemu/optee_os/lib/libutee/tee_api_arith_mpi.c:340
    2774:	aa1703e0 	mov	x0, x23
    2778:	97ffffa4 	bl	2608 <get_mpi>
/home/hei/Desktop/optee-qemu/optee_os/lib/libutee/tee_api_arith_mpi.c:342
    277c:	aa1403e2 	mov	x2, x20
    2780:	aa1503e1 	mov	x1, x21
    2784:	aa1303e0 	mov	x0, x19
    2788:	d63f0340 	blr	x26
    278c:	340001a0 	cbz	w0, 27c0 <bigint_binary+0xbc>
/home/hei/Desktop/optee-qemu/optee_os/lib/libutee/tee_api_arith_mpi.c:342 (discriminator 1)
    2790:	2a0003e2 	mov	w2, w0
    2794:	52802ac1 	mov	w1, #0x156                 	// #342
/home/hei/Desktop/optee-qemu/optee_os/lib/libutee/tee_api_arith_mpi.c:344 (discriminator 1)
    2798:	90000040 	adrp	x0, a000 <__text_end+0x1540>
    279c:	91303400 	add	x0, x0, #0xc0d
    27a0:	91002000 	add	x0, x0, #0x8
    27a4:	97ffff8d 	bl	25d8 <mpi_panic>
/home/hei/Desktop/optee-qemu/optee_os/lib/libutee/tee_api_arith_mpi.c:331
    27a8:	aa1303f5 	mov	x21, x19
    27ac:	17ffffeb 	b	2758 <bigint_binary+0x54>
/home/hei/Desktop/optee-qemu/optee_os/lib/libutee/tee_api_arith_mpi.c:336
    27b0:	aa1303f4 	mov	x20, x19
    27b4:	17fffff2 	b	277c <bigint_binary+0x78>
/home/hei/Desktop/optee-qemu/optee_os/lib/libutee/tee_api_arith_mpi.c:338
    27b8:	aa1503f4 	mov	x20, x21
    27bc:	17fffff0 	b	277c <bigint_binary+0x78>
/home/hei/Desktop/optee-qemu/optee_os/lib/libutee/tee_api_arith_mpi.c:344
    27c0:	aa1603e1 	mov	x1, x22
    27c4:	aa1303e0 	mov	x0, x19
    27c8:	97ffffb6 	bl	26a0 <copy_mpi_to_bigint>
    27cc:	34000080 	cbz	w0, 27dc <bigint_binary+0xd8>
/home/hei/Desktop/optee-qemu/optee_os/lib/libutee/tee_api_arith_mpi.c:344 (discriminator 1)
    27d0:	2a0003e2 	mov	w2, w0
    27d4:	52802b01 	mov	w1, #0x158                 	// #344
    27d8:	17fffff0 	b	2798 <bigint_binary+0x94>
/home/hei/Desktop/optee-qemu/optee_os/lib/libutee/tee_api_arith_mpi.c:345
    27dc:	aa1303e0 	mov	x0, x19
    27e0:	94000737 	bl	44bc <mbedtls_mpi_free>
/home/hei/Desktop/optee-qemu/optee_os/lib/libutee/tee_api_arith_mpi.c:346
    27e4:	eb1802bf 	cmp	x21, x24
    27e8:	54000061 	b.ne	27f4 <bigint_binary+0xf0>  // b.any
/home/hei/Desktop/optee-qemu/optee_os/lib/libutee/tee_api_arith_mpi.c:347
    27ec:	aa1503e0 	mov	x0, x21
    27f0:	94000733 	bl	44bc <mbedtls_mpi_free>
/home/hei/Desktop/optee-qemu/optee_os/lib/libutee/tee_api_arith_mpi.c:348
    27f4:	eb17029f 	cmp	x20, x23
    27f8:	54000061 	b.ne	2804 <bigint_binary+0x100>  // b.any
/home/hei/Desktop/optee-qemu/optee_os/lib/libutee/tee_api_arith_mpi.c:349
    27fc:	aa1403e0 	mov	x0, x20
    2800:	9400072f 	bl	44bc <mbedtls_mpi_free>
/home/hei/Desktop/optee-qemu/optee_os/lib/libutee/tee_api_arith_mpi.c:350
    2804:	a94153f3 	ldp	x19, x20, [sp, #16]
    2808:	a9425bf5 	ldp	x21, x22, [sp, #32]
    280c:	a94363f7 	ldp	x23, x24, [sp, #48]
    2810:	a9446bf9 	ldp	x25, x26, [sp, #64]
    2814:	a8ca7bfd 	ldp	x29, x30, [sp], #160
    2818:	d65f03c0 	ret

000000000000281c <mpi_is_odd>:
mpi_is_odd():
/home/hei/Desktop/optee-qemu/optee_os/lib/libutee/tee_api_arith_mpi.c:590
    281c:	a9bf7bfd 	stp	x29, x30, [sp, #-16]!
/home/hei/Desktop/optee-qemu/optee_os/lib/libutee/tee_api_arith_mpi.c:591
    2820:	d2800001 	mov	x1, #0x0                   	// #0
/home/hei/Desktop/optee-qemu/optee_os/lib/libutee/tee_api_arith_mpi.c:590
    2824:	910003fd 	mov	x29, sp
/home/hei/Desktop/optee-qemu/optee_os/lib/libutee/tee_api_arith_mpi.c:591
    2828:	9400088e 	bl	4a60 <mbedtls_mpi_get_bit>
    282c:	7100001f 	cmp	w0, #0x0
/home/hei/Desktop/optee-qemu/optee_os/lib/libutee/tee_api_arith_mpi.c:592
    2830:	1a9f07e0 	cset	w0, ne  // ne = any
    2834:	a8c17bfd 	ldp	x29, x30, [sp], #16
    2838:	d65f03c0 	ret

000000000000283c <rng_read>:
rng_read():
/home/hei/Desktop/optee-qemu/optee_os/lib/libutee/tee_api_arith_mpi.c:757
    283c:	a9bf7bfd 	stp	x29, x30, [sp, #-16]!
    2840:	aa0103e0 	mov	x0, x1
/home/hei/Desktop/optee-qemu/optee_os/lib/libutee/tee_api_arith_mpi.c:758
    2844:	aa0203e1 	mov	x1, x2
/home/hei/Desktop/optee-qemu/optee_os/lib/libutee/tee_api_arith_mpi.c:757
    2848:	910003fd 	mov	x29, sp
/home/hei/Desktop/optee-qemu/optee_os/lib/libutee/tee_api_arith_mpi.c:758
    284c:	97fffbfc 	bl	183c <utee_cryp_random_number_generate>
/home/hei/Desktop/optee-qemu/optee_os/lib/libutee/tee_api_arith_mpi.c:759
    2850:	7100001f 	cmp	w0, #0x0
/home/hei/Desktop/optee-qemu/optee_os/lib/libutee/tee_api_arith_mpi.c:761
    2854:	a8c17bfd 	ldp	x29, x30, [sp], #16
    2858:	12800020 	mov	w0, #0xfffffffe            	// #-2
    285c:	1a9f1000 	csel	w0, w0, wzr, ne  // ne = any
    2860:	d65f03c0 	ret

0000000000002864 <mpi_egcd>:
mpi_egcd():
/home/hei/Desktop/optee-qemu/optee_os/lib/libutee/tee_api_arith_mpi.c:605
    2864:	a9ae7bfd 	stp	x29, x30, [sp, #-288]!
    2868:	910003fd 	mov	x29, sp
    286c:	6d0627e8 	stp	d8, d9, [sp, #96]
    2870:	9e670028 	fmov	d8, x1
    2874:	9e670069 	fmov	d9, x3
    2878:	a90363f7 	stp	x23, x24, [sp, #48]
get_mpi():
/home/hei/Desktop/optee-qemu/optee_os/lib/libutee/tee_api_arith_mpi.c:101
    287c:	9101e3f7 	add	x23, sp, #0x78
mpi_egcd():
/home/hei/Desktop/optee-qemu/optee_os/lib/libutee/tee_api_arith_mpi.c:605
    2880:	aa0003f8 	mov	x24, x0
get_mpi():
/home/hei/Desktop/optee-qemu/optee_os/lib/libutee/tee_api_arith_mpi.c:101
    2884:	aa1703e0 	mov	x0, x23
mpi_egcd():
/home/hei/Desktop/optee-qemu/optee_os/lib/libutee/tee_api_arith_mpi.c:605
    2888:	a90153f3 	stp	x19, x20, [sp, #16]
get_mpi():
/home/hei/Desktop/optee-qemu/optee_os/lib/libutee/tee_api_arith_mpi.c:101
    288c:	9102a3f4 	add	x20, sp, #0xa8
mpi_egcd():
/home/hei/Desktop/optee-qemu/optee_os/lib/libutee/tee_api_arith_mpi.c:605
    2890:	a9025bf5 	stp	x21, x22, [sp, #32]
get_mpi():
/home/hei/Desktop/optee-qemu/optee_os/lib/libutee/tee_api_arith_mpi.c:101
    2894:	910243f6 	add	x22, sp, #0x90
    2898:	910303f3 	add	x19, sp, #0xc0
mpi_egcd():
/home/hei/Desktop/optee-qemu/optee_os/lib/libutee/tee_api_arith_mpi.c:605
    289c:	a9046bf9 	stp	x25, x26, [sp, #64]
get_mpi():
/home/hei/Desktop/optee-qemu/optee_os/lib/libutee/tee_api_arith_mpi.c:101
    28a0:	910363fa 	add	x26, sp, #0xd8
    28a4:	9103c3f9 	add	x25, sp, #0xf0
mpi_egcd():
/home/hei/Desktop/optee-qemu/optee_os/lib/libutee/tee_api_arith_mpi.c:605
    28a8:	a90573fb 	stp	x27, x28, [sp, #80]
    28ac:	aa0403fb 	mov	x27, x4
    28b0:	aa0203fc 	mov	x28, x2
get_mpi():
/home/hei/Desktop/optee-qemu/optee_os/lib/libutee/tee_api_arith_mpi.c:101
    28b4:	940006f8 	bl	4494 <mbedtls_mpi_init_mempool>
    28b8:	910423f5 	add	x21, sp, #0x108
    28bc:	aa1603e0 	mov	x0, x22
    28c0:	940006f5 	bl	4494 <mbedtls_mpi_init_mempool>
    28c4:	aa1403e0 	mov	x0, x20
    28c8:	940006f3 	bl	4494 <mbedtls_mpi_init_mempool>
    28cc:	aa1303e0 	mov	x0, x19
    28d0:	940006f1 	bl	4494 <mbedtls_mpi_init_mempool>
    28d4:	aa1a03e0 	mov	x0, x26
    28d8:	940006ef 	bl	4494 <mbedtls_mpi_init_mempool>
    28dc:	aa1903e0 	mov	x0, x25
    28e0:	940006ed 	bl	4494 <mbedtls_mpi_init_mempool>
    28e4:	aa1503e0 	mov	x0, x21
    28e8:	940006eb 	bl	4494 <mbedtls_mpi_init_mempool>
mpi_egcd():
/home/hei/Desktop/optee-qemu/optee_os/lib/libutee/tee_api_arith_mpi.c:624
    28ec:	52800001 	mov	w1, #0x0                   	// #0
    28f0:	aa1b03e0 	mov	x0, x27
    28f4:	940009ea 	bl	509c <mbedtls_mpi_cmp_int>
    28f8:	35000320 	cbnz	w0, 295c <mpi_egcd+0xf8>
/home/hei/Desktop/optee-qemu/optee_os/lib/libutee/tee_api_arith_mpi.c:625
    28fc:	9e660100 	fmov	x0, d8
    2900:	52800021 	mov	w1, #0x1                   	// #1
    2904:	9400083d 	bl	49f8 <mbedtls_mpi_lset>
    2908:	340000e0 	cbz	w0, 2924 <mpi_egcd+0xc0>
/home/hei/Desktop/optee-qemu/optee_os/lib/libutee/tee_api_arith_mpi.c:625 (discriminator 1)
    290c:	2a0003e2 	mov	w2, w0
    2910:	52804e21 	mov	w1, #0x271                 	// #625
/home/hei/Desktop/optee-qemu/optee_os/lib/libutee/tee_api_arith_mpi.c:626 (discriminator 1)
    2914:	90000040 	adrp	x0, a000 <__text_end+0x1540>
    2918:	91303400 	add	x0, x0, #0xc0d
    291c:	91005800 	add	x0, x0, #0x16
    2920:	97ffff2e 	bl	25d8 <mpi_panic>
/home/hei/Desktop/optee-qemu/optee_os/lib/libutee/tee_api_arith_mpi.c:626
    2924:	52800001 	mov	w1, #0x0                   	// #0
    2928:	aa1c03e0 	mov	x0, x28
    292c:	94000833 	bl	49f8 <mbedtls_mpi_lset>
    2930:	34000080 	cbz	w0, 2940 <mpi_egcd+0xdc>
/home/hei/Desktop/optee-qemu/optee_os/lib/libutee/tee_api_arith_mpi.c:626 (discriminator 1)
    2934:	2a0003e2 	mov	w2, w0
    2938:	52804e41 	mov	w1, #0x272                 	// #626
    293c:	17fffff6 	b	2914 <mpi_egcd+0xb0>
/home/hei/Desktop/optee-qemu/optee_os/lib/libutee/tee_api_arith_mpi.c:627
    2940:	9e660121 	fmov	x1, d9
    2944:	aa1803e0 	mov	x0, x24
    2948:	9400077e 	bl	4740 <mbedtls_mpi_copy>
    294c:	34002060 	cbz	w0, 2d58 <mpi_egcd+0x4f4>
/home/hei/Desktop/optee-qemu/optee_os/lib/libutee/tee_api_arith_mpi.c:627 (discriminator 1)
    2950:	2a0003e2 	mov	w2, w0
    2954:	52804e61 	mov	w1, #0x273                 	// #627
    2958:	17ffffef 	b	2914 <mpi_egcd+0xb0>
/home/hei/Desktop/optee-qemu/optee_os/lib/libutee/tee_api_arith_mpi.c:631
    295c:	9e660121 	fmov	x1, d9
    2960:	aa1a03e0 	mov	x0, x26
    2964:	94000777 	bl	4740 <mbedtls_mpi_copy>
    2968:	34000080 	cbz	w0, 2978 <mpi_egcd+0x114>
/home/hei/Desktop/optee-qemu/optee_os/lib/libutee/tee_api_arith_mpi.c:631 (discriminator 1)
    296c:	2a0003e2 	mov	w2, w0
    2970:	52804ee1 	mov	w1, #0x277                 	// #631
    2974:	17ffffe8 	b	2914 <mpi_egcd+0xb0>
/home/hei/Desktop/optee-qemu/optee_os/lib/libutee/tee_api_arith_mpi.c:632
    2978:	aa1b03e1 	mov	x1, x27
    297c:	aa1903e0 	mov	x0, x25
/home/hei/Desktop/optee-qemu/optee_os/lib/libutee/tee_api_arith_mpi.c:634
    2980:	5280001b 	mov	w27, #0x0                   	// #0
/home/hei/Desktop/optee-qemu/optee_os/lib/libutee/tee_api_arith_mpi.c:632
    2984:	9400076f 	bl	4740 <mbedtls_mpi_copy>
    2988:	34000160 	cbz	w0, 29b4 <mpi_egcd+0x150>
/home/hei/Desktop/optee-qemu/optee_os/lib/libutee/tee_api_arith_mpi.c:632 (discriminator 1)
    298c:	2a0003e2 	mov	w2, w0
    2990:	52804f01 	mov	w1, #0x278                 	// #632
    2994:	17ffffe0 	b	2914 <mpi_egcd+0xb0>
/home/hei/Desktop/optee-qemu/optee_os/lib/libutee/tee_api_arith_mpi.c:638
    2998:	d2800021 	mov	x1, #0x1                   	// #1
    299c:	aa1903e0 	mov	x0, x25
    29a0:	94000930 	bl	4e60 <mbedtls_mpi_shift_r>
    29a4:	34000080 	cbz	w0, 29b4 <mpi_egcd+0x150>
/home/hei/Desktop/optee-qemu/optee_os/lib/libutee/tee_api_arith_mpi.c:638 (discriminator 1)
    29a8:	2a0003e2 	mov	w2, w0
    29ac:	52804fc1 	mov	w1, #0x27e                 	// #638
    29b0:	17ffffd9 	b	2914 <mpi_egcd+0xb0>
mpi_is_even():
/home/hei/Desktop/optee-qemu/optee_os/lib/libutee/tee_api_arith_mpi.c:596
    29b4:	aa1a03e0 	mov	x0, x26
    29b8:	97ffff99 	bl	281c <mpi_is_odd>
mpi_egcd():
/home/hei/Desktop/optee-qemu/optee_os/lib/libutee/tee_api_arith_mpi.c:635
    29bc:	72001c1f 	tst	w0, #0xff
    29c0:	54000100 	b.eq	29e0 <mpi_egcd+0x17c>  // b.none
/home/hei/Desktop/optee-qemu/optee_os/lib/libutee/tee_api_arith_mpi.c:641
    29c4:	aa1a03e1 	mov	x1, x26
    29c8:	aa1503e0 	mov	x0, x21
    29cc:	9400075d 	bl	4740 <mbedtls_mpi_copy>
    29d0:	34000200 	cbz	w0, 2a10 <mpi_egcd+0x1ac>
/home/hei/Desktop/optee-qemu/optee_os/lib/libutee/tee_api_arith_mpi.c:641 (discriminator 1)
    29d4:	2a0003e2 	mov	w2, w0
    29d8:	52805021 	mov	w1, #0x281                 	// #641
    29dc:	17ffffce 	b	2914 <mpi_egcd+0xb0>
mpi_is_even():
/home/hei/Desktop/optee-qemu/optee_os/lib/libutee/tee_api_arith_mpi.c:596
    29e0:	aa1903e0 	mov	x0, x25
    29e4:	97ffff8e 	bl	281c <mpi_is_odd>
mpi_egcd():
/home/hei/Desktop/optee-qemu/optee_os/lib/libutee/tee_api_arith_mpi.c:635
    29e8:	72001c1f 	tst	w0, #0xff
    29ec:	54fffec1 	b.ne	29c4 <mpi_egcd+0x160>  // b.any
/home/hei/Desktop/optee-qemu/optee_os/lib/libutee/tee_api_arith_mpi.c:636
    29f0:	1100077b 	add	w27, w27, #0x1
/home/hei/Desktop/optee-qemu/optee_os/lib/libutee/tee_api_arith_mpi.c:637
    29f4:	d2800021 	mov	x1, #0x1                   	// #1
    29f8:	aa1a03e0 	mov	x0, x26
    29fc:	94000919 	bl	4e60 <mbedtls_mpi_shift_r>
    2a00:	34fffcc0 	cbz	w0, 2998 <mpi_egcd+0x134>
/home/hei/Desktop/optee-qemu/optee_os/lib/libutee/tee_api_arith_mpi.c:637 (discriminator 1)
    2a04:	2a0003e2 	mov	w2, w0
    2a08:	52804fa1 	mov	w1, #0x27d                 	// #637
    2a0c:	17ffffc2 	b	2914 <mpi_egcd+0xb0>
/home/hei/Desktop/optee-qemu/optee_os/lib/libutee/tee_api_arith_mpi.c:642
    2a10:	aa1903e1 	mov	x1, x25
    2a14:	aa1803e0 	mov	x0, x24
    2a18:	9400074a 	bl	4740 <mbedtls_mpi_copy>
    2a1c:	34000080 	cbz	w0, 2a2c <mpi_egcd+0x1c8>
/home/hei/Desktop/optee-qemu/optee_os/lib/libutee/tee_api_arith_mpi.c:642 (discriminator 1)
    2a20:	2a0003e2 	mov	w2, w0
    2a24:	52805041 	mov	w1, #0x282                 	// #642
    2a28:	17ffffbb 	b	2914 <mpi_egcd+0xb0>
/home/hei/Desktop/optee-qemu/optee_os/lib/libutee/tee_api_arith_mpi.c:643
    2a2c:	52800021 	mov	w1, #0x1                   	// #1
    2a30:	aa1703e0 	mov	x0, x23
    2a34:	940007f1 	bl	49f8 <mbedtls_mpi_lset>
    2a38:	34000080 	cbz	w0, 2a48 <mpi_egcd+0x1e4>
/home/hei/Desktop/optee-qemu/optee_os/lib/libutee/tee_api_arith_mpi.c:643 (discriminator 1)
    2a3c:	2a0003e2 	mov	w2, w0
    2a40:	52805061 	mov	w1, #0x283                 	// #643
    2a44:	17ffffb4 	b	2914 <mpi_egcd+0xb0>
/home/hei/Desktop/optee-qemu/optee_os/lib/libutee/tee_api_arith_mpi.c:644
    2a48:	52800001 	mov	w1, #0x0                   	// #0
    2a4c:	aa1603e0 	mov	x0, x22
    2a50:	940007ea 	bl	49f8 <mbedtls_mpi_lset>
    2a54:	34000080 	cbz	w0, 2a64 <mpi_egcd+0x200>
/home/hei/Desktop/optee-qemu/optee_os/lib/libutee/tee_api_arith_mpi.c:644 (discriminator 1)
    2a58:	2a0003e2 	mov	w2, w0
    2a5c:	52805081 	mov	w1, #0x284                 	// #644
    2a60:	17ffffad 	b	2914 <mpi_egcd+0xb0>
/home/hei/Desktop/optee-qemu/optee_os/lib/libutee/tee_api_arith_mpi.c:645
    2a64:	52800001 	mov	w1, #0x0                   	// #0
    2a68:	aa1403e0 	mov	x0, x20
    2a6c:	940007e3 	bl	49f8 <mbedtls_mpi_lset>
    2a70:	34000080 	cbz	w0, 2a80 <mpi_egcd+0x21c>
/home/hei/Desktop/optee-qemu/optee_os/lib/libutee/tee_api_arith_mpi.c:645 (discriminator 1)
    2a74:	2a0003e2 	mov	w2, w0
    2a78:	528050a1 	mov	w1, #0x285                 	// #645
    2a7c:	17ffffa6 	b	2914 <mpi_egcd+0xb0>
/home/hei/Desktop/optee-qemu/optee_os/lib/libutee/tee_api_arith_mpi.c:646
    2a80:	52800021 	mov	w1, #0x1                   	// #1
    2a84:	aa1303e0 	mov	x0, x19
    2a88:	940007dc 	bl	49f8 <mbedtls_mpi_lset>
    2a8c:	34001340 	cbz	w0, 2cf4 <mpi_egcd+0x490>
/home/hei/Desktop/optee-qemu/optee_os/lib/libutee/tee_api_arith_mpi.c:646 (discriminator 1)
    2a90:	2a0003e2 	mov	w2, w0
    2a94:	528050c1 	mov	w1, #0x286                 	// #646
    2a98:	17ffff9f 	b	2914 <mpi_egcd+0xb0>
/home/hei/Desktop/optee-qemu/optee_os/lib/libutee/tee_api_arith_mpi.c:650
    2a9c:	d2800021 	mov	x1, #0x1                   	// #1
    2aa0:	aa1503e0 	mov	x0, x21
    2aa4:	940008ef 	bl	4e60 <mbedtls_mpi_shift_r>
    2aa8:	34000080 	cbz	w0, 2ab8 <mpi_egcd+0x254>
/home/hei/Desktop/optee-qemu/optee_os/lib/libutee/tee_api_arith_mpi.c:650 (discriminator 1)
    2aac:	2a0003e2 	mov	w2, w0
    2ab0:	52805141 	mov	w1, #0x28a                 	// #650
    2ab4:	17ffff98 	b	2914 <mpi_egcd+0xb0>
/home/hei/Desktop/optee-qemu/optee_os/lib/libutee/tee_api_arith_mpi.c:651
    2ab8:	aa1703e0 	mov	x0, x23
    2abc:	97ffff58 	bl	281c <mpi_is_odd>
    2ac0:	72001c1f 	tst	w0, #0xff
    2ac4:	54000120 	b.eq	2ae8 <mpi_egcd+0x284>  // b.none
/home/hei/Desktop/optee-qemu/optee_os/lib/libutee/tee_api_arith_mpi.c:652
    2ac8:	aa1903e2 	mov	x2, x25
    2acc:	aa1703e1 	mov	x1, x23
    2ad0:	aa1703e0 	mov	x0, x23
    2ad4:	94000a02 	bl	52dc <mbedtls_mpi_add_mpi>
    2ad8:	340001e0 	cbz	w0, 2b14 <mpi_egcd+0x2b0>
/home/hei/Desktop/optee-qemu/optee_os/lib/libutee/tee_api_arith_mpi.c:652 (discriminator 1)
    2adc:	2a0003e2 	mov	w2, w0
    2ae0:	52805181 	mov	w1, #0x28c                 	// #652
    2ae4:	17ffff8c 	b	2914 <mpi_egcd+0xb0>
/home/hei/Desktop/optee-qemu/optee_os/lib/libutee/tee_api_arith_mpi.c:651 (discriminator 1)
    2ae8:	aa1603e0 	mov	x0, x22
    2aec:	97ffff4c 	bl	281c <mpi_is_odd>
    2af0:	72001c1f 	tst	w0, #0xff
    2af4:	54fffea1 	b.ne	2ac8 <mpi_egcd+0x264>  // b.any
/home/hei/Desktop/optee-qemu/optee_os/lib/libutee/tee_api_arith_mpi.c:655
    2af8:	d2800021 	mov	x1, #0x1                   	// #1
    2afc:	aa1703e0 	mov	x0, x23
    2b00:	940008d8 	bl	4e60 <mbedtls_mpi_shift_r>
    2b04:	34000180 	cbz	w0, 2b34 <mpi_egcd+0x2d0>
/home/hei/Desktop/optee-qemu/optee_os/lib/libutee/tee_api_arith_mpi.c:655 (discriminator 1)
    2b08:	2a0003e2 	mov	w2, w0
    2b0c:	528051e1 	mov	w1, #0x28f                 	// #655
    2b10:	17ffff81 	b	2914 <mpi_egcd+0xb0>
/home/hei/Desktop/optee-qemu/optee_os/lib/libutee/tee_api_arith_mpi.c:653
    2b14:	aa1a03e2 	mov	x2, x26
    2b18:	aa1603e1 	mov	x1, x22
    2b1c:	aa1603e0 	mov	x0, x22
    2b20:	94000a11 	bl	5364 <mbedtls_mpi_sub_mpi>
    2b24:	34fffea0 	cbz	w0, 2af8 <mpi_egcd+0x294>
/home/hei/Desktop/optee-qemu/optee_os/lib/libutee/tee_api_arith_mpi.c:653 (discriminator 1)
    2b28:	2a0003e2 	mov	w2, w0
    2b2c:	528051a1 	mov	w1, #0x28d                 	// #653
    2b30:	17ffff79 	b	2914 <mpi_egcd+0xb0>
/home/hei/Desktop/optee-qemu/optee_os/lib/libutee/tee_api_arith_mpi.c:656
    2b34:	d2800021 	mov	x1, #0x1                   	// #1
    2b38:	aa1603e0 	mov	x0, x22
    2b3c:	940008c9 	bl	4e60 <mbedtls_mpi_shift_r>
    2b40:	34000080 	cbz	w0, 2b50 <mpi_egcd+0x2ec>
/home/hei/Desktop/optee-qemu/optee_os/lib/libutee/tee_api_arith_mpi.c:656 (discriminator 1)
    2b44:	2a0003e2 	mov	w2, w0
    2b48:	52805201 	mov	w1, #0x290                 	// #656
    2b4c:	17ffff72 	b	2914 <mpi_egcd+0xb0>
mpi_is_even():
/home/hei/Desktop/optee-qemu/optee_os/lib/libutee/tee_api_arith_mpi.c:596
    2b50:	aa1503e0 	mov	x0, x21
    2b54:	97ffff32 	bl	281c <mpi_is_odd>
mpi_egcd():
/home/hei/Desktop/optee-qemu/optee_os/lib/libutee/tee_api_arith_mpi.c:649
    2b58:	72001c1f 	tst	w0, #0xff
    2b5c:	54fffa00 	b.eq	2a9c <mpi_egcd+0x238>  // b.none
mpi_is_even():
/home/hei/Desktop/optee-qemu/optee_os/lib/libutee/tee_api_arith_mpi.c:596
    2b60:	aa1803e0 	mov	x0, x24
    2b64:	97ffff2e 	bl	281c <mpi_is_odd>
mpi_egcd():
/home/hei/Desktop/optee-qemu/optee_os/lib/libutee/tee_api_arith_mpi.c:659
    2b68:	72001c1f 	tst	w0, #0xff
    2b6c:	540001a0 	b.eq	2ba0 <mpi_egcd+0x33c>  // b.none
/home/hei/Desktop/optee-qemu/optee_os/lib/libutee/tee_api_arith_mpi.c:670
    2b70:	aa1803e1 	mov	x1, x24
    2b74:	aa1503e0 	mov	x0, x21
    2b78:	94000913 	bl	4fc4 <mbedtls_mpi_cmp_mpi>
    2b7c:	37f808c0 	tbnz	w0, #31, 2c94 <mpi_egcd+0x430>
/home/hei/Desktop/optee-qemu/optee_os/lib/libutee/tee_api_arith_mpi.c:671
    2b80:	aa1803e2 	mov	x2, x24
    2b84:	aa1503e1 	mov	x1, x21
    2b88:	aa1503e0 	mov	x0, x21
    2b8c:	940009f6 	bl	5364 <mbedtls_mpi_sub_mpi>
    2b90:	34000620 	cbz	w0, 2c54 <mpi_egcd+0x3f0>
/home/hei/Desktop/optee-qemu/optee_os/lib/libutee/tee_api_arith_mpi.c:671 (discriminator 1)
    2b94:	2a0003e2 	mov	w2, w0
    2b98:	528053e1 	mov	w1, #0x29f                 	// #671
    2b9c:	17ffff5e 	b	2914 <mpi_egcd+0xb0>
/home/hei/Desktop/optee-qemu/optee_os/lib/libutee/tee_api_arith_mpi.c:660
    2ba0:	d2800021 	mov	x1, #0x1                   	// #1
    2ba4:	aa1803e0 	mov	x0, x24
    2ba8:	940008ae 	bl	4e60 <mbedtls_mpi_shift_r>
    2bac:	34000080 	cbz	w0, 2bbc <mpi_egcd+0x358>
/home/hei/Desktop/optee-qemu/optee_os/lib/libutee/tee_api_arith_mpi.c:660 (discriminator 1)
    2bb0:	2a0003e2 	mov	w2, w0
    2bb4:	52805281 	mov	w1, #0x294                 	// #660
    2bb8:	17ffff57 	b	2914 <mpi_egcd+0xb0>
/home/hei/Desktop/optee-qemu/optee_os/lib/libutee/tee_api_arith_mpi.c:661
    2bbc:	aa1403e0 	mov	x0, x20
    2bc0:	97ffff17 	bl	281c <mpi_is_odd>
    2bc4:	72001c1f 	tst	w0, #0xff
    2bc8:	54000120 	b.eq	2bec <mpi_egcd+0x388>  // b.none
/home/hei/Desktop/optee-qemu/optee_os/lib/libutee/tee_api_arith_mpi.c:662
    2bcc:	aa1903e2 	mov	x2, x25
    2bd0:	aa1403e1 	mov	x1, x20
    2bd4:	aa1403e0 	mov	x0, x20
    2bd8:	940009c1 	bl	52dc <mbedtls_mpi_add_mpi>
    2bdc:	340001e0 	cbz	w0, 2c18 <mpi_egcd+0x3b4>
/home/hei/Desktop/optee-qemu/optee_os/lib/libutee/tee_api_arith_mpi.c:662 (discriminator 1)
    2be0:	2a0003e2 	mov	w2, w0
    2be4:	528052c1 	mov	w1, #0x296                 	// #662
    2be8:	17ffff4b 	b	2914 <mpi_egcd+0xb0>
/home/hei/Desktop/optee-qemu/optee_os/lib/libutee/tee_api_arith_mpi.c:661 (discriminator 1)
    2bec:	aa1303e0 	mov	x0, x19
    2bf0:	97ffff0b 	bl	281c <mpi_is_odd>
    2bf4:	72001c1f 	tst	w0, #0xff
    2bf8:	54fffea1 	b.ne	2bcc <mpi_egcd+0x368>  // b.any
/home/hei/Desktop/optee-qemu/optee_os/lib/libutee/tee_api_arith_mpi.c:665
    2bfc:	d2800021 	mov	x1, #0x1                   	// #1
    2c00:	aa1403e0 	mov	x0, x20
    2c04:	94000897 	bl	4e60 <mbedtls_mpi_shift_r>
    2c08:	34000180 	cbz	w0, 2c38 <mpi_egcd+0x3d4>
/home/hei/Desktop/optee-qemu/optee_os/lib/libutee/tee_api_arith_mpi.c:665 (discriminator 1)
    2c0c:	2a0003e2 	mov	w2, w0
    2c10:	52805321 	mov	w1, #0x299                 	// #665
    2c14:	17ffff40 	b	2914 <mpi_egcd+0xb0>
/home/hei/Desktop/optee-qemu/optee_os/lib/libutee/tee_api_arith_mpi.c:663
    2c18:	aa1a03e2 	mov	x2, x26
    2c1c:	aa1303e1 	mov	x1, x19
    2c20:	aa1303e0 	mov	x0, x19
    2c24:	940009d0 	bl	5364 <mbedtls_mpi_sub_mpi>
    2c28:	34fffea0 	cbz	w0, 2bfc <mpi_egcd+0x398>
/home/hei/Desktop/optee-qemu/optee_os/lib/libutee/tee_api_arith_mpi.c:663 (discriminator 1)
    2c2c:	2a0003e2 	mov	w2, w0
    2c30:	528052e1 	mov	w1, #0x297                 	// #663
    2c34:	17ffff38 	b	2914 <mpi_egcd+0xb0>
/home/hei/Desktop/optee-qemu/optee_os/lib/libutee/tee_api_arith_mpi.c:666
    2c38:	d2800021 	mov	x1, #0x1                   	// #1
    2c3c:	aa1303e0 	mov	x0, x19
    2c40:	94000888 	bl	4e60 <mbedtls_mpi_shift_r>
    2c44:	34fff8e0 	cbz	w0, 2b60 <mpi_egcd+0x2fc>
/home/hei/Desktop/optee-qemu/optee_os/lib/libutee/tee_api_arith_mpi.c:666 (discriminator 1)
    2c48:	2a0003e2 	mov	w2, w0
    2c4c:	52805341 	mov	w1, #0x29a                 	// #666
    2c50:	17ffff31 	b	2914 <mpi_egcd+0xb0>
/home/hei/Desktop/optee-qemu/optee_os/lib/libutee/tee_api_arith_mpi.c:672
    2c54:	aa1403e2 	mov	x2, x20
    2c58:	aa1703e1 	mov	x1, x23
    2c5c:	aa1703e0 	mov	x0, x23
    2c60:	940009c1 	bl	5364 <mbedtls_mpi_sub_mpi>
    2c64:	34000080 	cbz	w0, 2c74 <mpi_egcd+0x410>
/home/hei/Desktop/optee-qemu/optee_os/lib/libutee/tee_api_arith_mpi.c:672 (discriminator 1)
    2c68:	2a0003e2 	mov	w2, w0
    2c6c:	52805401 	mov	w1, #0x2a0                 	// #672
    2c70:	17ffff29 	b	2914 <mpi_egcd+0xb0>
/home/hei/Desktop/optee-qemu/optee_os/lib/libutee/tee_api_arith_mpi.c:673
    2c74:	aa1303e2 	mov	x2, x19
    2c78:	aa1603e1 	mov	x1, x22
    2c7c:	aa1603e0 	mov	x0, x22
    2c80:	940009b9 	bl	5364 <mbedtls_mpi_sub_mpi>
    2c84:	34000380 	cbz	w0, 2cf4 <mpi_egcd+0x490>
/home/hei/Desktop/optee-qemu/optee_os/lib/libutee/tee_api_arith_mpi.c:673 (discriminator 1)
    2c88:	2a0003e2 	mov	w2, w0
    2c8c:	52805421 	mov	w1, #0x2a1                 	// #673
    2c90:	17ffff21 	b	2914 <mpi_egcd+0xb0>
/home/hei/Desktop/optee-qemu/optee_os/lib/libutee/tee_api_arith_mpi.c:675
    2c94:	aa1503e2 	mov	x2, x21
    2c98:	aa1803e1 	mov	x1, x24
    2c9c:	aa1803e0 	mov	x0, x24
    2ca0:	940009b1 	bl	5364 <mbedtls_mpi_sub_mpi>
    2ca4:	34000080 	cbz	w0, 2cb4 <mpi_egcd+0x450>
/home/hei/Desktop/optee-qemu/optee_os/lib/libutee/tee_api_arith_mpi.c:675 (discriminator 1)
    2ca8:	2a0003e2 	mov	w2, w0
    2cac:	52805461 	mov	w1, #0x2a3                 	// #675
    2cb0:	17ffff19 	b	2914 <mpi_egcd+0xb0>
/home/hei/Desktop/optee-qemu/optee_os/lib/libutee/tee_api_arith_mpi.c:676
    2cb4:	aa1703e2 	mov	x2, x23
    2cb8:	aa1403e1 	mov	x1, x20
    2cbc:	aa1403e0 	mov	x0, x20
    2cc0:	940009a9 	bl	5364 <mbedtls_mpi_sub_mpi>
    2cc4:	34000080 	cbz	w0, 2cd4 <mpi_egcd+0x470>
/home/hei/Desktop/optee-qemu/optee_os/lib/libutee/tee_api_arith_mpi.c:676 (discriminator 1)
    2cc8:	2a0003e2 	mov	w2, w0
    2ccc:	52805481 	mov	w1, #0x2a4                 	// #676
    2cd0:	17ffff11 	b	2914 <mpi_egcd+0xb0>
/home/hei/Desktop/optee-qemu/optee_os/lib/libutee/tee_api_arith_mpi.c:677
    2cd4:	aa1603e2 	mov	x2, x22
    2cd8:	aa1303e1 	mov	x1, x19
    2cdc:	aa1303e0 	mov	x0, x19
    2ce0:	940009a1 	bl	5364 <mbedtls_mpi_sub_mpi>
    2ce4:	34000080 	cbz	w0, 2cf4 <mpi_egcd+0x490>
/home/hei/Desktop/optee-qemu/optee_os/lib/libutee/tee_api_arith_mpi.c:677 (discriminator 1)
    2ce8:	2a0003e2 	mov	w2, w0
    2cec:	528054a1 	mov	w1, #0x2a5                 	// #677
    2cf0:	17ffff09 	b	2914 <mpi_egcd+0xb0>
/home/hei/Desktop/optee-qemu/optee_os/lib/libutee/tee_api_arith_mpi.c:648
    2cf4:	52800001 	mov	w1, #0x0                   	// #0
    2cf8:	aa1503e0 	mov	x0, x21
    2cfc:	940008e8 	bl	509c <mbedtls_mpi_cmp_int>
    2d00:	35fff280 	cbnz	w0, 2b50 <mpi_egcd+0x2ec>
/home/hei/Desktop/optee-qemu/optee_os/lib/libutee/tee_api_arith_mpi.c:681
    2d04:	9e660100 	fmov	x0, d8
    2d08:	aa1403e1 	mov	x1, x20
    2d0c:	9400068d 	bl	4740 <mbedtls_mpi_copy>
    2d10:	34000080 	cbz	w0, 2d20 <mpi_egcd+0x4bc>
/home/hei/Desktop/optee-qemu/optee_os/lib/libutee/tee_api_arith_mpi.c:681 (discriminator 1)
    2d14:	2a0003e2 	mov	w2, w0
    2d18:	52805521 	mov	w1, #0x2a9                 	// #681
    2d1c:	17fffefe 	b	2914 <mpi_egcd+0xb0>
/home/hei/Desktop/optee-qemu/optee_os/lib/libutee/tee_api_arith_mpi.c:682
    2d20:	aa1303e1 	mov	x1, x19
    2d24:	aa1c03e0 	mov	x0, x28
    2d28:	94000686 	bl	4740 <mbedtls_mpi_copy>
    2d2c:	34000080 	cbz	w0, 2d3c <mpi_egcd+0x4d8>
/home/hei/Desktop/optee-qemu/optee_os/lib/libutee/tee_api_arith_mpi.c:682 (discriminator 1)
    2d30:	2a0003e2 	mov	w2, w0
    2d34:	52805541 	mov	w1, #0x2aa                 	// #682
    2d38:	17fffef7 	b	2914 <mpi_egcd+0xb0>
/home/hei/Desktop/optee-qemu/optee_os/lib/libutee/tee_api_arith_mpi.c:683
    2d3c:	2a1b03e1 	mov	w1, w27
    2d40:	aa1803e0 	mov	x0, x24
    2d44:	94000807 	bl	4d60 <mbedtls_mpi_shift_l>
    2d48:	34000080 	cbz	w0, 2d58 <mpi_egcd+0x4f4>
/home/hei/Desktop/optee-qemu/optee_os/lib/libutee/tee_api_arith_mpi.c:683 (discriminator 1)
    2d4c:	2a0003e2 	mov	w2, w0
    2d50:	52805561 	mov	w1, #0x2ab                 	// #683
    2d54:	17fffef0 	b	2914 <mpi_egcd+0xb0>
/home/hei/Desktop/optee-qemu/optee_os/lib/libutee/tee_api_arith_mpi.c:686
    2d58:	aa1703e0 	mov	x0, x23
    2d5c:	940005d8 	bl	44bc <mbedtls_mpi_free>
/home/hei/Desktop/optee-qemu/optee_os/lib/libutee/tee_api_arith_mpi.c:687
    2d60:	aa1603e0 	mov	x0, x22
    2d64:	940005d6 	bl	44bc <mbedtls_mpi_free>
/home/hei/Desktop/optee-qemu/optee_os/lib/libutee/tee_api_arith_mpi.c:688
    2d68:	aa1403e0 	mov	x0, x20
    2d6c:	940005d4 	bl	44bc <mbedtls_mpi_free>
/home/hei/Desktop/optee-qemu/optee_os/lib/libutee/tee_api_arith_mpi.c:689
    2d70:	aa1303e0 	mov	x0, x19
    2d74:	940005d2 	bl	44bc <mbedtls_mpi_free>
/home/hei/Desktop/optee-qemu/optee_os/lib/libutee/tee_api_arith_mpi.c:690
    2d78:	aa1a03e0 	mov	x0, x26
    2d7c:	940005d0 	bl	44bc <mbedtls_mpi_free>
/home/hei/Desktop/optee-qemu/optee_os/lib/libutee/tee_api_arith_mpi.c:691
    2d80:	aa1903e0 	mov	x0, x25
    2d84:	940005ce 	bl	44bc <mbedtls_mpi_free>
/home/hei/Desktop/optee-qemu/optee_os/lib/libutee/tee_api_arith_mpi.c:692
    2d88:	aa1503e0 	mov	x0, x21
    2d8c:	940005cc 	bl	44bc <mbedtls_mpi_free>
/home/hei/Desktop/optee-qemu/optee_os/lib/libutee/tee_api_arith_mpi.c:693
    2d90:	a94153f3 	ldp	x19, x20, [sp, #16]
    2d94:	a9425bf5 	ldp	x21, x22, [sp, #32]
    2d98:	a94363f7 	ldp	x23, x24, [sp, #48]
    2d9c:	a9446bf9 	ldp	x25, x26, [sp, #64]
    2da0:	a94573fb 	ldp	x27, x28, [sp, #80]
    2da4:	6d4627e8 	ldp	d8, d9, [sp, #96]
    2da8:	a8d27bfd 	ldp	x29, x30, [sp], #288
    2dac:	d65f03c0 	ret

0000000000002db0 <_TEE_MathAPI_Init>:
_TEE_MathAPI_Init():
/home/hei/Desktop/optee-qemu/optee_os/lib/libutee/tee_api_arith_mpi.c:44
    2db0:	a9bf7bfd 	stp	x29, x30, [sp, #-16]!
/home/hei/Desktop/optee-qemu/optee_os/lib/libutee/tee_api_arith_mpi.c:47
    2db4:	d2860001 	mov	x1, #0x3000                	// #12288
    2db8:	d2800002 	mov	x2, #0x0                   	// #0
/home/hei/Desktop/optee-qemu/optee_os/lib/libutee/tee_api_arith_mpi.c:44
    2dbc:	910003fd 	mov	x29, sp
/home/hei/Desktop/optee-qemu/optee_os/lib/libutee/tee_api_arith_mpi.c:47
    2dc0:	d0000040 	adrp	x0, c000 <_DYNAMIC>
    2dc4:	91120000 	add	x0, x0, #0x480
    2dc8:	940016a2 	bl	8850 <mempool_alloc_pool>
    2dcc:	d0000041 	adrp	x1, c000 <_DYNAMIC>
    2dd0:	f940c421 	ldr	x1, [x1, #392]
    2dd4:	f9000020 	str	x0, [x1]
/home/hei/Desktop/optee-qemu/optee_os/lib/libutee/tee_api_arith_mpi.c:48
    2dd8:	b5000100 	cbnz	x0, 2df8 <_TEE_MathAPI_Init+0x48>
/home/hei/Desktop/optee-qemu/optee_os/lib/libutee/tee_api_arith_mpi.c:49
    2ddc:	90000040 	adrp	x0, a000 <__text_end+0x1540>
    2de0:	91303400 	add	x0, x0, #0xc0d
    2de4:	90000042 	adrp	x2, a000 <__text_end+0x1540>
    2de8:	52800621 	mov	w1, #0x31                  	// #49
    2dec:	91363c42 	add	x2, x2, #0xd8f
    2df0:	91007c00 	add	x0, x0, #0x1f
    2df4:	97fffded 	bl	25a8 <api_panic>
/home/hei/Desktop/optee-qemu/optee_os/lib/libutee/tee_api_arith_mpi.c:50
    2df8:	a8c17bfd 	ldp	x29, x30, [sp], #16
    2dfc:	d65f03c0 	ret

0000000000002e00 <TEE_BigIntInit>:
TEE_BigIntInit():
/home/hei/Desktop/optee-qemu/optee_os/lib/libutee/tee_api_arith_mpi.c:120
    2e00:	11007c22 	add	w2, w1, #0x1f
/home/hei/Desktop/optee-qemu/optee_os/lib/libutee/tee_api_arith_mpi.c:119
    2e04:	a9be7bfd 	stp	x29, x30, [sp, #-32]!
/home/hei/Desktop/optee-qemu/optee_os/lib/libutee/tee_api_arith_mpi.c:120
    2e08:	53057c42 	lsr	w2, w2, #5
/home/hei/Desktop/optee-qemu/optee_os/lib/libutee/tee_api_arith_mpi.c:119
    2e0c:	910003fd 	mov	x29, sp
/home/hei/Desktop/optee-qemu/optee_os/lib/libutee/tee_api_arith_mpi.c:120
    2e10:	11000842 	add	w2, w2, #0x2
/home/hei/Desktop/optee-qemu/optee_os/lib/libutee/tee_api_arith_mpi.c:119
    2e14:	f9000bf3 	str	x19, [sp, #16]
    2e18:	2a0103f3 	mov	w19, w1
/home/hei/Desktop/optee-qemu/optee_os/lib/libutee/tee_api_arith_mpi.c:120
    2e1c:	d37e6c42 	ubfiz	x2, x2, #2, #28
    2e20:	52800001 	mov	w1, #0x0                   	// #0
    2e24:	94001684 	bl	8834 <memset>
    2e28:	aa0003e3 	mov	x3, x0
/home/hei/Desktop/optee-qemu/optee_os/lib/libutee/tee_api_arith_mpi.c:125
    2e2c:	52800020 	mov	w0, #0x1                   	// #1
/home/hei/Desktop/optee-qemu/optee_os/lib/libutee/tee_api_arith_mpi.c:126
    2e30:	51000a73 	sub	w19, w19, #0x2
/home/hei/Desktop/optee-qemu/optee_os/lib/libutee/tee_api_arith_mpi.c:125
    2e34:	b9000060 	str	w0, [x3]
/home/hei/Desktop/optee-qemu/optee_os/lib/libutee/tee_api_arith_mpi.c:126
    2e38:	5284e200 	mov	w0, #0x2710                	// #10000
    2e3c:	6b00027f 	cmp	w19, w0
    2e40:	54000109 	b.ls	2e60 <TEE_BigIntInit+0x60>  // b.plast
/home/hei/Desktop/optee-qemu/optee_os/lib/libutee/tee_api_arith_mpi.c:127
    2e44:	90000040 	adrp	x0, a000 <__text_end+0x1540>
    2e48:	91303400 	add	x0, x0, #0xc0d
    2e4c:	90000042 	adrp	x2, a000 <__text_end+0x1540>
    2e50:	52800fe1 	mov	w1, #0x7f                  	// #127
    2e54:	9136c042 	add	x2, x2, #0xdb0
    2e58:	9100c400 	add	x0, x0, #0x31
    2e5c:	97fffdd3 	bl	25a8 <api_panic>
/home/hei/Desktop/optee-qemu/optee_os/lib/libutee/tee_api_arith_mpi.c:128
    2e60:	79000873 	strh	w19, [x3, #4]
/home/hei/Desktop/optee-qemu/optee_os/lib/libutee/tee_api_arith_mpi.c:129
    2e64:	f9400bf3 	ldr	x19, [sp, #16]
    2e68:	a8c27bfd 	ldp	x29, x30, [sp], #32
    2e6c:	d65f03c0 	ret

0000000000002e70 <TEE_BigIntConvertFromOctetString>:
TEE_BigIntConvertFromOctetString():
/home/hei/Desktop/optee-qemu/optee_os/lib/libutee/tee_api_arith_mpi.c:134
    2e70:	a9ba7bfd 	stp	x29, x30, [sp, #-96]!
    2e74:	910003fd 	mov	x29, sp
    2e78:	a90153f3 	stp	x19, x20, [sp, #16]
get_mpi():
/home/hei/Desktop/optee-qemu/optee_os/lib/libutee/tee_api_arith_mpi.c:101
    2e7c:	910123f3 	add	x19, sp, #0x48
TEE_BigIntConvertFromOctetString():
/home/hei/Desktop/optee-qemu/optee_os/lib/libutee/tee_api_arith_mpi.c:134
    2e80:	2a0303f4 	mov	w20, w3
    2e84:	a9025bf5 	stp	x21, x22, [sp, #32]
    2e88:	2a0203f6 	mov	w22, w2
    2e8c:	aa0003f5 	mov	x21, x0
get_mpi():
/home/hei/Desktop/optee-qemu/optee_os/lib/libutee/tee_api_arith_mpi.c:101
    2e90:	aa1303e0 	mov	x0, x19
TEE_BigIntConvertFromOctetString():
/home/hei/Desktop/optee-qemu/optee_os/lib/libutee/tee_api_arith_mpi.c:134
    2e94:	f9001fe1 	str	x1, [sp, #56]
get_mpi():
/home/hei/Desktop/optee-qemu/optee_os/lib/libutee/tee_api_arith_mpi.c:101
    2e98:	9400057f 	bl	4494 <mbedtls_mpi_init_mempool>
TEE_BigIntConvertFromOctetString():
/home/hei/Desktop/optee-qemu/optee_os/lib/libutee/tee_api_arith_mpi.c:140
    2e9c:	f9401fe1 	ldr	x1, [sp, #56]
    2ea0:	2a1603e2 	mov	w2, w22
    2ea4:	aa1303e0 	mov	x0, x19
    2ea8:	9400074f 	bl	4be4 <mbedtls_mpi_read_binary>
    2eac:	350001e0 	cbnz	w0, 2ee8 <TEE_BigIntConvertFromOctetString+0x78>
/home/hei/Desktop/optee-qemu/optee_os/lib/libutee/tee_api_arith_mpi.c:145
    2eb0:	36f80074 	tbz	w20, #31, 2ebc <TEE_BigIntConvertFromOctetString+0x4c>
/home/hei/Desktop/optee-qemu/optee_os/lib/libutee/tee_api_arith_mpi.c:146
    2eb4:	12800000 	mov	w0, #0xffffffff            	// #-1
    2eb8:	790093e0 	strh	w0, [sp, #72]
/home/hei/Desktop/optee-qemu/optee_os/lib/libutee/tee_api_arith_mpi.c:149
    2ebc:	aa1503e1 	mov	x1, x21
    2ec0:	aa1303e0 	mov	x0, x19
    2ec4:	97fffdf7 	bl	26a0 <copy_mpi_to_bigint>
    2ec8:	2a0003f4 	mov	w20, w0
/home/hei/Desktop/optee-qemu/optee_os/lib/libutee/tee_api_arith_mpi.c:151
    2ecc:	aa1303e0 	mov	x0, x19
    2ed0:	9400057b 	bl	44bc <mbedtls_mpi_free>
/home/hei/Desktop/optee-qemu/optee_os/lib/libutee/tee_api_arith_mpi.c:154
    2ed4:	2a1403e0 	mov	w0, w20
    2ed8:	a94153f3 	ldp	x19, x20, [sp, #16]
    2edc:	a9425bf5 	ldp	x21, x22, [sp, #32]
    2ee0:	a8c67bfd 	ldp	x29, x30, [sp], #96
    2ee4:	d65f03c0 	ret
/home/hei/Desktop/optee-qemu/optee_os/lib/libutee/tee_api_arith_mpi.c:145
    2ee8:	36f80074 	tbz	w20, #31, 2ef4 <TEE_BigIntConvertFromOctetString+0x84>
/home/hei/Desktop/optee-qemu/optee_os/lib/libutee/tee_api_arith_mpi.c:146
    2eec:	12800000 	mov	w0, #0xffffffff            	// #-1
    2ef0:	790093e0 	strh	w0, [sp, #72]
/home/hei/Desktop/optee-qemu/optee_os/lib/libutee/tee_api_arith_mpi.c:141
    2ef4:	1299fe14 	mov	w20, #0xffff300f            	// #-53233
    2ef8:	17fffff5 	b	2ecc <TEE_BigIntConvertFromOctetString+0x5c>

0000000000002efc <TEE_BigIntConvertToOctetString>:
TEE_BigIntConvertToOctetString():
/home/hei/Desktop/optee-qemu/optee_os/lib/libutee/tee_api_arith_mpi.c:158
    2efc:	a9bb7bfd 	stp	x29, x30, [sp, #-80]!
    2f00:	910003fd 	mov	x29, sp
    2f04:	a9025bf5 	stp	x21, x22, [sp, #32]
    2f08:	aa0103f6 	mov	x22, x1
/home/hei/Desktop/optee-qemu/optee_os/lib/libutee/tee_api_arith_mpi.c:163
    2f0c:	aa0203e1 	mov	x1, x2
/home/hei/Desktop/optee-qemu/optee_os/lib/libutee/tee_api_arith_mpi.c:158
    2f10:	a90153f3 	stp	x19, x20, [sp, #16]
/home/hei/Desktop/optee-qemu/optee_os/lib/libutee/tee_api_arith_mpi.c:163
    2f14:	9100e3f3 	add	x19, sp, #0x38
/home/hei/Desktop/optee-qemu/optee_os/lib/libutee/tee_api_arith_mpi.c:158
    2f18:	aa0003f5 	mov	x21, x0
/home/hei/Desktop/optee-qemu/optee_os/lib/libutee/tee_api_arith_mpi.c:163
    2f1c:	aa1303e0 	mov	x0, x19
    2f20:	97fffdba 	bl	2608 <get_mpi>
/home/hei/Desktop/optee-qemu/optee_os/lib/libutee/tee_api_arith_mpi.c:165
    2f24:	aa1303e0 	mov	x0, x19
    2f28:	94000728 	bl	4bc8 <mbedtls_mpi_size>
    2f2c:	aa0003f4 	mov	x20, x0
/home/hei/Desktop/optee-qemu/optee_os/lib/libutee/tee_api_arith_mpi.c:166
    2f30:	b94002c0 	ldr	w0, [x22]
    2f34:	eb14001f 	cmp	x0, x20
    2f38:	540001a3 	b.cc	2f6c <TEE_BigIntConvertToOctetString+0x70>  // b.lo, b.ul, b.last
/home/hei/Desktop/optee-qemu/optee_os/lib/libutee/tee_api_arith_mpi.c:167
    2f3c:	aa1503e1 	mov	x1, x21
    2f40:	aa1403e2 	mov	x2, x20
    2f44:	aa1303e0 	mov	x0, x19
/home/hei/Desktop/optee-qemu/optee_os/lib/libutee/tee_api_arith_mpi.c:159
    2f48:	52800015 	mov	w21, #0x0                   	// #0
/home/hei/Desktop/optee-qemu/optee_os/lib/libutee/tee_api_arith_mpi.c:167
    2f4c:	94000754 	bl	4c9c <mbedtls_mpi_write_binary>
    2f50:	34000100 	cbz	w0, 2f70 <TEE_BigIntConvertToOctetString+0x74>
/home/hei/Desktop/optee-qemu/optee_os/lib/libutee/tee_api_arith_mpi.c:167 (discriminator 1)
    2f54:	2a0003e2 	mov	w2, w0
    2f58:	90000040 	adrp	x0, a000 <__text_end+0x1540>
    2f5c:	91303400 	add	x0, x0, #0xc0d
    2f60:	528014e1 	mov	w1, #0xa7                  	// #167
    2f64:	91010000 	add	x0, x0, #0x40
    2f68:	97fffd9c 	bl	25d8 <mpi_panic>
/home/hei/Desktop/optee-qemu/optee_os/lib/libutee/tee_api_arith_mpi.c:169
    2f6c:	129ffdf5 	mov	w21, #0xffff0010            	// #-65520
/home/hei/Desktop/optee-qemu/optee_os/lib/libutee/tee_api_arith_mpi.c:171
    2f70:	b90002d4 	str	w20, [x22]
/home/hei/Desktop/optee-qemu/optee_os/lib/libutee/tee_api_arith_mpi.c:173
    2f74:	aa1303e0 	mov	x0, x19
    2f78:	94000551 	bl	44bc <mbedtls_mpi_free>
/home/hei/Desktop/optee-qemu/optee_os/lib/libutee/tee_api_arith_mpi.c:176
    2f7c:	2a1503e0 	mov	w0, w21
    2f80:	a94153f3 	ldp	x19, x20, [sp, #16]
    2f84:	a9425bf5 	ldp	x21, x22, [sp, #32]
    2f88:	a8c57bfd 	ldp	x29, x30, [sp], #80
    2f8c:	d65f03c0 	ret

0000000000002f90 <TEE_BigIntConvertFromS32>:
TEE_BigIntConvertFromS32():
/home/hei/Desktop/optee-qemu/optee_os/lib/libutee/tee_api_arith_mpi.c:179
    2f90:	a9bb7bfd 	stp	x29, x30, [sp, #-80]!
    2f94:	910003fd 	mov	x29, sp
    2f98:	a90153f3 	stp	x19, x20, [sp, #16]
/home/hei/Desktop/optee-qemu/optee_os/lib/libutee/tee_api_arith_mpi.c:182
    2f9c:	9100e3f3 	add	x19, sp, #0x38
/home/hei/Desktop/optee-qemu/optee_os/lib/libutee/tee_api_arith_mpi.c:179
    2fa0:	aa0003f4 	mov	x20, x0
    2fa4:	f90013f5 	str	x21, [sp, #32]
    2fa8:	2a0103f5 	mov	w21, w1
/home/hei/Desktop/optee-qemu/optee_os/lib/libutee/tee_api_arith_mpi.c:182
    2fac:	aa0003e1 	mov	x1, x0
    2fb0:	aa1303e0 	mov	x0, x19
    2fb4:	97fffd95 	bl	2608 <get_mpi>
/home/hei/Desktop/optee-qemu/optee_os/lib/libutee/tee_api_arith_mpi.c:184
    2fb8:	2a1503e1 	mov	w1, w21
    2fbc:	aa1303e0 	mov	x0, x19
    2fc0:	9400068e 	bl	49f8 <mbedtls_mpi_lset>
    2fc4:	340000e0 	cbz	w0, 2fe0 <TEE_BigIntConvertFromS32+0x50>
/home/hei/Desktop/optee-qemu/optee_os/lib/libutee/tee_api_arith_mpi.c:184 (discriminator 1)
    2fc8:	2a0003e2 	mov	w2, w0
    2fcc:	52801701 	mov	w1, #0xb8                  	// #184
/home/hei/Desktop/optee-qemu/optee_os/lib/libutee/tee_api_arith_mpi.c:186 (discriminator 1)
    2fd0:	90000040 	adrp	x0, a000 <__text_end+0x1540>
    2fd4:	91303400 	add	x0, x0, #0xc0d
    2fd8:	91017c00 	add	x0, x0, #0x5f
    2fdc:	97fffd7f 	bl	25d8 <mpi_panic>
/home/hei/Desktop/optee-qemu/optee_os/lib/libutee/tee_api_arith_mpi.c:186
    2fe0:	aa1403e1 	mov	x1, x20
    2fe4:	aa1303e0 	mov	x0, x19
    2fe8:	97fffdae 	bl	26a0 <copy_mpi_to_bigint>
    2fec:	34000080 	cbz	w0, 2ffc <TEE_BigIntConvertFromS32+0x6c>
/home/hei/Desktop/optee-qemu/optee_os/lib/libutee/tee_api_arith_mpi.c:186 (discriminator 1)
    2ff0:	2a0003e2 	mov	w2, w0
    2ff4:	52801741 	mov	w1, #0xba                  	// #186
    2ff8:	17fffff6 	b	2fd0 <TEE_BigIntConvertFromS32+0x40>
/home/hei/Desktop/optee-qemu/optee_os/lib/libutee/tee_api_arith_mpi.c:187
    2ffc:	aa1303e0 	mov	x0, x19
    3000:	9400052f 	bl	44bc <mbedtls_mpi_free>
/home/hei/Desktop/optee-qemu/optee_os/lib/libutee/tee_api_arith_mpi.c:188
    3004:	a94153f3 	ldp	x19, x20, [sp, #16]
    3008:	f94013f5 	ldr	x21, [sp, #32]
    300c:	a8c57bfd 	ldp	x29, x30, [sp], #80
    3010:	d65f03c0 	ret

0000000000003014 <TEE_BigIntConvertToS32>:
TEE_BigIntConvertToS32():
/home/hei/Desktop/optee-qemu/optee_os/lib/libutee/tee_api_arith_mpi.c:191
    3014:	a9bc7bfd 	stp	x29, x30, [sp, #-64]!
    3018:	910003fd 	mov	x29, sp
    301c:	a90153f3 	stp	x19, x20, [sp, #16]
/home/hei/Desktop/optee-qemu/optee_os/lib/libutee/tee_api_arith_mpi.c:196
    3020:	9100a3f3 	add	x19, sp, #0x28
/home/hei/Desktop/optee-qemu/optee_os/lib/libutee/tee_api_arith_mpi.c:191
    3024:	aa0003f4 	mov	x20, x0
/home/hei/Desktop/optee-qemu/optee_os/lib/libutee/tee_api_arith_mpi.c:196
    3028:	aa1303e0 	mov	x0, x19
    302c:	97fffd77 	bl	2608 <get_mpi>
/home/hei/Desktop/optee-qemu/optee_os/lib/libutee/tee_api_arith_mpi.c:198
    3030:	d2800082 	mov	x2, #0x4                   	// #4
    3034:	910093e1 	add	x1, sp, #0x24
    3038:	aa1303e0 	mov	x0, x19
    303c:	94000718 	bl	4c9c <mbedtls_mpi_write_binary>
    3040:	34000100 	cbz	w0, 3060 <TEE_BigIntConvertToS32+0x4c>
/home/hei/Desktop/optee-qemu/optee_os/lib/libutee/tee_api_arith_mpi.c:199
    3044:	1299fe14 	mov	w20, #0xffff300f            	// #-53233
/home/hei/Desktop/optee-qemu/optee_os/lib/libutee/tee_api_arith_mpi.c:212
    3048:	aa1303e0 	mov	x0, x19
    304c:	9400051c 	bl	44bc <mbedtls_mpi_free>
/home/hei/Desktop/optee-qemu/optee_os/lib/libutee/tee_api_arith_mpi.c:215
    3050:	2a1403e0 	mov	w0, w20
    3054:	a94153f3 	ldp	x19, x20, [sp, #16]
    3058:	a8c47bfd 	ldp	x29, x30, [sp], #64
    305c:	d65f03c0 	ret
/home/hei/Desktop/optee-qemu/optee_os/lib/libutee/tee_api_arith_mpi.c:203
    3060:	b94027e1 	ldr	w1, [sp, #36]
    3064:	79c053e0 	ldrsh	w0, [sp, #40]
    3068:	5ac00821 	rev	w1, w1
    306c:	7100001f 	cmp	w0, #0x0
    3070:	2a0103e0 	mov	w0, w1
    3074:	540000cd 	b.le	308c <TEE_BigIntConvertToS32+0x78>
/home/hei/Desktop/optee-qemu/optee_os/lib/libutee/tee_api_arith_mpi.c:204
    3078:	eb21c01f 	cmp	x0, w1, sxtw
    307c:	b9000281 	str	w1, [x20]
/home/hei/Desktop/optee-qemu/optee_os/lib/libutee/tee_api_arith_mpi.c:207
    3080:	54fffe21 	b.ne	3044 <TEE_BigIntConvertToS32+0x30>  // b.any
/home/hei/Desktop/optee-qemu/optee_os/lib/libutee/tee_api_arith_mpi.c:192
    3084:	52800014 	mov	w20, #0x0                   	// #0
    3088:	17fffff0 	b	3048 <TEE_BigIntConvertToS32+0x34>
/home/hei/Desktop/optee-qemu/optee_os/lib/libutee/tee_api_arith_mpi.c:207
    308c:	cb0003e0 	neg	x0, x0
    3090:	b9000280 	str	w0, [x20]
    3094:	eb20c01f 	cmp	x0, w0, sxtw
    3098:	17fffffa 	b	3080 <TEE_BigIntConvertToS32+0x6c>

000000000000309c <TEE_BigIntCmp>:
TEE_BigIntCmp():
/home/hei/Desktop/optee-qemu/optee_os/lib/libutee/tee_api_arith_mpi.c:218
    309c:	a9ba7bfd 	stp	x29, x30, [sp, #-96]!
    30a0:	910003fd 	mov	x29, sp
    30a4:	a90153f3 	stp	x19, x20, [sp, #16]
/home/hei/Desktop/optee-qemu/optee_os/lib/libutee/tee_api_arith_mpi.c:223
    30a8:	9100c3f4 	add	x20, sp, #0x30
/home/hei/Desktop/optee-qemu/optee_os/lib/libutee/tee_api_arith_mpi.c:224
    30ac:	910123f3 	add	x19, sp, #0x48
/home/hei/Desktop/optee-qemu/optee_os/lib/libutee/tee_api_arith_mpi.c:218
    30b0:	f90013f5 	str	x21, [sp, #32]
    30b4:	aa0103f5 	mov	x21, x1
/home/hei/Desktop/optee-qemu/optee_os/lib/libutee/tee_api_arith_mpi.c:223
    30b8:	aa0003e1 	mov	x1, x0
    30bc:	aa1403e0 	mov	x0, x20
    30c0:	97fffd52 	bl	2608 <get_mpi>
/home/hei/Desktop/optee-qemu/optee_os/lib/libutee/tee_api_arith_mpi.c:224
    30c4:	aa1503e1 	mov	x1, x21
    30c8:	aa1303e0 	mov	x0, x19
    30cc:	97fffd4f 	bl	2608 <get_mpi>
/home/hei/Desktop/optee-qemu/optee_os/lib/libutee/tee_api_arith_mpi.c:226
    30d0:	aa1303e1 	mov	x1, x19
    30d4:	aa1403e0 	mov	x0, x20
    30d8:	940007bb 	bl	4fc4 <mbedtls_mpi_cmp_mpi>
    30dc:	2a0003f5 	mov	w21, w0
/home/hei/Desktop/optee-qemu/optee_os/lib/libutee/tee_api_arith_mpi.c:228
    30e0:	aa1403e0 	mov	x0, x20
    30e4:	940004f6 	bl	44bc <mbedtls_mpi_free>
/home/hei/Desktop/optee-qemu/optee_os/lib/libutee/tee_api_arith_mpi.c:229
    30e8:	aa1303e0 	mov	x0, x19
    30ec:	940004f4 	bl	44bc <mbedtls_mpi_free>
/home/hei/Desktop/optee-qemu/optee_os/lib/libutee/tee_api_arith_mpi.c:232
    30f0:	2a1503e0 	mov	w0, w21
    30f4:	a94153f3 	ldp	x19, x20, [sp, #16]
    30f8:	f94013f5 	ldr	x21, [sp, #32]
    30fc:	a8c67bfd 	ldp	x29, x30, [sp], #96
    3100:	d65f03c0 	ret

0000000000003104 <TEE_BigIntCmpS32>:
TEE_BigIntCmpS32():
/home/hei/Desktop/optee-qemu/optee_os/lib/libutee/tee_api_arith_mpi.c:235
    3104:	a9bc7bfd 	stp	x29, x30, [sp, #-64]!
    3108:	910003fd 	mov	x29, sp
    310c:	a90153f3 	stp	x19, x20, [sp, #16]
/home/hei/Desktop/optee-qemu/optee_os/lib/libutee/tee_api_arith_mpi.c:239
    3110:	9100a3f3 	add	x19, sp, #0x28
/home/hei/Desktop/optee-qemu/optee_os/lib/libutee/tee_api_arith_mpi.c:235
    3114:	2a0103f4 	mov	w20, w1
/home/hei/Desktop/optee-qemu/optee_os/lib/libutee/tee_api_arith_mpi.c:239
    3118:	aa0003e1 	mov	x1, x0
    311c:	aa1303e0 	mov	x0, x19
    3120:	97fffd3a 	bl	2608 <get_mpi>
/home/hei/Desktop/optee-qemu/optee_os/lib/libutee/tee_api_arith_mpi.c:241
    3124:	2a1403e1 	mov	w1, w20
    3128:	aa1303e0 	mov	x0, x19
    312c:	940007dc 	bl	509c <mbedtls_mpi_cmp_int>
    3130:	2a0003f4 	mov	w20, w0
/home/hei/Desktop/optee-qemu/optee_os/lib/libutee/tee_api_arith_mpi.c:243
    3134:	aa1303e0 	mov	x0, x19
    3138:	940004e1 	bl	44bc <mbedtls_mpi_free>
/home/hei/Desktop/optee-qemu/optee_os/lib/libutee/tee_api_arith_mpi.c:246
    313c:	2a1403e0 	mov	w0, w20
    3140:	a94153f3 	ldp	x19, x20, [sp, #16]
    3144:	a8c47bfd 	ldp	x29, x30, [sp], #64
    3148:	d65f03c0 	ret

000000000000314c <bigint_binary_mod>:
bigint_binary_mod():
/home/hei/Desktop/optee-qemu/optee_os/lib/libutee/tee_api_arith_mpi.c:356
    314c:	a9b27bfd 	stp	x29, x30, [sp, #-224]!
    3150:	910003fd 	mov	x29, sp
    3154:	a90153f3 	stp	x19, x20, [sp, #16]
    3158:	aa0203f4 	mov	x20, x2
    315c:	a9025bf5 	stp	x21, x22, [sp, #32]
    3160:	aa0103f6 	mov	x22, x1
    3164:	aa0303f5 	mov	x21, x3
/home/hei/Desktop/optee-qemu/optee_os/lib/libutee/tee_api_arith_mpi.c:357
    3168:	52800041 	mov	w1, #0x2                   	// #2
/home/hei/Desktop/optee-qemu/optee_os/lib/libutee/tee_api_arith_mpi.c:356
    316c:	a90363f7 	stp	x23, x24, [sp, #48]
    3170:	aa0003f7 	mov	x23, x0
/home/hei/Desktop/optee-qemu/optee_os/lib/libutee/tee_api_arith_mpi.c:357
    3174:	aa0303e0 	mov	x0, x3
/home/hei/Desktop/optee-qemu/optee_os/lib/libutee/tee_api_arith_mpi.c:356
    3178:	a9046bf9 	stp	x25, x26, [sp, #64]
    317c:	f9002bfb 	str	x27, [sp, #80]
    3180:	aa0403fb 	mov	x27, x4
/home/hei/Desktop/optee-qemu/optee_os/lib/libutee/tee_api_arith_mpi.c:357
    3184:	97ffffe0 	bl	3104 <TEE_BigIntCmpS32>
    3188:	36f80100 	tbz	w0, #31, 31a8 <bigint_binary_mod+0x5c>
/home/hei/Desktop/optee-qemu/optee_os/lib/libutee/tee_api_arith_mpi.c:358
    318c:	f0000020 	adrp	x0, a000 <__text_end+0x1540>
    3190:	91303400 	add	x0, x0, #0xc0d
    3194:	f0000022 	adrp	x2, a000 <__text_end+0x1540>
    3198:	52802cc1 	mov	w1, #0x166                 	// #358
    319c:	91370442 	add	x2, x2, #0xdc1
    31a0:	9101e000 	add	x0, x0, #0x78
    31a4:	97fffd01 	bl	25a8 <api_panic>
/home/hei/Desktop/optee-qemu/optee_os/lib/libutee/tee_api_arith_mpi.c:368
    31a8:	9101a3f3 	add	x19, sp, #0x68
    31ac:	aa1703e1 	mov	x1, x23
    31b0:	aa1303e0 	mov	x0, x19
/home/hei/Desktop/optee-qemu/optee_os/lib/libutee/tee_api_arith_mpi.c:369
    31b4:	9102c3fa 	add	x26, sp, #0xb0
/home/hei/Desktop/optee-qemu/optee_os/lib/libutee/tee_api_arith_mpi.c:368
    31b8:	97fffd14 	bl	2608 <get_mpi>
/home/hei/Desktop/optee-qemu/optee_os/lib/libutee/tee_api_arith_mpi.c:369
    31bc:	910203f9 	add	x25, sp, #0x80
    31c0:	aa1503e1 	mov	x1, x21
    31c4:	aa1a03e0 	mov	x0, x26
    31c8:	97fffd10 	bl	2608 <get_mpi>
/home/hei/Desktop/optee-qemu/optee_os/lib/libutee/tee_api_arith_mpi.c:371
    31cc:	eb1602ff 	cmp	x23, x22
    31d0:	54000380 	b.eq	3240 <bigint_binary_mod+0xf4>  // b.none
/home/hei/Desktop/optee-qemu/optee_os/lib/libutee/tee_api_arith_mpi.c:364
    31d4:	aa1903f5 	mov	x21, x25
/home/hei/Desktop/optee-qemu/optee_os/lib/libutee/tee_api_arith_mpi.c:374
    31d8:	aa1603e1 	mov	x1, x22
    31dc:	aa1903e0 	mov	x0, x25
    31e0:	97fffd0a 	bl	2608 <get_mpi>
/home/hei/Desktop/optee-qemu/optee_os/lib/libutee/tee_api_arith_mpi.c:376
    31e4:	eb1402ff 	cmp	x23, x20
    31e8:	910263f8 	add	x24, sp, #0x98
    31ec:	540002e0 	b.eq	3248 <bigint_binary_mod+0xfc>  // b.none
/home/hei/Desktop/optee-qemu/optee_os/lib/libutee/tee_api_arith_mpi.c:378
    31f0:	eb1402df 	cmp	x22, x20
    31f4:	540002e0 	b.eq	3250 <bigint_binary_mod+0x104>  // b.none
/home/hei/Desktop/optee-qemu/optee_os/lib/libutee/tee_api_arith_mpi.c:381
    31f8:	aa1403e1 	mov	x1, x20
/home/hei/Desktop/optee-qemu/optee_os/lib/libutee/tee_api_arith_mpi.c:365
    31fc:	aa1803f4 	mov	x20, x24
/home/hei/Desktop/optee-qemu/optee_os/lib/libutee/tee_api_arith_mpi.c:381
    3200:	aa1803e0 	mov	x0, x24
    3204:	97fffd01 	bl	2608 <get_mpi>
get_mpi():
/home/hei/Desktop/optee-qemu/optee_os/lib/libutee/tee_api_arith_mpi.c:101
    3208:	910323f6 	add	x22, sp, #0xc8
    320c:	aa1603e0 	mov	x0, x22
    3210:	940004a1 	bl	4494 <mbedtls_mpi_init_mempool>
bigint_binary_mod():
/home/hei/Desktop/optee-qemu/optee_os/lib/libutee/tee_api_arith_mpi.c:385
    3214:	aa1403e2 	mov	x2, x20
    3218:	aa1503e1 	mov	x1, x21
    321c:	aa1603e0 	mov	x0, x22
    3220:	d63f0360 	blr	x27
    3224:	340001a0 	cbz	w0, 3258 <bigint_binary_mod+0x10c>
/home/hei/Desktop/optee-qemu/optee_os/lib/libutee/tee_api_arith_mpi.c:385 (discriminator 1)
    3228:	2a0003e2 	mov	w2, w0
    322c:	52803021 	mov	w1, #0x181                 	// #385
/home/hei/Desktop/optee-qemu/optee_os/lib/libutee/tee_api_arith_mpi.c:386 (discriminator 1)
    3230:	f0000020 	adrp	x0, a000 <__text_end+0x1540>
    3234:	91303400 	add	x0, x0, #0xc0d
    3238:	9101e000 	add	x0, x0, #0x78
    323c:	97fffce7 	bl	25d8 <mpi_panic>
/home/hei/Desktop/optee-qemu/optee_os/lib/libutee/tee_api_arith_mpi.c:372
    3240:	aa1303f5 	mov	x21, x19
    3244:	17ffffe8 	b	31e4 <bigint_binary_mod+0x98>
/home/hei/Desktop/optee-qemu/optee_os/lib/libutee/tee_api_arith_mpi.c:377
    3248:	aa1303f4 	mov	x20, x19
    324c:	17ffffef 	b	3208 <bigint_binary_mod+0xbc>
/home/hei/Desktop/optee-qemu/optee_os/lib/libutee/tee_api_arith_mpi.c:379
    3250:	aa1503f4 	mov	x20, x21
    3254:	17ffffed 	b	3208 <bigint_binary_mod+0xbc>
/home/hei/Desktop/optee-qemu/optee_os/lib/libutee/tee_api_arith_mpi.c:386
    3258:	aa1a03e2 	mov	x2, x26
    325c:	aa1603e1 	mov	x1, x22
    3260:	aa1303e0 	mov	x0, x19
    3264:	94000ab8 	bl	5d44 <mbedtls_mpi_mod_mpi>
    3268:	34000080 	cbz	w0, 3278 <bigint_binary_mod+0x12c>
/home/hei/Desktop/optee-qemu/optee_os/lib/libutee/tee_api_arith_mpi.c:386 (discriminator 1)
    326c:	2a0003e2 	mov	w2, w0
    3270:	52803041 	mov	w1, #0x182                 	// #386
    3274:	17ffffef 	b	3230 <bigint_binary_mod+0xe4>
/home/hei/Desktop/optee-qemu/optee_os/lib/libutee/tee_api_arith_mpi.c:388
    3278:	aa1703e1 	mov	x1, x23
    327c:	aa1303e0 	mov	x0, x19
    3280:	97fffd08 	bl	26a0 <copy_mpi_to_bigint>
    3284:	34000080 	cbz	w0, 3294 <bigint_binary_mod+0x148>
/home/hei/Desktop/optee-qemu/optee_os/lib/libutee/tee_api_arith_mpi.c:388 (discriminator 1)
    3288:	2a0003e2 	mov	w2, w0
    328c:	52803081 	mov	w1, #0x184                 	// #388
    3290:	17ffffe8 	b	3230 <bigint_binary_mod+0xe4>
/home/hei/Desktop/optee-qemu/optee_os/lib/libutee/tee_api_arith_mpi.c:389
    3294:	aa1303e0 	mov	x0, x19
    3298:	94000489 	bl	44bc <mbedtls_mpi_free>
/home/hei/Desktop/optee-qemu/optee_os/lib/libutee/tee_api_arith_mpi.c:390
    329c:	eb1902bf 	cmp	x21, x25
    32a0:	54000061 	b.ne	32ac <bigint_binary_mod+0x160>  // b.any
/home/hei/Desktop/optee-qemu/optee_os/lib/libutee/tee_api_arith_mpi.c:391
    32a4:	aa1503e0 	mov	x0, x21
    32a8:	94000485 	bl	44bc <mbedtls_mpi_free>
/home/hei/Desktop/optee-qemu/optee_os/lib/libutee/tee_api_arith_mpi.c:392
    32ac:	eb18029f 	cmp	x20, x24
    32b0:	54000061 	b.ne	32bc <bigint_binary_mod+0x170>  // b.any
/home/hei/Desktop/optee-qemu/optee_os/lib/libutee/tee_api_arith_mpi.c:393
    32b4:	aa1403e0 	mov	x0, x20
    32b8:	94000481 	bl	44bc <mbedtls_mpi_free>
/home/hei/Desktop/optee-qemu/optee_os/lib/libutee/tee_api_arith_mpi.c:394
    32bc:	aa1603e0 	mov	x0, x22
    32c0:	9400047f 	bl	44bc <mbedtls_mpi_free>
/home/hei/Desktop/optee-qemu/optee_os/lib/libutee/tee_api_arith_mpi.c:395
    32c4:	a94153f3 	ldp	x19, x20, [sp, #16]
    32c8:	a9425bf5 	ldp	x21, x22, [sp, #32]
    32cc:	a94363f7 	ldp	x23, x24, [sp, #48]
    32d0:	a9446bf9 	ldp	x25, x26, [sp, #64]
    32d4:	f9402bfb 	ldr	x27, [sp, #80]
    32d8:	a8ce7bfd 	ldp	x29, x30, [sp], #224
    32dc:	d65f03c0 	ret

00000000000032e0 <TEE_BigIntShiftRight>:
TEE_BigIntShiftRight():
/home/hei/Desktop/optee-qemu/optee_os/lib/libutee/tee_api_arith_mpi.c:249
    32e0:	a9b77bfd 	stp	x29, x30, [sp, #-144]!
    32e4:	910003fd 	mov	x29, sp
    32e8:	a90153f3 	stp	x19, x20, [sp, #16]
/home/hei/Desktop/optee-qemu/optee_os/lib/libutee/tee_api_arith_mpi.c:253
    32ec:	910123f3 	add	x19, sp, #0x48
/home/hei/Desktop/optee-qemu/optee_os/lib/libutee/tee_api_arith_mpi.c:249
    32f0:	a9025bf5 	stp	x21, x22, [sp, #32]
    32f4:	aa0003f6 	mov	x22, x0
    32f8:	aa0103f5 	mov	x21, x1
/home/hei/Desktop/optee-qemu/optee_os/lib/libutee/tee_api_arith_mpi.c:253
    32fc:	aa0003e1 	mov	x1, x0
    3300:	aa1303e0 	mov	x0, x19
/home/hei/Desktop/optee-qemu/optee_os/lib/libutee/tee_api_arith_mpi.c:249
    3304:	f9001bf7 	str	x23, [sp, #48]
    3308:	aa0203f7 	mov	x23, x2
/home/hei/Desktop/optee-qemu/optee_os/lib/libutee/tee_api_arith_mpi.c:253
    330c:	97fffcbf 	bl	2608 <get_mpi>
/home/hei/Desktop/optee-qemu/optee_os/lib/libutee/tee_api_arith_mpi.c:255
    3310:	eb1502df 	cmp	x22, x21
    3314:	54000161 	b.ne	3340 <TEE_BigIntShiftRight+0x60>  // b.any
/home/hei/Desktop/optee-qemu/optee_os/lib/libutee/tee_api_arith_mpi.c:256
    3318:	aa1703e1 	mov	x1, x23
    331c:	aa1303e0 	mov	x0, x19
    3320:	940006d0 	bl	4e60 <mbedtls_mpi_shift_r>
    3324:	34000780 	cbz	w0, 3414 <TEE_BigIntShiftRight+0x134>
/home/hei/Desktop/optee-qemu/optee_os/lib/libutee/tee_api_arith_mpi.c:256 (discriminator 1)
    3328:	2a0003e2 	mov	w2, w0
    332c:	52802001 	mov	w1, #0x100                 	// #256
/home/hei/Desktop/optee-qemu/optee_os/lib/libutee/tee_api_arith_mpi.c:263 (discriminator 1)
    3330:	f0000020 	adrp	x0, a000 <__text_end+0x1540>
    3334:	91303400 	add	x0, x0, #0xc0d
    3338:	91022800 	add	x0, x0, #0x8a
    333c:	97fffca7 	bl	25d8 <mpi_panic>
/home/hei/Desktop/optee-qemu/optee_os/lib/libutee/tee_api_arith_mpi.c:260
    3340:	aa1503e1 	mov	x1, x21
    3344:	910183f4 	add	x20, sp, #0x60
    3348:	aa1403e0 	mov	x0, x20
    334c:	97fffcaf 	bl	2608 <get_mpi>
/home/hei/Desktop/optee-qemu/optee_os/lib/libutee/tee_api_arith_mpi.c:262
    3350:	aa1303e0 	mov	x0, x19
    3354:	9400061d 	bl	4bc8 <mbedtls_mpi_size>
    3358:	aa0003f5 	mov	x21, x0
    335c:	aa1403e0 	mov	x0, x20
    3360:	9400061a 	bl	4bc8 <mbedtls_mpi_size>
    3364:	eb0002bf 	cmp	x21, x0
    3368:	540001e3 	b.cc	33a4 <TEE_BigIntShiftRight+0xc4>  // b.lo, b.ul, b.last
/home/hei/Desktop/optee-qemu/optee_os/lib/libutee/tee_api_arith_mpi.c:263
    336c:	aa1403e1 	mov	x1, x20
    3370:	aa1303e0 	mov	x0, x19
    3374:	940004f3 	bl	4740 <mbedtls_mpi_copy>
    3378:	34000080 	cbz	w0, 3388 <TEE_BigIntShiftRight+0xa8>
/home/hei/Desktop/optee-qemu/optee_os/lib/libutee/tee_api_arith_mpi.c:263 (discriminator 1)
    337c:	2a0003e2 	mov	w2, w0
    3380:	528020e1 	mov	w1, #0x107                 	// #263
    3384:	17ffffeb 	b	3330 <TEE_BigIntShiftRight+0x50>
/home/hei/Desktop/optee-qemu/optee_os/lib/libutee/tee_api_arith_mpi.c:264
    3388:	aa1703e1 	mov	x1, x23
    338c:	aa1303e0 	mov	x0, x19
    3390:	940006b4 	bl	4e60 <mbedtls_mpi_shift_r>
    3394:	340003c0 	cbz	w0, 340c <TEE_BigIntShiftRight+0x12c>
/home/hei/Desktop/optee-qemu/optee_os/lib/libutee/tee_api_arith_mpi.c:264 (discriminator 1)
    3398:	2a0003e2 	mov	w2, w0
    339c:	52802101 	mov	w1, #0x108                 	// #264
    33a0:	17ffffe4 	b	3330 <TEE_BigIntShiftRight+0x50>
get_mpi():
/home/hei/Desktop/optee-qemu/optee_os/lib/libutee/tee_api_arith_mpi.c:101
    33a4:	9101e3f5 	add	x21, sp, #0x78
    33a8:	aa1503e0 	mov	x0, x21
    33ac:	9400043a 	bl	4494 <mbedtls_mpi_init_mempool>
TEE_BigIntShiftRight():
/home/hei/Desktop/optee-qemu/optee_os/lib/libutee/tee_api_arith_mpi.c:275
    33b0:	aa1403e1 	mov	x1, x20
    33b4:	aa1503e0 	mov	x0, x21
    33b8:	940004e2 	bl	4740 <mbedtls_mpi_copy>
    33bc:	34000080 	cbz	w0, 33cc <TEE_BigIntShiftRight+0xec>
/home/hei/Desktop/optee-qemu/optee_os/lib/libutee/tee_api_arith_mpi.c:275 (discriminator 1)
    33c0:	2a0003e2 	mov	w2, w0
    33c4:	52802261 	mov	w1, #0x113                 	// #275
    33c8:	17ffffda 	b	3330 <TEE_BigIntShiftRight+0x50>
/home/hei/Desktop/optee-qemu/optee_os/lib/libutee/tee_api_arith_mpi.c:276
    33cc:	aa1703e1 	mov	x1, x23
    33d0:	aa1503e0 	mov	x0, x21
    33d4:	940006a3 	bl	4e60 <mbedtls_mpi_shift_r>
    33d8:	34000080 	cbz	w0, 33e8 <TEE_BigIntShiftRight+0x108>
/home/hei/Desktop/optee-qemu/optee_os/lib/libutee/tee_api_arith_mpi.c:276 (discriminator 1)
    33dc:	2a0003e2 	mov	w2, w0
    33e0:	52802281 	mov	w1, #0x114                 	// #276
    33e4:	17ffffd3 	b	3330 <TEE_BigIntShiftRight+0x50>
/home/hei/Desktop/optee-qemu/optee_os/lib/libutee/tee_api_arith_mpi.c:277
    33e8:	aa1503e1 	mov	x1, x21
    33ec:	aa1303e0 	mov	x0, x19
    33f0:	940004d4 	bl	4740 <mbedtls_mpi_copy>
    33f4:	34000080 	cbz	w0, 3404 <TEE_BigIntShiftRight+0x124>
/home/hei/Desktop/optee-qemu/optee_os/lib/libutee/tee_api_arith_mpi.c:277 (discriminator 1)
    33f8:	2a0003e2 	mov	w2, w0
    33fc:	528022a1 	mov	w1, #0x115                 	// #277
    3400:	17ffffcc 	b	3330 <TEE_BigIntShiftRight+0x50>
/home/hei/Desktop/optee-qemu/optee_os/lib/libutee/tee_api_arith_mpi.c:279
    3404:	aa1503e0 	mov	x0, x21
    3408:	9400042d 	bl	44bc <mbedtls_mpi_free>
/home/hei/Desktop/optee-qemu/optee_os/lib/libutee/tee_api_arith_mpi.c:282
    340c:	aa1403e0 	mov	x0, x20
    3410:	9400042b 	bl	44bc <mbedtls_mpi_free>
/home/hei/Desktop/optee-qemu/optee_os/lib/libutee/tee_api_arith_mpi.c:285
    3414:	aa1603e1 	mov	x1, x22
    3418:	aa1303e0 	mov	x0, x19
    341c:	97fffca1 	bl	26a0 <copy_mpi_to_bigint>
    3420:	34000080 	cbz	w0, 3430 <TEE_BigIntShiftRight+0x150>
/home/hei/Desktop/optee-qemu/optee_os/lib/libutee/tee_api_arith_mpi.c:285 (discriminator 1)
    3424:	2a0003e2 	mov	w2, w0
    3428:	528023a1 	mov	w1, #0x11d                 	// #285
    342c:	17ffffc1 	b	3330 <TEE_BigIntShiftRight+0x50>
/home/hei/Desktop/optee-qemu/optee_os/lib/libutee/tee_api_arith_mpi.c:286
    3430:	aa1303e0 	mov	x0, x19
    3434:	94000422 	bl	44bc <mbedtls_mpi_free>
/home/hei/Desktop/optee-qemu/optee_os/lib/libutee/tee_api_arith_mpi.c:287
    3438:	a94153f3 	ldp	x19, x20, [sp, #16]
    343c:	a9425bf5 	ldp	x21, x22, [sp, #32]
    3440:	f9401bf7 	ldr	x23, [sp, #48]
    3444:	a8c97bfd 	ldp	x29, x30, [sp], #144
    3448:	d65f03c0 	ret

000000000000344c <TEE_BigIntGetBit>:
TEE_BigIntGetBit():
/home/hei/Desktop/optee-qemu/optee_os/lib/libutee/tee_api_arith_mpi.c:290
    344c:	a9bc7bfd 	stp	x29, x30, [sp, #-64]!
    3450:	910003fd 	mov	x29, sp
    3454:	a90153f3 	stp	x19, x20, [sp, #16]
/home/hei/Desktop/optee-qemu/optee_os/lib/libutee/tee_api_arith_mpi.c:294
    3458:	9100a3f3 	add	x19, sp, #0x28
/home/hei/Desktop/optee-qemu/optee_os/lib/libutee/tee_api_arith_mpi.c:290
    345c:	2a0103f4 	mov	w20, w1
/home/hei/Desktop/optee-qemu/optee_os/lib/libutee/tee_api_arith_mpi.c:294
    3460:	aa0003e1 	mov	x1, x0
    3464:	aa1303e0 	mov	x0, x19
    3468:	97fffc68 	bl	2608 <get_mpi>
/home/hei/Desktop/optee-qemu/optee_os/lib/libutee/tee_api_arith_mpi.c:296
    346c:	2a1403e1 	mov	w1, w20
    3470:	aa1303e0 	mov	x0, x19
    3474:	9400057b 	bl	4a60 <mbedtls_mpi_get_bit>
    3478:	2a0003f4 	mov	w20, w0
/home/hei/Desktop/optee-qemu/optee_os/lib/libutee/tee_api_arith_mpi.c:298
    347c:	aa1303e0 	mov	x0, x19
    3480:	9400040f 	bl	44bc <mbedtls_mpi_free>
/home/hei/Desktop/optee-qemu/optee_os/lib/libutee/tee_api_arith_mpi.c:296
    3484:	7100029f 	cmp	w20, #0x0
/home/hei/Desktop/optee-qemu/optee_os/lib/libutee/tee_api_arith_mpi.c:301
    3488:	1a9f07e0 	cset	w0, ne  // ne = any
    348c:	a94153f3 	ldp	x19, x20, [sp, #16]
    3490:	a8c47bfd 	ldp	x29, x30, [sp], #64
    3494:	d65f03c0 	ret

0000000000003498 <TEE_BigIntGetBitCount>:
TEE_BigIntGetBitCount():
/home/hei/Desktop/optee-qemu/optee_os/lib/libutee/tee_api_arith_mpi.c:304
    3498:	a9bc7bfd 	stp	x29, x30, [sp, #-64]!
/home/hei/Desktop/optee-qemu/optee_os/lib/libutee/tee_api_arith_mpi.c:308
    349c:	aa0003e1 	mov	x1, x0
/home/hei/Desktop/optee-qemu/optee_os/lib/libutee/tee_api_arith_mpi.c:304
    34a0:	910003fd 	mov	x29, sp
    34a4:	a90153f3 	stp	x19, x20, [sp, #16]
/home/hei/Desktop/optee-qemu/optee_os/lib/libutee/tee_api_arith_mpi.c:308
    34a8:	9100a3f3 	add	x19, sp, #0x28
    34ac:	aa1303e0 	mov	x0, x19
    34b0:	97fffc56 	bl	2608 <get_mpi>
/home/hei/Desktop/optee-qemu/optee_os/lib/libutee/tee_api_arith_mpi.c:310
    34b4:	aa1303e0 	mov	x0, x19
    34b8:	940005ad 	bl	4b6c <mbedtls_mpi_bitlen>
    34bc:	aa0003f4 	mov	x20, x0
/home/hei/Desktop/optee-qemu/optee_os/lib/libutee/tee_api_arith_mpi.c:312
    34c0:	aa1303e0 	mov	x0, x19
    34c4:	940003fe 	bl	44bc <mbedtls_mpi_free>
/home/hei/Desktop/optee-qemu/optee_os/lib/libutee/tee_api_arith_mpi.c:315
    34c8:	2a1403e0 	mov	w0, w20
    34cc:	a94153f3 	ldp	x19, x20, [sp, #16]
    34d0:	a8c47bfd 	ldp	x29, x30, [sp], #64
    34d4:	d65f03c0 	ret

00000000000034d8 <TEE_BigIntAdd>:
TEE_BigIntAdd():
/home/hei/Desktop/optee-qemu/optee_os/lib/libutee/tee_api_arith_mpi.c:400
    34d8:	b0000043 	adrp	x3, c000 <_DYNAMIC>
    34dc:	f940a863 	ldr	x3, [x3, #336]
    34e0:	17fffc89 	b	2704 <bigint_binary>

00000000000034e4 <TEE_BigIntSub>:
TEE_BigIntSub():
/home/hei/Desktop/optee-qemu/optee_os/lib/libutee/tee_api_arith_mpi.c:406
    34e4:	b0000043 	adrp	x3, c000 <_DYNAMIC>
    34e8:	f940b063 	ldr	x3, [x3, #352]
    34ec:	17fffc86 	b	2704 <bigint_binary>

00000000000034f0 <TEE_BigIntNeg>:
TEE_BigIntNeg():
/home/hei/Desktop/optee-qemu/optee_os/lib/libutee/tee_api_arith_mpi.c:410
    34f0:	a9ba7bfd 	stp	x29, x30, [sp, #-96]!
    34f4:	910003fd 	mov	x29, sp
    34f8:	a90153f3 	stp	x19, x20, [sp, #16]
/home/hei/Desktop/optee-qemu/optee_os/lib/libutee/tee_api_arith_mpi.c:413
    34fc:	9100c3f3 	add	x19, sp, #0x30
/home/hei/Desktop/optee-qemu/optee_os/lib/libutee/tee_api_arith_mpi.c:410
    3500:	aa0003f4 	mov	x20, x0
    3504:	a9025bf5 	stp	x21, x22, [sp, #32]
    3508:	aa0103f6 	mov	x22, x1
/home/hei/Desktop/optee-qemu/optee_os/lib/libutee/tee_api_arith_mpi.c:413
    350c:	aa0003e1 	mov	x1, x0
    3510:	aa1303e0 	mov	x0, x19
    3514:	97fffc3d 	bl	2608 <get_mpi>
/home/hei/Desktop/optee-qemu/optee_os/lib/libutee/tee_api_arith_mpi.c:415
    3518:	eb16029f 	cmp	x20, x22
    351c:	54000220 	b.eq	3560 <TEE_BigIntNeg+0x70>  // b.none
/home/hei/Desktop/optee-qemu/optee_os/lib/libutee/tee_api_arith_mpi.c:418
    3520:	910123f5 	add	x21, sp, #0x48
    3524:	aa1603e1 	mov	x1, x22
    3528:	aa1503e0 	mov	x0, x21
    352c:	97fffc37 	bl	2608 <get_mpi>
/home/hei/Desktop/optee-qemu/optee_os/lib/libutee/tee_api_arith_mpi.c:420
    3530:	aa1503e1 	mov	x1, x21
    3534:	aa1303e0 	mov	x0, x19
    3538:	94000482 	bl	4740 <mbedtls_mpi_copy>
    353c:	340000e0 	cbz	w0, 3558 <TEE_BigIntNeg+0x68>
/home/hei/Desktop/optee-qemu/optee_os/lib/libutee/tee_api_arith_mpi.c:420 (discriminator 1)
    3540:	2a0003e2 	mov	w2, w0
    3544:	52803481 	mov	w1, #0x1a4                 	// #420
/home/hei/Desktop/optee-qemu/optee_os/lib/libutee/tee_api_arith_mpi.c:427 (discriminator 1)
    3548:	f0000020 	adrp	x0, a000 <__text_end+0x1540>
    354c:	91303400 	add	x0, x0, #0xc0d
    3550:	91027c00 	add	x0, x0, #0x9f
    3554:	97fffc21 	bl	25d8 <mpi_panic>
/home/hei/Desktop/optee-qemu/optee_os/lib/libutee/tee_api_arith_mpi.c:422
    3558:	aa1503e0 	mov	x0, x21
    355c:	940003d8 	bl	44bc <mbedtls_mpi_free>
/home/hei/Desktop/optee-qemu/optee_os/lib/libutee/tee_api_arith_mpi.c:425
    3560:	794063e0 	ldrh	w0, [sp, #48]
/home/hei/Desktop/optee-qemu/optee_os/lib/libutee/tee_api_arith_mpi.c:427
    3564:	aa1403e1 	mov	x1, x20
/home/hei/Desktop/optee-qemu/optee_os/lib/libutee/tee_api_arith_mpi.c:425
    3568:	4b0003e0 	neg	w0, w0
    356c:	790063e0 	strh	w0, [sp, #48]
/home/hei/Desktop/optee-qemu/optee_os/lib/libutee/tee_api_arith_mpi.c:427
    3570:	aa1303e0 	mov	x0, x19
    3574:	97fffc4b 	bl	26a0 <copy_mpi_to_bigint>
    3578:	34000080 	cbz	w0, 3588 <TEE_BigIntNeg+0x98>
/home/hei/Desktop/optee-qemu/optee_os/lib/libutee/tee_api_arith_mpi.c:427 (discriminator 1)
    357c:	2a0003e2 	mov	w2, w0
    3580:	52803561 	mov	w1, #0x1ab                 	// #427
    3584:	17fffff1 	b	3548 <TEE_BigIntNeg+0x58>
/home/hei/Desktop/optee-qemu/optee_os/lib/libutee/tee_api_arith_mpi.c:428
    3588:	aa1303e0 	mov	x0, x19
    358c:	940003cc 	bl	44bc <mbedtls_mpi_free>
/home/hei/Desktop/optee-qemu/optee_os/lib/libutee/tee_api_arith_mpi.c:429
    3590:	a94153f3 	ldp	x19, x20, [sp, #16]
    3594:	a9425bf5 	ldp	x21, x22, [sp, #32]
    3598:	a8c67bfd 	ldp	x29, x30, [sp], #96
    359c:	d65f03c0 	ret

00000000000035a0 <TEE_BigIntMul>:
TEE_BigIntMul():
/home/hei/Desktop/optee-qemu/optee_os/lib/libutee/tee_api_arith_mpi.c:433
    35a0:	a9ba7bfd 	stp	x29, x30, [sp, #-96]!
    35a4:	910003fd 	mov	x29, sp
    35a8:	a90153f3 	stp	x19, x20, [sp, #16]
    35ac:	a9025bf5 	stp	x21, x22, [sp, #32]
/home/hei/Desktop/optee-qemu/optee_os/lib/libutee/tee_api_arith_mpi.c:440
    35b0:	b0000056 	adrp	x22, c000 <_DYNAMIC>
    35b4:	aa1603f5 	mov	x21, x22
/home/hei/Desktop/optee-qemu/optee_os/lib/libutee/tee_api_arith_mpi.c:433
    35b8:	a90363f7 	stp	x23, x24, [sp, #48]
    35bc:	aa0203f8 	mov	x24, x2
    35c0:	aa0103f7 	mov	x23, x1
    35c4:	f90023f9 	str	x25, [sp, #64]
    35c8:	aa0003f9 	mov	x25, x0
/home/hei/Desktop/optee-qemu/optee_os/lib/libutee/tee_api_arith_mpi.c:434
    35cc:	aa0103e0 	mov	x0, x1
    35d0:	97ffffb2 	bl	3498 <TEE_BigIntGetBitCount>
    35d4:	2a0003f3 	mov	w19, w0
/home/hei/Desktop/optee-qemu/optee_os/lib/libutee/tee_api_arith_mpi.c:435
    35d8:	aa1803e0 	mov	x0, x24
    35dc:	97ffffaf 	bl	3498 <TEE_BigIntGetBitCount>
    35e0:	2a0003e0 	mov	w0, w0
/home/hei/Desktop/optee-qemu/optee_os/lib/libutee/tee_api_arith_mpi.c:436
    35e4:	91007c00 	add	x0, x0, #0x1f
    35e8:	91007e73 	add	x19, x19, #0x1f
/home/hei/Desktop/optee-qemu/optee_os/lib/libutee/tee_api_arith_mpi.c:437
    35ec:	f9002bff 	str	xzr, [sp, #80]
/home/hei/Desktop/optee-qemu/optee_os/lib/libutee/tee_api_arith_mpi.c:436
    35f0:	d345fc00 	lsr	x0, x0, #5
/home/hei/Desktop/optee-qemu/optee_os/lib/libutee/tee_api_arith_mpi.c:437
    35f4:	b9005bff 	str	wzr, [sp, #88]
/home/hei/Desktop/optee-qemu/optee_os/lib/libutee/tee_api_arith_mpi.c:436
    35f8:	8b531413 	add	x19, x0, x19, lsr #5
/home/hei/Desktop/optee-qemu/optee_os/lib/libutee/tee_api_arith_mpi.c:440
    35fc:	f940c6c0 	ldr	x0, [x22, #392]
/home/hei/Desktop/optee-qemu/optee_os/lib/libutee/tee_api_arith_mpi.c:436
    3600:	91001273 	add	x19, x19, #0x4
/home/hei/Desktop/optee-qemu/optee_os/lib/libutee/tee_api_arith_mpi.c:440
    3604:	d37ef661 	lsl	x1, x19, #2
    3608:	f9400000 	ldr	x0, [x0]
    360c:	940014ab 	bl	88b8 <mempool_alloc>
    3610:	aa0003f4 	mov	x20, x0
/home/hei/Desktop/optee-qemu/optee_os/lib/libutee/tee_api_arith_mpi.c:441
    3614:	b5000060 	cbnz	x0, 3620 <TEE_BigIntMul+0x80>
/home/hei/Desktop/optee-qemu/optee_os/lib/libutee/tee_api_arith_mpi.c:442
    3618:	129ffe60 	mov	w0, #0xffff000c            	// #-65524
    361c:	97fffb7f 	bl	2418 <TEE_Panic>
/home/hei/Desktop/optee-qemu/optee_os/lib/libutee/tee_api_arith_mpi.c:444
    3620:	2a1303e1 	mov	w1, w19
    3624:	aa1403e0 	mov	x0, x20
/home/hei/Desktop/optee-qemu/optee_os/lib/libutee/tee_api_arith_mpi.c:445
    3628:	910143f3 	add	x19, sp, #0x50
/home/hei/Desktop/optee-qemu/optee_os/lib/libutee/tee_api_arith_mpi.c:444
    362c:	97fffdf5 	bl	2e00 <TEE_BigIntInit>
/home/hei/Desktop/optee-qemu/optee_os/lib/libutee/tee_api_arith_mpi.c:445
    3630:	aa1303e0 	mov	x0, x19
    3634:	52800061 	mov	w1, #0x3                   	// #3
    3638:	97fffdf2 	bl	2e00 <TEE_BigIntInit>
/home/hei/Desktop/optee-qemu/optee_os/lib/libutee/tee_api_arith_mpi.c:447
    363c:	f940a6a3 	ldr	x3, [x21, #328]
    3640:	aa1803e2 	mov	x2, x24
    3644:	aa1703e1 	mov	x1, x23
    3648:	aa1403e0 	mov	x0, x20
    364c:	97fffc2e 	bl	2704 <bigint_binary>
/home/hei/Desktop/optee-qemu/optee_os/lib/libutee/tee_api_arith_mpi.c:449
    3650:	aa1303e2 	mov	x2, x19
    3654:	aa1403e1 	mov	x1, x20
    3658:	aa1903e0 	mov	x0, x25
    365c:	97ffff9f 	bl	34d8 <TEE_BigIntAdd>
/home/hei/Desktop/optee-qemu/optee_os/lib/libutee/tee_api_arith_mpi.c:451
    3660:	f940c6b5 	ldr	x21, [x21, #392]
    3664:	aa1403e1 	mov	x1, x20
    3668:	f94002a0 	ldr	x0, [x21]
    366c:	940014d2 	bl	89b4 <mempool_free>
/home/hei/Desktop/optee-qemu/optee_os/lib/libutee/tee_api_arith_mpi.c:452
    3670:	a94153f3 	ldp	x19, x20, [sp, #16]
    3674:	a9425bf5 	ldp	x21, x22, [sp, #32]
    3678:	a94363f7 	ldp	x23, x24, [sp, #48]
    367c:	f94023f9 	ldr	x25, [sp, #64]
    3680:	a8c67bfd 	ldp	x29, x30, [sp], #96
    3684:	d65f03c0 	ret

0000000000003688 <TEE_BigIntSquare>:
TEE_BigIntSquare():
/home/hei/Desktop/optee-qemu/optee_os/lib/libutee/tee_api_arith_mpi.c:456
    3688:	aa0103e2 	mov	x2, x1
    368c:	17ffffc5 	b	35a0 <TEE_BigIntMul>

0000000000003690 <TEE_BigIntDiv>:
TEE_BigIntDiv():
/home/hei/Desktop/optee-qemu/optee_os/lib/libutee/tee_api_arith_mpi.c:461
    3690:	a9b47bfd 	stp	x29, x30, [sp, #-192]!
    3694:	910003fd 	mov	x29, sp
    3698:	a9025bf5 	stp	x21, x22, [sp, #32]
/home/hei/Desktop/optee-qemu/optee_os/lib/libutee/tee_api_arith_mpi.c:469
    369c:	910183f6 	add	x22, sp, #0x60
/home/hei/Desktop/optee-qemu/optee_os/lib/libutee/tee_api_arith_mpi.c:470
    36a0:	9101e3f5 	add	x21, sp, #0x78
/home/hei/Desktop/optee-qemu/optee_os/lib/libutee/tee_api_arith_mpi.c:461
    36a4:	a90153f3 	stp	x19, x20, [sp, #16]
    36a8:	aa0303f3 	mov	x19, x3
    36ac:	a90363f7 	stp	x23, x24, [sp, #48]
    36b0:	aa0003f8 	mov	x24, x0
    36b4:	aa0103f7 	mov	x23, x1
/home/hei/Desktop/optee-qemu/optee_os/lib/libutee/tee_api_arith_mpi.c:469
    36b8:	aa0003e1 	mov	x1, x0
    36bc:	aa1603e0 	mov	x0, x22
/home/hei/Desktop/optee-qemu/optee_os/lib/libutee/tee_api_arith_mpi.c:461
    36c0:	a9046bf9 	stp	x25, x26, [sp, #64]
    36c4:	aa0203f9 	mov	x25, x2
    36c8:	f9002bfb 	str	x27, [sp, #80]
/home/hei/Desktop/optee-qemu/optee_os/lib/libutee/tee_api_arith_mpi.c:469
    36cc:	97fffbcf 	bl	2608 <get_mpi>
/home/hei/Desktop/optee-qemu/optee_os/lib/libutee/tee_api_arith_mpi.c:470
    36d0:	aa1703e1 	mov	x1, x23
    36d4:	aa1503e0 	mov	x0, x21
    36d8:	97fffbcc 	bl	2608 <get_mpi>
/home/hei/Desktop/optee-qemu/optee_os/lib/libutee/tee_api_arith_mpi.c:472
    36dc:	910243fb 	add	x27, sp, #0x90
    36e0:	eb19031f 	cmp	x24, x25
    36e4:	540003c0 	b.eq	375c <TEE_BigIntDiv+0xcc>  // b.none
/home/hei/Desktop/optee-qemu/optee_os/lib/libutee/tee_api_arith_mpi.c:474
    36e8:	eb1902ff 	cmp	x23, x25
    36ec:	540003c0 	b.eq	3764 <TEE_BigIntDiv+0xd4>  // b.none
/home/hei/Desktop/optee-qemu/optee_os/lib/libutee/tee_api_arith_mpi.c:466
    36f0:	aa1b03f4 	mov	x20, x27
/home/hei/Desktop/optee-qemu/optee_os/lib/libutee/tee_api_arith_mpi.c:477
    36f4:	aa1903e1 	mov	x1, x25
    36f8:	aa1b03e0 	mov	x0, x27
    36fc:	97fffbc3 	bl	2608 <get_mpi>
/home/hei/Desktop/optee-qemu/optee_os/lib/libutee/tee_api_arith_mpi.c:479
    3700:	eb13031f 	cmp	x24, x19
    3704:	9102a3fa 	add	x26, sp, #0xa8
    3708:	54000320 	b.eq	376c <TEE_BigIntDiv+0xdc>  // b.none
/home/hei/Desktop/optee-qemu/optee_os/lib/libutee/tee_api_arith_mpi.c:481
    370c:	eb1302ff 	cmp	x23, x19
    3710:	54000320 	b.eq	3774 <TEE_BigIntDiv+0xe4>  // b.none
/home/hei/Desktop/optee-qemu/optee_os/lib/libutee/tee_api_arith_mpi.c:483
    3714:	eb13033f 	cmp	x25, x19
    3718:	54000320 	b.eq	377c <TEE_BigIntDiv+0xec>  // b.none
/home/hei/Desktop/optee-qemu/optee_os/lib/libutee/tee_api_arith_mpi.c:486
    371c:	aa1303e1 	mov	x1, x19
/home/hei/Desktop/optee-qemu/optee_os/lib/libutee/tee_api_arith_mpi.c:467
    3720:	aa1a03f3 	mov	x19, x26
/home/hei/Desktop/optee-qemu/optee_os/lib/libutee/tee_api_arith_mpi.c:486
    3724:	aa1a03e0 	mov	x0, x26
    3728:	97fffbb8 	bl	2608 <get_mpi>
/home/hei/Desktop/optee-qemu/optee_os/lib/libutee/tee_api_arith_mpi.c:488
    372c:	aa1303e3 	mov	x3, x19
    3730:	aa1403e2 	mov	x2, x20
    3734:	aa1503e1 	mov	x1, x21
    3738:	aa1603e0 	mov	x0, x22
    373c:	94000827 	bl	57d8 <mbedtls_mpi_div_mpi>
    3740:	34000220 	cbz	w0, 3784 <TEE_BigIntDiv+0xf4>
/home/hei/Desktop/optee-qemu/optee_os/lib/libutee/tee_api_arith_mpi.c:488 (discriminator 1)
    3744:	2a0003e2 	mov	w2, w0
    3748:	52803d01 	mov	w1, #0x1e8                 	// #488
/home/hei/Desktop/optee-qemu/optee_os/lib/libutee/tee_api_arith_mpi.c:490 (discriminator 1)
    374c:	f0000020 	adrp	x0, a000 <__text_end+0x1540>
    3750:	91303400 	add	x0, x0, #0xc0d
    3754:	9102b400 	add	x0, x0, #0xad
    3758:	97fffba0 	bl	25d8 <mpi_panic>
/home/hei/Desktop/optee-qemu/optee_os/lib/libutee/tee_api_arith_mpi.c:473
    375c:	aa1603f4 	mov	x20, x22
    3760:	17ffffe8 	b	3700 <TEE_BigIntDiv+0x70>
/home/hei/Desktop/optee-qemu/optee_os/lib/libutee/tee_api_arith_mpi.c:475
    3764:	aa1503f4 	mov	x20, x21
    3768:	17ffffe6 	b	3700 <TEE_BigIntDiv+0x70>
/home/hei/Desktop/optee-qemu/optee_os/lib/libutee/tee_api_arith_mpi.c:480
    376c:	aa1603f3 	mov	x19, x22
    3770:	17ffffef 	b	372c <TEE_BigIntDiv+0x9c>
/home/hei/Desktop/optee-qemu/optee_os/lib/libutee/tee_api_arith_mpi.c:482
    3774:	aa1503f3 	mov	x19, x21
    3778:	17ffffed 	b	372c <TEE_BigIntDiv+0x9c>
/home/hei/Desktop/optee-qemu/optee_os/lib/libutee/tee_api_arith_mpi.c:484
    377c:	aa1403f3 	mov	x19, x20
    3780:	17ffffeb 	b	372c <TEE_BigIntDiv+0x9c>
/home/hei/Desktop/optee-qemu/optee_os/lib/libutee/tee_api_arith_mpi.c:490
    3784:	aa1803e1 	mov	x1, x24
    3788:	aa1603e0 	mov	x0, x22
    378c:	97fffbc5 	bl	26a0 <copy_mpi_to_bigint>
    3790:	34000080 	cbz	w0, 37a0 <TEE_BigIntDiv+0x110>
/home/hei/Desktop/optee-qemu/optee_os/lib/libutee/tee_api_arith_mpi.c:490 (discriminator 1)
    3794:	2a0003e2 	mov	w2, w0
    3798:	52803d41 	mov	w1, #0x1ea                 	// #490
    379c:	17ffffec 	b	374c <TEE_BigIntDiv+0xbc>
/home/hei/Desktop/optee-qemu/optee_os/lib/libutee/tee_api_arith_mpi.c:491
    37a0:	aa1703e1 	mov	x1, x23
    37a4:	aa1503e0 	mov	x0, x21
    37a8:	97fffbbe 	bl	26a0 <copy_mpi_to_bigint>
    37ac:	34000080 	cbz	w0, 37bc <TEE_BigIntDiv+0x12c>
/home/hei/Desktop/optee-qemu/optee_os/lib/libutee/tee_api_arith_mpi.c:491 (discriminator 1)
    37b0:	2a0003e2 	mov	w2, w0
    37b4:	52803d61 	mov	w1, #0x1eb                 	// #491
    37b8:	17ffffe5 	b	374c <TEE_BigIntDiv+0xbc>
/home/hei/Desktop/optee-qemu/optee_os/lib/libutee/tee_api_arith_mpi.c:492
    37bc:	aa1603e0 	mov	x0, x22
    37c0:	9400033f 	bl	44bc <mbedtls_mpi_free>
/home/hei/Desktop/optee-qemu/optee_os/lib/libutee/tee_api_arith_mpi.c:493
    37c4:	aa1503e0 	mov	x0, x21
    37c8:	9400033d 	bl	44bc <mbedtls_mpi_free>
/home/hei/Desktop/optee-qemu/optee_os/lib/libutee/tee_api_arith_mpi.c:494
    37cc:	eb1b029f 	cmp	x20, x27
    37d0:	54000061 	b.ne	37dc <TEE_BigIntDiv+0x14c>  // b.any
/home/hei/Desktop/optee-qemu/optee_os/lib/libutee/tee_api_arith_mpi.c:495
    37d4:	aa1403e0 	mov	x0, x20
    37d8:	94000339 	bl	44bc <mbedtls_mpi_free>
/home/hei/Desktop/optee-qemu/optee_os/lib/libutee/tee_api_arith_mpi.c:496
    37dc:	eb1a027f 	cmp	x19, x26
    37e0:	54000061 	b.ne	37ec <TEE_BigIntDiv+0x15c>  // b.any
/home/hei/Desktop/optee-qemu/optee_os/lib/libutee/tee_api_arith_mpi.c:497
    37e4:	aa1303e0 	mov	x0, x19
    37e8:	94000335 	bl	44bc <mbedtls_mpi_free>
/home/hei/Desktop/optee-qemu/optee_os/lib/libutee/tee_api_arith_mpi.c:498
    37ec:	a94153f3 	ldp	x19, x20, [sp, #16]
    37f0:	a9425bf5 	ldp	x21, x22, [sp, #32]
    37f4:	a94363f7 	ldp	x23, x24, [sp, #48]
    37f8:	a9446bf9 	ldp	x25, x26, [sp, #64]
    37fc:	f9402bfb 	ldr	x27, [sp, #80]
    3800:	a8cc7bfd 	ldp	x29, x30, [sp], #192
    3804:	d65f03c0 	ret

0000000000003808 <TEE_BigIntMod>:
TEE_BigIntMod():
/home/hei/Desktop/optee-qemu/optee_os/lib/libutee/tee_api_arith_mpi.c:501
    3808:	a9bd7bfd 	stp	x29, x30, [sp, #-48]!
    380c:	910003fd 	mov	x29, sp
    3810:	a90153f3 	stp	x19, x20, [sp, #16]
    3814:	aa0003f3 	mov	x19, x0
    3818:	aa0103f4 	mov	x20, x1
/home/hei/Desktop/optee-qemu/optee_os/lib/libutee/tee_api_arith_mpi.c:502
    381c:	aa0203e0 	mov	x0, x2
    3820:	52800041 	mov	w1, #0x2                   	// #2
    3824:	f90017e2 	str	x2, [sp, #40]
    3828:	97fffe37 	bl	3104 <TEE_BigIntCmpS32>
    382c:	f94017e2 	ldr	x2, [sp, #40]
    3830:	36f80100 	tbz	w0, #31, 3850 <TEE_BigIntMod+0x48>
/home/hei/Desktop/optee-qemu/optee_os/lib/libutee/tee_api_arith_mpi.c:503
    3834:	f0000020 	adrp	x0, a000 <__text_end+0x1540>
    3838:	91303400 	add	x0, x0, #0xc0d
    383c:	f0000022 	adrp	x2, a000 <__text_end+0x1540>
    3840:	52803ee1 	mov	w1, #0x1f7                 	// #503
    3844:	91370442 	add	x2, x2, #0xdc1
    3848:	9102ec00 	add	x0, x0, #0xbb
    384c:	97fffb57 	bl	25a8 <api_panic>
/home/hei/Desktop/optee-qemu/optee_os/lib/libutee/tee_api_arith_mpi.c:505
    3850:	b0000043 	adrp	x3, c000 <_DYNAMIC>
    3854:	aa1403e1 	mov	x1, x20
    3858:	aa1303e0 	mov	x0, x19
    385c:	f940b863 	ldr	x3, [x3, #368]
/home/hei/Desktop/optee-qemu/optee_os/lib/libutee/tee_api_arith_mpi.c:506
    3860:	a94153f3 	ldp	x19, x20, [sp, #16]
    3864:	a8c37bfd 	ldp	x29, x30, [sp], #48
/home/hei/Desktop/optee-qemu/optee_os/lib/libutee/tee_api_arith_mpi.c:505
    3868:	17fffba7 	b	2704 <bigint_binary>

000000000000386c <TEE_BigIntAddMod>:
TEE_BigIntAddMod():
/home/hei/Desktop/optee-qemu/optee_os/lib/libutee/tee_api_arith_mpi.c:511
    386c:	b0000044 	adrp	x4, c000 <_DYNAMIC>
    3870:	f940a884 	ldr	x4, [x4, #336]
    3874:	17fffe36 	b	314c <bigint_binary_mod>

0000000000003878 <TEE_BigIntSubMod>:
TEE_BigIntSubMod():
/home/hei/Desktop/optee-qemu/optee_os/lib/libutee/tee_api_arith_mpi.c:517
    3878:	b0000044 	adrp	x4, c000 <_DYNAMIC>
    387c:	f940b084 	ldr	x4, [x4, #352]
    3880:	17fffe33 	b	314c <bigint_binary_mod>

0000000000003884 <TEE_BigIntMulMod>:
TEE_BigIntMulMod():
/home/hei/Desktop/optee-qemu/optee_os/lib/libutee/tee_api_arith_mpi.c:523
    3884:	b0000044 	adrp	x4, c000 <_DYNAMIC>
    3888:	f940a484 	ldr	x4, [x4, #328]
    388c:	17fffe30 	b	314c <bigint_binary_mod>

0000000000003890 <TEE_BigIntSquareMod>:
TEE_BigIntSquareMod():
/home/hei/Desktop/optee-qemu/optee_os/lib/libutee/tee_api_arith_mpi.c:529
    3890:	aa0203e3 	mov	x3, x2
    3894:	aa0103e2 	mov	x2, x1
    3898:	17fffffb 	b	3884 <TEE_BigIntMulMod>

000000000000389c <TEE_BigIntInvMod>:
TEE_BigIntInvMod():
/home/hei/Desktop/optee-qemu/optee_os/lib/libutee/tee_api_arith_mpi.c:534
    389c:	a9b77bfd 	stp	x29, x30, [sp, #-144]!
    38a0:	910003fd 	mov	x29, sp
    38a4:	a90153f3 	stp	x19, x20, [sp, #16]
    38a8:	aa0103f4 	mov	x20, x1
/home/hei/Desktop/optee-qemu/optee_os/lib/libutee/tee_api_arith_mpi.c:535
    38ac:	52800041 	mov	w1, #0x2                   	// #2
/home/hei/Desktop/optee-qemu/optee_os/lib/libutee/tee_api_arith_mpi.c:534
    38b0:	a9025bf5 	stp	x21, x22, [sp, #32]
    38b4:	aa0203f5 	mov	x21, x2
    38b8:	f9001bf7 	str	x23, [sp, #48]
    38bc:	aa0003f7 	mov	x23, x0
/home/hei/Desktop/optee-qemu/optee_os/lib/libutee/tee_api_arith_mpi.c:535
    38c0:	aa0203e0 	mov	x0, x2
    38c4:	97fffe10 	bl	3104 <TEE_BigIntCmpS32>
    38c8:	36f80100 	tbz	w0, #31, 38e8 <TEE_BigIntInvMod+0x4c>
/home/hei/Desktop/optee-qemu/optee_os/lib/libutee/tee_api_arith_mpi.c:536
    38cc:	f0000020 	adrp	x0, a000 <__text_end+0x1540>
    38d0:	91303400 	add	x0, x0, #0xc0d
    38d4:	f0000022 	adrp	x2, a000 <__text_end+0x1540>
    38d8:	52804301 	mov	w1, #0x218                 	// #536
    38dc:	91375842 	add	x2, x2, #0xdd6
    38e0:	91032400 	add	x0, x0, #0xc9
    38e4:	97fffb31 	bl	25a8 <api_panic>
/home/hei/Desktop/optee-qemu/optee_os/lib/libutee/tee_api_arith_mpi.c:535 (discriminator 1)
    38e8:	52800001 	mov	w1, #0x0                   	// #0
    38ec:	aa1403e0 	mov	x0, x20
    38f0:	97fffe05 	bl	3104 <TEE_BigIntCmpS32>
    38f4:	34fffec0 	cbz	w0, 38cc <TEE_BigIntInvMod+0x30>
/home/hei/Desktop/optee-qemu/optee_os/lib/libutee/tee_api_arith_mpi.c:543
    38f8:	910123f3 	add	x19, sp, #0x48
    38fc:	aa1703e1 	mov	x1, x23
    3900:	aa1303e0 	mov	x0, x19
/home/hei/Desktop/optee-qemu/optee_os/lib/libutee/tee_api_arith_mpi.c:544
    3904:	9101e3f6 	add	x22, sp, #0x78
/home/hei/Desktop/optee-qemu/optee_os/lib/libutee/tee_api_arith_mpi.c:543
    3908:	97fffb40 	bl	2608 <get_mpi>
/home/hei/Desktop/optee-qemu/optee_os/lib/libutee/tee_api_arith_mpi.c:544
    390c:	aa1503e1 	mov	x1, x21
    3910:	aa1603e0 	mov	x0, x22
    3914:	97fffb3d 	bl	2608 <get_mpi>
/home/hei/Desktop/optee-qemu/optee_os/lib/libutee/tee_api_arith_mpi.c:546
    3918:	910183f5 	add	x21, sp, #0x60
    391c:	eb17029f 	cmp	x20, x23
    3920:	54000200 	b.eq	3960 <TEE_BigIntInvMod+0xc4>  // b.none
/home/hei/Desktop/optee-qemu/optee_os/lib/libutee/tee_api_arith_mpi.c:549
    3924:	aa1403e1 	mov	x1, x20
/home/hei/Desktop/optee-qemu/optee_os/lib/libutee/tee_api_arith_mpi.c:541
    3928:	aa1503f4 	mov	x20, x21
/home/hei/Desktop/optee-qemu/optee_os/lib/libutee/tee_api_arith_mpi.c:549
    392c:	aa1503e0 	mov	x0, x21
    3930:	97fffb36 	bl	2608 <get_mpi>
/home/hei/Desktop/optee-qemu/optee_os/lib/libutee/tee_api_arith_mpi.c:551
    3934:	aa1603e2 	mov	x2, x22
    3938:	aa1403e1 	mov	x1, x20
    393c:	aa1303e0 	mov	x0, x19
    3940:	94000d67 	bl	6edc <mbedtls_mpi_inv_mod>
    3944:	34000120 	cbz	w0, 3968 <TEE_BigIntInvMod+0xcc>
/home/hei/Desktop/optee-qemu/optee_os/lib/libutee/tee_api_arith_mpi.c:551 (discriminator 1)
    3948:	2a0003e2 	mov	w2, w0
    394c:	528044e1 	mov	w1, #0x227                 	// #551
/home/hei/Desktop/optee-qemu/optee_os/lib/libutee/tee_api_arith_mpi.c:553 (discriminator 1)
    3950:	f0000020 	adrp	x0, a000 <__text_end+0x1540>
    3954:	91303400 	add	x0, x0, #0xc0d
    3958:	91032400 	add	x0, x0, #0xc9
    395c:	97fffb1f 	bl	25d8 <mpi_panic>
/home/hei/Desktop/optee-qemu/optee_os/lib/libutee/tee_api_arith_mpi.c:547
    3960:	aa1303f4 	mov	x20, x19
    3964:	17fffff4 	b	3934 <TEE_BigIntInvMod+0x98>
/home/hei/Desktop/optee-qemu/optee_os/lib/libutee/tee_api_arith_mpi.c:553
    3968:	aa1703e1 	mov	x1, x23
    396c:	aa1303e0 	mov	x0, x19
    3970:	97fffb4c 	bl	26a0 <copy_mpi_to_bigint>
    3974:	34000080 	cbz	w0, 3984 <TEE_BigIntInvMod+0xe8>
/home/hei/Desktop/optee-qemu/optee_os/lib/libutee/tee_api_arith_mpi.c:553 (discriminator 1)
    3978:	2a0003e2 	mov	w2, w0
    397c:	52804521 	mov	w1, #0x229                 	// #553
    3980:	17fffff4 	b	3950 <TEE_BigIntInvMod+0xb4>
/home/hei/Desktop/optee-qemu/optee_os/lib/libutee/tee_api_arith_mpi.c:554
    3984:	aa1303e0 	mov	x0, x19
    3988:	940002cd 	bl	44bc <mbedtls_mpi_free>
/home/hei/Desktop/optee-qemu/optee_os/lib/libutee/tee_api_arith_mpi.c:555
    398c:	aa1603e0 	mov	x0, x22
    3990:	940002cb 	bl	44bc <mbedtls_mpi_free>
/home/hei/Desktop/optee-qemu/optee_os/lib/libutee/tee_api_arith_mpi.c:556
    3994:	eb15029f 	cmp	x20, x21
    3998:	54000061 	b.ne	39a4 <TEE_BigIntInvMod+0x108>  // b.any
/home/hei/Desktop/optee-qemu/optee_os/lib/libutee/tee_api_arith_mpi.c:557
    399c:	aa1403e0 	mov	x0, x20
    39a0:	940002c7 	bl	44bc <mbedtls_mpi_free>
/home/hei/Desktop/optee-qemu/optee_os/lib/libutee/tee_api_arith_mpi.c:558
    39a4:	a94153f3 	ldp	x19, x20, [sp, #16]
    39a8:	a9425bf5 	ldp	x21, x22, [sp, #32]
    39ac:	f9401bf7 	ldr	x23, [sp, #48]
    39b0:	a8c97bfd 	ldp	x29, x30, [sp], #144
    39b4:	d65f03c0 	ret

00000000000039b8 <TEE_BigIntRelativePrime>:
TEE_BigIntRelativePrime():
/home/hei/Desktop/optee-qemu/optee_os/lib/libutee/tee_api_arith_mpi.c:561
    39b8:	a9b77bfd 	stp	x29, x30, [sp, #-144]!
    39bc:	910003fd 	mov	x29, sp
    39c0:	a90153f3 	stp	x19, x20, [sp, #16]
/home/hei/Desktop/optee-qemu/optee_os/lib/libutee/tee_api_arith_mpi.c:568
    39c4:	910123f4 	add	x20, sp, #0x48
/home/hei/Desktop/optee-qemu/optee_os/lib/libutee/tee_api_arith_mpi.c:561
    39c8:	aa0003f3 	mov	x19, x0
    39cc:	a9025bf5 	stp	x21, x22, [sp, #32]
    39d0:	aa0103f5 	mov	x21, x1
/home/hei/Desktop/optee-qemu/optee_os/lib/libutee/tee_api_arith_mpi.c:568
    39d4:	aa0003e1 	mov	x1, x0
    39d8:	aa1403e0 	mov	x0, x20
/home/hei/Desktop/optee-qemu/optee_os/lib/libutee/tee_api_arith_mpi.c:561
    39dc:	f9001bf7 	str	x23, [sp, #48]
/home/hei/Desktop/optee-qemu/optee_os/lib/libutee/tee_api_arith_mpi.c:568
    39e0:	97fffb0a 	bl	2608 <get_mpi>
/home/hei/Desktop/optee-qemu/optee_os/lib/libutee/tee_api_arith_mpi.c:570
    39e4:	eb15027f 	cmp	x19, x21
    39e8:	910183f3 	add	x19, sp, #0x60
    39ec:	54000260 	b.eq	3a38 <TEE_BigIntRelativePrime+0x80>  // b.none
/home/hei/Desktop/optee-qemu/optee_os/lib/libutee/tee_api_arith_mpi.c:565
    39f0:	aa1303f6 	mov	x22, x19
/home/hei/Desktop/optee-qemu/optee_os/lib/libutee/tee_api_arith_mpi.c:573
    39f4:	aa1503e1 	mov	x1, x21
    39f8:	aa1303e0 	mov	x0, x19
    39fc:	97fffb03 	bl	2608 <get_mpi>
get_mpi():
/home/hei/Desktop/optee-qemu/optee_os/lib/libutee/tee_api_arith_mpi.c:101
    3a00:	9101e3f5 	add	x21, sp, #0x78
    3a04:	aa1503e0 	mov	x0, x21
    3a08:	940002a3 	bl	4494 <mbedtls_mpi_init_mempool>
TEE_BigIntRelativePrime():
/home/hei/Desktop/optee-qemu/optee_os/lib/libutee/tee_api_arith_mpi.c:577
    3a0c:	aa1303e2 	mov	x2, x19
    3a10:	aa1403e1 	mov	x1, x20
    3a14:	aa1503e0 	mov	x0, x21
    3a18:	94000bff 	bl	6a14 <mbedtls_mpi_gcd>
    3a1c:	34000120 	cbz	w0, 3a40 <TEE_BigIntRelativePrime+0x88>
/home/hei/Desktop/optee-qemu/optee_os/lib/libutee/tee_api_arith_mpi.c:577 (discriminator 1)
    3a20:	2a0003e2 	mov	w2, w0
    3a24:	f0000020 	adrp	x0, a000 <__text_end+0x1540>
    3a28:	91303400 	add	x0, x0, #0xc0d
    3a2c:	52804821 	mov	w1, #0x241                 	// #577
    3a30:	91036800 	add	x0, x0, #0xda
    3a34:	97fffae9 	bl	25d8 <mpi_panic>
/home/hei/Desktop/optee-qemu/optee_os/lib/libutee/tee_api_arith_mpi.c:571
    3a38:	aa1403f6 	mov	x22, x20
    3a3c:	17fffff1 	b	3a00 <TEE_BigIntRelativePrime+0x48>
/home/hei/Desktop/optee-qemu/optee_os/lib/libutee/tee_api_arith_mpi.c:579
    3a40:	52800021 	mov	w1, #0x1                   	// #1
    3a44:	aa1503e0 	mov	x0, x21
    3a48:	94000595 	bl	509c <mbedtls_mpi_cmp_int>
    3a4c:	7100001f 	cmp	w0, #0x0
    3a50:	1a9f17f7 	cset	w23, eq  // eq = none
/home/hei/Desktop/optee-qemu/optee_os/lib/libutee/tee_api_arith_mpi.c:581
    3a54:	aa1503e0 	mov	x0, x21
    3a58:	94000299 	bl	44bc <mbedtls_mpi_free>
/home/hei/Desktop/optee-qemu/optee_os/lib/libutee/tee_api_arith_mpi.c:582
    3a5c:	aa1403e0 	mov	x0, x20
    3a60:	94000297 	bl	44bc <mbedtls_mpi_free>
/home/hei/Desktop/optee-qemu/optee_os/lib/libutee/tee_api_arith_mpi.c:583
    3a64:	eb1302df 	cmp	x22, x19
    3a68:	54000061 	b.ne	3a74 <TEE_BigIntRelativePrime+0xbc>  // b.any
/home/hei/Desktop/optee-qemu/optee_os/lib/libutee/tee_api_arith_mpi.c:584
    3a6c:	aa1603e0 	mov	x0, x22
    3a70:	94000293 	bl	44bc <mbedtls_mpi_free>
/home/hei/Desktop/optee-qemu/optee_os/lib/libutee/tee_api_arith_mpi.c:587
    3a74:	2a1703e0 	mov	w0, w23
    3a78:	a94153f3 	ldp	x19, x20, [sp, #16]
    3a7c:	a9425bf5 	ldp	x21, x22, [sp, #32]
    3a80:	f9401bf7 	ldr	x23, [sp, #48]
    3a84:	a8c97bfd 	ldp	x29, x30, [sp], #144
    3a88:	d65f03c0 	ret

0000000000003a8c <TEE_BigIntComputeExtendedGcd>:
TEE_BigIntComputeExtendedGcd():
/home/hei/Desktop/optee-qemu/optee_os/lib/libutee/tee_api_arith_mpi.c:698
    3a8c:	a9b17bfd 	stp	x29, x30, [sp, #-240]!
    3a90:	910003fd 	mov	x29, sp
    3a94:	a9025bf5 	stp	x21, x22, [sp, #32]
/home/hei/Desktop/optee-qemu/optee_os/lib/libutee/tee_api_arith_mpi.c:704
    3a98:	9101e3f5 	add	x21, sp, #0x78
/home/hei/Desktop/optee-qemu/optee_os/lib/libutee/tee_api_arith_mpi.c:698
    3a9c:	aa0303f6 	mov	x22, x3
    3aa0:	a90153f3 	stp	x19, x20, [sp, #16]
    3aa4:	aa0403f3 	mov	x19, x4
/home/hei/Desktop/optee-qemu/optee_os/lib/libutee/tee_api_arith_mpi.c:705
    3aa8:	910243f4 	add	x20, sp, #0x90
/home/hei/Desktop/optee-qemu/optee_os/lib/libutee/tee_api_arith_mpi.c:698
    3aac:	a90363f7 	stp	x23, x24, [sp, #48]
    3ab0:	9102a3f8 	add	x24, sp, #0xa8
    3ab4:	a9046bf9 	stp	x25, x26, [sp, #64]
    3ab8:	aa0203fa 	mov	x26, x2
    3abc:	aa0003f9 	mov	x25, x0
    3ac0:	a90573fb 	stp	x27, x28, [sp, #80]
    3ac4:	aa0103fb 	mov	x27, x1
/home/hei/Desktop/optee-qemu/optee_os/lib/libutee/tee_api_arith_mpi.c:704
    3ac8:	aa0003e1 	mov	x1, x0
    3acc:	aa1503e0 	mov	x0, x21
    3ad0:	97ffface 	bl	2608 <get_mpi>
/home/hei/Desktop/optee-qemu/optee_os/lib/libutee/tee_api_arith_mpi.c:705
    3ad4:	aa1603e1 	mov	x1, x22
    3ad8:	aa1403e0 	mov	x0, x20
    3adc:	97fffacb 	bl	2608 <get_mpi>
/home/hei/Desktop/optee-qemu/optee_os/lib/libutee/tee_api_arith_mpi.c:707
    3ae0:	eb1302df 	cmp	x22, x19
    3ae4:	54000260 	b.eq	3b30 <TEE_BigIntComputeExtendedGcd+0xa4>  // b.none
/home/hei/Desktop/optee-qemu/optee_os/lib/libutee/tee_api_arith_mpi.c:710
    3ae8:	aa1303e1 	mov	x1, x19
/home/hei/Desktop/optee-qemu/optee_os/lib/libutee/tee_api_arith_mpi.c:702
    3aec:	aa1803f3 	mov	x19, x24
/home/hei/Desktop/optee-qemu/optee_os/lib/libutee/tee_api_arith_mpi.c:710
    3af0:	aa1803e0 	mov	x0, x24
    3af4:	97fffac5 	bl	2608 <get_mpi>
/home/hei/Desktop/optee-qemu/optee_os/lib/libutee/tee_api_arith_mpi.c:712
    3af8:	aa1a0360 	orr	x0, x27, x26
    3afc:	b50001e0 	cbnz	x0, 3b38 <TEE_BigIntComputeExtendedGcd+0xac>
/home/hei/Desktop/optee-qemu/optee_os/lib/libutee/tee_api_arith_mpi.c:713
    3b00:	b4000b79 	cbz	x25, 3c6c <TEE_BigIntComputeExtendedGcd+0x1e0>
/home/hei/Desktop/optee-qemu/optee_os/lib/libutee/tee_api_arith_mpi.c:714
    3b04:	aa1303e2 	mov	x2, x19
    3b08:	aa1403e1 	mov	x1, x20
    3b0c:	aa1503e0 	mov	x0, x21
    3b10:	94000bc1 	bl	6a14 <mbedtls_mpi_gcd>
    3b14:	34000ac0 	cbz	w0, 3c6c <TEE_BigIntComputeExtendedGcd+0x1e0>
/home/hei/Desktop/optee-qemu/optee_os/lib/libutee/tee_api_arith_mpi.c:714 (discriminator 1)
    3b18:	2a0003e2 	mov	w2, w0
    3b1c:	52805961 	mov	w1, #0x2cb                 	// #715
/home/hei/Desktop/optee-qemu/optee_os/lib/libutee/tee_api_arith_mpi.c:731 (discriminator 1)
    3b20:	f0000020 	adrp	x0, a000 <__text_end+0x1540>
    3b24:	91303400 	add	x0, x0, #0xc0d
    3b28:	9103c800 	add	x0, x0, #0xf2
    3b2c:	97fffaab 	bl	25d8 <mpi_panic>
/home/hei/Desktop/optee-qemu/optee_os/lib/libutee/tee_api_arith_mpi.c:708
    3b30:	aa1403f3 	mov	x19, x20
    3b34:	17fffff1 	b	3af8 <TEE_BigIntComputeExtendedGcd+0x6c>
/home/hei/Desktop/optee-qemu/optee_os/lib/libutee/tee_api_arith_mpi.c:720
    3b38:	39c00260 	ldrsb	w0, [x19]
/home/hei/Desktop/optee-qemu/optee_os/lib/libutee/tee_api_arith_mpi.c:726
    3b3c:	910303f7 	add	x23, sp, #0xc0
/home/hei/Desktop/optee-qemu/optee_os/lib/libutee/tee_api_arith_mpi.c:719
    3b40:	39c243fc 	ldrsb	w28, [sp, #144]
/home/hei/Desktop/optee-qemu/optee_os/lib/libutee/tee_api_arith_mpi.c:726
    3b44:	aa1b03e1 	mov	x1, x27
/home/hei/Desktop/optee-qemu/optee_os/lib/libutee/tee_api_arith_mpi.c:720
    3b48:	b9006fe0 	str	w0, [sp, #108]
/home/hei/Desktop/optee-qemu/optee_os/lib/libutee/tee_api_arith_mpi.c:723
    3b4c:	52800020 	mov	w0, #0x1                   	// #1
    3b50:	790123e0 	strh	w0, [sp, #144]
/home/hei/Desktop/optee-qemu/optee_os/lib/libutee/tee_api_arith_mpi.c:727
    3b54:	910363f6 	add	x22, sp, #0xd8
/home/hei/Desktop/optee-qemu/optee_os/lib/libutee/tee_api_arith_mpi.c:724
    3b58:	79000260 	strh	w0, [x19]
/home/hei/Desktop/optee-qemu/optee_os/lib/libutee/tee_api_arith_mpi.c:726
    3b5c:	aa1703e0 	mov	x0, x23
    3b60:	97fffaaa 	bl	2608 <get_mpi>
/home/hei/Desktop/optee-qemu/optee_os/lib/libutee/tee_api_arith_mpi.c:727
    3b64:	aa1a03e1 	mov	x1, x26
    3b68:	aa1603e0 	mov	x0, x22
    3b6c:	97fffaa7 	bl	2608 <get_mpi>
/home/hei/Desktop/optee-qemu/optee_os/lib/libutee/tee_api_arith_mpi.c:729
    3b70:	aa1303e1 	mov	x1, x19
    3b74:	aa1403e0 	mov	x0, x20
    3b78:	940004ec 	bl	4f28 <mbedtls_mpi_cmp_abs>
/home/hei/Desktop/optee-qemu/optee_os/lib/libutee/tee_api_arith_mpi.c:730
    3b7c:	7100001f 	cmp	w0, #0x0
    3b80:	540002c1 	b.ne	3bd8 <TEE_BigIntComputeExtendedGcd+0x14c>  // b.any
/home/hei/Desktop/optee-qemu/optee_os/lib/libutee/tee_api_arith_mpi.c:731
    3b84:	aa1403e1 	mov	x1, x20
    3b88:	aa1503e0 	mov	x0, x21
    3b8c:	940002ed 	bl	4740 <mbedtls_mpi_copy>
    3b90:	34000080 	cbz	w0, 3ba0 <TEE_BigIntComputeExtendedGcd+0x114>
/home/hei/Desktop/optee-qemu/optee_os/lib/libutee/tee_api_arith_mpi.c:731 (discriminator 1)
    3b94:	2a0003e2 	mov	w2, w0
    3b98:	52805b61 	mov	w1, #0x2db                 	// #731
    3b9c:	17ffffe1 	b	3b20 <TEE_BigIntComputeExtendedGcd+0x94>
/home/hei/Desktop/optee-qemu/optee_os/lib/libutee/tee_api_arith_mpi.c:732
    3ba0:	52800021 	mov	w1, #0x1                   	// #1
    3ba4:	aa1703e0 	mov	x0, x23
    3ba8:	94000394 	bl	49f8 <mbedtls_mpi_lset>
    3bac:	34000080 	cbz	w0, 3bbc <TEE_BigIntComputeExtendedGcd+0x130>
/home/hei/Desktop/optee-qemu/optee_os/lib/libutee/tee_api_arith_mpi.c:732 (discriminator 1)
    3bb0:	2a0003e2 	mov	w2, w0
    3bb4:	52805b81 	mov	w1, #0x2dc                 	// #732
    3bb8:	17ffffda 	b	3b20 <TEE_BigIntComputeExtendedGcd+0x94>
/home/hei/Desktop/optee-qemu/optee_os/lib/libutee/tee_api_arith_mpi.c:733
    3bbc:	52800001 	mov	w1, #0x0                   	// #0
    3bc0:	aa1603e0 	mov	x0, x22
    3bc4:	9400038d 	bl	49f8 <mbedtls_mpi_lset>
    3bc8:	34000160 	cbz	w0, 3bf4 <TEE_BigIntComputeExtendedGcd+0x168>
/home/hei/Desktop/optee-qemu/optee_os/lib/libutee/tee_api_arith_mpi.c:733 (discriminator 1)
    3bcc:	2a0003e2 	mov	w2, w0
    3bd0:	52805ba1 	mov	w1, #0x2dd                 	// #733
    3bd4:	17ffffd3 	b	3b20 <TEE_BigIntComputeExtendedGcd+0x94>
/home/hei/Desktop/optee-qemu/optee_os/lib/libutee/tee_api_arith_mpi.c:734
    3bd8:	540002ad 	b.le	3c2c <TEE_BigIntComputeExtendedGcd+0x1a0>
/home/hei/Desktop/optee-qemu/optee_os/lib/libutee/tee_api_arith_mpi.c:735
    3bdc:	aa1303e4 	mov	x4, x19
    3be0:	aa1403e3 	mov	x3, x20
    3be4:	aa1603e2 	mov	x2, x22
    3be8:	aa1703e1 	mov	x1, x23
/home/hei/Desktop/optee-qemu/optee_os/lib/libutee/tee_api_arith_mpi.c:737
    3bec:	aa1503e0 	mov	x0, x21
    3bf0:	97fffb1d 	bl	2864 <mpi_egcd>
/home/hei/Desktop/optee-qemu/optee_os/lib/libutee/tee_api_arith_mpi.c:740
    3bf4:	794183e0 	ldrh	w0, [sp, #192]
/home/hei/Desktop/optee-qemu/optee_os/lib/libutee/tee_api_arith_mpi.c:741
    3bf8:	b9406fe1 	ldr	w1, [sp, #108]
/home/hei/Desktop/optee-qemu/optee_os/lib/libutee/tee_api_arith_mpi.c:740
    3bfc:	1b007f9c 	mul	w28, w28, w0
/home/hei/Desktop/optee-qemu/optee_os/lib/libutee/tee_api_arith_mpi.c:741
    3c00:	7941b3e0 	ldrh	w0, [sp, #216]
/home/hei/Desktop/optee-qemu/optee_os/lib/libutee/tee_api_arith_mpi.c:740
    3c04:	790183fc 	strh	w28, [sp, #192]
/home/hei/Desktop/optee-qemu/optee_os/lib/libutee/tee_api_arith_mpi.c:741
    3c08:	1b007c20 	mul	w0, w1, w0
/home/hei/Desktop/optee-qemu/optee_os/lib/libutee/tee_api_arith_mpi.c:743
    3c0c:	aa1b03e1 	mov	x1, x27
/home/hei/Desktop/optee-qemu/optee_os/lib/libutee/tee_api_arith_mpi.c:741
    3c10:	7901b3e0 	strh	w0, [sp, #216]
/home/hei/Desktop/optee-qemu/optee_os/lib/libutee/tee_api_arith_mpi.c:743
    3c14:	aa1703e0 	mov	x0, x23
    3c18:	97fffaa2 	bl	26a0 <copy_mpi_to_bigint>
    3c1c:	34000120 	cbz	w0, 3c40 <TEE_BigIntComputeExtendedGcd+0x1b4>
/home/hei/Desktop/optee-qemu/optee_os/lib/libutee/tee_api_arith_mpi.c:743 (discriminator 1)
    3c20:	2a0003e2 	mov	w2, w0
    3c24:	52805ce1 	mov	w1, #0x2e7                 	// #743
    3c28:	17ffffbe 	b	3b20 <TEE_BigIntComputeExtendedGcd+0x94>
/home/hei/Desktop/optee-qemu/optee_os/lib/libutee/tee_api_arith_mpi.c:737
    3c2c:	aa1403e4 	mov	x4, x20
    3c30:	aa1303e3 	mov	x3, x19
    3c34:	aa1703e2 	mov	x2, x23
    3c38:	aa1603e1 	mov	x1, x22
    3c3c:	17ffffec 	b	3bec <TEE_BigIntComputeExtendedGcd+0x160>
/home/hei/Desktop/optee-qemu/optee_os/lib/libutee/tee_api_arith_mpi.c:744
    3c40:	aa1a03e1 	mov	x1, x26
    3c44:	aa1603e0 	mov	x0, x22
    3c48:	97fffa96 	bl	26a0 <copy_mpi_to_bigint>
    3c4c:	34000080 	cbz	w0, 3c5c <TEE_BigIntComputeExtendedGcd+0x1d0>
/home/hei/Desktop/optee-qemu/optee_os/lib/libutee/tee_api_arith_mpi.c:744 (discriminator 1)
    3c50:	2a0003e2 	mov	w2, w0
    3c54:	52805d01 	mov	w1, #0x2e8                 	// #744
    3c58:	17ffffb2 	b	3b20 <TEE_BigIntComputeExtendedGcd+0x94>
/home/hei/Desktop/optee-qemu/optee_os/lib/libutee/tee_api_arith_mpi.c:745
    3c5c:	aa1703e0 	mov	x0, x23
    3c60:	94000217 	bl	44bc <mbedtls_mpi_free>
/home/hei/Desktop/optee-qemu/optee_os/lib/libutee/tee_api_arith_mpi.c:746
    3c64:	aa1603e0 	mov	x0, x22
    3c68:	94000215 	bl	44bc <mbedtls_mpi_free>
/home/hei/Desktop/optee-qemu/optee_os/lib/libutee/tee_api_arith_mpi.c:749
    3c6c:	aa1903e1 	mov	x1, x25
    3c70:	aa1503e0 	mov	x0, x21
    3c74:	97fffa8b 	bl	26a0 <copy_mpi_to_bigint>
    3c78:	34000080 	cbz	w0, 3c88 <TEE_BigIntComputeExtendedGcd+0x1fc>
/home/hei/Desktop/optee-qemu/optee_os/lib/libutee/tee_api_arith_mpi.c:749 (discriminator 1)
    3c7c:	2a0003e2 	mov	w2, w0
    3c80:	52805da1 	mov	w1, #0x2ed                 	// #749
    3c84:	17ffffa7 	b	3b20 <TEE_BigIntComputeExtendedGcd+0x94>
/home/hei/Desktop/optee-qemu/optee_os/lib/libutee/tee_api_arith_mpi.c:750
    3c88:	aa1503e0 	mov	x0, x21
    3c8c:	9400020c 	bl	44bc <mbedtls_mpi_free>
/home/hei/Desktop/optee-qemu/optee_os/lib/libutee/tee_api_arith_mpi.c:751
    3c90:	aa1403e0 	mov	x0, x20
    3c94:	9400020a 	bl	44bc <mbedtls_mpi_free>
/home/hei/Desktop/optee-qemu/optee_os/lib/libutee/tee_api_arith_mpi.c:752
    3c98:	eb18027f 	cmp	x19, x24
    3c9c:	54000061 	b.ne	3ca8 <TEE_BigIntComputeExtendedGcd+0x21c>  // b.any
/home/hei/Desktop/optee-qemu/optee_os/lib/libutee/tee_api_arith_mpi.c:753
    3ca0:	aa1303e0 	mov	x0, x19
    3ca4:	94000206 	bl	44bc <mbedtls_mpi_free>
/home/hei/Desktop/optee-qemu/optee_os/lib/libutee/tee_api_arith_mpi.c:754
    3ca8:	a94153f3 	ldp	x19, x20, [sp, #16]
    3cac:	a9425bf5 	ldp	x21, x22, [sp, #32]
    3cb0:	a94363f7 	ldp	x23, x24, [sp, #48]
    3cb4:	a9446bf9 	ldp	x25, x26, [sp, #64]
    3cb8:	a94573fb 	ldp	x27, x28, [sp, #80]
    3cbc:	a8cf7bfd 	ldp	x29, x30, [sp], #240
    3cc0:	d65f03c0 	ret

0000000000003cc4 <TEE_BigIntIsProbablePrime>:
TEE_BigIntIsProbablePrime():
/home/hei/Desktop/optee-qemu/optee_os/lib/libutee/tee_api_arith_mpi.c:765
    3cc4:	a9bc7bfd 	stp	x29, x30, [sp, #-64]!
/home/hei/Desktop/optee-qemu/optee_os/lib/libutee/tee_api_arith_mpi.c:769
    3cc8:	aa0003e1 	mov	x1, x0
/home/hei/Desktop/optee-qemu/optee_os/lib/libutee/tee_api_arith_mpi.c:765
    3ccc:	910003fd 	mov	x29, sp
    3cd0:	a90153f3 	stp	x19, x20, [sp, #16]
/home/hei/Desktop/optee-qemu/optee_os/lib/libutee/tee_api_arith_mpi.c:769
    3cd4:	9100a3f3 	add	x19, sp, #0x28
    3cd8:	aa1303e0 	mov	x0, x19
    3cdc:	97fffa4b 	bl	2608 <get_mpi>
/home/hei/Desktop/optee-qemu/optee_os/lib/libutee/tee_api_arith_mpi.c:771
    3ce0:	f0ffffe1 	adrp	x1, 2000 <copy_param.constprop.1+0x18c>
    3ce4:	9120f021 	add	x1, x1, #0x83c
    3ce8:	d2800002 	mov	x2, #0x0                   	// #0
    3cec:	aa1303e0 	mov	x0, x19
    3cf0:	94000db3 	bl	73bc <mbedtls_mpi_is_prime>
    3cf4:	2a0003f4 	mov	w20, w0
/home/hei/Desktop/optee-qemu/optee_os/lib/libutee/tee_api_arith_mpi.c:773
    3cf8:	aa1303e0 	mov	x0, x19
    3cfc:	940001f0 	bl	44bc <mbedtls_mpi_free>
/home/hei/Desktop/optee-qemu/optee_os/lib/libutee/tee_api_arith_mpi.c:775
    3d00:	7100029f 	cmp	w20, #0x0
/home/hei/Desktop/optee-qemu/optee_os/lib/libutee/tee_api_arith_mpi.c:779
    3d04:	1a9f17e0 	cset	w0, eq  // eq = none
    3d08:	a94153f3 	ldp	x19, x20, [sp, #16]
    3d0c:	a8c47bfd 	ldp	x29, x30, [sp], #64
    3d10:	d65f03c0 	ret

0000000000003d14 <TEE_BigIntInitFMM>:
TEE_BigIntInitFMM():
/home/hei/Desktop/optee-qemu/optee_os/lib/libutee/tee_api_arith_mpi.c:791
    3d14:	17fffc3b 	b	2e00 <TEE_BigIntInit>

0000000000003d18 <TEE_BigIntInitFMMContext>:
TEE_BigIntInitFMMContext():
/home/hei/Desktop/optee-qemu/optee_os/lib/libutee/tee_api_arith_mpi.c:798
    3d18:	d65f03c0 	ret

0000000000003d1c <TEE_BigIntFMMSizeInU32>:
TEE_BigIntFMMSizeInU32():
/home/hei/Desktop/optee-qemu/optee_os/lib/libutee/tee_api_arith_mpi.c:802
    3d1c:	11007c00 	add	w0, w0, #0x1f
    3d20:	53057c00 	lsr	w0, w0, #5
/home/hei/Desktop/optee-qemu/optee_os/lib/libutee/tee_api_arith_mpi.c:803
    3d24:	11000800 	add	w0, w0, #0x2
    3d28:	d65f03c0 	ret

0000000000003d2c <TEE_BigIntFMMContextSizeInU32>:
TEE_BigIntFMMContextSizeInU32():
/home/hei/Desktop/optee-qemu/optee_os/lib/libutee/tee_api_arith_mpi.c:809
    3d2c:	52800020 	mov	w0, #0x1                   	// #1
    3d30:	d65f03c0 	ret

0000000000003d34 <TEE_BigIntConvertToFMM>:
TEE_BigIntConvertToFMM():
/home/hei/Desktop/optee-qemu/optee_os/lib/libutee/tee_api_arith_mpi.c:815
    3d34:	17fffeb5 	b	3808 <TEE_BigIntMod>

0000000000003d38 <TEE_BigIntConvertFromFMM>:
TEE_BigIntConvertFromFMM():
/home/hei/Desktop/optee-qemu/optee_os/lib/libutee/tee_api_arith_mpi.c:821
    3d38:	a9ba7bfd 	stp	x29, x30, [sp, #-96]!
    3d3c:	910003fd 	mov	x29, sp
    3d40:	a90153f3 	stp	x19, x20, [sp, #16]
/home/hei/Desktop/optee-qemu/optee_os/lib/libutee/tee_api_arith_mpi.c:825
    3d44:	9100c3f3 	add	x19, sp, #0x30
/home/hei/Desktop/optee-qemu/optee_os/lib/libutee/tee_api_arith_mpi.c:826
    3d48:	910123f4 	add	x20, sp, #0x48
/home/hei/Desktop/optee-qemu/optee_os/lib/libutee/tee_api_arith_mpi.c:821
    3d4c:	a9025bf5 	stp	x21, x22, [sp, #32]
    3d50:	aa0103f6 	mov	x22, x1
    3d54:	aa0003f5 	mov	x21, x0
/home/hei/Desktop/optee-qemu/optee_os/lib/libutee/tee_api_arith_mpi.c:825
    3d58:	aa0003e1 	mov	x1, x0
    3d5c:	aa1303e0 	mov	x0, x19
    3d60:	97fffa2a 	bl	2608 <get_mpi>
/home/hei/Desktop/optee-qemu/optee_os/lib/libutee/tee_api_arith_mpi.c:826
    3d64:	aa1603e1 	mov	x1, x22
    3d68:	aa1403e0 	mov	x0, x20
    3d6c:	97fffa27 	bl	2608 <get_mpi>
/home/hei/Desktop/optee-qemu/optee_os/lib/libutee/tee_api_arith_mpi.c:828
    3d70:	aa1403e1 	mov	x1, x20
    3d74:	aa1303e0 	mov	x0, x19
    3d78:	94000272 	bl	4740 <mbedtls_mpi_copy>
    3d7c:	340000e0 	cbz	w0, 3d98 <TEE_BigIntConvertFromFMM+0x60>
/home/hei/Desktop/optee-qemu/optee_os/lib/libutee/tee_api_arith_mpi.c:828 (discriminator 1)
    3d80:	2a0003e2 	mov	w2, w0
    3d84:	52806781 	mov	w1, #0x33c                 	// #828
/home/hei/Desktop/optee-qemu/optee_os/lib/libutee/tee_api_arith_mpi.c:830 (discriminator 1)
    3d88:	f0000020 	adrp	x0, a000 <__text_end+0x1540>
    3d8c:	91303400 	add	x0, x0, #0xc0d
    3d90:	91043c00 	add	x0, x0, #0x10f
    3d94:	97fffa11 	bl	25d8 <mpi_panic>
/home/hei/Desktop/optee-qemu/optee_os/lib/libutee/tee_api_arith_mpi.c:830
    3d98:	aa1503e1 	mov	x1, x21
    3d9c:	aa1303e0 	mov	x0, x19
    3da0:	97fffa40 	bl	26a0 <copy_mpi_to_bigint>
    3da4:	34000080 	cbz	w0, 3db4 <TEE_BigIntConvertFromFMM+0x7c>
/home/hei/Desktop/optee-qemu/optee_os/lib/libutee/tee_api_arith_mpi.c:830 (discriminator 1)
    3da8:	2a0003e2 	mov	w2, w0
    3dac:	528067c1 	mov	w1, #0x33e                 	// #830
    3db0:	17fffff6 	b	3d88 <TEE_BigIntConvertFromFMM+0x50>
/home/hei/Desktop/optee-qemu/optee_os/lib/libutee/tee_api_arith_mpi.c:831
    3db4:	aa1303e0 	mov	x0, x19
    3db8:	940001c1 	bl	44bc <mbedtls_mpi_free>
/home/hei/Desktop/optee-qemu/optee_os/lib/libutee/tee_api_arith_mpi.c:832
    3dbc:	aa1403e0 	mov	x0, x20
    3dc0:	940001bf 	bl	44bc <mbedtls_mpi_free>
/home/hei/Desktop/optee-qemu/optee_os/lib/libutee/tee_api_arith_mpi.c:833
    3dc4:	a94153f3 	ldp	x19, x20, [sp, #16]
    3dc8:	a9425bf5 	ldp	x21, x22, [sp, #32]
    3dcc:	a8c67bfd 	ldp	x29, x30, [sp], #96
    3dd0:	d65f03c0 	ret

0000000000003dd4 <TEE_BigIntComputeFMM>:
TEE_BigIntComputeFMM():
/home/hei/Desktop/optee-qemu/optee_os/lib/libutee/tee_api_arith_mpi.c:838
    3dd4:	a9b37bfd 	stp	x29, x30, [sp, #-208]!
    3dd8:	910003fd 	mov	x29, sp
    3ddc:	a90153f3 	stp	x19, x20, [sp, #16]
/home/hei/Desktop/optee-qemu/optee_os/lib/libutee/tee_api_arith_mpi.c:845
    3de0:	910163f3 	add	x19, sp, #0x58
/home/hei/Desktop/optee-qemu/optee_os/lib/libutee/tee_api_arith_mpi.c:838
    3de4:	aa0103f4 	mov	x20, x1
/home/hei/Desktop/optee-qemu/optee_os/lib/libutee/tee_api_arith_mpi.c:845
    3de8:	aa0003e1 	mov	x1, x0
/home/hei/Desktop/optee-qemu/optee_os/lib/libutee/tee_api_arith_mpi.c:838
    3dec:	a9025bf5 	stp	x21, x22, [sp, #32]
/home/hei/Desktop/optee-qemu/optee_os/lib/libutee/tee_api_arith_mpi.c:846
    3df0:	9101c3f5 	add	x21, sp, #0x70
/home/hei/Desktop/optee-qemu/optee_os/lib/libutee/tee_api_arith_mpi.c:838
    3df4:	a90363f7 	stp	x23, x24, [sp, #48]
    3df8:	aa0003f8 	mov	x24, x0
/home/hei/Desktop/optee-qemu/optee_os/lib/libutee/tee_api_arith_mpi.c:845
    3dfc:	aa1303e0 	mov	x0, x19
/home/hei/Desktop/optee-qemu/optee_os/lib/libutee/tee_api_arith_mpi.c:838
    3e00:	a9040be3 	stp	x3, x2, [sp, #64]
/home/hei/Desktop/optee-qemu/optee_os/lib/libutee/tee_api_arith_mpi.c:845
    3e04:	97fffa01 	bl	2608 <get_mpi>
/home/hei/Desktop/optee-qemu/optee_os/lib/libutee/tee_api_arith_mpi.c:846
    3e08:	aa1403e1 	mov	x1, x20
    3e0c:	aa1503e0 	mov	x0, x21
    3e10:	97fff9fe 	bl	2608 <get_mpi>
/home/hei/Desktop/optee-qemu/optee_os/lib/libutee/tee_api_arith_mpi.c:847
    3e14:	f94027e2 	ldr	x2, [sp, #72]
    3e18:	910223f6 	add	x22, sp, #0x88
    3e1c:	aa1603e0 	mov	x0, x22
/home/hei/Desktop/optee-qemu/optee_os/lib/libutee/tee_api_arith_mpi.c:848
    3e20:	910283f7 	add	x23, sp, #0xa0
/home/hei/Desktop/optee-qemu/optee_os/lib/libutee/tee_api_arith_mpi.c:847
    3e24:	aa0203e1 	mov	x1, x2
get_mpi():
/home/hei/Desktop/optee-qemu/optee_os/lib/libutee/tee_api_arith_mpi.c:101
    3e28:	9102e3f4 	add	x20, sp, #0xb8
TEE_BigIntComputeFMM():
/home/hei/Desktop/optee-qemu/optee_os/lib/libutee/tee_api_arith_mpi.c:847
    3e2c:	97fff9f7 	bl	2608 <get_mpi>
/home/hei/Desktop/optee-qemu/optee_os/lib/libutee/tee_api_arith_mpi.c:848
    3e30:	f94023e3 	ldr	x3, [sp, #64]
    3e34:	aa1703e0 	mov	x0, x23
    3e38:	aa0303e1 	mov	x1, x3
    3e3c:	97fff9f3 	bl	2608 <get_mpi>
get_mpi():
/home/hei/Desktop/optee-qemu/optee_os/lib/libutee/tee_api_arith_mpi.c:101
    3e40:	aa1403e0 	mov	x0, x20
    3e44:	94000194 	bl	4494 <mbedtls_mpi_init_mempool>
TEE_BigIntComputeFMM():
/home/hei/Desktop/optee-qemu/optee_os/lib/libutee/tee_api_arith_mpi.c:851
    3e48:	aa1603e2 	mov	x2, x22
    3e4c:	aa1503e1 	mov	x1, x21
    3e50:	aa1403e0 	mov	x0, x20
    3e54:	94000587 	bl	5470 <mbedtls_mpi_mul_mpi>
    3e58:	340000e0 	cbz	w0, 3e74 <TEE_BigIntComputeFMM+0xa0>
/home/hei/Desktop/optee-qemu/optee_os/lib/libutee/tee_api_arith_mpi.c:851 (discriminator 1)
    3e5c:	2a0003e2 	mov	w2, w0
    3e60:	52806a61 	mov	w1, #0x353                 	// #851
/home/hei/Desktop/optee-qemu/optee_os/lib/libutee/tee_api_arith_mpi.c:852 (discriminator 1)
    3e64:	f0000020 	adrp	x0, a000 <__text_end+0x1540>
    3e68:	91303400 	add	x0, x0, #0xc0d
    3e6c:	9104a000 	add	x0, x0, #0x128
    3e70:	97fff9da 	bl	25d8 <mpi_panic>
/home/hei/Desktop/optee-qemu/optee_os/lib/libutee/tee_api_arith_mpi.c:852
    3e74:	aa1703e2 	mov	x2, x23
    3e78:	aa1403e1 	mov	x1, x20
    3e7c:	aa1303e0 	mov	x0, x19
    3e80:	940007b1 	bl	5d44 <mbedtls_mpi_mod_mpi>
    3e84:	34000080 	cbz	w0, 3e94 <TEE_BigIntComputeFMM+0xc0>
/home/hei/Desktop/optee-qemu/optee_os/lib/libutee/tee_api_arith_mpi.c:852 (discriminator 1)
    3e88:	2a0003e2 	mov	w2, w0
    3e8c:	52806a81 	mov	w1, #0x354                 	// #852
    3e90:	17fffff5 	b	3e64 <TEE_BigIntComputeFMM+0x90>
/home/hei/Desktop/optee-qemu/optee_os/lib/libutee/tee_api_arith_mpi.c:854
    3e94:	aa1403e0 	mov	x0, x20
    3e98:	94000189 	bl	44bc <mbedtls_mpi_free>
/home/hei/Desktop/optee-qemu/optee_os/lib/libutee/tee_api_arith_mpi.c:855
    3e9c:	aa1703e0 	mov	x0, x23
    3ea0:	94000187 	bl	44bc <mbedtls_mpi_free>
/home/hei/Desktop/optee-qemu/optee_os/lib/libutee/tee_api_arith_mpi.c:856
    3ea4:	aa1603e0 	mov	x0, x22
    3ea8:	94000185 	bl	44bc <mbedtls_mpi_free>
/home/hei/Desktop/optee-qemu/optee_os/lib/libutee/tee_api_arith_mpi.c:857
    3eac:	aa1503e0 	mov	x0, x21
    3eb0:	94000183 	bl	44bc <mbedtls_mpi_free>
/home/hei/Desktop/optee-qemu/optee_os/lib/libutee/tee_api_arith_mpi.c:858
    3eb4:	aa1803e1 	mov	x1, x24
    3eb8:	aa1303e0 	mov	x0, x19
    3ebc:	97fff9f9 	bl	26a0 <copy_mpi_to_bigint>
    3ec0:	34000080 	cbz	w0, 3ed0 <TEE_BigIntComputeFMM+0xfc>
/home/hei/Desktop/optee-qemu/optee_os/lib/libutee/tee_api_arith_mpi.c:858 (discriminator 1)
    3ec4:	2a0003e2 	mov	w2, w0
    3ec8:	52806b41 	mov	w1, #0x35a                 	// #858
    3ecc:	17ffffe6 	b	3e64 <TEE_BigIntComputeFMM+0x90>
/home/hei/Desktop/optee-qemu/optee_os/lib/libutee/tee_api_arith_mpi.c:859
    3ed0:	aa1303e0 	mov	x0, x19
    3ed4:	9400017a 	bl	44bc <mbedtls_mpi_free>
/home/hei/Desktop/optee-qemu/optee_os/lib/libutee/tee_api_arith_mpi.c:860
    3ed8:	a94153f3 	ldp	x19, x20, [sp, #16]
    3edc:	a9425bf5 	ldp	x21, x22, [sp, #32]
    3ee0:	a94363f7 	ldp	x23, x24, [sp, #48]
    3ee4:	a8cd7bfd 	ldp	x29, x30, [sp], #208
    3ee8:	d65f03c0 	ret

0000000000003eec <mpi_get_digit>:
mpi_get_digit():
/home/hei/Desktop/optee-qemu/optee_os/lib/libmbedtls/mbedtls/library/bignum.c:489
    3eec:	12001c42 	and	w2, w2, #0xff
/home/hei/Desktop/optee-qemu/optee_os/lib/libmbedtls/mbedtls/library/bignum.c:492
    3ef0:	5100c043 	sub	w3, w2, #0x30
    3ef4:	12001c64 	and	w4, w3, #0xff
    3ef8:	7100249f 	cmp	w4, #0x9
    3efc:	540000e8 	b.hi	3f18 <mpi_get_digit+0x2c>  // b.pmore
/home/hei/Desktop/optee-qemu/optee_os/lib/libmbedtls/mbedtls/library/bignum.c:492 (discriminator 1)
    3f00:	b9000003 	str	w3, [x0]
/home/hei/Desktop/optee-qemu/optee_os/lib/libmbedtls/mbedtls/library/bignum.c:496
    3f04:	b9400000 	ldr	w0, [x0]
/home/hei/Desktop/optee-qemu/optee_os/lib/libmbedtls/mbedtls/library/bignum.c:497
    3f08:	6b01001f 	cmp	w0, w1
/home/hei/Desktop/optee-qemu/optee_os/lib/libmbedtls/mbedtls/library/bignum.c:500
    3f0c:	128000a0 	mov	w0, #0xfffffffa            	// #-6
    3f10:	1a9f2000 	csel	w0, w0, wzr, cs  // cs = hs, nlast
    3f14:	d65f03c0 	ret
/home/hei/Desktop/optee-qemu/optee_os/lib/libmbedtls/mbedtls/library/bignum.c:493
    3f18:	51010443 	sub	w3, w2, #0x41
    3f1c:	12001c63 	and	w3, w3, #0xff
    3f20:	7100147f 	cmp	w3, #0x5
    3f24:	54000088 	b.hi	3f34 <mpi_get_digit+0x48>  // b.pmore
/home/hei/Desktop/optee-qemu/optee_os/lib/libmbedtls/mbedtls/library/bignum.c:493 (discriminator 1)
    3f28:	5100dc42 	sub	w2, w2, #0x37
/home/hei/Desktop/optee-qemu/optee_os/lib/libmbedtls/mbedtls/library/bignum.c:494
    3f2c:	b9000002 	str	w2, [x0]
    3f30:	17fffff5 	b	3f04 <mpi_get_digit+0x18>
    3f34:	51018443 	sub	w3, w2, #0x61
    3f38:	51015c42 	sub	w2, w2, #0x57
    3f3c:	12001c63 	and	w3, w3, #0xff
    3f40:	7100187f 	cmp	w3, #0x6
    3f44:	52801fe3 	mov	w3, #0xff                  	// #255
    3f48:	1a833042 	csel	w2, w2, w3, cc  // cc = lo, ul, last
    3f4c:	17fffff8 	b	3f2c <mpi_get_digit+0x40>

0000000000003f50 <mpi_sub_hlp>:
mpi_sub_hlp():
/home/hei/Desktop/optee-qemu/optee_os/lib/libmbedtls/mbedtls/library/bignum.c:1089
    3f50:	52800005 	mov	w5, #0x0                   	// #0
    3f54:	d2800003 	mov	x3, #0x0                   	// #0
/home/hei/Desktop/optee-qemu/optee_os/lib/libmbedtls/mbedtls/library/bignum.c:1089 (discriminator 1)
    3f58:	eb00007f 	cmp	x3, x0
    3f5c:	54000081 	b.ne	3f6c <mpi_sub_hlp+0x1c>  // b.any
    3f60:	8b030843 	add	x3, x2, x3, lsl #2
/home/hei/Desktop/optee-qemu/optee_os/lib/libmbedtls/mbedtls/library/bignum.c:1095
    3f64:	350001c5 	cbnz	w5, 3f9c <mpi_sub_hlp+0x4c>
/home/hei/Desktop/optee-qemu/optee_os/lib/libmbedtls/mbedtls/library/bignum.c:1100
    3f68:	d65f03c0 	ret
/home/hei/Desktop/optee-qemu/optee_os/lib/libmbedtls/mbedtls/library/bignum.c:1091 (discriminator 3)
    3f6c:	b8637844 	ldr	w4, [x2, x3, lsl #2]
    3f70:	6b05009f 	cmp	w4, w5
    3f74:	4b050084 	sub	w4, w4, w5
    3f78:	b8237844 	str	w4, [x2, x3, lsl #2]
    3f7c:	1a9f27e7 	cset	w7, cc  // cc = lo, ul, last
/home/hei/Desktop/optee-qemu/optee_os/lib/libmbedtls/mbedtls/library/bignum.c:1092 (discriminator 3)
    3f80:	b8637826 	ldr	w6, [x1, x3, lsl #2]
    3f84:	6b06009f 	cmp	w4, w6
    3f88:	4b060084 	sub	w4, w4, w6
    3f8c:	1a8724e5 	cinc	w5, w7, cc  // cc = lo, ul, last
    3f90:	b8237844 	str	w4, [x2, x3, lsl #2]
/home/hei/Desktop/optee-qemu/optee_os/lib/libmbedtls/mbedtls/library/bignum.c:1089 (discriminator 3)
    3f94:	91000463 	add	x3, x3, #0x1
    3f98:	17fffff0 	b	3f58 <mpi_sub_hlp+0x8>
/home/hei/Desktop/optee-qemu/optee_os/lib/libmbedtls/mbedtls/library/bignum.c:1097
    3f9c:	b9400060 	ldr	w0, [x3]
    3fa0:	6b050005 	subs	w5, w0, w5
    3fa4:	b8004465 	str	w5, [x3], #4
/home/hei/Desktop/optee-qemu/optee_os/lib/libmbedtls/mbedtls/library/bignum.c:1098
    3fa8:	1a9f27e5 	cset	w5, cc  // cc = lo, ul, last
    3fac:	17ffffee 	b	3f64 <mpi_sub_hlp+0x14>

0000000000003fb0 <mpi_mul_hlp>:
mpi_mul_hlp():
/home/hei/Desktop/optee-qemu/optee_os/lib/libmbedtls/mbedtls/library/bignum.c:1284
    3fb0:	aa0203e4 	mov	x4, x2
    3fb4:	aa0103e6 	mov	x6, x1
    3fb8:	aa0003e8 	mov	x8, x0
/home/hei/Desktop/optee-qemu/optee_os/lib/libmbedtls/mbedtls/library/bignum.c:1267
    3fbc:	52800005 	mov	w5, #0x0                   	// #0
/home/hei/Desktop/optee-qemu/optee_os/lib/libmbedtls/mbedtls/library/bignum.c:1284 (discriminator 1)
    3fc0:	f1003d1f 	cmp	x8, #0xf
    3fc4:	b940008a 	ldr	w10, [x4]
    3fc8:	54000dc8 	b.hi	4180 <mpi_mul_hlp+0x1d0>  // b.pmore
    3fcc:	d344fc07 	lsr	x7, x0, #4
    3fd0:	928001e4 	mov	x4, #0xfffffffffffffff0    	// #-16
    3fd4:	9b0400e0 	madd	x0, x7, x4, x0
    3fd8:	d37ae4e7 	lsl	x7, x7, #6
    3fdc:	8b070026 	add	x6, x1, x7
    3fe0:	8b070044 	add	x4, x2, x7
/home/hei/Desktop/optee-qemu/optee_os/lib/libmbedtls/mbedtls/library/bignum.c:1299
    3fe4:	f1001c1f 	cmp	x0, #0x7
    3fe8:	54000b69 	b.ls	4154 <mpi_mul_hlp+0x1a4>  // b.plast
/home/hei/Desktop/optee-qemu/optee_os/lib/libmbedtls/mbedtls/library/bignum.c:1302
    3fec:	b8676821 	ldr	w1, [x1, x7]
/home/hei/Desktop/optee-qemu/optee_os/lib/libmbedtls/mbedtls/library/bignum.c:1299
    3ff0:	d1002000 	sub	x0, x0, #0x8
/home/hei/Desktop/optee-qemu/optee_os/lib/libmbedtls/mbedtls/library/bignum.c:1306
    3ff4:	910080c6 	add	x6, x6, #0x20
    3ff8:	91008084 	add	x4, x4, #0x20
/home/hei/Desktop/optee-qemu/optee_os/lib/libmbedtls/mbedtls/library/bignum.c:1302
    3ffc:	9ba17c61 	umull	x1, w3, w1
    4000:	d360fc28 	lsr	x8, x1, #32
    4004:	0b0100a1 	add	w1, w5, w1
    4008:	6b0100bf 	cmp	w5, w1
    400c:	0b010141 	add	w1, w10, w1
    4010:	b8276841 	str	w1, [x2, x7]
    4014:	1a889508 	cinc	w8, w8, hi  // hi = pmore
    4018:	6b01015f 	cmp	w10, w1
    401c:	b85e40c1 	ldur	w1, [x6, #-28]
    4020:	1a889508 	cinc	w8, w8, hi  // hi = pmore
    4024:	b85e4082 	ldur	w2, [x4, #-28]
    4028:	9ba17c61 	umull	x1, w3, w1
    402c:	d360fc25 	lsr	x5, x1, #32
    4030:	0b010101 	add	w1, w8, w1
    4034:	6b01011f 	cmp	w8, w1
    4038:	0b020021 	add	w1, w1, w2
    403c:	b81e4081 	stur	w1, [x4, #-28]
    4040:	1a8594a5 	cinc	w5, w5, hi  // hi = pmore
    4044:	6b01005f 	cmp	w2, w1
/home/hei/Desktop/optee-qemu/optee_os/lib/libmbedtls/mbedtls/library/bignum.c:1303
    4048:	b85e80c1 	ldur	w1, [x6, #-24]
/home/hei/Desktop/optee-qemu/optee_os/lib/libmbedtls/mbedtls/library/bignum.c:1302
    404c:	1a8594a5 	cinc	w5, w5, hi  // hi = pmore
/home/hei/Desktop/optee-qemu/optee_os/lib/libmbedtls/mbedtls/library/bignum.c:1303
    4050:	9ba17c61 	umull	x1, w3, w1
    4054:	d360fc22 	lsr	x2, x1, #32
    4058:	0b0100a1 	add	w1, w5, w1
    405c:	6b0100bf 	cmp	w5, w1
    4060:	b85e8085 	ldur	w5, [x4, #-24]
    4064:	1a829442 	cinc	w2, w2, hi  // hi = pmore
    4068:	0b050021 	add	w1, w1, w5
    406c:	b81e8081 	stur	w1, [x4, #-24]
    4070:	6b0100bf 	cmp	w5, w1
    4074:	b85ec0c1 	ldur	w1, [x6, #-20]
    4078:	1a829442 	cinc	w2, w2, hi  // hi = pmore
    407c:	9ba17c61 	umull	x1, w3, w1
    4080:	d360fc25 	lsr	x5, x1, #32
    4084:	0b010041 	add	w1, w2, w1
    4088:	6b01005f 	cmp	w2, w1
    408c:	b85ec082 	ldur	w2, [x4, #-20]
    4090:	1a8594a5 	cinc	w5, w5, hi  // hi = pmore
    4094:	0b020021 	add	w1, w1, w2
    4098:	b81ec081 	stur	w1, [x4, #-20]
    409c:	6b01005f 	cmp	w2, w1
/home/hei/Desktop/optee-qemu/optee_os/lib/libmbedtls/mbedtls/library/bignum.c:1305
    40a0:	b85f00c1 	ldur	w1, [x6, #-16]
/home/hei/Desktop/optee-qemu/optee_os/lib/libmbedtls/mbedtls/library/bignum.c:1303
    40a4:	1a8594a5 	cinc	w5, w5, hi  // hi = pmore
/home/hei/Desktop/optee-qemu/optee_os/lib/libmbedtls/mbedtls/library/bignum.c:1305
    40a8:	9ba17c61 	umull	x1, w3, w1
    40ac:	d360fc22 	lsr	x2, x1, #32
    40b0:	0b0100a1 	add	w1, w5, w1
    40b4:	6b0100bf 	cmp	w5, w1
    40b8:	b85f0085 	ldur	w5, [x4, #-16]
    40bc:	1a829442 	cinc	w2, w2, hi  // hi = pmore
    40c0:	0b050021 	add	w1, w1, w5
    40c4:	b81f0081 	stur	w1, [x4, #-16]
    40c8:	6b0100bf 	cmp	w5, w1
    40cc:	b85f40c1 	ldur	w1, [x6, #-12]
    40d0:	1a829442 	cinc	w2, w2, hi  // hi = pmore
    40d4:	9ba17c61 	umull	x1, w3, w1
    40d8:	d360fc25 	lsr	x5, x1, #32
    40dc:	0b010041 	add	w1, w2, w1
    40e0:	6b01005f 	cmp	w2, w1
    40e4:	b85f4082 	ldur	w2, [x4, #-12]
    40e8:	1a8594a5 	cinc	w5, w5, hi  // hi = pmore
    40ec:	0b020021 	add	w1, w1, w2
    40f0:	b81f4081 	stur	w1, [x4, #-12]
    40f4:	6b01005f 	cmp	w2, w1
/home/hei/Desktop/optee-qemu/optee_os/lib/libmbedtls/mbedtls/library/bignum.c:1306
    40f8:	b85f80c1 	ldur	w1, [x6, #-8]
/home/hei/Desktop/optee-qemu/optee_os/lib/libmbedtls/mbedtls/library/bignum.c:1305
    40fc:	1a8594a5 	cinc	w5, w5, hi  // hi = pmore
/home/hei/Desktop/optee-qemu/optee_os/lib/libmbedtls/mbedtls/library/bignum.c:1306
    4100:	9ba17c61 	umull	x1, w3, w1
    4104:	d360fc22 	lsr	x2, x1, #32
    4108:	0b0100a1 	add	w1, w5, w1
    410c:	6b0100bf 	cmp	w5, w1
    4110:	b85f8085 	ldur	w5, [x4, #-8]
    4114:	1a829442 	cinc	w2, w2, hi  // hi = pmore
    4118:	0b050021 	add	w1, w1, w5
    411c:	b81f8081 	stur	w1, [x4, #-8]
    4120:	6b0100bf 	cmp	w5, w1
    4124:	b85fc0c1 	ldur	w1, [x6, #-4]
    4128:	1a829442 	cinc	w2, w2, hi  // hi = pmore
    412c:	9ba17c61 	umull	x1, w3, w1
    4130:	d360fc25 	lsr	x5, x1, #32
    4134:	0b010041 	add	w1, w2, w1
    4138:	6b01005f 	cmp	w2, w1
    413c:	b85fc082 	ldur	w2, [x4, #-4]
    4140:	1a8594a5 	cinc	w5, w5, hi  // hi = pmore
    4144:	0b020021 	add	w1, w1, w2
    4148:	b81fc081 	stur	w1, [x4, #-4]
    414c:	6b01005f 	cmp	w2, w1
    4150:	1a8594a5 	cinc	w5, w5, hi  // hi = pmore
/home/hei/Desktop/optee-qemu/optee_os/lib/libmbedtls/mbedtls/library/bignum.c:1306 (discriminator 1)
    4154:	d2800001 	mov	x1, #0x0                   	// #0
    4158:	b8617888 	ldr	w8, [x4, x1, lsl #2]
/home/hei/Desktop/optee-qemu/optee_os/lib/libmbedtls/mbedtls/library/bignum.c:1310 (discriminator 1)
    415c:	eb00003f 	cmp	x1, x0
    4160:	54001761 	b.ne	444c <mpi_mul_hlp+0x49c>  // b.any
    4164:	8b010884 	add	x4, x4, x1, lsl #2
/home/hei/Desktop/optee-qemu/optee_os/lib/libmbedtls/mbedtls/library/bignum.c:1321 (discriminator 1)
    4168:	b9400080 	ldr	w0, [x4]
    416c:	0b0000a0 	add	w0, w5, w0
    4170:	b8004480 	str	w0, [x4], #4
/home/hei/Desktop/optee-qemu/optee_os/lib/libmbedtls/mbedtls/library/bignum.c:1323 (discriminator 1)
    4174:	6b05001f 	cmp	w0, w5
    4178:	54001823 	b.cc	447c <mpi_mul_hlp+0x4cc>  // b.lo, b.ul, b.last
/home/hei/Desktop/optee-qemu/optee_os/lib/libmbedtls/mbedtls/library/bignum.c:1324
    417c:	d65f03c0 	ret
/home/hei/Desktop/optee-qemu/optee_os/lib/libmbedtls/mbedtls/library/bignum.c:1287 (discriminator 2)
    4180:	b94000c7 	ldr	w7, [x6]
    4184:	910100c6 	add	x6, x6, #0x40
    4188:	91010084 	add	x4, x4, #0x40
/home/hei/Desktop/optee-qemu/optee_os/lib/libmbedtls/mbedtls/library/bignum.c:1284 (discriminator 2)
    418c:	d1004108 	sub	x8, x8, #0x10
/home/hei/Desktop/optee-qemu/optee_os/lib/libmbedtls/mbedtls/library/bignum.c:1287 (discriminator 2)
    4190:	9ba77c67 	umull	x7, w3, w7
    4194:	d360fce9 	lsr	x9, x7, #32
    4198:	0b0700a7 	add	w7, w5, w7
    419c:	6b0700bf 	cmp	w5, w7
    41a0:	0b0a00e5 	add	w5, w7, w10
    41a4:	b81c0085 	stur	w5, [x4, #-64]
    41a8:	1a899529 	cinc	w9, w9, hi  // hi = pmore
    41ac:	6b0a00bf 	cmp	w5, w10
    41b0:	b85c40c5 	ldur	w5, [x6, #-60]
    41b4:	1a892529 	cinc	w9, w9, cc  // cc = lo, ul, last
    41b8:	9ba57c65 	umull	x5, w3, w5
    41bc:	d360fca7 	lsr	x7, x5, #32
    41c0:	0b050125 	add	w5, w9, w5
    41c4:	6b05013f 	cmp	w9, w5
    41c8:	b85c4089 	ldur	w9, [x4, #-60]
    41cc:	1a8794e7 	cinc	w7, w7, hi  // hi = pmore
    41d0:	0b050125 	add	w5, w9, w5
    41d4:	b81c4085 	stur	w5, [x4, #-60]
    41d8:	6b05013f 	cmp	w9, w5
/home/hei/Desktop/optee-qemu/optee_os/lib/libmbedtls/mbedtls/library/bignum.c:1288 (discriminator 2)
    41dc:	b85c80c5 	ldur	w5, [x6, #-56]
/home/hei/Desktop/optee-qemu/optee_os/lib/libmbedtls/mbedtls/library/bignum.c:1287 (discriminator 2)
    41e0:	1a8794e7 	cinc	w7, w7, hi  // hi = pmore
/home/hei/Desktop/optee-qemu/optee_os/lib/libmbedtls/mbedtls/library/bignum.c:1288 (discriminator 2)
    41e4:	9ba57c65 	umull	x5, w3, w5
    41e8:	d360fca9 	lsr	x9, x5, #32
    41ec:	0b0500e5 	add	w5, w7, w5
    41f0:	6b0500ff 	cmp	w7, w5
    41f4:	b85c8087 	ldur	w7, [x4, #-56]
    41f8:	1a899529 	cinc	w9, w9, hi  // hi = pmore
    41fc:	0b0500e5 	add	w5, w7, w5
    4200:	b81c8085 	stur	w5, [x4, #-56]
    4204:	6b0500ff 	cmp	w7, w5
    4208:	b85cc0c5 	ldur	w5, [x6, #-52]
    420c:	1a899529 	cinc	w9, w9, hi  // hi = pmore
    4210:	9ba57c65 	umull	x5, w3, w5
    4214:	d360fca7 	lsr	x7, x5, #32
    4218:	0b050125 	add	w5, w9, w5
    421c:	6b05013f 	cmp	w9, w5
    4220:	b85cc089 	ldur	w9, [x4, #-52]
    4224:	1a8794e7 	cinc	w7, w7, hi  // hi = pmore
    4228:	0b050125 	add	w5, w9, w5
    422c:	b81cc085 	stur	w5, [x4, #-52]
    4230:	6b05013f 	cmp	w9, w5
/home/hei/Desktop/optee-qemu/optee_os/lib/libmbedtls/mbedtls/library/bignum.c:1289 (discriminator 2)
    4234:	b85d00c5 	ldur	w5, [x6, #-48]
/home/hei/Desktop/optee-qemu/optee_os/lib/libmbedtls/mbedtls/library/bignum.c:1288 (discriminator 2)
    4238:	1a8794e7 	cinc	w7, w7, hi  // hi = pmore
/home/hei/Desktop/optee-qemu/optee_os/lib/libmbedtls/mbedtls/library/bignum.c:1289 (discriminator 2)
    423c:	9ba57c65 	umull	x5, w3, w5
    4240:	d360fca9 	lsr	x9, x5, #32
    4244:	0b0500e5 	add	w5, w7, w5
    4248:	6b0500ff 	cmp	w7, w5
    424c:	b85d0087 	ldur	w7, [x4, #-48]
    4250:	1a899529 	cinc	w9, w9, hi  // hi = pmore
    4254:	0b0500e5 	add	w5, w7, w5
    4258:	b81d0085 	stur	w5, [x4, #-48]
    425c:	6b0500ff 	cmp	w7, w5
    4260:	b85d40c5 	ldur	w5, [x6, #-44]
    4264:	1a899529 	cinc	w9, w9, hi  // hi = pmore
    4268:	9ba57c65 	umull	x5, w3, w5
    426c:	d360fca7 	lsr	x7, x5, #32
    4270:	0b050125 	add	w5, w9, w5
    4274:	6b05013f 	cmp	w9, w5
    4278:	b85d4089 	ldur	w9, [x4, #-44]
    427c:	1a8794e7 	cinc	w7, w7, hi  // hi = pmore
    4280:	0b050125 	add	w5, w9, w5
    4284:	b81d4085 	stur	w5, [x4, #-44]
    4288:	6b05013f 	cmp	w9, w5
/home/hei/Desktop/optee-qemu/optee_os/lib/libmbedtls/mbedtls/library/bignum.c:1290 (discriminator 2)
    428c:	b85d80c5 	ldur	w5, [x6, #-40]
/home/hei/Desktop/optee-qemu/optee_os/lib/libmbedtls/mbedtls/library/bignum.c:1289 (discriminator 2)
    4290:	1a8794e7 	cinc	w7, w7, hi  // hi = pmore
/home/hei/Desktop/optee-qemu/optee_os/lib/libmbedtls/mbedtls/library/bignum.c:1290 (discriminator 2)
    4294:	9ba57c65 	umull	x5, w3, w5
    4298:	d360fca9 	lsr	x9, x5, #32
    429c:	0b0500e5 	add	w5, w7, w5
    42a0:	6b0500ff 	cmp	w7, w5
    42a4:	b85d8087 	ldur	w7, [x4, #-40]
    42a8:	1a899529 	cinc	w9, w9, hi  // hi = pmore
    42ac:	0b0500e5 	add	w5, w7, w5
    42b0:	b81d8085 	stur	w5, [x4, #-40]
    42b4:	6b0500ff 	cmp	w7, w5
    42b8:	b85dc0c5 	ldur	w5, [x6, #-36]
    42bc:	1a899529 	cinc	w9, w9, hi  // hi = pmore
    42c0:	9ba57c65 	umull	x5, w3, w5
    42c4:	d360fca7 	lsr	x7, x5, #32
    42c8:	0b050125 	add	w5, w9, w5
    42cc:	6b05013f 	cmp	w9, w5
    42d0:	b85dc089 	ldur	w9, [x4, #-36]
    42d4:	1a8794e7 	cinc	w7, w7, hi  // hi = pmore
    42d8:	0b050125 	add	w5, w9, w5
    42dc:	b81dc085 	stur	w5, [x4, #-36]
    42e0:	6b05013f 	cmp	w9, w5
/home/hei/Desktop/optee-qemu/optee_os/lib/libmbedtls/mbedtls/library/bignum.c:1292 (discriminator 2)
    42e4:	b85e00c5 	ldur	w5, [x6, #-32]
/home/hei/Desktop/optee-qemu/optee_os/lib/libmbedtls/mbedtls/library/bignum.c:1290 (discriminator 2)
    42e8:	1a8794e7 	cinc	w7, w7, hi  // hi = pmore
/home/hei/Desktop/optee-qemu/optee_os/lib/libmbedtls/mbedtls/library/bignum.c:1292 (discriminator 2)
    42ec:	9ba57c65 	umull	x5, w3, w5
    42f0:	d360fca9 	lsr	x9, x5, #32
    42f4:	0b0500e5 	add	w5, w7, w5
    42f8:	6b0500ff 	cmp	w7, w5
    42fc:	b85e0087 	ldur	w7, [x4, #-32]
    4300:	1a899529 	cinc	w9, w9, hi  // hi = pmore
    4304:	0b0500e5 	add	w5, w7, w5
    4308:	b81e0085 	stur	w5, [x4, #-32]
    430c:	6b0500ff 	cmp	w7, w5
    4310:	b85e40c5 	ldur	w5, [x6, #-28]
    4314:	1a899529 	cinc	w9, w9, hi  // hi = pmore
    4318:	9ba57c65 	umull	x5, w3, w5
    431c:	d360fca7 	lsr	x7, x5, #32
    4320:	0b050125 	add	w5, w9, w5
    4324:	6b05013f 	cmp	w9, w5
    4328:	b85e4089 	ldur	w9, [x4, #-28]
    432c:	1a8794e7 	cinc	w7, w7, hi  // hi = pmore
    4330:	0b050125 	add	w5, w9, w5
    4334:	b81e4085 	stur	w5, [x4, #-28]
    4338:	6b05013f 	cmp	w9, w5
/home/hei/Desktop/optee-qemu/optee_os/lib/libmbedtls/mbedtls/library/bignum.c:1293 (discriminator 2)
    433c:	b85e80c5 	ldur	w5, [x6, #-24]
/home/hei/Desktop/optee-qemu/optee_os/lib/libmbedtls/mbedtls/library/bignum.c:1292 (discriminator 2)
    4340:	1a8794e7 	cinc	w7, w7, hi  // hi = pmore
/home/hei/Desktop/optee-qemu/optee_os/lib/libmbedtls/mbedtls/library/bignum.c:1293 (discriminator 2)
    4344:	9ba57c65 	umull	x5, w3, w5
    4348:	d360fca9 	lsr	x9, x5, #32
    434c:	0b0500e5 	add	w5, w7, w5
    4350:	6b0500ff 	cmp	w7, w5
    4354:	b85e8087 	ldur	w7, [x4, #-24]
    4358:	1a899529 	cinc	w9, w9, hi  // hi = pmore
    435c:	0b0500e5 	add	w5, w7, w5
    4360:	b81e8085 	stur	w5, [x4, #-24]
    4364:	6b0500ff 	cmp	w7, w5
    4368:	b85ec0c5 	ldur	w5, [x6, #-20]
    436c:	1a899529 	cinc	w9, w9, hi  // hi = pmore
    4370:	9ba57c65 	umull	x5, w3, w5
    4374:	d360fca7 	lsr	x7, x5, #32
    4378:	0b050125 	add	w5, w9, w5
    437c:	6b05013f 	cmp	w9, w5
    4380:	b85ec089 	ldur	w9, [x4, #-20]
    4384:	1a8794e7 	cinc	w7, w7, hi  // hi = pmore
    4388:	0b050125 	add	w5, w9, w5
    438c:	b81ec085 	stur	w5, [x4, #-20]
    4390:	6b05013f 	cmp	w9, w5
/home/hei/Desktop/optee-qemu/optee_os/lib/libmbedtls/mbedtls/library/bignum.c:1294 (discriminator 2)
    4394:	b85f00c5 	ldur	w5, [x6, #-16]
/home/hei/Desktop/optee-qemu/optee_os/lib/libmbedtls/mbedtls/library/bignum.c:1293 (discriminator 2)
    4398:	1a8794e7 	cinc	w7, w7, hi  // hi = pmore
/home/hei/Desktop/optee-qemu/optee_os/lib/libmbedtls/mbedtls/library/bignum.c:1294 (discriminator 2)
    439c:	9ba57c65 	umull	x5, w3, w5
    43a0:	d360fca9 	lsr	x9, x5, #32
    43a4:	0b0500e5 	add	w5, w7, w5
    43a8:	6b0500ff 	cmp	w7, w5
    43ac:	b85f0087 	ldur	w7, [x4, #-16]
    43b0:	1a899529 	cinc	w9, w9, hi  // hi = pmore
    43b4:	0b0500e5 	add	w5, w7, w5
    43b8:	b81f0085 	stur	w5, [x4, #-16]
    43bc:	6b0500ff 	cmp	w7, w5
    43c0:	b85f40c5 	ldur	w5, [x6, #-12]
    43c4:	1a899529 	cinc	w9, w9, hi  // hi = pmore
    43c8:	9ba57c65 	umull	x5, w3, w5
    43cc:	d360fca7 	lsr	x7, x5, #32
    43d0:	0b050125 	add	w5, w9, w5
    43d4:	6b05013f 	cmp	w9, w5
    43d8:	b85f4089 	ldur	w9, [x4, #-12]
    43dc:	1a8794e7 	cinc	w7, w7, hi  // hi = pmore
    43e0:	0b050125 	add	w5, w9, w5
    43e4:	b81f4085 	stur	w5, [x4, #-12]
    43e8:	6b05013f 	cmp	w9, w5
/home/hei/Desktop/optee-qemu/optee_os/lib/libmbedtls/mbedtls/library/bignum.c:1295 (discriminator 2)
    43ec:	b85f80c5 	ldur	w5, [x6, #-8]
/home/hei/Desktop/optee-qemu/optee_os/lib/libmbedtls/mbedtls/library/bignum.c:1294 (discriminator 2)
    43f0:	1a8794e7 	cinc	w7, w7, hi  // hi = pmore
/home/hei/Desktop/optee-qemu/optee_os/lib/libmbedtls/mbedtls/library/bignum.c:1295 (discriminator 2)
    43f4:	9ba57c65 	umull	x5, w3, w5
    43f8:	d360fca9 	lsr	x9, x5, #32
    43fc:	0b0500e5 	add	w5, w7, w5
    4400:	6b0500ff 	cmp	w7, w5
    4404:	b85f8087 	ldur	w7, [x4, #-8]
    4408:	1a899529 	cinc	w9, w9, hi  // hi = pmore
    440c:	0b0500e5 	add	w5, w7, w5
    4410:	b81f8085 	stur	w5, [x4, #-8]
    4414:	6b0500ff 	cmp	w7, w5
    4418:	b85fc0c7 	ldur	w7, [x6, #-4]
    441c:	1a899529 	cinc	w9, w9, hi  // hi = pmore
    4420:	9ba77c67 	umull	x7, w3, w7
    4424:	d360fce5 	lsr	x5, x7, #32
    4428:	0b070127 	add	w7, w9, w7
    442c:	6b07013f 	cmp	w9, w7
    4430:	b85fc089 	ldur	w9, [x4, #-4]
    4434:	1a8594a5 	cinc	w5, w5, hi  // hi = pmore
    4438:	0b070127 	add	w7, w9, w7
    443c:	b81fc087 	stur	w7, [x4, #-4]
    4440:	6b07013f 	cmp	w9, w7
    4444:	1a8594a5 	cinc	w5, w5, hi  // hi = pmore
    4448:	17fffede 	b	3fc0 <mpi_mul_hlp+0x10>
/home/hei/Desktop/optee-qemu/optee_os/lib/libmbedtls/mbedtls/library/bignum.c:1313 (discriminator 2)
    444c:	b86178c2 	ldr	w2, [x6, x1, lsl #2]
    4450:	9ba27c62 	umull	x2, w3, w2
    4454:	d360fc47 	lsr	x7, x2, #32
    4458:	0b0200a2 	add	w2, w5, w2
    445c:	6b0200bf 	cmp	w5, w2
    4460:	0b020102 	add	w2, w8, w2
    4464:	1a8794e5 	cinc	w5, w7, hi  // hi = pmore
    4468:	6b02011f 	cmp	w8, w2
    446c:	1a8594a5 	cinc	w5, w5, hi  // hi = pmore
    4470:	b8217882 	str	w2, [x4, x1, lsl #2]
    4474:	91000421 	add	x1, x1, #0x1
    4478:	17ffff38 	b	4158 <mpi_mul_hlp+0x1a8>
/home/hei/Desktop/optee-qemu/optee_os/lib/libmbedtls/mbedtls/library/bignum.c:1321
    447c:	52800025 	mov	w5, #0x1                   	// #1
    4480:	17ffff3a 	b	4168 <mpi_mul_hlp+0x1b8>

0000000000004484 <mbedtls_mpi_init>:
mpi_init():
/home/hei/Desktop/optee-qemu/optee_os/lib/libmbedtls/mbedtls/library/bignum.c:98
    4484:	52800021 	mov	w1, #0x1                   	// #1
    4488:	b9000001 	str	w1, [x0]
/home/hei/Desktop/optee-qemu/optee_os/lib/libmbedtls/mbedtls/library/bignum.c:101
    448c:	a900fc1f 	stp	xzr, xzr, [x0, #8]
mbedtls_mpi_init():
/home/hei/Desktop/optee-qemu/optee_os/lib/libmbedtls/mbedtls/library/bignum.c:107
    4490:	d65f03c0 	ret

0000000000004494 <mbedtls_mpi_init_mempool>:
mbedtls_mpi_init_mempool():
/home/hei/Desktop/optee-qemu/optee_os/lib/libmbedtls/mbedtls/library/bignum.c:111
    4494:	90000041 	adrp	x1, c000 <_DYNAMIC>
mpi_init():
/home/hei/Desktop/optee-qemu/optee_os/lib/libmbedtls/mbedtls/library/bignum.c:98
    4498:	52800022 	mov	w2, #0x1                   	// #1
/home/hei/Desktop/optee-qemu/optee_os/lib/libmbedtls/mbedtls/library/bignum.c:101
    449c:	a900fc1f 	stp	xzr, xzr, [x0, #8]
mbedtls_mpi_init_mempool():
/home/hei/Desktop/optee-qemu/optee_os/lib/libmbedtls/mbedtls/library/bignum.c:111
    44a0:	f940c421 	ldr	x1, [x1, #392]
    44a4:	f9400021 	ldr	x1, [x1]
mpi_init():
/home/hei/Desktop/optee-qemu/optee_os/lib/libmbedtls/mbedtls/library/bignum.c:98
    44a8:	79000002 	strh	w2, [x0]
mbedtls_mpi_init_mempool():
/home/hei/Desktop/optee-qemu/optee_os/lib/libmbedtls/mbedtls/library/bignum.c:111
    44ac:	f100003f 	cmp	x1, #0x0
    44b0:	1a9f07e1 	cset	w1, ne  // ne = any
mpi_init():
/home/hei/Desktop/optee-qemu/optee_os/lib/libmbedtls/mbedtls/library/bignum.c:99
    44b4:	79000401 	strh	w1, [x0, #2]
mbedtls_mpi_init_mempool():
/home/hei/Desktop/optee-qemu/optee_os/lib/libmbedtls/mbedtls/library/bignum.c:112
    44b8:	d65f03c0 	ret

00000000000044bc <mbedtls_mpi_free>:
mbedtls_mpi_free():
/home/hei/Desktop/optee-qemu/optee_os/lib/libmbedtls/mbedtls/library/bignum.c:119
    44bc:	b4000340 	cbz	x0, 4524 <mbedtls_mpi_free+0x68>
/home/hei/Desktop/optee-qemu/optee_os/lib/libmbedtls/mbedtls/library/bignum.c:118
    44c0:	a9be7bfd 	stp	x29, x30, [sp, #-32]!
    44c4:	910003fd 	mov	x29, sp
    44c8:	f9000bf3 	str	x19, [sp, #16]
    44cc:	aa0003f3 	mov	x19, x0
/home/hei/Desktop/optee-qemu/optee_os/lib/libmbedtls/mbedtls/library/bignum.c:122
    44d0:	f9400800 	ldr	x0, [x0, #16]
    44d4:	b4000160 	cbz	x0, 4500 <mbedtls_mpi_free+0x44>
mbedtls_mpi_zeroize():
/home/hei/Desktop/optee-qemu/optee_os/lib/libmbedtls/mbedtls/library/bignum.c:88
    44d8:	f9400661 	ldr	x1, [x19, #8]
    44dc:	d37ef421 	lsl	x1, x1, #2
    44e0:	94000d75 	bl	7ab4 <mbedtls_platform_zeroize>
mbedtls_mpi_free():
/home/hei/Desktop/optee-qemu/optee_os/lib/libmbedtls/mbedtls/library/bignum.c:125
    44e4:	79c00660 	ldrsh	w0, [x19, #2]
    44e8:	34000180 	cbz	w0, 4518 <mbedtls_mpi_free+0x5c>
/home/hei/Desktop/optee-qemu/optee_os/lib/libmbedtls/mbedtls/library/bignum.c:126
    44ec:	90000040 	adrp	x0, c000 <_DYNAMIC>
    44f0:	f9400a61 	ldr	x1, [x19, #16]
    44f4:	f940c400 	ldr	x0, [x0, #392]
    44f8:	f9400000 	ldr	x0, [x0]
    44fc:	9400112e 	bl	89b4 <mempool_free>
/home/hei/Desktop/optee-qemu/optee_os/lib/libmbedtls/mbedtls/library/bignum.c:131
    4500:	52800020 	mov	w0, #0x1                   	// #1
    4504:	79000260 	strh	w0, [x19]
/home/hei/Desktop/optee-qemu/optee_os/lib/libmbedtls/mbedtls/library/bignum.c:133
    4508:	a900fe7f 	stp	xzr, xzr, [x19, #8]
/home/hei/Desktop/optee-qemu/optee_os/lib/libmbedtls/mbedtls/library/bignum.c:134
    450c:	f9400bf3 	ldr	x19, [sp, #16]
    4510:	a8c27bfd 	ldp	x29, x30, [sp], #32
    4514:	d65f03c0 	ret
/home/hei/Desktop/optee-qemu/optee_os/lib/libmbedtls/mbedtls/library/bignum.c:128
    4518:	f9400a60 	ldr	x0, [x19, #16]
    451c:	94000fa1 	bl	83a0 <free>
    4520:	17fffff8 	b	4500 <mbedtls_mpi_free+0x44>
    4524:	d65f03c0 	ret

0000000000004528 <mbedtls_mpi_grow>:
mbedtls_mpi_grow():
/home/hei/Desktop/optee-qemu/optee_os/lib/libmbedtls/mbedtls/library/bignum.c:144
    4528:	d284e202 	mov	x2, #0x2710                	// #10000
    452c:	eb02003f 	cmp	x1, x2
    4530:	54000069 	b.ls	453c <mbedtls_mpi_grow+0x14>  // b.plast
/home/hei/Desktop/optee-qemu/optee_os/lib/libmbedtls/mbedtls/library/bignum.c:145
    4534:	128001e0 	mov	w0, #0xfffffff0            	// #-16
/home/hei/Desktop/optee-qemu/optee_os/lib/libmbedtls/mbedtls/library/bignum.c:178
    4538:	d65f03c0 	ret
/home/hei/Desktop/optee-qemu/optee_os/lib/libmbedtls/mbedtls/library/bignum.c:147
    453c:	f9400402 	ldr	x2, [x0, #8]
    4540:	eb01005f 	cmp	x2, x1
    4544:	540006a2 	b.cs	4618 <mbedtls_mpi_grow+0xf0>  // b.hs, b.nlast
/home/hei/Desktop/optee-qemu/optee_os/lib/libmbedtls/mbedtls/library/bignum.c:140
    4548:	a9bc7bfd 	stp	x29, x30, [sp, #-64]!
    454c:	910003fd 	mov	x29, sp
    4550:	a90153f3 	stp	x19, x20, [sp, #16]
    4554:	aa0003f3 	mov	x19, x0
/home/hei/Desktop/optee-qemu/optee_os/lib/libmbedtls/mbedtls/library/bignum.c:149
    4558:	79c00400 	ldrsh	w0, [x0, #2]
/home/hei/Desktop/optee-qemu/optee_os/lib/libmbedtls/mbedtls/library/bignum.c:140
    455c:	f90013f5 	str	x21, [sp, #32]
    4560:	aa0103f4 	mov	x20, x1
/home/hei/Desktop/optee-qemu/optee_os/lib/libmbedtls/mbedtls/library/bignum.c:149
    4564:	34000400 	cbz	w0, 45e4 <mbedtls_mpi_grow+0xbc>
/home/hei/Desktop/optee-qemu/optee_os/lib/libmbedtls/mbedtls/library/bignum.c:151
    4568:	90000040 	adrp	x0, c000 <_DYNAMIC>
    456c:	d37ef422 	lsl	x2, x1, #2
    4570:	aa0203e1 	mov	x1, x2
    4574:	f9001fe2 	str	x2, [sp, #56]
    4578:	f940c400 	ldr	x0, [x0, #392]
    457c:	f9400000 	ldr	x0, [x0]
    4580:	940010ce 	bl	88b8 <mempool_alloc>
    4584:	aa0003f5 	mov	x21, x0
/home/hei/Desktop/optee-qemu/optee_os/lib/libmbedtls/mbedtls/library/bignum.c:152
    4588:	b4000380 	cbz	x0, 45f8 <mbedtls_mpi_grow+0xd0>
/home/hei/Desktop/optee-qemu/optee_os/lib/libmbedtls/mbedtls/library/bignum.c:154
    458c:	f9401fe2 	ldr	x2, [sp, #56]
    4590:	52800001 	mov	w1, #0x0                   	// #0
    4594:	940010a8 	bl	8834 <memset>
/home/hei/Desktop/optee-qemu/optee_os/lib/libmbedtls/mbedtls/library/bignum.c:163
    4598:	f9400a61 	ldr	x1, [x19, #16]
    459c:	b40001e1 	cbz	x1, 45d8 <mbedtls_mpi_grow+0xb0>
/home/hei/Desktop/optee-qemu/optee_os/lib/libmbedtls/mbedtls/library/bignum.c:165
    45a0:	f9400662 	ldr	x2, [x19, #8]
    45a4:	aa1503e0 	mov	x0, x21
    45a8:	d37ef442 	lsl	x2, x2, #2
    45ac:	97ffef59 	bl	310 <memcpy>
mbedtls_mpi_zeroize():
/home/hei/Desktop/optee-qemu/optee_os/lib/libmbedtls/mbedtls/library/bignum.c:88
    45b0:	a9408261 	ldp	x1, x0, [x19, #8]
    45b4:	d37ef421 	lsl	x1, x1, #2
    45b8:	94000d3f 	bl	7ab4 <mbedtls_platform_zeroize>
mbedtls_mpi_grow():
/home/hei/Desktop/optee-qemu/optee_os/lib/libmbedtls/mbedtls/library/bignum.c:167
    45bc:	79c00660 	ldrsh	w0, [x19, #2]
    45c0:	34000260 	cbz	w0, 460c <mbedtls_mpi_grow+0xe4>
/home/hei/Desktop/optee-qemu/optee_os/lib/libmbedtls/mbedtls/library/bignum.c:168
    45c4:	90000040 	adrp	x0, c000 <_DYNAMIC>
    45c8:	f9400a61 	ldr	x1, [x19, #16]
    45cc:	f940c400 	ldr	x0, [x0, #392]
    45d0:	f9400000 	ldr	x0, [x0]
    45d4:	940010f8 	bl	89b4 <mempool_free>
/home/hei/Desktop/optee-qemu/optee_os/lib/libmbedtls/mbedtls/library/bignum.c:177
    45d8:	52800000 	mov	w0, #0x0                   	// #0
/home/hei/Desktop/optee-qemu/optee_os/lib/libmbedtls/mbedtls/library/bignum.c:174
    45dc:	a900d674 	stp	x20, x21, [x19, #8]
    45e0:	14000007 	b	45fc <mbedtls_mpi_grow+0xd4>
/home/hei/Desktop/optee-qemu/optee_os/lib/libmbedtls/mbedtls/library/bignum.c:158
    45e4:	d2800081 	mov	x1, #0x4                   	// #4
    45e8:	aa1403e0 	mov	x0, x20
    45ec:	94000f40 	bl	82ec <calloc>
    45f0:	aa0003f5 	mov	x21, x0
/home/hei/Desktop/optee-qemu/optee_os/lib/libmbedtls/mbedtls/library/bignum.c:159
    45f4:	b5fffd20 	cbnz	x0, 4598 <mbedtls_mpi_grow+0x70>
/home/hei/Desktop/optee-qemu/optee_os/lib/libmbedtls/mbedtls/library/bignum.c:145
    45f8:	128001e0 	mov	w0, #0xfffffff0            	// #-16
/home/hei/Desktop/optee-qemu/optee_os/lib/libmbedtls/mbedtls/library/bignum.c:178
    45fc:	a94153f3 	ldp	x19, x20, [sp, #16]
    4600:	f94013f5 	ldr	x21, [sp, #32]
    4604:	a8c47bfd 	ldp	x29, x30, [sp], #64
    4608:	d65f03c0 	ret
/home/hei/Desktop/optee-qemu/optee_os/lib/libmbedtls/mbedtls/library/bignum.c:170
    460c:	f9400a60 	ldr	x0, [x19, #16]
    4610:	94000f64 	bl	83a0 <free>
    4614:	17fffff1 	b	45d8 <mbedtls_mpi_grow+0xb0>
/home/hei/Desktop/optee-qemu/optee_os/lib/libmbedtls/mbedtls/library/bignum.c:177
    4618:	52800000 	mov	w0, #0x0                   	// #0
    461c:	d65f03c0 	ret

0000000000004620 <mbedtls_mpi_shrink>:
mbedtls_mpi_shrink():
/home/hei/Desktop/optee-qemu/optee_os/lib/libmbedtls/mbedtls/library/bignum.c:190
    4620:	d284e203 	mov	x3, #0x2710                	// #10000
    4624:	eb03003f 	cmp	x1, x3
    4628:	54000069 	b.ls	4634 <mbedtls_mpi_shrink+0x14>  // b.plast
/home/hei/Desktop/optee-qemu/optee_os/lib/libmbedtls/mbedtls/library/bignum.c:191
    462c:	128001e0 	mov	w0, #0xfffffff0            	// #-16
/home/hei/Desktop/optee-qemu/optee_os/lib/libmbedtls/mbedtls/library/bignum.c:233
    4630:	d65f03c0 	ret
/home/hei/Desktop/optee-qemu/optee_os/lib/libmbedtls/mbedtls/library/bignum.c:185
    4634:	a9bd7bfd 	stp	x29, x30, [sp, #-48]!
    4638:	aa0103e2 	mov	x2, x1
    463c:	910003fd 	mov	x29, sp
/home/hei/Desktop/optee-qemu/optee_os/lib/libmbedtls/mbedtls/library/bignum.c:194
    4640:	f9400403 	ldr	x3, [x0, #8]
/home/hei/Desktop/optee-qemu/optee_os/lib/libmbedtls/mbedtls/library/bignum.c:185
    4644:	a90153f3 	stp	x19, x20, [sp, #16]
    4648:	a9025bf5 	stp	x21, x22, [sp, #32]
/home/hei/Desktop/optee-qemu/optee_os/lib/libmbedtls/mbedtls/library/bignum.c:194
    464c:	eb01007f 	cmp	x3, x1
    4650:	aa0003f5 	mov	x21, x0
    4654:	540000a8 	b.hi	4668 <mbedtls_mpi_shrink+0x48>  // b.pmore
/home/hei/Desktop/optee-qemu/optee_os/lib/libmbedtls/mbedtls/library/bignum.c:233
    4658:	a94153f3 	ldp	x19, x20, [sp, #16]
    465c:	a9425bf5 	ldp	x21, x22, [sp, #32]
    4660:	a8c37bfd 	ldp	x29, x30, [sp], #48
/home/hei/Desktop/optee-qemu/optee_os/lib/libmbedtls/mbedtls/library/bignum.c:195
    4664:	17ffffb1 	b	4528 <mbedtls_mpi_grow>
/home/hei/Desktop/optee-qemu/optee_os/lib/libmbedtls/mbedtls/library/bignum.c:197
    4668:	d1000461 	sub	x1, x3, #0x1
/home/hei/Desktop/optee-qemu/optee_os/lib/libmbedtls/mbedtls/library/bignum.c:197 (discriminator 1)
    466c:	b5000481 	cbnz	x1, 46fc <mbedtls_mpi_shrink+0xdc>
/home/hei/Desktop/optee-qemu/optee_os/lib/libmbedtls/mbedtls/library/bignum.c:200
    4670:	91000421 	add	x1, x1, #0x1
    4674:	aa0203e0 	mov	x0, x2
/home/hei/Desktop/optee-qemu/optee_os/lib/libmbedtls/mbedtls/library/bignum.c:202
    4678:	eb01005f 	cmp	x2, x1
    467c:	9a812054 	csel	x20, x2, x1, cs  // cs = hs, nlast
/home/hei/Desktop/optee-qemu/optee_os/lib/libmbedtls/mbedtls/library/bignum.c:205
    4680:	79c006a1 	ldrsh	w1, [x21, #2]
    4684:	34000461 	cbz	w1, 4710 <mbedtls_mpi_shrink+0xf0>
/home/hei/Desktop/optee-qemu/optee_os/lib/libmbedtls/mbedtls/library/bignum.c:207
    4688:	90000040 	adrp	x0, c000 <_DYNAMIC>
    468c:	d37ef453 	lsl	x19, x2, #2
    4690:	aa1303e1 	mov	x1, x19
    4694:	f940c400 	ldr	x0, [x0, #392]
    4698:	f9400000 	ldr	x0, [x0]
    469c:	94001087 	bl	88b8 <mempool_alloc>
    46a0:	aa0003f6 	mov	x22, x0
/home/hei/Desktop/optee-qemu/optee_os/lib/libmbedtls/mbedtls/library/bignum.c:208
    46a4:	b40003e0 	cbz	x0, 4720 <mbedtls_mpi_shrink+0x100>
/home/hei/Desktop/optee-qemu/optee_os/lib/libmbedtls/mbedtls/library/bignum.c:210
    46a8:	aa1303e2 	mov	x2, x19
    46ac:	52800001 	mov	w1, #0x0                   	// #0
    46b0:	94001061 	bl	8834 <memset>
/home/hei/Desktop/optee-qemu/optee_os/lib/libmbedtls/mbedtls/library/bignum.c:219
    46b4:	f9400aa1 	ldr	x1, [x21, #16]
    46b8:	b40001c1 	cbz	x1, 46f0 <mbedtls_mpi_shrink+0xd0>
/home/hei/Desktop/optee-qemu/optee_os/lib/libmbedtls/mbedtls/library/bignum.c:221
    46bc:	d37ef682 	lsl	x2, x20, #2
    46c0:	aa1603e0 	mov	x0, x22
    46c4:	97ffef13 	bl	310 <memcpy>
mbedtls_mpi_zeroize():
/home/hei/Desktop/optee-qemu/optee_os/lib/libmbedtls/mbedtls/library/bignum.c:88
    46c8:	a94082a1 	ldp	x1, x0, [x21, #8]
    46cc:	d37ef421 	lsl	x1, x1, #2
    46d0:	94000cf9 	bl	7ab4 <mbedtls_platform_zeroize>
mbedtls_mpi_shrink():
/home/hei/Desktop/optee-qemu/optee_os/lib/libmbedtls/mbedtls/library/bignum.c:223
    46d4:	79c006a0 	ldrsh	w0, [x21, #2]
    46d8:	340002e0 	cbz	w0, 4734 <mbedtls_mpi_shrink+0x114>
/home/hei/Desktop/optee-qemu/optee_os/lib/libmbedtls/mbedtls/library/bignum.c:224
    46dc:	90000040 	adrp	x0, c000 <_DYNAMIC>
    46e0:	f9400aa1 	ldr	x1, [x21, #16]
    46e4:	f940c400 	ldr	x0, [x0, #392]
    46e8:	f9400000 	ldr	x0, [x0]
    46ec:	940010b2 	bl	89b4 <mempool_free>
/home/hei/Desktop/optee-qemu/optee_os/lib/libmbedtls/mbedtls/library/bignum.c:232
    46f0:	52800000 	mov	w0, #0x0                   	// #0
/home/hei/Desktop/optee-qemu/optee_os/lib/libmbedtls/mbedtls/library/bignum.c:230
    46f4:	a900dab4 	stp	x20, x22, [x21, #8]
/home/hei/Desktop/optee-qemu/optee_os/lib/libmbedtls/mbedtls/library/bignum.c:232
    46f8:	1400000b 	b	4724 <mbedtls_mpi_shrink+0x104>
/home/hei/Desktop/optee-qemu/optee_os/lib/libmbedtls/mbedtls/library/bignum.c:198
    46fc:	f9400aa0 	ldr	x0, [x21, #16]
    4700:	b8617800 	ldr	w0, [x0, x1, lsl #2]
    4704:	35fffb60 	cbnz	w0, 4670 <mbedtls_mpi_shrink+0x50>
/home/hei/Desktop/optee-qemu/optee_os/lib/libmbedtls/mbedtls/library/bignum.c:197 (discriminator 2)
    4708:	d1000421 	sub	x1, x1, #0x1
    470c:	17ffffd8 	b	466c <mbedtls_mpi_shrink+0x4c>
/home/hei/Desktop/optee-qemu/optee_os/lib/libmbedtls/mbedtls/library/bignum.c:214
    4710:	d2800081 	mov	x1, #0x4                   	// #4
    4714:	94000ef6 	bl	82ec <calloc>
    4718:	aa0003f6 	mov	x22, x0
/home/hei/Desktop/optee-qemu/optee_os/lib/libmbedtls/mbedtls/library/bignum.c:215
    471c:	b5fffcc0 	cbnz	x0, 46b4 <mbedtls_mpi_shrink+0x94>
/home/hei/Desktop/optee-qemu/optee_os/lib/libmbedtls/mbedtls/library/bignum.c:191
    4720:	128001e0 	mov	w0, #0xfffffff0            	// #-16
/home/hei/Desktop/optee-qemu/optee_os/lib/libmbedtls/mbedtls/library/bignum.c:233
    4724:	a94153f3 	ldp	x19, x20, [sp, #16]
    4728:	a9425bf5 	ldp	x21, x22, [sp, #32]
    472c:	a8c37bfd 	ldp	x29, x30, [sp], #48
    4730:	d65f03c0 	ret
/home/hei/Desktop/optee-qemu/optee_os/lib/libmbedtls/mbedtls/library/bignum.c:226
    4734:	f9400aa0 	ldr	x0, [x21, #16]
    4738:	94000f1a 	bl	83a0 <free>
    473c:	17ffffed 	b	46f0 <mbedtls_mpi_shrink+0xd0>

0000000000004740 <mbedtls_mpi_copy>:
mbedtls_mpi_copy():
/home/hei/Desktop/optee-qemu/optee_os/lib/libmbedtls/mbedtls/library/bignum.c:245
    4740:	eb01001f 	cmp	x0, x1
    4744:	54000540 	b.eq	47ec <mbedtls_mpi_copy+0xac>  // b.none
/home/hei/Desktop/optee-qemu/optee_os/lib/libmbedtls/mbedtls/library/bignum.c:239
    4748:	a9bd7bfd 	stp	x29, x30, [sp, #-48]!
    474c:	910003fd 	mov	x29, sp
    4750:	f90013f5 	str	x21, [sp, #32]
    4754:	aa0103f5 	mov	x21, x1
/home/hei/Desktop/optee-qemu/optee_os/lib/libmbedtls/mbedtls/library/bignum.c:248
    4758:	f9400821 	ldr	x1, [x1, #16]
/home/hei/Desktop/optee-qemu/optee_os/lib/libmbedtls/mbedtls/library/bignum.c:239
    475c:	a90153f3 	stp	x19, x20, [sp, #16]
/home/hei/Desktop/optee-qemu/optee_os/lib/libmbedtls/mbedtls/library/bignum.c:248
    4760:	b5000081 	cbnz	x1, 4770 <mbedtls_mpi_copy+0x30>
/home/hei/Desktop/optee-qemu/optee_os/lib/libmbedtls/mbedtls/library/bignum.c:250
    4764:	97ffff56 	bl	44bc <mbedtls_mpi_free>
/home/hei/Desktop/optee-qemu/optee_os/lib/libmbedtls/mbedtls/library/bignum.c:270
    4768:	52800000 	mov	w0, #0x0                   	// #0
    476c:	14000011 	b	47b0 <mbedtls_mpi_copy+0x70>
/home/hei/Desktop/optee-qemu/optee_os/lib/libmbedtls/mbedtls/library/bignum.c:254
    4770:	f94006b3 	ldr	x19, [x21, #8]
    4774:	aa0003f4 	mov	x20, x0
/home/hei/Desktop/optee-qemu/optee_os/lib/libmbedtls/mbedtls/library/bignum.c:254 (discriminator 2)
    4778:	d1000673 	sub	x19, x19, #0x1
    477c:	b4000073 	cbz	x19, 4788 <mbedtls_mpi_copy+0x48>
/home/hei/Desktop/optee-qemu/optee_os/lib/libmbedtls/mbedtls/library/bignum.c:255
    4780:	b8737820 	ldr	w0, [x1, x19, lsl #2]
    4784:	34ffffa0 	cbz	w0, 4778 <mbedtls_mpi_copy+0x38>
/home/hei/Desktop/optee-qemu/optee_os/lib/libmbedtls/mbedtls/library/bignum.c:259
    4788:	79c002a0 	ldrsh	w0, [x21]
/home/hei/Desktop/optee-qemu/optee_os/lib/libmbedtls/mbedtls/library/bignum.c:257
    478c:	91000673 	add	x19, x19, #0x1
/home/hei/Desktop/optee-qemu/optee_os/lib/libmbedtls/mbedtls/library/bignum.c:261
    4790:	f9400682 	ldr	x2, [x20, #8]
/home/hei/Desktop/optee-qemu/optee_os/lib/libmbedtls/mbedtls/library/bignum.c:259
    4794:	79000280 	strh	w0, [x20]
/home/hei/Desktop/optee-qemu/optee_os/lib/libmbedtls/mbedtls/library/bignum.c:261
    4798:	eb13005f 	cmp	x2, x19
    479c:	54000122 	b.cs	47c0 <mbedtls_mpi_copy+0x80>  // b.hs, b.nlast
/home/hei/Desktop/optee-qemu/optee_os/lib/libmbedtls/mbedtls/library/bignum.c:263
    47a0:	aa1303e1 	mov	x1, x19
    47a4:	aa1403e0 	mov	x0, x20
    47a8:	97ffff60 	bl	4528 <mbedtls_mpi_grow>
    47ac:	34000160 	cbz	w0, 47d8 <mbedtls_mpi_copy+0x98>
/home/hei/Desktop/optee-qemu/optee_os/lib/libmbedtls/mbedtls/library/bignum.c:275
    47b0:	a94153f3 	ldp	x19, x20, [sp, #16]
    47b4:	f94013f5 	ldr	x21, [sp, #32]
    47b8:	a8c37bfd 	ldp	x29, x30, [sp], #48
    47bc:	d65f03c0 	ret
/home/hei/Desktop/optee-qemu/optee_os/lib/libmbedtls/mbedtls/library/bignum.c:267
    47c0:	f9400a80 	ldr	x0, [x20, #16]
    47c4:	cb130042 	sub	x2, x2, x19
    47c8:	52800001 	mov	w1, #0x0                   	// #0
    47cc:	d37ef442 	lsl	x2, x2, #2
    47d0:	8b130800 	add	x0, x0, x19, lsl #2
    47d4:	94001018 	bl	8834 <memset>
/home/hei/Desktop/optee-qemu/optee_os/lib/libmbedtls/mbedtls/library/bignum.c:270
    47d8:	f9400a80 	ldr	x0, [x20, #16]
    47dc:	d37ef662 	lsl	x2, x19, #2
    47e0:	f9400aa1 	ldr	x1, [x21, #16]
    47e4:	97ffeecb 	bl	310 <memcpy>
    47e8:	17ffffe0 	b	4768 <mbedtls_mpi_copy+0x28>
/home/hei/Desktop/optee-qemu/optee_os/lib/libmbedtls/mbedtls/library/bignum.c:246
    47ec:	52800000 	mov	w0, #0x0                   	// #0
/home/hei/Desktop/optee-qemu/optee_os/lib/libmbedtls/mbedtls/library/bignum.c:275
    47f0:	d65f03c0 	ret

00000000000047f4 <mbedtls_mpi_swap>:
mbedtls_mpi_swap():
/home/hei/Desktop/optee-qemu/optee_os/lib/libmbedtls/mbedtls/library/bignum.c:281
    47f4:	a9bb7bfd 	stp	x29, x30, [sp, #-80]!
    47f8:	910003fd 	mov	x29, sp
    47fc:	a90153f3 	stp	x19, x20, [sp, #16]
/home/hei/Desktop/optee-qemu/optee_os/lib/libmbedtls/mbedtls/library/bignum.c:286
    4800:	9100e3f3 	add	x19, sp, #0x38
    4804:	d2800314 	mov	x20, #0x18                  	// #24
    4808:	aa1403e2 	mov	x2, x20
/home/hei/Desktop/optee-qemu/optee_os/lib/libmbedtls/mbedtls/library/bignum.c:281
    480c:	a9025bf5 	stp	x21, x22, [sp, #32]
    4810:	aa0103f5 	mov	x21, x1
    4814:	aa0003f6 	mov	x22, x0
/home/hei/Desktop/optee-qemu/optee_os/lib/libmbedtls/mbedtls/library/bignum.c:286
    4818:	aa0003e1 	mov	x1, x0
    481c:	aa1303e0 	mov	x0, x19
    4820:	97ffeebc 	bl	310 <memcpy>
/home/hei/Desktop/optee-qemu/optee_os/lib/libmbedtls/mbedtls/library/bignum.c:287
    4824:	aa1403e2 	mov	x2, x20
    4828:	aa1503e1 	mov	x1, x21
    482c:	aa1603e0 	mov	x0, x22
    4830:	97ffeeb8 	bl	310 <memcpy>
/home/hei/Desktop/optee-qemu/optee_os/lib/libmbedtls/mbedtls/library/bignum.c:288
    4834:	aa1403e2 	mov	x2, x20
    4838:	aa1303e1 	mov	x1, x19
    483c:	aa1503e0 	mov	x0, x21
    4840:	97ffeeb4 	bl	310 <memcpy>
/home/hei/Desktop/optee-qemu/optee_os/lib/libmbedtls/mbedtls/library/bignum.c:289
    4844:	a94153f3 	ldp	x19, x20, [sp, #16]
    4848:	a9425bf5 	ldp	x21, x22, [sp, #32]
    484c:	a8c57bfd 	ldp	x29, x30, [sp], #80
    4850:	d65f03c0 	ret

0000000000004854 <mbedtls_mpi_safe_cond_assign>:
mbedtls_mpi_safe_cond_assign():
/home/hei/Desktop/optee-qemu/optee_os/lib/libmbedtls/mbedtls/library/bignum.c:297
    4854:	a9bd7bfd 	stp	x29, x30, [sp, #-48]!
    4858:	910003fd 	mov	x29, sp
    485c:	f90013f5 	str	x21, [sp, #32]
    4860:	aa0103f5 	mov	x21, x1
/home/hei/Desktop/optee-qemu/optee_os/lib/libmbedtls/mbedtls/library/bignum.c:306
    4864:	f9400421 	ldr	x1, [x1, #8]
/home/hei/Desktop/optee-qemu/optee_os/lib/libmbedtls/mbedtls/library/bignum.c:297
    4868:	a90153f3 	stp	x19, x20, [sp, #16]
    486c:	aa0003f4 	mov	x20, x0
    4870:	12001c53 	and	w19, w2, #0xff
/home/hei/Desktop/optee-qemu/optee_os/lib/libmbedtls/mbedtls/library/bignum.c:306
    4874:	97ffff2d 	bl	4528 <mbedtls_mpi_grow>
    4878:	35000240 	cbnz	w0, 48c0 <mbedtls_mpi_safe_cond_assign+0x6c>
/home/hei/Desktop/optee-qemu/optee_os/lib/libmbedtls/mbedtls/library/bignum.c:304
    487c:	4b1303e2 	neg	w2, w19
/home/hei/Desktop/optee-qemu/optee_os/lib/libmbedtls/mbedtls/library/bignum.c:308
    4880:	794002a4 	ldrh	w4, [x21]
/home/hei/Desktop/optee-qemu/optee_os/lib/libmbedtls/mbedtls/library/bignum.c:304
    4884:	2a020262 	orr	w2, w19, w2
/home/hei/Desktop/optee-qemu/optee_os/lib/libmbedtls/mbedtls/library/bignum.c:308
    4888:	79400281 	ldrh	w1, [x20]
    488c:	52800023 	mov	w3, #0x1                   	// #1
/home/hei/Desktop/optee-qemu/optee_os/lib/libmbedtls/mbedtls/library/bignum.c:304
    4890:	d3471c42 	ubfx	x2, x2, #7, #1
/home/hei/Desktop/optee-qemu/optee_os/lib/libmbedtls/mbedtls/library/bignum.c:308
    4894:	4b020063 	sub	w3, w3, w2
/home/hei/Desktop/optee-qemu/optee_os/lib/libmbedtls/mbedtls/library/bignum.c:310
    4898:	f94006a8 	ldr	x8, [x21, #8]
/home/hei/Desktop/optee-qemu/optee_os/lib/libmbedtls/mbedtls/library/bignum.c:308
    489c:	1b047c44 	mul	w4, w2, w4
    48a0:	1b011061 	madd	w1, w3, w1, w4
    48a4:	79000281 	strh	w1, [x20]
/home/hei/Desktop/optee-qemu/optee_os/lib/libmbedtls/mbedtls/library/bignum.c:310
    48a8:	d2800001 	mov	x1, #0x0                   	// #0
/home/hei/Desktop/optee-qemu/optee_os/lib/libmbedtls/mbedtls/library/bignum.c:310 (discriminator 1)
    48ac:	eb01011f 	cmp	x8, x1
    48b0:	54000101 	b.ne	48d0 <mbedtls_mpi_safe_cond_assign+0x7c>  // b.any
/home/hei/Desktop/optee-qemu/optee_os/lib/libmbedtls/mbedtls/library/bignum.c:313
    48b4:	f9400686 	ldr	x6, [x20, #8]
/home/hei/Desktop/optee-qemu/optee_os/lib/libmbedtls/mbedtls/library/bignum.c:313 (discriminator 1)
    48b8:	eb0100df 	cmp	x6, x1
    48bc:	540001e8 	b.hi	48f8 <mbedtls_mpi_safe_cond_assign+0xa4>  // b.pmore
/home/hei/Desktop/optee-qemu/optee_os/lib/libmbedtls/mbedtls/library/bignum.c:318
    48c0:	a94153f3 	ldp	x19, x20, [sp, #16]
    48c4:	f94013f5 	ldr	x21, [sp, #32]
    48c8:	a8c37bfd 	ldp	x29, x30, [sp], #48
    48cc:	d65f03c0 	ret
/home/hei/Desktop/optee-qemu/optee_os/lib/libmbedtls/mbedtls/library/bignum.c:311 (discriminator 3)
    48d0:	f9400a87 	ldr	x7, [x20, #16]
    48d4:	d37ef424 	lsl	x4, x1, #2
    48d8:	f9400aa5 	ldr	x5, [x21, #16]
/home/hei/Desktop/optee-qemu/optee_os/lib/libmbedtls/mbedtls/library/bignum.c:310 (discriminator 3)
    48dc:	91000421 	add	x1, x1, #0x1
/home/hei/Desktop/optee-qemu/optee_os/lib/libmbedtls/mbedtls/library/bignum.c:311 (discriminator 3)
    48e0:	b86468e6 	ldr	w6, [x7, x4]
    48e4:	b86468a5 	ldr	w5, [x5, x4]
    48e8:	1b067c66 	mul	w6, w3, w6
    48ec:	1b051845 	madd	w5, w2, w5, w6
    48f0:	b82468e5 	str	w5, [x7, x4]
    48f4:	17ffffee 	b	48ac <mbedtls_mpi_safe_cond_assign+0x58>
/home/hei/Desktop/optee-qemu/optee_os/lib/libmbedtls/mbedtls/library/bignum.c:314 (discriminator 2)
    48f8:	f9400a85 	ldr	x5, [x20, #16]
    48fc:	d37ef424 	lsl	x4, x1, #2
/home/hei/Desktop/optee-qemu/optee_os/lib/libmbedtls/mbedtls/library/bignum.c:313 (discriminator 2)
    4900:	91000421 	add	x1, x1, #0x1
/home/hei/Desktop/optee-qemu/optee_os/lib/libmbedtls/mbedtls/library/bignum.c:314 (discriminator 2)
    4904:	b86468a2 	ldr	w2, [x5, x4]
    4908:	1b037c42 	mul	w2, w2, w3
    490c:	b82468a2 	str	w2, [x5, x4]
    4910:	17ffffea 	b	48b8 <mbedtls_mpi_safe_cond_assign+0x64>

0000000000004914 <mbedtls_mpi_safe_cond_swap>:
mbedtls_mpi_safe_cond_swap():
/home/hei/Desktop/optee-qemu/optee_os/lib/libmbedtls/mbedtls/library/bignum.c:334
    4914:	eb01001f 	cmp	x0, x1
    4918:	54000061 	b.ne	4924 <mbedtls_mpi_safe_cond_swap+0x10>  // b.any
/home/hei/Desktop/optee-qemu/optee_os/lib/libmbedtls/mbedtls/library/bignum.c:335
    491c:	52800000 	mov	w0, #0x0                   	// #0
/home/hei/Desktop/optee-qemu/optee_os/lib/libmbedtls/mbedtls/library/bignum.c:357
    4920:	d65f03c0 	ret
/home/hei/Desktop/optee-qemu/optee_os/lib/libmbedtls/mbedtls/library/bignum.c:327
    4924:	a9bd7bfd 	stp	x29, x30, [sp, #-48]!
    4928:	910003fd 	mov	x29, sp
    492c:	a90153f3 	stp	x19, x20, [sp, #16]
    4930:	aa0103f4 	mov	x20, x1
/home/hei/Desktop/optee-qemu/optee_os/lib/libmbedtls/mbedtls/library/bignum.c:338
    4934:	12001c53 	and	w19, w2, #0xff
/home/hei/Desktop/optee-qemu/optee_os/lib/libmbedtls/mbedtls/library/bignum.c:340
    4938:	f9400421 	ldr	x1, [x1, #8]
/home/hei/Desktop/optee-qemu/optee_os/lib/libmbedtls/mbedtls/library/bignum.c:327
    493c:	f90013f5 	str	x21, [sp, #32]
    4940:	aa0003f5 	mov	x21, x0
/home/hei/Desktop/optee-qemu/optee_os/lib/libmbedtls/mbedtls/library/bignum.c:340
    4944:	97fffef9 	bl	4528 <mbedtls_mpi_grow>
    4948:	35000340 	cbnz	w0, 49b0 <mbedtls_mpi_safe_cond_swap+0x9c>
/home/hei/Desktop/optee-qemu/optee_os/lib/libmbedtls/mbedtls/library/bignum.c:341
    494c:	f94006a1 	ldr	x1, [x21, #8]
    4950:	aa1403e0 	mov	x0, x20
    4954:	97fffef5 	bl	4528 <mbedtls_mpi_grow>
    4958:	350002c0 	cbnz	w0, 49b0 <mbedtls_mpi_safe_cond_swap+0x9c>
/home/hei/Desktop/optee-qemu/optee_os/lib/libmbedtls/mbedtls/library/bignum.c:338
    495c:	4b1303e2 	neg	w2, w19
/home/hei/Desktop/optee-qemu/optee_os/lib/libmbedtls/mbedtls/library/bignum.c:344
    4960:	794002a3 	ldrh	w3, [x21]
/home/hei/Desktop/optee-qemu/optee_os/lib/libmbedtls/mbedtls/library/bignum.c:338
    4964:	2a020262 	orr	w2, w19, w2
/home/hei/Desktop/optee-qemu/optee_os/lib/libmbedtls/mbedtls/library/bignum.c:344
    4968:	52800020 	mov	w0, #0x1                   	// #1
    496c:	79400284 	ldrh	w4, [x20]
/home/hei/Desktop/optee-qemu/optee_os/lib/libmbedtls/mbedtls/library/bignum.c:338
    4970:	d3471c42 	ubfx	x2, x2, #7, #1
/home/hei/Desktop/optee-qemu/optee_os/lib/libmbedtls/mbedtls/library/bignum.c:344
    4974:	4b020000 	sub	w0, w0, w2
    4978:	12003c45 	and	w5, w2, #0xffff
    497c:	12003c01 	and	w1, w0, #0xffff
/home/hei/Desktop/optee-qemu/optee_os/lib/libmbedtls/mbedtls/library/bignum.c:348
    4980:	f94006a8 	ldr	x8, [x21, #8]
/home/hei/Desktop/optee-qemu/optee_os/lib/libmbedtls/mbedtls/library/bignum.c:344
    4984:	1b017c66 	mul	w6, w3, w1
    4988:	1b0418a4 	madd	w4, w5, w4, w6
    498c:	790002a4 	strh	w4, [x21]
/home/hei/Desktop/optee-qemu/optee_os/lib/libmbedtls/mbedtls/library/bignum.c:345
    4990:	1b057c63 	mul	w3, w3, w5
    4994:	79400284 	ldrh	w4, [x20]
    4998:	1b040c21 	madd	w1, w1, w4, w3
/home/hei/Desktop/optee-qemu/optee_os/lib/libmbedtls/mbedtls/library/bignum.c:348
    499c:	d2800003 	mov	x3, #0x0                   	// #0
/home/hei/Desktop/optee-qemu/optee_os/lib/libmbedtls/mbedtls/library/bignum.c:345
    49a0:	79000281 	strh	w1, [x20]
/home/hei/Desktop/optee-qemu/optee_os/lib/libmbedtls/mbedtls/library/bignum.c:348 (discriminator 1)
    49a4:	eb03011f 	cmp	x8, x3
    49a8:	540000c1 	b.ne	49c0 <mbedtls_mpi_safe_cond_swap+0xac>  // b.any
/home/hei/Desktop/optee-qemu/optee_os/lib/libmbedtls/mbedtls/library/bignum.c:335
    49ac:	52800000 	mov	w0, #0x0                   	// #0
/home/hei/Desktop/optee-qemu/optee_os/lib/libmbedtls/mbedtls/library/bignum.c:357
    49b0:	a94153f3 	ldp	x19, x20, [sp, #16]
    49b4:	f94013f5 	ldr	x21, [sp, #32]
    49b8:	a8c37bfd 	ldp	x29, x30, [sp], #48
    49bc:	d65f03c0 	ret
/home/hei/Desktop/optee-qemu/optee_os/lib/libmbedtls/mbedtls/library/bignum.c:350 (discriminator 3)
    49c0:	f9400aa7 	ldr	x7, [x21, #16]
    49c4:	d37ef461 	lsl	x1, x3, #2
/home/hei/Desktop/optee-qemu/optee_os/lib/libmbedtls/mbedtls/library/bignum.c:351 (discriminator 3)
    49c8:	f9400a85 	ldr	x5, [x20, #16]
/home/hei/Desktop/optee-qemu/optee_os/lib/libmbedtls/mbedtls/library/bignum.c:348 (discriminator 3)
    49cc:	91000463 	add	x3, x3, #0x1
/home/hei/Desktop/optee-qemu/optee_os/lib/libmbedtls/mbedtls/library/bignum.c:350 (discriminator 3)
    49d0:	b86168e4 	ldr	w4, [x7, x1]
/home/hei/Desktop/optee-qemu/optee_os/lib/libmbedtls/mbedtls/library/bignum.c:351 (discriminator 3)
    49d4:	b86168a6 	ldr	w6, [x5, x1]
    49d8:	1b047c09 	mul	w9, w0, w4
/home/hei/Desktop/optee-qemu/optee_os/lib/libmbedtls/mbedtls/library/bignum.c:352 (discriminator 3)
    49dc:	1b047c44 	mul	w4, w2, w4
/home/hei/Desktop/optee-qemu/optee_os/lib/libmbedtls/mbedtls/library/bignum.c:351 (discriminator 3)
    49e0:	1b062446 	madd	w6, w2, w6, w9
    49e4:	b82168e6 	str	w6, [x7, x1]
/home/hei/Desktop/optee-qemu/optee_os/lib/libmbedtls/mbedtls/library/bignum.c:352 (discriminator 3)
    49e8:	b86168a6 	ldr	w6, [x5, x1]
    49ec:	1b061004 	madd	w4, w0, w6, w4
    49f0:	b82168a4 	str	w4, [x5, x1]
    49f4:	17ffffec 	b	49a4 <mbedtls_mpi_safe_cond_swap+0x90>

00000000000049f8 <mbedtls_mpi_lset>:
mbedtls_mpi_lset():
/home/hei/Desktop/optee-qemu/optee_os/lib/libmbedtls/mbedtls/library/bignum.c:363
    49f8:	a9bd7bfd 	stp	x29, x30, [sp, #-48]!
    49fc:	910003fd 	mov	x29, sp
    4a00:	a90153f3 	stp	x19, x20, [sp, #16]
    4a04:	aa0003f3 	mov	x19, x0
    4a08:	2a0103f4 	mov	w20, w1
/home/hei/Desktop/optee-qemu/optee_os/lib/libmbedtls/mbedtls/library/bignum.c:367
    4a0c:	d2800021 	mov	x1, #0x1                   	// #1
/home/hei/Desktop/optee-qemu/optee_os/lib/libmbedtls/mbedtls/library/bignum.c:363
    4a10:	f90013f5 	str	x21, [sp, #32]
/home/hei/Desktop/optee-qemu/optee_os/lib/libmbedtls/mbedtls/library/bignum.c:367
    4a14:	97fffec5 	bl	4528 <mbedtls_mpi_grow>
    4a18:	2a0003f5 	mov	w21, w0
    4a1c:	35000180 	cbnz	w0, 4a4c <mbedtls_mpi_lset+0x54>
/home/hei/Desktop/optee-qemu/optee_os/lib/libmbedtls/mbedtls/library/bignum.c:368
    4a20:	a9408262 	ldp	x2, x0, [x19, #8]
    4a24:	52800001 	mov	w1, #0x0                   	// #0
    4a28:	d37ef442 	lsl	x2, x2, #2
    4a2c:	94000f82 	bl	8834 <memset>
/home/hei/Desktop/optee-qemu/optee_os/lib/libmbedtls/mbedtls/library/bignum.c:370
    4a30:	f9400a60 	ldr	x0, [x19, #16]
    4a34:	7100029f 	cmp	w20, #0x0
    4a38:	5a94a681 	cneg	w1, w20, lt  // lt = tstop
    4a3c:	b9000001 	str	w1, [x0]
/home/hei/Desktop/optee-qemu/optee_os/lib/libmbedtls/mbedtls/library/bignum.c:371
    4a40:	52800020 	mov	w0, #0x1                   	// #1
    4a44:	5a80a400 	cneg	w0, w0, lt  // lt = tstop
    4a48:	79000260 	strh	w0, [x19]
/home/hei/Desktop/optee-qemu/optee_os/lib/libmbedtls/mbedtls/library/bignum.c:376
    4a4c:	2a1503e0 	mov	w0, w21
    4a50:	a94153f3 	ldp	x19, x20, [sp, #16]
    4a54:	f94013f5 	ldr	x21, [sp, #32]
    4a58:	a8c37bfd 	ldp	x29, x30, [sp], #48
    4a5c:	d65f03c0 	ret

0000000000004a60 <mbedtls_mpi_get_bit>:
mbedtls_mpi_get_bit():
/home/hei/Desktop/optee-qemu/optee_os/lib/libmbedtls/mbedtls/library/bignum.c:385
    4a60:	f9400402 	ldr	x2, [x0, #8]
    4a64:	eb02143f 	cmp	x1, x2, lsl #5
    4a68:	540000e2 	b.cs	4a84 <mbedtls_mpi_get_bit+0x24>  // b.hs, b.nlast
/home/hei/Desktop/optee-qemu/optee_os/lib/libmbedtls/mbedtls/library/bignum.c:388
    4a6c:	f9400800 	ldr	x0, [x0, #16]
    4a70:	d345fc22 	lsr	x2, x1, #5
    4a74:	b8627800 	ldr	w0, [x0, x2, lsl #2]
    4a78:	1ac12400 	lsr	w0, w0, w1
    4a7c:	12000000 	and	w0, w0, #0x1
/home/hei/Desktop/optee-qemu/optee_os/lib/libmbedtls/mbedtls/library/bignum.c:389
    4a80:	d65f03c0 	ret
/home/hei/Desktop/optee-qemu/optee_os/lib/libmbedtls/mbedtls/library/bignum.c:386
    4a84:	52800000 	mov	w0, #0x0                   	// #0
    4a88:	17fffffe 	b	4a80 <mbedtls_mpi_get_bit+0x20>

0000000000004a8c <mbedtls_mpi_set_bit>:
mbedtls_mpi_set_bit():
/home/hei/Desktop/optee-qemu/optee_os/lib/libmbedtls/mbedtls/library/bignum.c:399
    4a8c:	a9bd7bfd 	stp	x29, x30, [sp, #-48]!
    4a90:	910003fd 	mov	x29, sp
    4a94:	a90153f3 	stp	x19, x20, [sp, #16]
    4a98:	a9025bf5 	stp	x21, x22, [sp, #32]
    4a9c:	12001c55 	and	w21, w2, #0xff
/home/hei/Desktop/optee-qemu/optee_os/lib/libmbedtls/mbedtls/library/bignum.c:405
    4aa0:	710006bf 	cmp	w21, #0x1
    4aa4:	54000368 	b.hi	4b10 <mbedtls_mpi_set_bit+0x84>  // b.pmore
    4aa8:	aa0103f3 	mov	x19, x1
/home/hei/Desktop/optee-qemu/optee_os/lib/libmbedtls/mbedtls/library/bignum.c:408
    4aac:	d345fc34 	lsr	x20, x1, #5
    4ab0:	f9400401 	ldr	x1, [x0, #8]
    4ab4:	aa0003f6 	mov	x22, x0
    4ab8:	eb01167f 	cmp	x19, x1, lsl #5
    4abc:	540001a2 	b.cs	4af0 <mbedtls_mpi_set_bit+0x64>  // b.hs, b.nlast
/home/hei/Desktop/optee-qemu/optee_os/lib/libmbedtls/mbedtls/library/bignum.c:416
    4ac0:	f9400ac3 	ldr	x3, [x22, #16]
    4ac4:	d37ef694 	lsl	x20, x20, #2
/home/hei/Desktop/optee-qemu/optee_os/lib/libmbedtls/mbedtls/library/bignum.c:402
    4ac8:	92401273 	and	x19, x19, #0x1f
/home/hei/Desktop/optee-qemu/optee_os/lib/libmbedtls/mbedtls/library/bignum.c:416
    4acc:	52800020 	mov	w0, #0x1                   	// #1
    4ad0:	1ad32001 	lsl	w1, w0, w19
    4ad4:	b8746860 	ldr	w0, [x3, x20]
/home/hei/Desktop/optee-qemu/optee_os/lib/libmbedtls/mbedtls/library/bignum.c:417
    4ad8:	1ad322b3 	lsl	w19, w21, w19
/home/hei/Desktop/optee-qemu/optee_os/lib/libmbedtls/mbedtls/library/bignum.c:416
    4adc:	0a210000 	bic	w0, w0, w1
/home/hei/Desktop/optee-qemu/optee_os/lib/libmbedtls/mbedtls/library/bignum.c:417
    4ae0:	2a130000 	orr	w0, w0, w19
    4ae4:	b8346860 	str	w0, [x3, x20]
/home/hei/Desktop/optee-qemu/optee_os/lib/libmbedtls/mbedtls/library/bignum.c:411
    4ae8:	52800000 	mov	w0, #0x0                   	// #0
    4aec:	14000005 	b	4b00 <mbedtls_mpi_set_bit+0x74>
/home/hei/Desktop/optee-qemu/optee_os/lib/libmbedtls/mbedtls/library/bignum.c:410
    4af0:	34ffffd5 	cbz	w21, 4ae8 <mbedtls_mpi_set_bit+0x5c>
/home/hei/Desktop/optee-qemu/optee_os/lib/libmbedtls/mbedtls/library/bignum.c:413
    4af4:	91000681 	add	x1, x20, #0x1
    4af8:	97fffe8c 	bl	4528 <mbedtls_mpi_grow>
    4afc:	34fffe20 	cbz	w0, 4ac0 <mbedtls_mpi_set_bit+0x34>
/home/hei/Desktop/optee-qemu/optee_os/lib/libmbedtls/mbedtls/library/bignum.c:422
    4b00:	a94153f3 	ldp	x19, x20, [sp, #16]
    4b04:	a9425bf5 	ldp	x21, x22, [sp, #32]
    4b08:	a8c37bfd 	ldp	x29, x30, [sp], #48
    4b0c:	d65f03c0 	ret
/home/hei/Desktop/optee-qemu/optee_os/lib/libmbedtls/mbedtls/library/bignum.c:406
    4b10:	12800060 	mov	w0, #0xfffffffc            	// #-4
    4b14:	17fffffb 	b	4b00 <mbedtls_mpi_set_bit+0x74>

0000000000004b18 <mbedtls_mpi_lsb>:
mbedtls_mpi_lsb():
/home/hei/Desktop/optee-qemu/optee_os/lib/libmbedtls/mbedtls/library/bignum.c:432
    4b18:	f9400405 	ldr	x5, [x0, #8]
/home/hei/Desktop/optee-qemu/optee_os/lib/libmbedtls/mbedtls/library/bignum.c:428
    4b1c:	aa0003e4 	mov	x4, x0
/home/hei/Desktop/optee-qemu/optee_os/lib/libmbedtls/mbedtls/library/bignum.c:429
    4b20:	d2800003 	mov	x3, #0x0                   	// #0
/home/hei/Desktop/optee-qemu/optee_os/lib/libmbedtls/mbedtls/library/bignum.c:432
    4b24:	d2800002 	mov	x2, #0x0                   	// #0
/home/hei/Desktop/optee-qemu/optee_os/lib/libmbedtls/mbedtls/library/bignum.c:432 (discriminator 1)
    4b28:	eb0200bf 	cmp	x5, x2
    4b2c:	54000061 	b.ne	4b38 <mbedtls_mpi_lsb+0x20>  // b.any
/home/hei/Desktop/optee-qemu/optee_os/lib/libmbedtls/mbedtls/library/bignum.c:437
    4b30:	d2800000 	mov	x0, #0x0                   	// #0
/home/hei/Desktop/optee-qemu/optee_os/lib/libmbedtls/mbedtls/library/bignum.c:438
    4b34:	d65f03c0 	ret
/home/hei/Desktop/optee-qemu/optee_os/lib/libmbedtls/mbedtls/library/bignum.c:434
    4b38:	f9400880 	ldr	x0, [x4, #16]
/home/hei/Desktop/optee-qemu/optee_os/lib/libmbedtls/mbedtls/library/bignum.c:433
    4b3c:	d2800001 	mov	x1, #0x0                   	// #0
/home/hei/Desktop/optee-qemu/optee_os/lib/libmbedtls/mbedtls/library/bignum.c:434
    4b40:	b8627806 	ldr	w6, [x0, x2, lsl #2]
    4b44:	8b010060 	add	x0, x3, x1
    4b48:	1ac124c7 	lsr	w7, w6, w1
    4b4c:	3707ff47 	tbnz	w7, #0, 4b34 <mbedtls_mpi_lsb+0x1c>
/home/hei/Desktop/optee-qemu/optee_os/lib/libmbedtls/mbedtls/library/bignum.c:433 (discriminator 2)
    4b50:	91000421 	add	x1, x1, #0x1
    4b54:	8b010060 	add	x0, x3, x1
    4b58:	f100803f 	cmp	x1, #0x20
    4b5c:	54ffff41 	b.ne	4b44 <mbedtls_mpi_lsb+0x2c>  // b.any
/home/hei/Desktop/optee-qemu/optee_os/lib/libmbedtls/mbedtls/library/bignum.c:432 (discriminator 2)
    4b60:	91000442 	add	x2, x2, #0x1
/home/hei/Desktop/optee-qemu/optee_os/lib/libmbedtls/mbedtls/library/bignum.c:433 (discriminator 2)
    4b64:	aa0003e3 	mov	x3, x0
    4b68:	17fffff0 	b	4b28 <mbedtls_mpi_lsb+0x10>

0000000000004b6c <mbedtls_mpi_bitlen>:
mbedtls_mpi_bitlen():
/home/hei/Desktop/optee-qemu/optee_os/lib/libmbedtls/mbedtls/library/bignum.c:465
    4b6c:	f9400401 	ldr	x1, [x0, #8]
    4b70:	b4000201 	cbz	x1, 4bb0 <mbedtls_mpi_bitlen+0x44>
/home/hei/Desktop/optee-qemu/optee_os/lib/libmbedtls/mbedtls/library/bignum.c:468
    4b74:	f9400800 	ldr	x0, [x0, #16]
    4b78:	d1000421 	sub	x1, x1, #0x1
/home/hei/Desktop/optee-qemu/optee_os/lib/libmbedtls/mbedtls/library/bignum.c:468 (discriminator 1)
    4b7c:	b50001e1 	cbnz	x1, 4bb8 <mbedtls_mpi_bitlen+0x4c>
/home/hei/Desktop/optee-qemu/optee_os/lib/libmbedtls/mbedtls/library/bignum.c:472
    4b80:	b8617803 	ldr	w3, [x0, x1, lsl #2]
mbedtls_clz():
/home/hei/Desktop/optee-qemu/optee_os/lib/libmbedtls/mbedtls/library/bignum.c:446
    4b84:	52b00002 	mov	w2, #0x80000000            	// #-2147483648
/home/hei/Desktop/optee-qemu/optee_os/lib/libmbedtls/mbedtls/library/bignum.c:448
    4b88:	d2800000 	mov	x0, #0x0                   	// #0
/home/hei/Desktop/optee-qemu/optee_os/lib/libmbedtls/mbedtls/library/bignum.c:450
    4b8c:	6a02007f 	tst	w3, w2
    4b90:	540000a1 	b.ne	4ba4 <mbedtls_mpi_bitlen+0x38>  // b.any
/home/hei/Desktop/optee-qemu/optee_os/lib/libmbedtls/mbedtls/library/bignum.c:448
    4b94:	91000400 	add	x0, x0, #0x1
/home/hei/Desktop/optee-qemu/optee_os/lib/libmbedtls/mbedtls/library/bignum.c:452
    4b98:	53017c42 	lsr	w2, w2, #1
/home/hei/Desktop/optee-qemu/optee_os/lib/libmbedtls/mbedtls/library/bignum.c:448
    4b9c:	f100801f 	cmp	x0, #0x20
    4ba0:	54ffff61 	b.ne	4b8c <mbedtls_mpi_bitlen+0x20>  // b.any
mbedtls_mpi_bitlen():
/home/hei/Desktop/optee-qemu/optee_os/lib/libmbedtls/mbedtls/library/bignum.c:474
    4ba4:	91000421 	add	x1, x1, #0x1
    4ba8:	d37be821 	lsl	x1, x1, #5
    4bac:	cb000021 	sub	x1, x1, x0
/home/hei/Desktop/optee-qemu/optee_os/lib/libmbedtls/mbedtls/library/bignum.c:475
    4bb0:	aa0103e0 	mov	x0, x1
    4bb4:	d65f03c0 	ret
/home/hei/Desktop/optee-qemu/optee_os/lib/libmbedtls/mbedtls/library/bignum.c:469
    4bb8:	b8617802 	ldr	w2, [x0, x1, lsl #2]
    4bbc:	35fffe22 	cbnz	w2, 4b80 <mbedtls_mpi_bitlen+0x14>
/home/hei/Desktop/optee-qemu/optee_os/lib/libmbedtls/mbedtls/library/bignum.c:468 (discriminator 2)
    4bc0:	d1000421 	sub	x1, x1, #0x1
    4bc4:	17ffffee 	b	4b7c <mbedtls_mpi_bitlen+0x10>

0000000000004bc8 <mbedtls_mpi_size>:
mbedtls_mpi_size():
/home/hei/Desktop/optee-qemu/optee_os/lib/libmbedtls/mbedtls/library/bignum.c:481
    4bc8:	a9bf7bfd 	stp	x29, x30, [sp, #-16]!
    4bcc:	910003fd 	mov	x29, sp
/home/hei/Desktop/optee-qemu/optee_os/lib/libmbedtls/mbedtls/library/bignum.c:482
    4bd0:	97ffffe7 	bl	4b6c <mbedtls_mpi_bitlen>
    4bd4:	91001c00 	add	x0, x0, #0x7
/home/hei/Desktop/optee-qemu/optee_os/lib/libmbedtls/mbedtls/library/bignum.c:483
    4bd8:	a8c17bfd 	ldp	x29, x30, [sp], #16
    4bdc:	d343fc00 	lsr	x0, x0, #3
    4be0:	d65f03c0 	ret

0000000000004be4 <mbedtls_mpi_read_binary>:
mbedtls_mpi_read_binary():
/home/hei/Desktop/optee-qemu/optee_os/lib/libmbedtls/mbedtls/library/bignum.c:769
    4be4:	a9bc7bfd 	stp	x29, x30, [sp, #-64]!
/home/hei/Desktop/optee-qemu/optee_os/lib/libmbedtls/mbedtls/library/bignum.c:772
    4be8:	f240045f 	tst	x2, #0x3
/home/hei/Desktop/optee-qemu/optee_os/lib/libmbedtls/mbedtls/library/bignum.c:769
    4bec:	910003fd 	mov	x29, sp
    4bf0:	a9025bf5 	stp	x21, x22, [sp, #32]
    4bf4:	aa0103f6 	mov	x22, x1
/home/hei/Desktop/optee-qemu/optee_os/lib/libmbedtls/mbedtls/library/bignum.c:772
    4bf8:	d342fc55 	lsr	x21, x2, #2
/home/hei/Desktop/optee-qemu/optee_os/lib/libmbedtls/mbedtls/library/bignum.c:778
    4bfc:	f9400401 	ldr	x1, [x0, #8]
/home/hei/Desktop/optee-qemu/optee_os/lib/libmbedtls/mbedtls/library/bignum.c:769
    4c00:	a90153f3 	stp	x19, x20, [sp, #16]
/home/hei/Desktop/optee-qemu/optee_os/lib/libmbedtls/mbedtls/library/bignum.c:772
    4c04:	9a9506b5 	cinc	x21, x21, ne  // ne = any
/home/hei/Desktop/optee-qemu/optee_os/lib/libmbedtls/mbedtls/library/bignum.c:769
    4c08:	f9001bf7 	str	x23, [sp, #48]
    4c0c:	aa0003f3 	mov	x19, x0
    4c10:	aa0203f4 	mov	x20, x2
/home/hei/Desktop/optee-qemu/optee_os/lib/libmbedtls/mbedtls/library/bignum.c:778
    4c14:	eb15003f 	cmp	x1, x21
    4c18:	54000241 	b.ne	4c60 <mbedtls_mpi_read_binary+0x7c>  // b.any
/home/hei/Desktop/optee-qemu/optee_os/lib/libmbedtls/mbedtls/library/bignum.c:787
    4c1c:	52800001 	mov	w1, #0x0                   	// #0
    4c20:	aa1303e0 	mov	x0, x19
    4c24:	97ffff75 	bl	49f8 <mbedtls_mpi_lset>
    4c28:	35000300 	cbnz	w0, 4c88 <mbedtls_mpi_read_binary+0xa4>
/home/hei/Desktop/optee-qemu/optee_os/lib/libmbedtls/mbedtls/library/bignum.c:789
    4c2c:	d2800001 	mov	x1, #0x0                   	// #0
    4c30:	b40002d4 	cbz	x20, 4c88 <mbedtls_mpi_read_binary+0xa4>
/home/hei/Desktop/optee-qemu/optee_os/lib/libmbedtls/mbedtls/library/bignum.c:790
    4c34:	d1000694 	sub	x20, x20, #0x1
    4c38:	927ef424 	and	x4, x1, #0xfffffffffffffffc
    4c3c:	f9400a65 	ldr	x5, [x19, #16]
    4c40:	531d0423 	ubfiz	w3, w1, #3, #2
    4c44:	38746ac2 	ldrb	w2, [x22, x20]
/home/hei/Desktop/optee-qemu/optee_os/lib/libmbedtls/mbedtls/library/bignum.c:789
    4c48:	91000421 	add	x1, x1, #0x1
/home/hei/Desktop/optee-qemu/optee_os/lib/libmbedtls/mbedtls/library/bignum.c:790
    4c4c:	1ac32043 	lsl	w3, w2, w3
    4c50:	b86468a2 	ldr	w2, [x5, x4]
    4c54:	2a030042 	orr	w2, w2, w3
    4c58:	b82468a2 	str	w2, [x5, x4]
    4c5c:	17fffff5 	b	4c30 <mbedtls_mpi_read_binary+0x4c>
/home/hei/Desktop/optee-qemu/optee_os/lib/libmbedtls/mbedtls/library/bignum.c:780
    4c60:	79c00417 	ldrsh	w23, [x0, #2]
/home/hei/Desktop/optee-qemu/optee_os/lib/libmbedtls/mbedtls/library/bignum.c:782
    4c64:	97fffe16 	bl	44bc <mbedtls_mpi_free>
mpi_init():
/home/hei/Desktop/optee-qemu/optee_os/lib/libmbedtls/mbedtls/library/bignum.c:98
    4c68:	52800020 	mov	w0, #0x1                   	// #1
    4c6c:	79000260 	strh	w0, [x19]
/home/hei/Desktop/optee-qemu/optee_os/lib/libmbedtls/mbedtls/library/bignum.c:99
    4c70:	79000677 	strh	w23, [x19, #2]
mbedtls_mpi_read_binary():
/home/hei/Desktop/optee-qemu/optee_os/lib/libmbedtls/mbedtls/library/bignum.c:784
    4c74:	aa1503e1 	mov	x1, x21
mpi_init():
/home/hei/Desktop/optee-qemu/optee_os/lib/libmbedtls/mbedtls/library/bignum.c:101
    4c78:	a900fe7f 	stp	xzr, xzr, [x19, #8]
mbedtls_mpi_read_binary():
/home/hei/Desktop/optee-qemu/optee_os/lib/libmbedtls/mbedtls/library/bignum.c:784
    4c7c:	aa1303e0 	mov	x0, x19
    4c80:	97fffe2a 	bl	4528 <mbedtls_mpi_grow>
    4c84:	34fffcc0 	cbz	w0, 4c1c <mbedtls_mpi_read_binary+0x38>
/home/hei/Desktop/optee-qemu/optee_os/lib/libmbedtls/mbedtls/library/bignum.c:795
    4c88:	a94153f3 	ldp	x19, x20, [sp, #16]
    4c8c:	a9425bf5 	ldp	x21, x22, [sp, #32]
    4c90:	f9401bf7 	ldr	x23, [sp, #48]
    4c94:	a8c47bfd 	ldp	x29, x30, [sp], #64
    4c98:	d65f03c0 	ret

0000000000004c9c <mbedtls_mpi_write_binary>:
mbedtls_mpi_write_binary():
/home/hei/Desktop/optee-qemu/optee_os/lib/libmbedtls/mbedtls/library/bignum.c:802
    4c9c:	a9bd7bfd 	stp	x29, x30, [sp, #-48]!
    4ca0:	910003fd 	mov	x29, sp
    4ca4:	a90153f3 	stp	x19, x20, [sp, #16]
    4ca8:	aa0003f4 	mov	x20, x0
    4cac:	aa0103e0 	mov	x0, x1
/home/hei/Desktop/optee-qemu/optee_os/lib/libmbedtls/mbedtls/library/bignum.c:811
    4cb0:	f9400693 	ldr	x19, [x20, #8]
/home/hei/Desktop/optee-qemu/optee_os/lib/libmbedtls/mbedtls/library/bignum.c:802
    4cb4:	f90013f5 	str	x21, [sp, #32]
/home/hei/Desktop/optee-qemu/optee_os/lib/libmbedtls/mbedtls/library/bignum.c:811
    4cb8:	d37ef673 	lsl	x19, x19, #2
/home/hei/Desktop/optee-qemu/optee_os/lib/libmbedtls/mbedtls/library/bignum.c:813
    4cbc:	eb02027f 	cmp	x19, x2
    4cc0:	54000382 	b.cs	4d30 <mbedtls_mpi_write_binary+0x94>  // b.hs, b.nlast
/home/hei/Desktop/optee-qemu/optee_os/lib/libmbedtls/mbedtls/library/bignum.c:821
    4cc4:	cb130042 	sub	x2, x2, x19
    4cc8:	8b020035 	add	x21, x1, x2
/home/hei/Desktop/optee-qemu/optee_os/lib/libmbedtls/mbedtls/library/bignum.c:822
    4ccc:	52800001 	mov	w1, #0x0                   	// #0
    4cd0:	94000ed9 	bl	8834 <memset>
/home/hei/Desktop/optee-qemu/optee_os/lib/libmbedtls/mbedtls/library/bignum.c:821
    4cd4:	aa1503e0 	mov	x0, x21
    4cd8:	aa1303e2 	mov	x2, x19
/home/hei/Desktop/optee-qemu/optee_os/lib/libmbedtls/mbedtls/library/bignum.c:837
    4cdc:	8b020000 	add	x0, x0, x2
    4ce0:	d2800001 	mov	x1, #0x0                   	// #0
    4ce4:	d1000400 	sub	x0, x0, #0x1
/home/hei/Desktop/optee-qemu/optee_os/lib/libmbedtls/mbedtls/library/bignum.c:837 (discriminator 1)
    4ce8:	eb01005f 	cmp	x2, x1
    4cec:	54000261 	b.ne	4d38 <mbedtls_mpi_write_binary+0x9c>  // b.any
/home/hei/Desktop/optee-qemu/optee_os/lib/libmbedtls/mbedtls/library/bignum.c:840
    4cf0:	52800000 	mov	w0, #0x0                   	// #0
/home/hei/Desktop/optee-qemu/optee_os/lib/libmbedtls/mbedtls/library/bignum.c:841
    4cf4:	a94153f3 	ldp	x19, x20, [sp, #16]
    4cf8:	f94013f5 	ldr	x21, [sp, #32]
    4cfc:	a8c37bfd 	ldp	x29, x30, [sp], #48
    4d00:	d65f03c0 	ret
/home/hei/Desktop/optee-qemu/optee_os/lib/libmbedtls/mbedtls/library/bignum.c:832
    4d04:	f9400a85 	ldr	x5, [x20, #16]
    4d08:	927ef424 	and	x4, x1, #0xfffffffffffffffc
    4d0c:	531d0423 	ubfiz	w3, w1, #3, #2
    4d10:	b86468a4 	ldr	w4, [x5, x4]
    4d14:	1ac32483 	lsr	w3, w4, w3
    4d18:	12001c63 	and	w3, w3, #0xff
    4d1c:	350001e3 	cbnz	w3, 4d58 <mbedtls_mpi_write_binary+0xbc>
/home/hei/Desktop/optee-qemu/optee_os/lib/libmbedtls/mbedtls/library/bignum.c:830 (discriminator 2)
    4d20:	91000421 	add	x1, x1, #0x1
/home/hei/Desktop/optee-qemu/optee_os/lib/libmbedtls/mbedtls/library/bignum.c:830 (discriminator 1)
    4d24:	eb13003f 	cmp	x1, x19
    4d28:	54fffee1 	b.ne	4d04 <mbedtls_mpi_write_binary+0x68>  // b.any
    4d2c:	17ffffec 	b	4cdc <mbedtls_mpi_write_binary+0x40>
    4d30:	aa0203e1 	mov	x1, x2
    4d34:	17fffffc 	b	4d24 <mbedtls_mpi_write_binary+0x88>
/home/hei/Desktop/optee-qemu/optee_os/lib/libmbedtls/mbedtls/library/bignum.c:838 (discriminator 3)
    4d38:	f9400a85 	ldr	x5, [x20, #16]
    4d3c:	927ef423 	and	x3, x1, #0xfffffffffffffffc
    4d40:	531d0424 	ubfiz	w4, w1, #3, #2
/home/hei/Desktop/optee-qemu/optee_os/lib/libmbedtls/mbedtls/library/bignum.c:837 (discriminator 3)
    4d44:	91000421 	add	x1, x1, #0x1
/home/hei/Desktop/optee-qemu/optee_os/lib/libmbedtls/mbedtls/library/bignum.c:838 (discriminator 3)
    4d48:	b86368a3 	ldr	w3, [x5, x3]
    4d4c:	1ac42463 	lsr	w3, w3, w4
    4d50:	39000003 	strb	w3, [x0]
    4d54:	17ffffe4 	b	4ce4 <mbedtls_mpi_write_binary+0x48>
/home/hei/Desktop/optee-qemu/optee_os/lib/libmbedtls/mbedtls/library/bignum.c:833
    4d58:	128000e0 	mov	w0, #0xfffffff8            	// #-8
    4d5c:	17ffffe6 	b	4cf4 <mbedtls_mpi_write_binary+0x58>

0000000000004d60 <mbedtls_mpi_shift_l>:
mbedtls_mpi_shift_l():
/home/hei/Desktop/optee-qemu/optee_os/lib/libmbedtls/mbedtls/library/bignum.c:847
    4d60:	a9bd7bfd 	stp	x29, x30, [sp, #-48]!
    4d64:	910003fd 	mov	x29, sp
    4d68:	a90153f3 	stp	x19, x20, [sp, #16]
    4d6c:	aa0003f3 	mov	x19, x0
/home/hei/Desktop/optee-qemu/optee_os/lib/libmbedtls/mbedtls/library/bignum.c:853
    4d70:	d345fc34 	lsr	x20, x1, #5
/home/hei/Desktop/optee-qemu/optee_os/lib/libmbedtls/mbedtls/library/bignum.c:847
    4d74:	a9025bf5 	stp	x21, x22, [sp, #32]
    4d78:	aa0103f5 	mov	x21, x1
/home/hei/Desktop/optee-qemu/optee_os/lib/libmbedtls/mbedtls/library/bignum.c:854
    4d7c:	92401036 	and	x22, x1, #0x1f
/home/hei/Desktop/optee-qemu/optee_os/lib/libmbedtls/mbedtls/library/bignum.c:856
    4d80:	97ffff7b 	bl	4b6c <mbedtls_mpi_bitlen>
    4d84:	8b150000 	add	x0, x0, x21
/home/hei/Desktop/optee-qemu/optee_os/lib/libmbedtls/mbedtls/library/bignum.c:858
    4d88:	f9400661 	ldr	x1, [x19, #8]
    4d8c:	eb01141f 	cmp	x0, x1, lsl #5
    4d90:	540000c8 	b.hi	4da8 <mbedtls_mpi_shift_l+0x48>  // b.pmore
/home/hei/Desktop/optee-qemu/optee_os/lib/libmbedtls/mbedtls/library/bignum.c:866
    4d94:	f1007ebf 	cmp	x21, #0x1f
    4d98:	540001c8 	b.hi	4dd0 <mbedtls_mpi_shift_l+0x70>  // b.pmore
/home/hei/Desktop/optee-qemu/optee_os/lib/libmbedtls/mbedtls/library/bignum.c:878
    4d9c:	b5000456 	cbnz	x22, 4e24 <mbedtls_mpi_shift_l+0xc4>
/home/hei/Desktop/optee-qemu/optee_os/lib/libmbedtls/mbedtls/library/bignum.c:861
    4da0:	52800000 	mov	w0, #0x0                   	// #0
    4da4:	14000007 	b	4dc0 <mbedtls_mpi_shift_l+0x60>
/home/hei/Desktop/optee-qemu/optee_os/lib/libmbedtls/mbedtls/library/bignum.c:859
    4da8:	f240101f 	tst	x0, #0x1f
    4dac:	d345fc00 	lsr	x0, x0, #5
    4db0:	9a800401 	cinc	x1, x0, ne  // ne = any
    4db4:	aa1303e0 	mov	x0, x19
    4db8:	97fffddc 	bl	4528 <mbedtls_mpi_grow>
    4dbc:	34fffec0 	cbz	w0, 4d94 <mbedtls_mpi_shift_l+0x34>
/home/hei/Desktop/optee-qemu/optee_os/lib/libmbedtls/mbedtls/library/bignum.c:892
    4dc0:	a94153f3 	ldp	x19, x20, [sp, #16]
    4dc4:	a9425bf5 	ldp	x21, x22, [sp, #32]
    4dc8:	a8c37bfd 	ldp	x29, x30, [sp], #48
    4dcc:	d65f03c0 	ret
/home/hei/Desktop/optee-qemu/optee_os/lib/libmbedtls/mbedtls/library/bignum.c:868
    4dd0:	f9400660 	ldr	x0, [x19, #8]
    4dd4:	92800062 	mov	x2, #0xfffffffffffffffc    	// #-4
    4dd8:	9b027e82 	mul	x2, x20, x2
    4ddc:	d37ef401 	lsl	x1, x0, #2
    4de0:	d1001021 	sub	x1, x1, #0x4
/home/hei/Desktop/optee-qemu/optee_os/lib/libmbedtls/mbedtls/library/bignum.c:868 (discriminator 1)
    4de4:	eb14001f 	cmp	x0, x20
    4de8:	54000108 	b.hi	4e08 <mbedtls_mpi_shift_l+0xa8>  // b.pmore
    4dec:	d37ef400 	lsl	x0, x0, #2
    4df0:	d1001000 	sub	x0, x0, #0x4
/home/hei/Desktop/optee-qemu/optee_os/lib/libmbedtls/mbedtls/library/bignum.c:871 (discriminator 2)
    4df4:	b100101f 	cmn	x0, #0x4
    4df8:	54fffd20 	b.eq	4d9c <mbedtls_mpi_shift_l+0x3c>  // b.none
/home/hei/Desktop/optee-qemu/optee_os/lib/libmbedtls/mbedtls/library/bignum.c:872 (discriminator 2)
    4dfc:	f9400a61 	ldr	x1, [x19, #16]
    4e00:	b820683f 	str	wzr, [x1, x0]
    4e04:	17fffffb 	b	4df0 <mbedtls_mpi_shift_l+0x90>
/home/hei/Desktop/optee-qemu/optee_os/lib/libmbedtls/mbedtls/library/bignum.c:869 (discriminator 3)
    4e08:	f9400a63 	ldr	x3, [x19, #16]
/home/hei/Desktop/optee-qemu/optee_os/lib/libmbedtls/mbedtls/library/bignum.c:868 (discriminator 3)
    4e0c:	d1000400 	sub	x0, x0, #0x1
/home/hei/Desktop/optee-qemu/optee_os/lib/libmbedtls/mbedtls/library/bignum.c:869 (discriminator 3)
    4e10:	8b010064 	add	x4, x3, x1
    4e14:	b8626884 	ldr	w4, [x4, x2]
    4e18:	b8216864 	str	w4, [x3, x1]
    4e1c:	d1001021 	sub	x1, x1, #0x4
    4e20:	17fffff1 	b	4de4 <mbedtls_mpi_shift_l+0x84>
/home/hei/Desktop/optee-qemu/optee_os/lib/libmbedtls/mbedtls/library/bignum.c:880
    4e24:	f9400666 	ldr	x6, [x19, #8]
/home/hei/Desktop/optee-qemu/optee_os/lib/libmbedtls/mbedtls/library/bignum.c:882
    4e28:	52800400 	mov	w0, #0x20                  	// #32
    4e2c:	4b160000 	sub	w0, w0, w22
/home/hei/Desktop/optee-qemu/optee_os/lib/libmbedtls/mbedtls/library/bignum.c:850
    4e30:	52800002 	mov	w2, #0x0                   	// #0
/home/hei/Desktop/optee-qemu/optee_os/lib/libmbedtls/mbedtls/library/bignum.c:880 (discriminator 1)
    4e34:	eb1400df 	cmp	x6, x20
    4e38:	54fffb49 	b.ls	4da0 <mbedtls_mpi_shift_l+0x40>  // b.plast
/home/hei/Desktop/optee-qemu/optee_os/lib/libmbedtls/mbedtls/library/bignum.c:882 (discriminator 3)
    4e3c:	f9400a65 	ldr	x5, [x19, #16]
    4e40:	d37ef684 	lsl	x4, x20, #2
/home/hei/Desktop/optee-qemu/optee_os/lib/libmbedtls/mbedtls/library/bignum.c:880 (discriminator 3)
    4e44:	91000694 	add	x20, x20, #0x1
/home/hei/Desktop/optee-qemu/optee_os/lib/libmbedtls/mbedtls/library/bignum.c:882 (discriminator 3)
    4e48:	b86468a3 	ldr	w3, [x5, x4]
/home/hei/Desktop/optee-qemu/optee_os/lib/libmbedtls/mbedtls/library/bignum.c:883 (discriminator 3)
    4e4c:	1ad62061 	lsl	w1, w3, w22
/home/hei/Desktop/optee-qemu/optee_os/lib/libmbedtls/mbedtls/library/bignum.c:884 (discriminator 3)
    4e50:	2a020021 	orr	w1, w1, w2
/home/hei/Desktop/optee-qemu/optee_os/lib/libmbedtls/mbedtls/library/bignum.c:882 (discriminator 3)
    4e54:	1ac02462 	lsr	w2, w3, w0
/home/hei/Desktop/optee-qemu/optee_os/lib/libmbedtls/mbedtls/library/bignum.c:884 (discriminator 3)
    4e58:	b82468a1 	str	w1, [x5, x4]
/home/hei/Desktop/optee-qemu/optee_os/lib/libmbedtls/mbedtls/library/bignum.c:885 (discriminator 3)
    4e5c:	17fffff6 	b	4e34 <mbedtls_mpi_shift_l+0xd4>

0000000000004e60 <mbedtls_mpi_shift_r>:
mbedtls_mpi_shift_r():
/home/hei/Desktop/optee-qemu/optee_os/lib/libmbedtls/mbedtls/library/bignum.c:906
    4e60:	f9400402 	ldr	x2, [x0, #8]
/home/hei/Desktop/optee-qemu/optee_os/lib/libmbedtls/mbedtls/library/bignum.c:903
    4e64:	d345fc25 	lsr	x5, x1, #5
/home/hei/Desktop/optee-qemu/optee_os/lib/libmbedtls/mbedtls/library/bignum.c:904
    4e68:	92401023 	and	x3, x1, #0x1f
/home/hei/Desktop/optee-qemu/optee_os/lib/libmbedtls/mbedtls/library/bignum.c:906
    4e6c:	eb05005f 	cmp	x2, x5
    4e70:	54000063 	b.cc	4e7c <mbedtls_mpi_shift_r+0x1c>  // b.lo, b.ul, b.last
/home/hei/Desktop/optee-qemu/optee_os/lib/libmbedtls/mbedtls/library/bignum.c:906 (discriminator 1)
    4e74:	54000081 	b.ne	4e84 <mbedtls_mpi_shift_r+0x24>  // b.any
/home/hei/Desktop/optee-qemu/optee_os/lib/libmbedtls/mbedtls/library/bignum.c:906 (discriminator 2)
    4e78:	b4000503 	cbz	x3, 4f18 <mbedtls_mpi_shift_r+0xb8>
/home/hei/Desktop/optee-qemu/optee_os/lib/libmbedtls/mbedtls/library/bignum.c:907
    4e7c:	52800001 	mov	w1, #0x0                   	// #0
    4e80:	17fffede 	b	49f8 <mbedtls_mpi_lset>
/home/hei/Desktop/optee-qemu/optee_os/lib/libmbedtls/mbedtls/library/bignum.c:912
    4e84:	f1007c3f 	cmp	x1, #0x1f
    4e88:	54000109 	b.ls	4ea8 <mbedtls_mpi_shift_r+0x48>  // b.plast
    4e8c:	d37ef4a6 	lsl	x6, x5, #2
    4e90:	d2800004 	mov	x4, #0x0                   	// #0
/home/hei/Desktop/optee-qemu/optee_os/lib/libmbedtls/mbedtls/library/bignum.c:914 (discriminator 1)
    4e94:	cb050041 	sub	x1, x2, x5
    4e98:	eb04003f 	cmp	x1, x4
    4e9c:	540000c8 	b.hi	4eb4 <mbedtls_mpi_shift_r+0x54>  // b.pmore
/home/hei/Desktop/optee-qemu/optee_os/lib/libmbedtls/mbedtls/library/bignum.c:917 (discriminator 1)
    4ea0:	eb01005f 	cmp	x2, x1
    4ea4:	54000148 	b.hi	4ecc <mbedtls_mpi_shift_r+0x6c>  // b.pmore
/home/hei/Desktop/optee-qemu/optee_os/lib/libmbedtls/mbedtls/library/bignum.c:924
    4ea8:	b5000303 	cbnz	x3, 4f08 <mbedtls_mpi_shift_r+0xa8>
/home/hei/Desktop/optee-qemu/optee_os/lib/libmbedtls/mbedtls/library/bignum.c:936
    4eac:	52800000 	mov	w0, #0x0                   	// #0
    4eb0:	d65f03c0 	ret
/home/hei/Desktop/optee-qemu/optee_os/lib/libmbedtls/mbedtls/library/bignum.c:915 (discriminator 3)
    4eb4:	f9400801 	ldr	x1, [x0, #16]
    4eb8:	b8666827 	ldr	w7, [x1, x6]
    4ebc:	910010c6 	add	x6, x6, #0x4
    4ec0:	b8247827 	str	w7, [x1, x4, lsl #2]
/home/hei/Desktop/optee-qemu/optee_os/lib/libmbedtls/mbedtls/library/bignum.c:914 (discriminator 3)
    4ec4:	91000484 	add	x4, x4, #0x1
    4ec8:	17fffff3 	b	4e94 <mbedtls_mpi_shift_r+0x34>
/home/hei/Desktop/optee-qemu/optee_os/lib/libmbedtls/mbedtls/library/bignum.c:918 (discriminator 2)
    4ecc:	f9400804 	ldr	x4, [x0, #16]
    4ed0:	b821789f 	str	wzr, [x4, x1, lsl #2]
/home/hei/Desktop/optee-qemu/optee_os/lib/libmbedtls/mbedtls/library/bignum.c:917 (discriminator 2)
    4ed4:	91000421 	add	x1, x1, #0x1
    4ed8:	17fffff2 	b	4ea0 <mbedtls_mpi_shift_r+0x40>
/home/hei/Desktop/optee-qemu/optee_os/lib/libmbedtls/mbedtls/library/bignum.c:928 (discriminator 3)
    4edc:	f9400808 	ldr	x8, [x0, #16]
    4ee0:	d37ef447 	lsl	x7, x2, #2
    4ee4:	b8676906 	ldr	w6, [x8, x7]
/home/hei/Desktop/optee-qemu/optee_os/lib/libmbedtls/mbedtls/library/bignum.c:929 (discriminator 3)
    4ee8:	1ac324c4 	lsr	w4, w6, w3
/home/hei/Desktop/optee-qemu/optee_os/lib/libmbedtls/mbedtls/library/bignum.c:930 (discriminator 3)
    4eec:	2a050084 	orr	w4, w4, w5
/home/hei/Desktop/optee-qemu/optee_os/lib/libmbedtls/mbedtls/library/bignum.c:928 (discriminator 3)
    4ef0:	1ac120c5 	lsl	w5, w6, w1
/home/hei/Desktop/optee-qemu/optee_os/lib/libmbedtls/mbedtls/library/bignum.c:930 (discriminator 3)
    4ef4:	b8276904 	str	w4, [x8, x7]
/home/hei/Desktop/optee-qemu/optee_os/lib/libmbedtls/mbedtls/library/bignum.c:931 (discriminator 3)
    4ef8:	d1000442 	sub	x2, x2, #0x1
/home/hei/Desktop/optee-qemu/optee_os/lib/libmbedtls/mbedtls/library/bignum.c:926 (discriminator 1)
    4efc:	b100045f 	cmn	x2, #0x1
    4f00:	54fffee1 	b.ne	4edc <mbedtls_mpi_shift_r+0x7c>  // b.any
    4f04:	17ffffea 	b	4eac <mbedtls_mpi_shift_r+0x4c>
/home/hei/Desktop/optee-qemu/optee_os/lib/libmbedtls/mbedtls/library/bignum.c:928
    4f08:	52800401 	mov	w1, #0x20                  	// #32
/home/hei/Desktop/optee-qemu/optee_os/lib/libmbedtls/mbedtls/library/bignum.c:900
    4f0c:	52800005 	mov	w5, #0x0                   	// #0
/home/hei/Desktop/optee-qemu/optee_os/lib/libmbedtls/mbedtls/library/bignum.c:928
    4f10:	4b030021 	sub	w1, w1, w3
    4f14:	17fffff9 	b	4ef8 <mbedtls_mpi_shift_r+0x98>
/home/hei/Desktop/optee-qemu/optee_os/lib/libmbedtls/mbedtls/library/bignum.c:912
    4f18:	f1007c3f 	cmp	x1, #0x1f
    4f1c:	54fffc89 	b.ls	4eac <mbedtls_mpi_shift_r+0x4c>  // b.plast
    4f20:	d2800001 	mov	x1, #0x0                   	// #0
    4f24:	17ffffdf 	b	4ea0 <mbedtls_mpi_shift_r+0x40>

0000000000004f28 <mbedtls_mpi_cmp_abs>:
mbedtls_mpi_cmp_abs():
/home/hei/Desktop/optee-qemu/optee_os/lib/libmbedtls/mbedtls/library/bignum.c:947
    4f28:	f9400402 	ldr	x2, [x0, #8]
/home/hei/Desktop/optee-qemu/optee_os/lib/libmbedtls/mbedtls/library/bignum.c:947 (discriminator 1)
    4f2c:	b50000c2 	cbnz	x2, 4f44 <mbedtls_mpi_cmp_abs+0x1c>
/home/hei/Desktop/optee-qemu/optee_os/lib/libmbedtls/mbedtls/library/bignum.c:951
    4f30:	f9400423 	ldr	x3, [x1, #8]
/home/hei/Desktop/optee-qemu/optee_os/lib/libmbedtls/mbedtls/library/bignum.c:951 (discriminator 1)
    4f34:	b5000143 	cbnz	x3, 4f5c <mbedtls_mpi_cmp_abs+0x34>
/home/hei/Desktop/optee-qemu/optee_os/lib/libmbedtls/mbedtls/library/bignum.c:955
    4f38:	f100005f 	cmp	x2, #0x0
    4f3c:	1a9f07e0 	cset	w0, ne  // ne = any
/home/hei/Desktop/optee-qemu/optee_os/lib/libmbedtls/mbedtls/library/bignum.c:968
    4f40:	d65f03c0 	ret
/home/hei/Desktop/optee-qemu/optee_os/lib/libmbedtls/mbedtls/library/bignum.c:948
    4f44:	f9400803 	ldr	x3, [x0, #16]
    4f48:	8b020863 	add	x3, x3, x2, lsl #2
    4f4c:	b85fc063 	ldur	w3, [x3, #-4]
    4f50:	35ffff03 	cbnz	w3, 4f30 <mbedtls_mpi_cmp_abs+0x8>
/home/hei/Desktop/optee-qemu/optee_os/lib/libmbedtls/mbedtls/library/bignum.c:947 (discriminator 2)
    4f54:	d1000442 	sub	x2, x2, #0x1
    4f58:	17fffff5 	b	4f2c <mbedtls_mpi_cmp_abs+0x4>
/home/hei/Desktop/optee-qemu/optee_os/lib/libmbedtls/mbedtls/library/bignum.c:952
    4f5c:	f9400824 	ldr	x4, [x1, #16]
    4f60:	8b030885 	add	x5, x4, x3, lsl #2
    4f64:	b85fc0a5 	ldur	w5, [x5, #-4]
    4f68:	340000a5 	cbz	w5, 4f7c <mbedtls_mpi_cmp_abs+0x54>
/home/hei/Desktop/optee-qemu/optee_os/lib/libmbedtls/mbedtls/library/bignum.c:958
    4f6c:	eb03005f 	cmp	x2, x3
    4f70:	540000a9 	b.ls	4f84 <mbedtls_mpi_cmp_abs+0x5c>  // b.plast
    4f74:	52800020 	mov	w0, #0x1                   	// #1
    4f78:	17fffff2 	b	4f40 <mbedtls_mpi_cmp_abs+0x18>
/home/hei/Desktop/optee-qemu/optee_os/lib/libmbedtls/mbedtls/library/bignum.c:951 (discriminator 2)
    4f7c:	d1000463 	sub	x3, x3, #0x1
    4f80:	17ffffed 	b	4f34 <mbedtls_mpi_cmp_abs+0xc>
/home/hei/Desktop/optee-qemu/optee_os/lib/libmbedtls/mbedtls/library/bignum.c:959
    4f84:	540001c3 	b.cc	4fbc <mbedtls_mpi_cmp_abs+0x94>  // b.lo, b.ul, b.last
    4f88:	d1000442 	sub	x2, x2, #0x1
/home/hei/Desktop/optee-qemu/optee_os/lib/libmbedtls/mbedtls/library/bignum.c:961 (discriminator 1)
    4f8c:	b100045f 	cmn	x2, #0x1
    4f90:	54000061 	b.ne	4f9c <mbedtls_mpi_cmp_abs+0x74>  // b.any
/home/hei/Desktop/optee-qemu/optee_os/lib/libmbedtls/mbedtls/library/bignum.c:956
    4f94:	52800000 	mov	w0, #0x0                   	// #0
    4f98:	17ffffea 	b	4f40 <mbedtls_mpi_cmp_abs+0x18>
/home/hei/Desktop/optee-qemu/optee_os/lib/libmbedtls/mbedtls/library/bignum.c:963
    4f9c:	f9400803 	ldr	x3, [x0, #16]
    4fa0:	d37ef441 	lsl	x1, x2, #2
    4fa4:	b8616863 	ldr	w3, [x3, x1]
    4fa8:	b8616881 	ldr	w1, [x4, x1]
    4fac:	6b01007f 	cmp	w3, w1
    4fb0:	54fffe28 	b.hi	4f74 <mbedtls_mpi_cmp_abs+0x4c>  // b.pmore
/home/hei/Desktop/optee-qemu/optee_os/lib/libmbedtls/mbedtls/library/bignum.c:964
    4fb4:	d1000442 	sub	x2, x2, #0x1
    4fb8:	54fffea2 	b.cs	4f8c <mbedtls_mpi_cmp_abs+0x64>  // b.hs, b.nlast
/home/hei/Desktop/optee-qemu/optee_os/lib/libmbedtls/mbedtls/library/bignum.c:959
    4fbc:	12800000 	mov	w0, #0xffffffff            	// #-1
    4fc0:	17ffffe0 	b	4f40 <mbedtls_mpi_cmp_abs+0x18>

0000000000004fc4 <mbedtls_mpi_cmp_mpi>:
mbedtls_mpi_cmp_mpi():
/home/hei/Desktop/optee-qemu/optee_os/lib/libmbedtls/mbedtls/library/bignum.c:979
    4fc4:	f9400403 	ldr	x3, [x0, #8]
/home/hei/Desktop/optee-qemu/optee_os/lib/libmbedtls/mbedtls/library/bignum.c:979 (discriminator 1)
    4fc8:	b5000103 	cbnz	x3, 4fe8 <mbedtls_mpi_cmp_mpi+0x24>
/home/hei/Desktop/optee-qemu/optee_os/lib/libmbedtls/mbedtls/library/bignum.c:983
    4fcc:	f9400422 	ldr	x2, [x1, #8]
/home/hei/Desktop/optee-qemu/optee_os/lib/libmbedtls/mbedtls/library/bignum.c:983 (discriminator 1)
    4fd0:	b5000182 	cbnz	x2, 5000 <mbedtls_mpi_cmp_mpi+0x3c>
/home/hei/Desktop/optee-qemu/optee_os/lib/libmbedtls/mbedtls/library/bignum.c:987
    4fd4:	b4000603 	cbz	x3, 5094 <mbedtls_mpi_cmp_mpi+0xd0>
/home/hei/Desktop/optee-qemu/optee_os/lib/libmbedtls/mbedtls/library/bignum.c:990
    4fd8:	eb02007f 	cmp	x3, x2
    4fdc:	540001e9 	b.ls	5018 <mbedtls_mpi_cmp_mpi+0x54>  // b.plast
/home/hei/Desktop/optee-qemu/optee_os/lib/libmbedtls/mbedtls/library/bignum.c:990 (discriminator 1)
    4fe0:	79c00000 	ldrsh	w0, [x0]
/home/hei/Desktop/optee-qemu/optee_os/lib/libmbedtls/mbedtls/library/bignum.c:1003
    4fe4:	d65f03c0 	ret
/home/hei/Desktop/optee-qemu/optee_os/lib/libmbedtls/mbedtls/library/bignum.c:980
    4fe8:	f9400802 	ldr	x2, [x0, #16]
    4fec:	8b030842 	add	x2, x2, x3, lsl #2
    4ff0:	b85fc042 	ldur	w2, [x2, #-4]
    4ff4:	35fffec2 	cbnz	w2, 4fcc <mbedtls_mpi_cmp_mpi+0x8>
/home/hei/Desktop/optee-qemu/optee_os/lib/libmbedtls/mbedtls/library/bignum.c:979 (discriminator 2)
    4ff8:	d1000463 	sub	x3, x3, #0x1
    4ffc:	17fffff3 	b	4fc8 <mbedtls_mpi_cmp_mpi+0x4>
/home/hei/Desktop/optee-qemu/optee_os/lib/libmbedtls/mbedtls/library/bignum.c:984
    5000:	f9400824 	ldr	x4, [x1, #16]
    5004:	8b020884 	add	x4, x4, x2, lsl #2
    5008:	b85fc084 	ldur	w4, [x4, #-4]
    500c:	35fffe64 	cbnz	w4, 4fd8 <mbedtls_mpi_cmp_mpi+0x14>
/home/hei/Desktop/optee-qemu/optee_os/lib/libmbedtls/mbedtls/library/bignum.c:983 (discriminator 2)
    5010:	d1000442 	sub	x2, x2, #0x1
    5014:	17ffffef 	b	4fd0 <mbedtls_mpi_cmp_mpi+0xc>
/home/hei/Desktop/optee-qemu/optee_os/lib/libmbedtls/mbedtls/library/bignum.c:991
    5018:	79c00024 	ldrsh	w4, [x1]
    501c:	54000062 	b.cs	5028 <mbedtls_mpi_cmp_mpi+0x64>  // b.hs, b.nlast
/home/hei/Desktop/optee-qemu/optee_os/lib/libmbedtls/mbedtls/library/bignum.c:991 (discriminator 1)
    5020:	4b0403e0 	neg	w0, w4
    5024:	17fffff0 	b	4fe4 <mbedtls_mpi_cmp_mpi+0x20>
/home/hei/Desktop/optee-qemu/optee_os/lib/libmbedtls/mbedtls/library/bignum.c:993
    5028:	79c00002 	ldrsh	w2, [x0]
    502c:	7100005f 	cmp	w2, #0x0
    5030:	5400008d 	b.le	5040 <mbedtls_mpi_cmp_mpi+0x7c>
/home/hei/Desktop/optee-qemu/optee_os/lib/libmbedtls/mbedtls/library/bignum.c:993 (discriminator 1)
    5034:	36f802a4 	tbz	w4, #31, 5088 <mbedtls_mpi_cmp_mpi+0xc4>
/home/hei/Desktop/optee-qemu/optee_os/lib/libmbedtls/mbedtls/library/bignum.c:993
    5038:	52800020 	mov	w0, #0x1                   	// #1
    503c:	17ffffea 	b	4fe4 <mbedtls_mpi_cmp_mpi+0x20>
/home/hei/Desktop/optee-qemu/optee_os/lib/libmbedtls/mbedtls/library/bignum.c:994
    5040:	7100009f 	cmp	w4, #0x0
    5044:	5400022d 	b.le	5088 <mbedtls_mpi_cmp_mpi+0xc4>
/home/hei/Desktop/optee-qemu/optee_os/lib/libmbedtls/mbedtls/library/bignum.c:994 (discriminator 1)
    5048:	34000202 	cbz	w2, 5088 <mbedtls_mpi_cmp_mpi+0xc4>
/home/hei/Desktop/optee-qemu/optee_os/lib/libmbedtls/mbedtls/library/bignum.c:994
    504c:	12800000 	mov	w0, #0xffffffff            	// #-1
    5050:	17ffffe5 	b	4fe4 <mbedtls_mpi_cmp_mpi+0x20>
/home/hei/Desktop/optee-qemu/optee_os/lib/libmbedtls/mbedtls/library/bignum.c:998
    5054:	f9400805 	ldr	x5, [x0, #16]
    5058:	d37ef464 	lsl	x4, x3, #2
    505c:	f9400826 	ldr	x6, [x1, #16]
    5060:	b86468a5 	ldr	w5, [x5, x4]
    5064:	b86468c4 	ldr	w4, [x6, x4]
    5068:	6b0400bf 	cmp	w5, w4
    506c:	54000069 	b.ls	5078 <mbedtls_mpi_cmp_mpi+0xb4>  // b.plast
/home/hei/Desktop/optee-qemu/optee_os/lib/libmbedtls/mbedtls/library/bignum.c:998 (discriminator 1)
    5070:	2a0203e0 	mov	w0, w2
    5074:	17ffffdc 	b	4fe4 <mbedtls_mpi_cmp_mpi+0x20>
/home/hei/Desktop/optee-qemu/optee_os/lib/libmbedtls/mbedtls/library/bignum.c:999
    5078:	d1000463 	sub	x3, x3, #0x1
    507c:	54000082 	b.cs	508c <mbedtls_mpi_cmp_mpi+0xc8>  // b.hs, b.nlast
/home/hei/Desktop/optee-qemu/optee_os/lib/libmbedtls/mbedtls/library/bignum.c:999 (discriminator 1)
    5080:	4b0203e0 	neg	w0, w2
    5084:	17ffffd8 	b	4fe4 <mbedtls_mpi_cmp_mpi+0x20>
    5088:	d1000463 	sub	x3, x3, #0x1
/home/hei/Desktop/optee-qemu/optee_os/lib/libmbedtls/mbedtls/library/bignum.c:996 (discriminator 1)
    508c:	b100047f 	cmn	x3, #0x1
    5090:	54fffe21 	b.ne	5054 <mbedtls_mpi_cmp_mpi+0x90>  // b.any
/home/hei/Desktop/optee-qemu/optee_os/lib/libmbedtls/mbedtls/library/bignum.c:988
    5094:	52800000 	mov	w0, #0x0                   	// #0
    5098:	17ffffd3 	b	4fe4 <mbedtls_mpi_cmp_mpi+0x20>

000000000000509c <mbedtls_mpi_cmp_int>:
mbedtls_mpi_cmp_int():
/home/hei/Desktop/optee-qemu/optee_os/lib/libmbedtls/mbedtls/library/bignum.c:1009
    509c:	a9bd7bfd 	stp	x29, x30, [sp, #-48]!
/home/hei/Desktop/optee-qemu/optee_os/lib/libmbedtls/mbedtls/library/bignum.c:1014
    50a0:	7100003f 	cmp	w1, #0x0
    50a4:	5a81a422 	cneg	w2, w1, lt  // lt = tstop
/home/hei/Desktop/optee-qemu/optee_os/lib/libmbedtls/mbedtls/library/bignum.c:1009
    50a8:	910003fd 	mov	x29, sp
/home/hei/Desktop/optee-qemu/optee_os/lib/libmbedtls/mbedtls/library/bignum.c:1014
    50ac:	b90013e2 	str	w2, [sp, #16]
/home/hei/Desktop/optee-qemu/optee_os/lib/libmbedtls/mbedtls/library/bignum.c:1015
    50b0:	52800022 	mov	w2, #0x1                   	// #1
    50b4:	5a82a442 	cneg	w2, w2, lt  // lt = tstop
/home/hei/Desktop/optee-qemu/optee_os/lib/libmbedtls/mbedtls/library/bignum.c:1016
    50b8:	d2800021 	mov	x1, #0x1                   	// #1
    50bc:	f90013e1 	str	x1, [sp, #32]
/home/hei/Desktop/optee-qemu/optee_os/lib/libmbedtls/mbedtls/library/bignum.c:1017
    50c0:	910043e1 	add	x1, sp, #0x10
/home/hei/Desktop/optee-qemu/optee_os/lib/libmbedtls/mbedtls/library/bignum.c:1015
    50c4:	790033e2 	strh	w2, [sp, #24]
/home/hei/Desktop/optee-qemu/optee_os/lib/libmbedtls/mbedtls/library/bignum.c:1017
    50c8:	f90017e1 	str	x1, [sp, #40]
/home/hei/Desktop/optee-qemu/optee_os/lib/libmbedtls/mbedtls/library/bignum.c:1019
    50cc:	910063e1 	add	x1, sp, #0x18
    50d0:	97ffffbd 	bl	4fc4 <mbedtls_mpi_cmp_mpi>
/home/hei/Desktop/optee-qemu/optee_os/lib/libmbedtls/mbedtls/library/bignum.c:1020
    50d4:	a8c37bfd 	ldp	x29, x30, [sp], #48
    50d8:	d65f03c0 	ret

00000000000050dc <mbedtls_mpi_add_abs>:
mbedtls_mpi_add_abs():
/home/hei/Desktop/optee-qemu/optee_os/lib/libmbedtls/mbedtls/library/bignum.c:1026
    50dc:	a9bc7bfd 	stp	x29, x30, [sp, #-64]!
/home/hei/Desktop/optee-qemu/optee_os/lib/libmbedtls/mbedtls/library/bignum.c:1034
    50e0:	eb02001f 	cmp	x0, x2
/home/hei/Desktop/optee-qemu/optee_os/lib/libmbedtls/mbedtls/library/bignum.c:1026
    50e4:	910003fd 	mov	x29, sp
    50e8:	a90153f3 	stp	x19, x20, [sp, #16]
    50ec:	aa0103f4 	mov	x20, x1
    50f0:	a9025bf5 	stp	x21, x22, [sp, #32]
    50f4:	aa0003f5 	mov	x21, x0
    50f8:	f9001bf7 	str	x23, [sp, #48]
/home/hei/Desktop/optee-qemu/optee_os/lib/libmbedtls/mbedtls/library/bignum.c:1034
    50fc:	540000a0 	b.eq	5110 <mbedtls_mpi_add_abs+0x34>  // b.none
    5100:	aa0203f3 	mov	x19, x2
/home/hei/Desktop/optee-qemu/optee_os/lib/libmbedtls/mbedtls/library/bignum.c:1039
    5104:	eb01001f 	cmp	x0, x1
    5108:	54000481 	b.ne	5198 <mbedtls_mpi_add_abs+0xbc>  // b.any
/home/hei/Desktop/optee-qemu/optee_os/lib/libmbedtls/mbedtls/library/bignum.c:1026
    510c:	aa1303f4 	mov	x20, x19
/home/hei/Desktop/optee-qemu/optee_os/lib/libmbedtls/mbedtls/library/bignum.c:1047
    5110:	f9400693 	ldr	x19, [x20, #8]
/home/hei/Desktop/optee-qemu/optee_os/lib/libmbedtls/mbedtls/library/bignum.c:1045
    5114:	52800020 	mov	w0, #0x1                   	// #1
    5118:	790002a0 	strh	w0, [x21]
/home/hei/Desktop/optee-qemu/optee_os/lib/libmbedtls/mbedtls/library/bignum.c:1047 (discriminator 1)
    511c:	b5000513 	cbnz	x19, 51bc <mbedtls_mpi_add_abs+0xe0>
/home/hei/Desktop/optee-qemu/optee_os/lib/libmbedtls/mbedtls/library/bignum.c:1051
    5120:	aa1303e1 	mov	x1, x19
    5124:	aa1503e0 	mov	x0, x21
    5128:	97fffd00 	bl	4528 <mbedtls_mpi_grow>
    512c:	2a0003f6 	mov	w22, w0
    5130:	350003a0 	cbnz	w0, 51a4 <mbedtls_mpi_add_abs+0xc8>
/home/hei/Desktop/optee-qemu/optee_os/lib/libmbedtls/mbedtls/library/bignum.c:1053
    5134:	f9400aa0 	ldr	x0, [x21, #16]
/home/hei/Desktop/optee-qemu/optee_os/lib/libmbedtls/mbedtls/library/bignum.c:1058
    5138:	d2800002 	mov	x2, #0x0                   	// #0
/home/hei/Desktop/optee-qemu/optee_os/lib/libmbedtls/mbedtls/library/bignum.c:1053
    513c:	f9400a84 	ldr	x4, [x20, #16]
    5140:	52800014 	mov	w20, #0x0                   	// #0
/home/hei/Desktop/optee-qemu/optee_os/lib/libmbedtls/mbedtls/library/bignum.c:1058 (discriminator 1)
    5144:	eb02027f 	cmp	x19, x2
    5148:	54000461 	b.ne	51d4 <mbedtls_mpi_add_abs+0xf8>  // b.any
    514c:	8b130800 	add	x0, x0, x19, lsl #2
/home/hei/Desktop/optee-qemu/optee_os/lib/libmbedtls/mbedtls/library/bignum.c:1065
    5150:	340002b4 	cbz	w20, 51a4 <mbedtls_mpi_add_abs+0xc8>
/home/hei/Desktop/optee-qemu/optee_os/lib/libmbedtls/mbedtls/library/bignum.c:1067
    5154:	f94006a1 	ldr	x1, [x21, #8]
    5158:	91000677 	add	x23, x19, #0x1
    515c:	eb13003f 	cmp	x1, x19
    5160:	540000e8 	b.hi	517c <mbedtls_mpi_add_abs+0xa0>  // b.pmore
/home/hei/Desktop/optee-qemu/optee_os/lib/libmbedtls/mbedtls/library/bignum.c:1069
    5164:	aa1703e1 	mov	x1, x23
    5168:	aa1503e0 	mov	x0, x21
    516c:	97fffcef 	bl	4528 <mbedtls_mpi_grow>
    5170:	35000480 	cbnz	w0, 5200 <mbedtls_mpi_add_abs+0x124>
/home/hei/Desktop/optee-qemu/optee_os/lib/libmbedtls/mbedtls/library/bignum.c:1070
    5174:	f9400aa0 	ldr	x0, [x21, #16]
    5178:	8b130800 	add	x0, x0, x19, lsl #2
/home/hei/Desktop/optee-qemu/optee_os/lib/libmbedtls/mbedtls/library/bignum.c:1073
    517c:	b9400001 	ldr	w1, [x0]
    5180:	aa1703f3 	mov	x19, x23
    5184:	0b010281 	add	w1, w20, w1
    5188:	b8004401 	str	w1, [x0], #4
    518c:	6b14003f 	cmp	w1, w20
    5190:	1a9f27f4 	cset	w20, cc  // cc = lo, ul, last
    5194:	17ffffef 	b	5150 <mbedtls_mpi_add_abs+0x74>
/home/hei/Desktop/optee-qemu/optee_os/lib/libmbedtls/mbedtls/library/bignum.c:1040
    5198:	97fffd6a 	bl	4740 <mbedtls_mpi_copy>
    519c:	2a0003f6 	mov	w22, w0
    51a0:	34fffb60 	cbz	w0, 510c <mbedtls_mpi_add_abs+0x30>
/home/hei/Desktop/optee-qemu/optee_os/lib/libmbedtls/mbedtls/library/bignum.c:1079
    51a4:	2a1603e0 	mov	w0, w22
    51a8:	a94153f3 	ldp	x19, x20, [sp, #16]
    51ac:	a9425bf5 	ldp	x21, x22, [sp, #32]
    51b0:	f9401bf7 	ldr	x23, [sp, #48]
    51b4:	a8c47bfd 	ldp	x29, x30, [sp], #64
    51b8:	d65f03c0 	ret
/home/hei/Desktop/optee-qemu/optee_os/lib/libmbedtls/mbedtls/library/bignum.c:1048
    51bc:	f9400a80 	ldr	x0, [x20, #16]
    51c0:	8b130800 	add	x0, x0, x19, lsl #2
    51c4:	b85fc000 	ldur	w0, [x0, #-4]
    51c8:	35fffac0 	cbnz	w0, 5120 <mbedtls_mpi_add_abs+0x44>
/home/hei/Desktop/optee-qemu/optee_os/lib/libmbedtls/mbedtls/library/bignum.c:1047 (discriminator 2)
    51cc:	d1000673 	sub	x19, x19, #0x1
    51d0:	17ffffd3 	b	511c <mbedtls_mpi_add_abs+0x40>
/home/hei/Desktop/optee-qemu/optee_os/lib/libmbedtls/mbedtls/library/bignum.c:1061 (discriminator 3)
    51d4:	b8627801 	ldr	w1, [x0, x2, lsl #2]
/home/hei/Desktop/optee-qemu/optee_os/lib/libmbedtls/mbedtls/library/bignum.c:1060 (discriminator 3)
    51d8:	b8627883 	ldr	w3, [x4, x2, lsl #2]
/home/hei/Desktop/optee-qemu/optee_os/lib/libmbedtls/mbedtls/library/bignum.c:1061 (discriminator 3)
    51dc:	0b010281 	add	w1, w20, w1
    51e0:	6b14003f 	cmp	w1, w20
/home/hei/Desktop/optee-qemu/optee_os/lib/libmbedtls/mbedtls/library/bignum.c:1062 (discriminator 3)
    51e4:	0b030021 	add	w1, w1, w3
/home/hei/Desktop/optee-qemu/optee_os/lib/libmbedtls/mbedtls/library/bignum.c:1061 (discriminator 3)
    51e8:	1a9f27f4 	cset	w20, cc  // cc = lo, ul, last
/home/hei/Desktop/optee-qemu/optee_os/lib/libmbedtls/mbedtls/library/bignum.c:1062 (discriminator 3)
    51ec:	6b03003f 	cmp	w1, w3
    51f0:	1a942694 	cinc	w20, w20, cc  // cc = lo, ul, last
    51f4:	b8227801 	str	w1, [x0, x2, lsl #2]
/home/hei/Desktop/optee-qemu/optee_os/lib/libmbedtls/mbedtls/library/bignum.c:1058 (discriminator 3)
    51f8:	91000442 	add	x2, x2, #0x1
    51fc:	17ffffd2 	b	5144 <mbedtls_mpi_add_abs+0x68>
/home/hei/Desktop/optee-qemu/optee_os/lib/libmbedtls/mbedtls/library/bignum.c:1069
    5200:	2a0003f6 	mov	w22, w0
/home/hei/Desktop/optee-qemu/optee_os/lib/libmbedtls/mbedtls/library/bignum.c:1078
    5204:	17ffffe8 	b	51a4 <mbedtls_mpi_add_abs+0xc8>

0000000000005208 <mbedtls_mpi_sub_abs>:
mbedtls_mpi_sub_abs():
/home/hei/Desktop/optee-qemu/optee_os/lib/libmbedtls/mbedtls/library/bignum.c:1106
    5208:	a9ba7bfd 	stp	x29, x30, [sp, #-96]!
    520c:	910003fd 	mov	x29, sp
    5210:	f9001bf7 	str	x23, [sp, #48]
    5214:	aa0103f7 	mov	x23, x1
/home/hei/Desktop/optee-qemu/optee_os/lib/libmbedtls/mbedtls/library/bignum.c:1114
    5218:	aa0203e1 	mov	x1, x2
/home/hei/Desktop/optee-qemu/optee_os/lib/libmbedtls/mbedtls/library/bignum.c:1106
    521c:	a90153f3 	stp	x19, x20, [sp, #16]
    5220:	aa0203f4 	mov	x20, x2
    5224:	a9025bf5 	stp	x21, x22, [sp, #32]
    5228:	aa0003f5 	mov	x21, x0
/home/hei/Desktop/optee-qemu/optee_os/lib/libmbedtls/mbedtls/library/bignum.c:1114
    522c:	aa1703e0 	mov	x0, x23
    5230:	97ffff3e 	bl	4f28 <mbedtls_mpi_cmp_abs>
    5234:	37f80500 	tbnz	w0, #31, 52d4 <mbedtls_mpi_sub_abs+0xcc>
/home/hei/Desktop/optee-qemu/optee_os/lib/libmbedtls/mbedtls/library/bignum.c:1117
    5238:	910123f6 	add	x22, sp, #0x48
    523c:	aa1603e0 	mov	x0, x22
    5240:	97fffc95 	bl	4494 <mbedtls_mpi_init_mempool>
/home/hei/Desktop/optee-qemu/optee_os/lib/libmbedtls/mbedtls/library/bignum.c:1119
    5244:	eb15029f 	cmp	x20, x21
    5248:	540000e1 	b.ne	5264 <mbedtls_mpi_sub_abs+0x5c>  // b.any
/home/hei/Desktop/optee-qemu/optee_os/lib/libmbedtls/mbedtls/library/bignum.c:1121
    524c:	aa1403e1 	mov	x1, x20
    5250:	aa1603e0 	mov	x0, x22
    5254:	97fffd3b 	bl	4740 <mbedtls_mpi_copy>
    5258:	2a0003f3 	mov	w19, w0
    525c:	35000220 	cbnz	w0, 52a0 <mbedtls_mpi_sub_abs+0x98>
/home/hei/Desktop/optee-qemu/optee_os/lib/libmbedtls/mbedtls/library/bignum.c:1122
    5260:	aa1603f4 	mov	x20, x22
/home/hei/Desktop/optee-qemu/optee_os/lib/libmbedtls/mbedtls/library/bignum.c:1125
    5264:	eb1502ff 	cmp	x23, x21
    5268:	54000121 	b.ne	528c <mbedtls_mpi_sub_abs+0x84>  // b.any
/home/hei/Desktop/optee-qemu/optee_os/lib/libmbedtls/mbedtls/library/bignum.c:1131
    526c:	52800020 	mov	w0, #0x1                   	// #1
    5270:	790002a0 	strh	w0, [x21]
/home/hei/Desktop/optee-qemu/optee_os/lib/libmbedtls/mbedtls/library/bignum.c:1135
    5274:	a9408680 	ldp	x0, x1, [x20, #8]
/home/hei/Desktop/optee-qemu/optee_os/lib/libmbedtls/mbedtls/library/bignum.c:1135 (discriminator 1)
    5278:	b5000240 	cbnz	x0, 52c0 <mbedtls_mpi_sub_abs+0xb8>
/home/hei/Desktop/optee-qemu/optee_os/lib/libmbedtls/mbedtls/library/bignum.c:1139
    527c:	f9400aa2 	ldr	x2, [x21, #16]
/home/hei/Desktop/optee-qemu/optee_os/lib/libmbedtls/mbedtls/library/bignum.c:1133
    5280:	52800013 	mov	w19, #0x0                   	// #0
/home/hei/Desktop/optee-qemu/optee_os/lib/libmbedtls/mbedtls/library/bignum.c:1139
    5284:	97fffb33 	bl	3f50 <mpi_sub_hlp>
    5288:	14000006 	b	52a0 <mbedtls_mpi_sub_abs+0x98>
/home/hei/Desktop/optee-qemu/optee_os/lib/libmbedtls/mbedtls/library/bignum.c:1126
    528c:	aa1703e1 	mov	x1, x23
    5290:	aa1503e0 	mov	x0, x21
    5294:	97fffd2b 	bl	4740 <mbedtls_mpi_copy>
    5298:	2a0003f3 	mov	w19, w0
    529c:	34fffe80 	cbz	w0, 526c <mbedtls_mpi_sub_abs+0x64>
/home/hei/Desktop/optee-qemu/optee_os/lib/libmbedtls/mbedtls/library/bignum.c:1143
    52a0:	aa1603e0 	mov	x0, x22
    52a4:	97fffc86 	bl	44bc <mbedtls_mpi_free>
/home/hei/Desktop/optee-qemu/optee_os/lib/libmbedtls/mbedtls/library/bignum.c:1146
    52a8:	2a1303e0 	mov	w0, w19
    52ac:	a94153f3 	ldp	x19, x20, [sp, #16]
    52b0:	a9425bf5 	ldp	x21, x22, [sp, #32]
    52b4:	f9401bf7 	ldr	x23, [sp, #48]
    52b8:	a8c67bfd 	ldp	x29, x30, [sp], #96
    52bc:	d65f03c0 	ret
/home/hei/Desktop/optee-qemu/optee_os/lib/libmbedtls/mbedtls/library/bignum.c:1136
    52c0:	8b000822 	add	x2, x1, x0, lsl #2
    52c4:	b85fc042 	ldur	w2, [x2, #-4]
    52c8:	35fffda2 	cbnz	w2, 527c <mbedtls_mpi_sub_abs+0x74>
/home/hei/Desktop/optee-qemu/optee_os/lib/libmbedtls/mbedtls/library/bignum.c:1135 (discriminator 2)
    52cc:	d1000400 	sub	x0, x0, #0x1
    52d0:	17ffffea 	b	5278 <mbedtls_mpi_sub_abs+0x70>
/home/hei/Desktop/optee-qemu/optee_os/lib/libmbedtls/mbedtls/library/bignum.c:1115
    52d4:	12800133 	mov	w19, #0xfffffff6            	// #-10
    52d8:	17fffff4 	b	52a8 <mbedtls_mpi_sub_abs+0xa0>

00000000000052dc <mbedtls_mpi_add_mpi>:
mbedtls_mpi_add_mpi():
/home/hei/Desktop/optee-qemu/optee_os/lib/libmbedtls/mbedtls/library/bignum.c:1152
    52dc:	a9bd7bfd 	stp	x29, x30, [sp, #-48]!
    52e0:	910003fd 	mov	x29, sp
/home/hei/Desktop/optee-qemu/optee_os/lib/libmbedtls/mbedtls/library/bignum.c:1159
    52e4:	79c00043 	ldrsh	w3, [x2]
/home/hei/Desktop/optee-qemu/optee_os/lib/libmbedtls/mbedtls/library/bignum.c:1152
    52e8:	a90153f3 	stp	x19, x20, [sp, #16]
    52ec:	aa0003f4 	mov	x20, x0
/home/hei/Desktop/optee-qemu/optee_os/lib/libmbedtls/mbedtls/library/bignum.c:1158
    52f0:	79c00033 	ldrsh	w19, [x1]
/home/hei/Desktop/optee-qemu/optee_os/lib/libmbedtls/mbedtls/library/bignum.c:1152
    52f4:	a9025bf5 	stp	x21, x22, [sp, #32]
/home/hei/Desktop/optee-qemu/optee_os/lib/libmbedtls/mbedtls/library/bignum.c:1159
    52f8:	1b137c63 	mul	w3, w3, w19
    52fc:	36f80303 	tbz	w3, #31, 535c <mbedtls_mpi_add_mpi+0x80>
    5300:	aa0103f6 	mov	x22, x1
    5304:	aa0203f5 	mov	x21, x2
/home/hei/Desktop/optee-qemu/optee_os/lib/libmbedtls/mbedtls/library/bignum.c:1161
    5308:	aa0203e1 	mov	x1, x2
    530c:	aa1603e0 	mov	x0, x22
    5310:	97ffff06 	bl	4f28 <mbedtls_mpi_cmp_abs>
    5314:	37f80140 	tbnz	w0, #31, 533c <mbedtls_mpi_add_mpi+0x60>
/home/hei/Desktop/optee-qemu/optee_os/lib/libmbedtls/mbedtls/library/bignum.c:1163
    5318:	aa1503e2 	mov	x2, x21
    531c:	aa1603e1 	mov	x1, x22
    5320:	aa1403e0 	mov	x0, x20
    5324:	97ffffb9 	bl	5208 <mbedtls_mpi_sub_abs>
/home/hei/Desktop/optee-qemu/optee_os/lib/libmbedtls/mbedtls/library/bignum.c:1174
    5328:	34000160 	cbz	w0, 5354 <mbedtls_mpi_add_mpi+0x78>
/home/hei/Desktop/optee-qemu/optee_os/lib/libmbedtls/mbedtls/library/bignum.c:1181
    532c:	a94153f3 	ldp	x19, x20, [sp, #16]
    5330:	a9425bf5 	ldp	x21, x22, [sp, #32]
    5334:	a8c37bfd 	ldp	x29, x30, [sp], #48
    5338:	d65f03c0 	ret
/home/hei/Desktop/optee-qemu/optee_os/lib/libmbedtls/mbedtls/library/bignum.c:1168
    533c:	aa1603e2 	mov	x2, x22
    5340:	aa1503e1 	mov	x1, x21
    5344:	aa1403e0 	mov	x0, x20
    5348:	97ffffb0 	bl	5208 <mbedtls_mpi_sub_abs>
    534c:	35ffff00 	cbnz	w0, 532c <mbedtls_mpi_add_mpi+0x50>
/home/hei/Desktop/optee-qemu/optee_os/lib/libmbedtls/mbedtls/library/bignum.c:1169
    5350:	4b1303f3 	neg	w19, w19
/home/hei/Desktop/optee-qemu/optee_os/lib/libmbedtls/mbedtls/library/bignum.c:1175
    5354:	79000293 	strh	w19, [x20]
/home/hei/Desktop/optee-qemu/optee_os/lib/libmbedtls/mbedtls/library/bignum.c:1180
    5358:	17fffff5 	b	532c <mbedtls_mpi_add_mpi+0x50>
/home/hei/Desktop/optee-qemu/optee_os/lib/libmbedtls/mbedtls/library/bignum.c:1174
    535c:	97ffff60 	bl	50dc <mbedtls_mpi_add_abs>
    5360:	17fffff2 	b	5328 <mbedtls_mpi_add_mpi+0x4c>

0000000000005364 <mbedtls_mpi_sub_mpi>:
mbedtls_mpi_sub_mpi():
/home/hei/Desktop/optee-qemu/optee_os/lib/libmbedtls/mbedtls/library/bignum.c:1187
    5364:	a9bd7bfd 	stp	x29, x30, [sp, #-48]!
    5368:	910003fd 	mov	x29, sp
/home/hei/Desktop/optee-qemu/optee_os/lib/libmbedtls/mbedtls/library/bignum.c:1194
    536c:	79c00043 	ldrsh	w3, [x2]
/home/hei/Desktop/optee-qemu/optee_os/lib/libmbedtls/mbedtls/library/bignum.c:1187
    5370:	a90153f3 	stp	x19, x20, [sp, #16]
    5374:	aa0003f4 	mov	x20, x0
/home/hei/Desktop/optee-qemu/optee_os/lib/libmbedtls/mbedtls/library/bignum.c:1193
    5378:	79c00033 	ldrsh	w19, [x1]
/home/hei/Desktop/optee-qemu/optee_os/lib/libmbedtls/mbedtls/library/bignum.c:1187
    537c:	a9025bf5 	stp	x21, x22, [sp, #32]
/home/hei/Desktop/optee-qemu/optee_os/lib/libmbedtls/mbedtls/library/bignum.c:1194
    5380:	1b137c63 	mul	w3, w3, w19
    5384:	7100007f 	cmp	w3, #0x0
    5388:	5400030d 	b.le	53e8 <mbedtls_mpi_sub_mpi+0x84>
    538c:	aa0103f6 	mov	x22, x1
    5390:	aa0203f5 	mov	x21, x2
/home/hei/Desktop/optee-qemu/optee_os/lib/libmbedtls/mbedtls/library/bignum.c:1196
    5394:	aa0203e1 	mov	x1, x2
    5398:	aa1603e0 	mov	x0, x22
    539c:	97fffee3 	bl	4f28 <mbedtls_mpi_cmp_abs>
    53a0:	37f80140 	tbnz	w0, #31, 53c8 <mbedtls_mpi_sub_mpi+0x64>
/home/hei/Desktop/optee-qemu/optee_os/lib/libmbedtls/mbedtls/library/bignum.c:1198
    53a4:	aa1503e2 	mov	x2, x21
    53a8:	aa1603e1 	mov	x1, x22
    53ac:	aa1403e0 	mov	x0, x20
    53b0:	97ffff96 	bl	5208 <mbedtls_mpi_sub_abs>
/home/hei/Desktop/optee-qemu/optee_os/lib/libmbedtls/mbedtls/library/bignum.c:1209
    53b4:	34000160 	cbz	w0, 53e0 <mbedtls_mpi_sub_mpi+0x7c>
/home/hei/Desktop/optee-qemu/optee_os/lib/libmbedtls/mbedtls/library/bignum.c:1216
    53b8:	a94153f3 	ldp	x19, x20, [sp, #16]
    53bc:	a9425bf5 	ldp	x21, x22, [sp, #32]
    53c0:	a8c37bfd 	ldp	x29, x30, [sp], #48
    53c4:	d65f03c0 	ret
/home/hei/Desktop/optee-qemu/optee_os/lib/libmbedtls/mbedtls/library/bignum.c:1203
    53c8:	aa1603e2 	mov	x2, x22
    53cc:	aa1503e1 	mov	x1, x21
    53d0:	aa1403e0 	mov	x0, x20
    53d4:	97ffff8d 	bl	5208 <mbedtls_mpi_sub_abs>
    53d8:	35ffff00 	cbnz	w0, 53b8 <mbedtls_mpi_sub_mpi+0x54>
/home/hei/Desktop/optee-qemu/optee_os/lib/libmbedtls/mbedtls/library/bignum.c:1204
    53dc:	4b1303f3 	neg	w19, w19
/home/hei/Desktop/optee-qemu/optee_os/lib/libmbedtls/mbedtls/library/bignum.c:1210
    53e0:	79000293 	strh	w19, [x20]
/home/hei/Desktop/optee-qemu/optee_os/lib/libmbedtls/mbedtls/library/bignum.c:1215
    53e4:	17fffff5 	b	53b8 <mbedtls_mpi_sub_mpi+0x54>
/home/hei/Desktop/optee-qemu/optee_os/lib/libmbedtls/mbedtls/library/bignum.c:1209
    53e8:	97ffff3d 	bl	50dc <mbedtls_mpi_add_abs>
    53ec:	17fffff2 	b	53b4 <mbedtls_mpi_sub_mpi+0x50>

00000000000053f0 <mbedtls_mpi_add_int>:
mbedtls_mpi_add_int():
/home/hei/Desktop/optee-qemu/optee_os/lib/libmbedtls/mbedtls/library/bignum.c:1222
    53f0:	a9bd7bfd 	stp	x29, x30, [sp, #-48]!
/home/hei/Desktop/optee-qemu/optee_os/lib/libmbedtls/mbedtls/library/bignum.c:1228
    53f4:	7100005f 	cmp	w2, #0x0
    53f8:	5a82a443 	cneg	w3, w2, lt  // lt = tstop
/home/hei/Desktop/optee-qemu/optee_os/lib/libmbedtls/mbedtls/library/bignum.c:1222
    53fc:	910003fd 	mov	x29, sp
/home/hei/Desktop/optee-qemu/optee_os/lib/libmbedtls/mbedtls/library/bignum.c:1228
    5400:	b90013e3 	str	w3, [sp, #16]
/home/hei/Desktop/optee-qemu/optee_os/lib/libmbedtls/mbedtls/library/bignum.c:1229
    5404:	52800023 	mov	w3, #0x1                   	// #1
    5408:	5a83a463 	cneg	w3, w3, lt  // lt = tstop
/home/hei/Desktop/optee-qemu/optee_os/lib/libmbedtls/mbedtls/library/bignum.c:1230
    540c:	d2800022 	mov	x2, #0x1                   	// #1
    5410:	f90013e2 	str	x2, [sp, #32]
/home/hei/Desktop/optee-qemu/optee_os/lib/libmbedtls/mbedtls/library/bignum.c:1231
    5414:	910043e2 	add	x2, sp, #0x10
/home/hei/Desktop/optee-qemu/optee_os/lib/libmbedtls/mbedtls/library/bignum.c:1229
    5418:	790033e3 	strh	w3, [sp, #24]
/home/hei/Desktop/optee-qemu/optee_os/lib/libmbedtls/mbedtls/library/bignum.c:1231
    541c:	f90017e2 	str	x2, [sp, #40]
/home/hei/Desktop/optee-qemu/optee_os/lib/libmbedtls/mbedtls/library/bignum.c:1233
    5420:	910063e2 	add	x2, sp, #0x18
    5424:	97ffffae 	bl	52dc <mbedtls_mpi_add_mpi>
/home/hei/Desktop/optee-qemu/optee_os/lib/libmbedtls/mbedtls/library/bignum.c:1234
    5428:	a8c37bfd 	ldp	x29, x30, [sp], #48
    542c:	d65f03c0 	ret

0000000000005430 <mbedtls_mpi_sub_int>:
mbedtls_mpi_sub_int():
/home/hei/Desktop/optee-qemu/optee_os/lib/libmbedtls/mbedtls/library/bignum.c:1240
    5430:	a9bd7bfd 	stp	x29, x30, [sp, #-48]!
/home/hei/Desktop/optee-qemu/optee_os/lib/libmbedtls/mbedtls/library/bignum.c:1246
    5434:	7100005f 	cmp	w2, #0x0
    5438:	5a82a443 	cneg	w3, w2, lt  // lt = tstop
/home/hei/Desktop/optee-qemu/optee_os/lib/libmbedtls/mbedtls/library/bignum.c:1240
    543c:	910003fd 	mov	x29, sp
/home/hei/Desktop/optee-qemu/optee_os/lib/libmbedtls/mbedtls/library/bignum.c:1246
    5440:	b90013e3 	str	w3, [sp, #16]
/home/hei/Desktop/optee-qemu/optee_os/lib/libmbedtls/mbedtls/library/bignum.c:1247
    5444:	52800023 	mov	w3, #0x1                   	// #1
    5448:	5a83a463 	cneg	w3, w3, lt  // lt = tstop
/home/hei/Desktop/optee-qemu/optee_os/lib/libmbedtls/mbedtls/library/bignum.c:1248
    544c:	d2800022 	mov	x2, #0x1                   	// #1
    5450:	f90013e2 	str	x2, [sp, #32]
/home/hei/Desktop/optee-qemu/optee_os/lib/libmbedtls/mbedtls/library/bignum.c:1249
    5454:	910043e2 	add	x2, sp, #0x10
/home/hei/Desktop/optee-qemu/optee_os/lib/libmbedtls/mbedtls/library/bignum.c:1247
    5458:	790033e3 	strh	w3, [sp, #24]
/home/hei/Desktop/optee-qemu/optee_os/lib/libmbedtls/mbedtls/library/bignum.c:1249
    545c:	f90017e2 	str	x2, [sp, #40]
/home/hei/Desktop/optee-qemu/optee_os/lib/libmbedtls/mbedtls/library/bignum.c:1251
    5460:	910063e2 	add	x2, sp, #0x18
    5464:	97ffffc0 	bl	5364 <mbedtls_mpi_sub_mpi>
/home/hei/Desktop/optee-qemu/optee_os/lib/libmbedtls/mbedtls/library/bignum.c:1252
    5468:	a8c37bfd 	ldp	x29, x30, [sp], #48
    546c:	d65f03c0 	ret

0000000000005470 <mbedtls_mpi_mul_mpi>:
mbedtls_mpi_mul_mpi():
/home/hei/Desktop/optee-qemu/optee_os/lib/libmbedtls/mbedtls/library/bignum.c:1330
    5470:	a9b87bfd 	stp	x29, x30, [sp, #-128]!
    5474:	910003fd 	mov	x29, sp
    5478:	a9046bf9 	stp	x25, x26, [sp, #64]
/home/hei/Desktop/optee-qemu/optee_os/lib/libmbedtls/mbedtls/library/bignum.c:1338
    547c:	910143f9 	add	x25, sp, #0x50
    5480:	9101a3fa 	add	x26, sp, #0x68
/home/hei/Desktop/optee-qemu/optee_os/lib/libmbedtls/mbedtls/library/bignum.c:1330
    5484:	a90153f3 	stp	x19, x20, [sp, #16]
    5488:	a9025bf5 	stp	x21, x22, [sp, #32]
    548c:	aa0003f5 	mov	x21, x0
    5490:	aa0203f6 	mov	x22, x2
/home/hei/Desktop/optee-qemu/optee_os/lib/libmbedtls/mbedtls/library/bignum.c:1338
    5494:	aa1903e0 	mov	x0, x25
/home/hei/Desktop/optee-qemu/optee_os/lib/libmbedtls/mbedtls/library/bignum.c:1330
    5498:	a90363f7 	stp	x23, x24, [sp, #48]
    549c:	aa0103f7 	mov	x23, x1
/home/hei/Desktop/optee-qemu/optee_os/lib/libmbedtls/mbedtls/library/bignum.c:1338
    54a0:	97fffbfd 	bl	4494 <mbedtls_mpi_init_mempool>
    54a4:	aa1a03e0 	mov	x0, x26
    54a8:	97fffbfb 	bl	4494 <mbedtls_mpi_init_mempool>
/home/hei/Desktop/optee-qemu/optee_os/lib/libmbedtls/mbedtls/library/bignum.c:1340
    54ac:	eb1702bf 	cmp	x21, x23
    54b0:	540000e1 	b.ne	54cc <mbedtls_mpi_mul_mpi+0x5c>  // b.any
/home/hei/Desktop/optee-qemu/optee_os/lib/libmbedtls/mbedtls/library/bignum.c:1340 (discriminator 1)
    54b4:	aa1503e1 	mov	x1, x21
    54b8:	aa1903e0 	mov	x0, x25
    54bc:	97fffca1 	bl	4740 <mbedtls_mpi_copy>
    54c0:	2a0003f4 	mov	w20, w0
    54c4:	35000300 	cbnz	w0, 5524 <mbedtls_mpi_mul_mpi+0xb4>
/home/hei/Desktop/optee-qemu/optee_os/lib/libmbedtls/mbedtls/library/bignum.c:1340
    54c8:	aa1903f7 	mov	x23, x25
/home/hei/Desktop/optee-qemu/optee_os/lib/libmbedtls/mbedtls/library/bignum.c:1341
    54cc:	eb1602bf 	cmp	x21, x22
    54d0:	540000e1 	b.ne	54ec <mbedtls_mpi_mul_mpi+0x7c>  // b.any
/home/hei/Desktop/optee-qemu/optee_os/lib/libmbedtls/mbedtls/library/bignum.c:1341 (discriminator 1)
    54d4:	aa1503e1 	mov	x1, x21
    54d8:	aa1a03e0 	mov	x0, x26
    54dc:	97fffc99 	bl	4740 <mbedtls_mpi_copy>
    54e0:	2a0003f4 	mov	w20, w0
    54e4:	35000200 	cbnz	w0, 5524 <mbedtls_mpi_mul_mpi+0xb4>
/home/hei/Desktop/optee-qemu/optee_os/lib/libmbedtls/mbedtls/library/bignum.c:1341
    54e8:	aa1a03f6 	mov	x22, x26
/home/hei/Desktop/optee-qemu/optee_os/lib/libmbedtls/mbedtls/library/bignum.c:1343
    54ec:	f94006f8 	ldr	x24, [x23, #8]
/home/hei/Desktop/optee-qemu/optee_os/lib/libmbedtls/mbedtls/library/bignum.c:1343 (discriminator 1)
    54f0:	b5000318 	cbnz	x24, 5550 <mbedtls_mpi_mul_mpi+0xe0>
/home/hei/Desktop/optee-qemu/optee_os/lib/libmbedtls/mbedtls/library/bignum.c:1347
    54f4:	f94006d3 	ldr	x19, [x22, #8]
/home/hei/Desktop/optee-qemu/optee_os/lib/libmbedtls/mbedtls/library/bignum.c:1347 (discriminator 1)
    54f8:	b5000393 	cbnz	x19, 5568 <mbedtls_mpi_mul_mpi+0xf8>
/home/hei/Desktop/optee-qemu/optee_os/lib/libmbedtls/mbedtls/library/bignum.c:1351
    54fc:	8b130301 	add	x1, x24, x19
    5500:	aa1503e0 	mov	x0, x21
    5504:	97fffc09 	bl	4528 <mbedtls_mpi_grow>
    5508:	2a0003f4 	mov	w20, w0
    550c:	350000c0 	cbnz	w0, 5524 <mbedtls_mpi_mul_mpi+0xb4>
/home/hei/Desktop/optee-qemu/optee_os/lib/libmbedtls/mbedtls/library/bignum.c:1352
    5510:	52800001 	mov	w1, #0x0                   	// #0
    5514:	aa1503e0 	mov	x0, x21
    5518:	97fffd38 	bl	49f8 <mbedtls_mpi_lset>
    551c:	2a0003f4 	mov	w20, w0
    5520:	34000400 	cbz	w0, 55a0 <mbedtls_mpi_mul_mpi+0x130>
/home/hei/Desktop/optee-qemu/optee_os/lib/libmbedtls/mbedtls/library/bignum.c:1361
    5524:	aa1a03e0 	mov	x0, x26
    5528:	97fffbe5 	bl	44bc <mbedtls_mpi_free>
    552c:	aa1903e0 	mov	x0, x25
    5530:	97fffbe3 	bl	44bc <mbedtls_mpi_free>
/home/hei/Desktop/optee-qemu/optee_os/lib/libmbedtls/mbedtls/library/bignum.c:1364
    5534:	2a1403e0 	mov	w0, w20
    5538:	a94153f3 	ldp	x19, x20, [sp, #16]
    553c:	a9425bf5 	ldp	x21, x22, [sp, #32]
    5540:	a94363f7 	ldp	x23, x24, [sp, #48]
    5544:	a9446bf9 	ldp	x25, x26, [sp, #64]
    5548:	a8c87bfd 	ldp	x29, x30, [sp], #128
    554c:	d65f03c0 	ret
/home/hei/Desktop/optee-qemu/optee_os/lib/libmbedtls/mbedtls/library/bignum.c:1344
    5550:	f9400ae0 	ldr	x0, [x23, #16]
    5554:	8b180800 	add	x0, x0, x24, lsl #2
    5558:	b85fc000 	ldur	w0, [x0, #-4]
    555c:	35fffcc0 	cbnz	w0, 54f4 <mbedtls_mpi_mul_mpi+0x84>
/home/hei/Desktop/optee-qemu/optee_os/lib/libmbedtls/mbedtls/library/bignum.c:1343 (discriminator 2)
    5560:	d1000718 	sub	x24, x24, #0x1
    5564:	17ffffe3 	b	54f0 <mbedtls_mpi_mul_mpi+0x80>
/home/hei/Desktop/optee-qemu/optee_os/lib/libmbedtls/mbedtls/library/bignum.c:1348
    5568:	f9400ac0 	ldr	x0, [x22, #16]
    556c:	8b130800 	add	x0, x0, x19, lsl #2
    5570:	b85fc000 	ldur	w0, [x0, #-4]
    5574:	35fffc40 	cbnz	w0, 54fc <mbedtls_mpi_mul_mpi+0x8c>
/home/hei/Desktop/optee-qemu/optee_os/lib/libmbedtls/mbedtls/library/bignum.c:1347 (discriminator 2)
    5578:	d1000673 	sub	x19, x19, #0x1
    557c:	17ffffdf 	b	54f8 <mbedtls_mpi_mul_mpi+0x88>
/home/hei/Desktop/optee-qemu/optee_os/lib/libmbedtls/mbedtls/library/bignum.c:1355 (discriminator 2)
    5580:	f9400ac1 	ldr	x1, [x22, #16]
    5584:	d37ef662 	lsl	x2, x19, #2
    5588:	f9400aa0 	ldr	x0, [x21, #16]
    558c:	b8626823 	ldr	w3, [x1, x2]
    5590:	f9400ae1 	ldr	x1, [x23, #16]
    5594:	8b020002 	add	x2, x0, x2
    5598:	aa1803e0 	mov	x0, x24
    559c:	97fffa85 	bl	3fb0 <mpi_mul_hlp>
    55a0:	d1000673 	sub	x19, x19, #0x1
/home/hei/Desktop/optee-qemu/optee_os/lib/libmbedtls/mbedtls/library/bignum.c:1354 (discriminator 1)
    55a4:	b100067f 	cmn	x19, #0x1
    55a8:	54fffec1 	b.ne	5580 <mbedtls_mpi_mul_mpi+0x110>  // b.any
/home/hei/Desktop/optee-qemu/optee_os/lib/libmbedtls/mbedtls/library/bignum.c:1357
    55ac:	794002e0 	ldrh	w0, [x23]
    55b0:	794002c1 	ldrh	w1, [x22]
    55b4:	1b017c00 	mul	w0, w0, w1
    55b8:	790002a0 	strh	w0, [x21]
    55bc:	17ffffda 	b	5524 <mbedtls_mpi_mul_mpi+0xb4>

00000000000055c0 <mbedtls_mpi_mul_int>:
mbedtls_mpi_mul_int():
/home/hei/Desktop/optee-qemu/optee_os/lib/libmbedtls/mbedtls/library/bignum.c:1370
    55c0:	a9bd7bfd 	stp	x29, x30, [sp, #-48]!
/home/hei/Desktop/optee-qemu/optee_os/lib/libmbedtls/mbedtls/library/bignum.c:1376
    55c4:	52800023 	mov	w3, #0x1                   	// #1
/home/hei/Desktop/optee-qemu/optee_os/lib/libmbedtls/mbedtls/library/bignum.c:1370
    55c8:	910003fd 	mov	x29, sp
/home/hei/Desktop/optee-qemu/optee_os/lib/libmbedtls/mbedtls/library/bignum.c:1376
    55cc:	790033e3 	strh	w3, [sp, #24]
/home/hei/Desktop/optee-qemu/optee_os/lib/libmbedtls/mbedtls/library/bignum.c:1377
    55d0:	d2800023 	mov	x3, #0x1                   	// #1
    55d4:	f90013e3 	str	x3, [sp, #32]
/home/hei/Desktop/optee-qemu/optee_os/lib/libmbedtls/mbedtls/library/bignum.c:1378
    55d8:	910043e3 	add	x3, sp, #0x10
/home/hei/Desktop/optee-qemu/optee_os/lib/libmbedtls/mbedtls/library/bignum.c:1379
    55dc:	b90013e2 	str	w2, [sp, #16]
/home/hei/Desktop/optee-qemu/optee_os/lib/libmbedtls/mbedtls/library/bignum.c:1381
    55e0:	910063e2 	add	x2, sp, #0x18
/home/hei/Desktop/optee-qemu/optee_os/lib/libmbedtls/mbedtls/library/bignum.c:1378
    55e4:	f90017e3 	str	x3, [sp, #40]
/home/hei/Desktop/optee-qemu/optee_os/lib/libmbedtls/mbedtls/library/bignum.c:1381
    55e8:	97ffffa2 	bl	5470 <mbedtls_mpi_mul_mpi>
/home/hei/Desktop/optee-qemu/optee_os/lib/libmbedtls/mbedtls/library/bignum.c:1382
    55ec:	a8c37bfd 	ldp	x29, x30, [sp], #48
    55f0:	d65f03c0 	ret

00000000000055f4 <mbedtls_mpi_read_string>:
mbedtls_mpi_read_string():
/home/hei/Desktop/optee-qemu/optee_os/lib/libmbedtls/mbedtls/library/bignum.c:506
    55f4:	a9b87bfd 	stp	x29, x30, [sp, #-128]!
/home/hei/Desktop/optee-qemu/optee_os/lib/libmbedtls/mbedtls/library/bignum.c:514
    55f8:	51000823 	sub	w3, w1, #0x2
    55fc:	7100387f 	cmp	w3, #0xe
/home/hei/Desktop/optee-qemu/optee_os/lib/libmbedtls/mbedtls/library/bignum.c:506
    5600:	910003fd 	mov	x29, sp
    5604:	a90153f3 	stp	x19, x20, [sp, #16]
    5608:	a9025bf5 	stp	x21, x22, [sp, #32]
    560c:	a90363f7 	stp	x23, x24, [sp, #48]
    5610:	a9046bf9 	stp	x25, x26, [sp, #64]
    5614:	f9002bfb 	str	x27, [sp, #80]
/home/hei/Desktop/optee-qemu/optee_os/lib/libmbedtls/mbedtls/library/bignum.c:514
    5618:	54000149 	b.ls	5640 <mbedtls_mpi_read_string+0x4c>  // b.plast
/home/hei/Desktop/optee-qemu/optee_os/lib/libmbedtls/mbedtls/library/bignum.c:515
    561c:	12800073 	mov	w19, #0xfffffffc            	// #-4
/home/hei/Desktop/optee-qemu/optee_os/lib/libmbedtls/mbedtls/library/bignum.c:574
    5620:	2a1303e0 	mov	w0, w19
    5624:	a94153f3 	ldp	x19, x20, [sp, #16]
    5628:	a9425bf5 	ldp	x21, x22, [sp, #32]
    562c:	a94363f7 	ldp	x23, x24, [sp, #48]
    5630:	a9446bf9 	ldp	x25, x26, [sp, #64]
    5634:	f9402bfb 	ldr	x27, [sp, #80]
    5638:	a8c87bfd 	ldp	x29, x30, [sp], #128
    563c:	d65f03c0 	ret
/home/hei/Desktop/optee-qemu/optee_os/lib/libmbedtls/mbedtls/library/bignum.c:517
    5640:	9101a3f8 	add	x24, sp, #0x68
    5644:	aa0203f6 	mov	x22, x2
    5648:	2a0103f7 	mov	w23, w1
    564c:	aa0003f4 	mov	x20, x0
    5650:	aa1803e0 	mov	x0, x24
    5654:	97fffb90 	bl	4494 <mbedtls_mpi_init_mempool>
/home/hei/Desktop/optee-qemu/optee_os/lib/libmbedtls/mbedtls/library/bignum.c:519
    5658:	aa1603e0 	mov	x0, x22
    565c:	97ffefae 	bl	1514 <strlen>
/home/hei/Desktop/optee-qemu/optee_os/lib/libmbedtls/mbedtls/library/bignum.c:521
    5660:	710042ff 	cmp	w23, #0x10
/home/hei/Desktop/optee-qemu/optee_os/lib/libmbedtls/mbedtls/library/bignum.c:519
    5664:	aa0003f5 	mov	x21, x0
/home/hei/Desktop/optee-qemu/optee_os/lib/libmbedtls/mbedtls/library/bignum.c:521
    5668:	54000621 	b.ne	572c <mbedtls_mpi_read_string+0x138>  // b.any
/home/hei/Desktop/optee-qemu/optee_os/lib/libmbedtls/mbedtls/library/bignum.c:523
    566c:	92f80000 	mov	x0, #0x3fffffffffffffff    	// #4611686018427387903
    5670:	eb0002bf 	cmp	x21, x0
    5674:	54fffd48 	b.hi	561c <mbedtls_mpi_read_string+0x28>  // b.pmore
/home/hei/Desktop/optee-qemu/optee_os/lib/libmbedtls/mbedtls/library/bignum.c:526
    5678:	d37ef6a1 	lsl	x1, x21, #2
/home/hei/Desktop/optee-qemu/optee_os/lib/libmbedtls/mbedtls/library/bignum.c:528
    567c:	aa1403e0 	mov	x0, x20
/home/hei/Desktop/optee-qemu/optee_os/lib/libmbedtls/mbedtls/library/bignum.c:526
    5680:	f27e083f 	tst	x1, #0x1c
    5684:	d345fc21 	lsr	x1, x1, #5
/home/hei/Desktop/optee-qemu/optee_os/lib/libmbedtls/mbedtls/library/bignum.c:528
    5688:	9a810421 	cinc	x1, x1, ne  // ne = any
    568c:	97fffba7 	bl	4528 <mbedtls_mpi_grow>
    5690:	2a0003f3 	mov	w19, w0
    5694:	35000240 	cbnz	w0, 56dc <mbedtls_mpi_read_string+0xe8>
/home/hei/Desktop/optee-qemu/optee_os/lib/libmbedtls/mbedtls/library/bignum.c:529
    5698:	52800001 	mov	w1, #0x0                   	// #0
    569c:	aa1403e0 	mov	x0, x20
    56a0:	97fffcd6 	bl	49f8 <mbedtls_mpi_lset>
    56a4:	2a0003f3 	mov	w19, w0
    56a8:	350001a0 	cbnz	w0, 56dc <mbedtls_mpi_read_string+0xe8>
/home/hei/Desktop/optee-qemu/optee_os/lib/libmbedtls/mbedtls/library/bignum.c:539
    56ac:	910193e6 	add	x6, sp, #0x64
/home/hei/Desktop/optee-qemu/optee_os/lib/libmbedtls/mbedtls/library/bignum.c:531
    56b0:	d2800005 	mov	x5, #0x0                   	// #0
/home/hei/Desktop/optee-qemu/optee_os/lib/libmbedtls/mbedtls/library/bignum.c:531 (discriminator 1)
    56b4:	b5000075 	cbnz	x21, 56c0 <mbedtls_mpi_read_string+0xcc>
/home/hei/Desktop/optee-qemu/optee_os/lib/libmbedtls/mbedtls/library/bignum.c:539
    56b8:	52800013 	mov	w19, #0x0                   	// #0
    56bc:	14000008 	b	56dc <mbedtls_mpi_read_string+0xe8>
/home/hei/Desktop/optee-qemu/optee_os/lib/libmbedtls/mbedtls/library/bignum.c:533
    56c0:	f10006bf 	cmp	x21, #0x1
    56c4:	54000121 	b.ne	56e8 <mbedtls_mpi_read_string+0xf4>  // b.any
/home/hei/Desktop/optee-qemu/optee_os/lib/libmbedtls/mbedtls/library/bignum.c:533 (discriminator 1)
    56c8:	394002c0 	ldrb	w0, [x22]
    56cc:	7100b41f 	cmp	w0, #0x2d
    56d0:	540000c1 	b.ne	56e8 <mbedtls_mpi_read_string+0xf4>  // b.any
/home/hei/Desktop/optee-qemu/optee_os/lib/libmbedtls/mbedtls/library/bignum.c:535
    56d4:	12800000 	mov	w0, #0xffffffff            	// #-1
    56d8:	79000280 	strh	w0, [x20]
/home/hei/Desktop/optee-qemu/optee_os/lib/libmbedtls/mbedtls/library/bignum.c:571
    56dc:	aa1803e0 	mov	x0, x24
    56e0:	97fffb77 	bl	44bc <mbedtls_mpi_free>
/home/hei/Desktop/optee-qemu/optee_os/lib/libmbedtls/mbedtls/library/bignum.c:573
    56e4:	17ffffcf 	b	5620 <mbedtls_mpi_read_string+0x2c>
/home/hei/Desktop/optee-qemu/optee_os/lib/libmbedtls/mbedtls/library/bignum.c:539
    56e8:	d10006b5 	sub	x21, x21, #0x1
    56ec:	52800201 	mov	w1, #0x10                  	// #16
    56f0:	aa0603e0 	mov	x0, x6
    56f4:	38756ac2 	ldrb	w2, [x22, x21]
    56f8:	97fff9fd 	bl	3eec <mpi_get_digit>
    56fc:	350006a0 	cbnz	w0, 57d0 <mbedtls_mpi_read_string+0x1dc>
/home/hei/Desktop/optee-qemu/optee_os/lib/libmbedtls/mbedtls/library/bignum.c:540 (discriminator 2)
    5700:	d343fca0 	lsr	x0, x5, #3
    5704:	b94067e1 	ldr	w1, [sp, #100]
    5708:	f9400a83 	ldr	x3, [x20, #16]
    570c:	d37ef400 	lsl	x0, x0, #2
    5710:	531e08a2 	ubfiz	w2, w5, #2, #3
/home/hei/Desktop/optee-qemu/optee_os/lib/libmbedtls/mbedtls/library/bignum.c:531 (discriminator 2)
    5714:	910004a5 	add	x5, x5, #0x1
/home/hei/Desktop/optee-qemu/optee_os/lib/libmbedtls/mbedtls/library/bignum.c:540 (discriminator 2)
    5718:	1ac22022 	lsl	w2, w1, w2
    571c:	b8606861 	ldr	w1, [x3, x0]
    5720:	2a020021 	orr	w1, w1, w2
    5724:	b8206861 	str	w1, [x3, x0]
    5728:	17ffffe3 	b	56b4 <mbedtls_mpi_read_string+0xc0>
/home/hei/Desktop/optee-qemu/optee_os/lib/libmbedtls/mbedtls/library/bignum.c:545
    572c:	52800001 	mov	w1, #0x0                   	// #0
    5730:	aa1403e0 	mov	x0, x20
    5734:	97fffcb1 	bl	49f8 <mbedtls_mpi_lset>
    5738:	2a0003f3 	mov	w19, w0
    573c:	35fffd00 	cbnz	w0, 56dc <mbedtls_mpi_read_string+0xe8>
/home/hei/Desktop/optee-qemu/optee_os/lib/libmbedtls/mbedtls/library/bignum.c:555
    5740:	910193fa 	add	x26, sp, #0x64
/home/hei/Desktop/optee-qemu/optee_os/lib/libmbedtls/mbedtls/library/bignum.c:547
    5744:	d2800019 	mov	x25, #0x0                   	// #0
/home/hei/Desktop/optee-qemu/optee_os/lib/libmbedtls/mbedtls/library/bignum.c:551
    5748:	1280001b 	mov	w27, #0xffffffff            	// #-1
/home/hei/Desktop/optee-qemu/optee_os/lib/libmbedtls/mbedtls/library/bignum.c:547 (discriminator 1)
    574c:	eb15033f 	cmp	x25, x21
    5750:	54fffb40 	b.eq	56b8 <mbedtls_mpi_read_string+0xc4>  // b.none
/home/hei/Desktop/optee-qemu/optee_os/lib/libmbedtls/mbedtls/library/bignum.c:549
    5754:	b50000f9 	cbnz	x25, 5770 <mbedtls_mpi_read_string+0x17c>
/home/hei/Desktop/optee-qemu/optee_os/lib/libmbedtls/mbedtls/library/bignum.c:549 (discriminator 1)
    5758:	394002c0 	ldrb	w0, [x22]
    575c:	7100b41f 	cmp	w0, #0x2d
    5760:	54000081 	b.ne	5770 <mbedtls_mpi_read_string+0x17c>  // b.any
/home/hei/Desktop/optee-qemu/optee_os/lib/libmbedtls/mbedtls/library/bignum.c:551
    5764:	7900029b 	strh	w27, [x20]
/home/hei/Desktop/optee-qemu/optee_os/lib/libmbedtls/mbedtls/library/bignum.c:547 (discriminator 2)
    5768:	91000739 	add	x25, x25, #0x1
    576c:	17fffff8 	b	574c <mbedtls_mpi_read_string+0x158>
/home/hei/Desktop/optee-qemu/optee_os/lib/libmbedtls/mbedtls/library/bignum.c:555
    5770:	38796ac2 	ldrb	w2, [x22, x25]
    5774:	2a1703e1 	mov	w1, w23
    5778:	aa1a03e0 	mov	x0, x26
    577c:	97fff9dc 	bl	3eec <mpi_get_digit>
    5780:	2a0003f3 	mov	w19, w0
    5784:	35fffac0 	cbnz	w0, 56dc <mbedtls_mpi_read_string+0xe8>
/home/hei/Desktop/optee-qemu/optee_os/lib/libmbedtls/mbedtls/library/bignum.c:556
    5788:	2a1703e2 	mov	w2, w23
    578c:	aa1403e1 	mov	x1, x20
    5790:	aa1803e0 	mov	x0, x24
    5794:	97ffff8b 	bl	55c0 <mbedtls_mpi_mul_int>
    5798:	2a0003f3 	mov	w19, w0
    579c:	35fffa00 	cbnz	w0, 56dc <mbedtls_mpi_read_string+0xe8>
/home/hei/Desktop/optee-qemu/optee_os/lib/libmbedtls/mbedtls/library/bignum.c:558
    57a0:	79c00280 	ldrsh	w0, [x20]
/home/hei/Desktop/optee-qemu/optee_os/lib/libmbedtls/mbedtls/library/bignum.c:560
    57a4:	aa1803e1 	mov	x1, x24
    57a8:	b94067e2 	ldr	w2, [sp, #100]
/home/hei/Desktop/optee-qemu/optee_os/lib/libmbedtls/mbedtls/library/bignum.c:558
    57ac:	7100041f 	cmp	w0, #0x1
/home/hei/Desktop/optee-qemu/optee_os/lib/libmbedtls/mbedtls/library/bignum.c:560
    57b0:	aa1403e0 	mov	x0, x20
/home/hei/Desktop/optee-qemu/optee_os/lib/libmbedtls/mbedtls/library/bignum.c:558
    57b4:	540000a1 	b.ne	57c8 <mbedtls_mpi_read_string+0x1d4>  // b.any
/home/hei/Desktop/optee-qemu/optee_os/lib/libmbedtls/mbedtls/library/bignum.c:560
    57b8:	97ffff0e 	bl	53f0 <mbedtls_mpi_add_int>
/home/hei/Desktop/optee-qemu/optee_os/lib/libmbedtls/mbedtls/library/bignum.c:564
    57bc:	2a0003f3 	mov	w19, w0
    57c0:	34fffd40 	cbz	w0, 5768 <mbedtls_mpi_read_string+0x174>
    57c4:	17ffffc6 	b	56dc <mbedtls_mpi_read_string+0xe8>
    57c8:	97ffff1a 	bl	5430 <mbedtls_mpi_sub_int>
    57cc:	17fffffc 	b	57bc <mbedtls_mpi_read_string+0x1c8>
/home/hei/Desktop/optee-qemu/optee_os/lib/libmbedtls/mbedtls/library/bignum.c:539
    57d0:	2a0003f3 	mov	w19, w0
    57d4:	17ffffc2 	b	56dc <mbedtls_mpi_read_string+0xe8>

00000000000057d8 <mbedtls_mpi_div_mpi>:
mbedtls_mpi_div_mpi():
/home/hei/Desktop/optee-qemu/optee_os/lib/libmbedtls/mbedtls/library/bignum.c:1485
    57d8:	a9ad7bfd 	stp	x29, x30, [sp, #-304]!
    57dc:	910003fd 	mov	x29, sp
    57e0:	a90153f3 	stp	x19, x20, [sp, #16]
    57e4:	a9025bf5 	stp	x21, x22, [sp, #32]
    57e8:	a90363f7 	stp	x23, x24, [sp, #48]
    57ec:	aa0103f7 	mov	x23, x1
    57f0:	aa0203f8 	mov	x24, x2
/home/hei/Desktop/optee-qemu/optee_os/lib/libmbedtls/mbedtls/library/bignum.c:1492
    57f4:	52800001 	mov	w1, #0x0                   	// #0
/home/hei/Desktop/optee-qemu/optee_os/lib/libmbedtls/mbedtls/library/bignum.c:1485
    57f8:	a9046bf9 	stp	x25, x26, [sp, #64]
    57fc:	a90573fb 	stp	x27, x28, [sp, #80]
    5800:	aa0003fb 	mov	x27, x0
/home/hei/Desktop/optee-qemu/optee_os/lib/libmbedtls/mbedtls/library/bignum.c:1492
    5804:	aa0303e0 	mov	x0, x3
/home/hei/Desktop/optee-qemu/optee_os/lib/libmbedtls/mbedtls/library/bignum.c:1485
    5808:	fd0033e8 	str	d8, [sp, #96]
    580c:	f90047e3 	str	x3, [sp, #136]
/home/hei/Desktop/optee-qemu/optee_os/lib/libmbedtls/mbedtls/library/bignum.c:1492
    5810:	97fffe23 	bl	509c <mbedtls_mpi_cmp_int>
    5814:	34002740 	cbz	w0, 5cfc <mbedtls_mpi_div_mpi+0x524>
/home/hei/Desktop/optee-qemu/optee_os/lib/libmbedtls/mbedtls/library/bignum.c:1495
    5818:	9102e3f4 	add	x20, sp, #0xb8
    581c:	910343f6 	add	x22, sp, #0xd0
    5820:	aa1403e0 	mov	x0, x20
    5824:	97fffb1c 	bl	4494 <mbedtls_mpi_init_mempool>
    5828:	aa1603e0 	mov	x0, x22
/home/hei/Desktop/optee-qemu/optee_os/lib/libmbedtls/mbedtls/library/bignum.c:1496
    582c:	9103a3fa 	add	x26, sp, #0xe8
/home/hei/Desktop/optee-qemu/optee_os/lib/libmbedtls/mbedtls/library/bignum.c:1495
    5830:	97fffb19 	bl	4494 <mbedtls_mpi_init_mempool>
/home/hei/Desktop/optee-qemu/optee_os/lib/libmbedtls/mbedtls/library/bignum.c:1496
    5834:	910403f5 	add	x21, sp, #0x100
    5838:	aa1a03e0 	mov	x0, x26
    583c:	97fffb16 	bl	4494 <mbedtls_mpi_init_mempool>
    5840:	aa1503e0 	mov	x0, x21
    5844:	97fffb14 	bl	4494 <mbedtls_mpi_init_mempool>
/home/hei/Desktop/optee-qemu/optee_os/lib/libmbedtls/mbedtls/library/bignum.c:1497
    5848:	910463e0 	add	x0, sp, #0x118
    584c:	f9003fe0 	str	x0, [sp, #120]
    5850:	97fffb11 	bl	4494 <mbedtls_mpi_init_mempool>
/home/hei/Desktop/optee-qemu/optee_os/lib/libmbedtls/mbedtls/library/bignum.c:1499
    5854:	f94047e1 	ldr	x1, [sp, #136]
    5858:	aa1803e0 	mov	x0, x24
    585c:	97fffdb3 	bl	4f28 <mbedtls_mpi_cmp_abs>
    5860:	36f80460 	tbz	w0, #31, 58ec <mbedtls_mpi_div_mpi+0x114>
/home/hei/Desktop/optee-qemu/optee_os/lib/libmbedtls/mbedtls/library/bignum.c:1501
    5864:	b500019b 	cbnz	x27, 5894 <mbedtls_mpi_div_mpi+0xbc>
/home/hei/Desktop/optee-qemu/optee_os/lib/libmbedtls/mbedtls/library/bignum.c:1502
    5868:	b5000377 	cbnz	x23, 58d4 <mbedtls_mpi_div_mpi+0xfc>
/home/hei/Desktop/optee-qemu/optee_os/lib/libmbedtls/mbedtls/library/bignum.c:1503
    586c:	52800019 	mov	w25, #0x0                   	// #0
/home/hei/Desktop/optee-qemu/optee_os/lib/libmbedtls/mbedtls/library/bignum.c:1597
    5870:	2a1903e0 	mov	w0, w25
    5874:	fd4033e8 	ldr	d8, [sp, #96]
    5878:	a94153f3 	ldp	x19, x20, [sp, #16]
    587c:	a9425bf5 	ldp	x21, x22, [sp, #32]
    5880:	a94363f7 	ldp	x23, x24, [sp, #48]
    5884:	a9446bf9 	ldp	x25, x26, [sp, #64]
    5888:	a94573fb 	ldp	x27, x28, [sp, #80]
    588c:	a8d37bfd 	ldp	x29, x30, [sp], #304
    5890:	d65f03c0 	ret
/home/hei/Desktop/optee-qemu/optee_os/lib/libmbedtls/mbedtls/library/bignum.c:1501 (discriminator 1)
    5894:	52800001 	mov	w1, #0x0                   	// #0
    5898:	aa1b03e0 	mov	x0, x27
    589c:	97fffc57 	bl	49f8 <mbedtls_mpi_lset>
    58a0:	2a0003f9 	mov	w25, w0
    58a4:	34fffe20 	cbz	w0, 5868 <mbedtls_mpi_div_mpi+0x90>
/home/hei/Desktop/optee-qemu/optee_os/lib/libmbedtls/mbedtls/library/bignum.c:1593
    58a8:	aa1403e0 	mov	x0, x20
    58ac:	97fffb04 	bl	44bc <mbedtls_mpi_free>
    58b0:	aa1603e0 	mov	x0, x22
    58b4:	97fffb02 	bl	44bc <mbedtls_mpi_free>
    58b8:	aa1a03e0 	mov	x0, x26
    58bc:	97fffb00 	bl	44bc <mbedtls_mpi_free>
/home/hei/Desktop/optee-qemu/optee_os/lib/libmbedtls/mbedtls/library/bignum.c:1594
    58c0:	aa1503e0 	mov	x0, x21
    58c4:	97fffafe 	bl	44bc <mbedtls_mpi_free>
    58c8:	f9403fe0 	ldr	x0, [sp, #120]
    58cc:	97fffafc 	bl	44bc <mbedtls_mpi_free>
/home/hei/Desktop/optee-qemu/optee_os/lib/libmbedtls/mbedtls/library/bignum.c:1596
    58d0:	17ffffe8 	b	5870 <mbedtls_mpi_div_mpi+0x98>
/home/hei/Desktop/optee-qemu/optee_os/lib/libmbedtls/mbedtls/library/bignum.c:1502 (discriminator 1)
    58d4:	aa1803e1 	mov	x1, x24
    58d8:	aa1703e0 	mov	x0, x23
    58dc:	97fffb99 	bl	4740 <mbedtls_mpi_copy>
    58e0:	2a0003f9 	mov	w25, w0
    58e4:	35fffe20 	cbnz	w0, 58a8 <mbedtls_mpi_div_mpi+0xd0>
    58e8:	17ffffe1 	b	586c <mbedtls_mpi_div_mpi+0x94>
/home/hei/Desktop/optee-qemu/optee_os/lib/libmbedtls/mbedtls/library/bignum.c:1506
    58ec:	aa1803e1 	mov	x1, x24
    58f0:	aa1403e0 	mov	x0, x20
    58f4:	97fffb93 	bl	4740 <mbedtls_mpi_copy>
    58f8:	2a0003f9 	mov	w25, w0
    58fc:	35fffd60 	cbnz	w0, 58a8 <mbedtls_mpi_div_mpi+0xd0>
/home/hei/Desktop/optee-qemu/optee_os/lib/libmbedtls/mbedtls/library/bignum.c:1507
    5900:	f94047e1 	ldr	x1, [sp, #136]
    5904:	aa1603e0 	mov	x0, x22
    5908:	97fffb8e 	bl	4740 <mbedtls_mpi_copy>
    590c:	2a0003f9 	mov	w25, w0
    5910:	35fffcc0 	cbnz	w0, 58a8 <mbedtls_mpi_div_mpi+0xd0>
/home/hei/Desktop/optee-qemu/optee_os/lib/libmbedtls/mbedtls/library/bignum.c:1510
    5914:	f9400701 	ldr	x1, [x24, #8]
/home/hei/Desktop/optee-qemu/optee_os/lib/libmbedtls/mbedtls/library/bignum.c:1508
    5918:	52800020 	mov	w0, #0x1                   	// #1
    591c:	790173e0 	strh	w0, [sp, #184]
/home/hei/Desktop/optee-qemu/optee_os/lib/libmbedtls/mbedtls/library/bignum.c:1510
    5920:	91000821 	add	x1, x1, #0x2
/home/hei/Desktop/optee-qemu/optee_os/lib/libmbedtls/mbedtls/library/bignum.c:1508
    5924:	7901a3e0 	strh	w0, [sp, #208]
/home/hei/Desktop/optee-qemu/optee_os/lib/libmbedtls/mbedtls/library/bignum.c:1510
    5928:	aa1a03e0 	mov	x0, x26
    592c:	97fffaff 	bl	4528 <mbedtls_mpi_grow>
    5930:	2a0003f9 	mov	w25, w0
    5934:	35fffba0 	cbnz	w0, 58a8 <mbedtls_mpi_div_mpi+0xd0>
/home/hei/Desktop/optee-qemu/optee_os/lib/libmbedtls/mbedtls/library/bignum.c:1511
    5938:	52800001 	mov	w1, #0x0                   	// #0
    593c:	aa1a03e0 	mov	x0, x26
    5940:	97fffc2e 	bl	49f8 <mbedtls_mpi_lset>
    5944:	2a0003f9 	mov	w25, w0
    5948:	35fffb00 	cbnz	w0, 58a8 <mbedtls_mpi_div_mpi+0xd0>
/home/hei/Desktop/optee-qemu/optee_os/lib/libmbedtls/mbedtls/library/bignum.c:1512
    594c:	d2800041 	mov	x1, #0x2                   	// #2
    5950:	aa1503e0 	mov	x0, x21
    5954:	97fffaf5 	bl	4528 <mbedtls_mpi_grow>
    5958:	2a0003f9 	mov	w25, w0
    595c:	35fffa60 	cbnz	w0, 58a8 <mbedtls_mpi_div_mpi+0xd0>
/home/hei/Desktop/optee-qemu/optee_os/lib/libmbedtls/mbedtls/library/bignum.c:1513
    5960:	f9403fe0 	ldr	x0, [sp, #120]
    5964:	d2800061 	mov	x1, #0x3                   	// #3
    5968:	97fffaf0 	bl	4528 <mbedtls_mpi_grow>
    596c:	2a0003f9 	mov	w25, w0
    5970:	35fff9c0 	cbnz	w0, 58a8 <mbedtls_mpi_div_mpi+0xd0>
/home/hei/Desktop/optee-qemu/optee_os/lib/libmbedtls/mbedtls/library/bignum.c:1515
    5974:	aa1603e0 	mov	x0, x22
    5978:	97fffc7d 	bl	4b6c <mbedtls_mpi_bitlen>
    597c:	92401000 	and	x0, x0, #0x1f
/home/hei/Desktop/optee-qemu/optee_os/lib/libmbedtls/mbedtls/library/bignum.c:1516
    5980:	f1007c1f 	cmp	x0, #0x1f
    5984:	54000a00 	b.eq	5ac4 <mbedtls_mpi_div_mpi+0x2ec>  // b.none
/home/hei/Desktop/optee-qemu/optee_os/lib/libmbedtls/mbedtls/library/bignum.c:1518
    5988:	d28003e1 	mov	x1, #0x1f                  	// #31
    598c:	cb000020 	sub	x0, x1, x0
/home/hei/Desktop/optee-qemu/optee_os/lib/libmbedtls/mbedtls/library/bignum.c:1519
    5990:	aa0003e1 	mov	x1, x0
/home/hei/Desktop/optee-qemu/optee_os/lib/libmbedtls/mbedtls/library/bignum.c:1518
    5994:	f90043e0 	str	x0, [sp, #128]
/home/hei/Desktop/optee-qemu/optee_os/lib/libmbedtls/mbedtls/library/bignum.c:1519
    5998:	aa1403e0 	mov	x0, x20
    599c:	97fffcf1 	bl	4d60 <mbedtls_mpi_shift_l>
    59a0:	2a0003f9 	mov	w25, w0
    59a4:	35fff820 	cbnz	w0, 58a8 <mbedtls_mpi_div_mpi+0xd0>
/home/hei/Desktop/optee-qemu/optee_os/lib/libmbedtls/mbedtls/library/bignum.c:1520
    59a8:	f94043e1 	ldr	x1, [sp, #128]
    59ac:	aa1603e0 	mov	x0, x22
    59b0:	97fffcec 	bl	4d60 <mbedtls_mpi_shift_l>
    59b4:	2a0003f9 	mov	w25, w0
    59b8:	35fff780 	cbnz	w0, 58a8 <mbedtls_mpi_div_mpi+0xd0>
/home/hei/Desktop/optee-qemu/optee_os/lib/libmbedtls/mbedtls/library/bignum.c:1524
    59bc:	f94063fc 	ldr	x28, [sp, #192]
/home/hei/Desktop/optee-qemu/optee_os/lib/libmbedtls/mbedtls/library/bignum.c:1525
    59c0:	f9406fe0 	ldr	x0, [sp, #216]
    59c4:	f9004be0 	str	x0, [sp, #144]
/home/hei/Desktop/optee-qemu/optee_os/lib/libmbedtls/mbedtls/library/bignum.c:1526
    59c8:	cb000393 	sub	x19, x28, x0
    59cc:	9e670260 	fmov	d0, x19
    59d0:	aa1603e0 	mov	x0, x22
    59d4:	5f455408 	shl	d8, d0, #5
    59d8:	9e660101 	fmov	x1, d8
    59dc:	97fffce1 	bl	4d60 <mbedtls_mpi_shift_l>
    59e0:	2a0003f9 	mov	w25, w0
    59e4:	35fff620 	cbnz	w0, 58a8 <mbedtls_mpi_div_mpi+0xd0>
/home/hei/Desktop/optee-qemu/optee_os/lib/libmbedtls/mbedtls/library/bignum.c:1530
    59e8:	d37ef673 	lsl	x19, x19, #2
/home/hei/Desktop/optee-qemu/optee_os/lib/libmbedtls/mbedtls/library/bignum.c:1528
    59ec:	aa1603e1 	mov	x1, x22
    59f0:	aa1403e0 	mov	x0, x20
    59f4:	97fffd74 	bl	4fc4 <mbedtls_mpi_cmp_mpi>
    59f8:	36f806a0 	tbz	w0, #31, 5acc <mbedtls_mpi_div_mpi+0x2f4>
/home/hei/Desktop/optee-qemu/optee_os/lib/libmbedtls/mbedtls/library/bignum.c:1533
    59fc:	9e660101 	fmov	x1, d8
    5a00:	aa1603e0 	mov	x0, x22
    5a04:	97fffd17 	bl	4e60 <mbedtls_mpi_shift_r>
    5a08:	2a0003f9 	mov	w25, w0
    5a0c:	35fff4e0 	cbnz	w0, 58a8 <mbedtls_mpi_div_mpi+0xd0>
/home/hei/Desktop/optee-qemu/optee_os/lib/libmbedtls/mbedtls/library/bignum.c:1524
    5a10:	d1000780 	sub	x0, x28, #0x1
    5a14:	f9003be0 	str	x0, [sp, #112]
/home/hei/Desktop/optee-qemu/optee_os/lib/libmbedtls/mbedtls/library/bignum.c:1525
    5a18:	f9404be0 	ldr	x0, [sp, #144]
    5a1c:	d1001273 	sub	x19, x19, #0x4
    5a20:	d1000400 	sub	x0, x0, #0x1
    5a24:	f90053e0 	str	x0, [sp, #160]
/home/hei/Desktop/optee-qemu/optee_os/lib/libmbedtls/mbedtls/library/bignum.c:1537
    5a28:	d37ef400 	lsl	x0, x0, #2
    5a2c:	f9004be0 	str	x0, [sp, #144]
    5a30:	d37ef780 	lsl	x0, x28, #2
    5a34:	d100201c 	sub	x28, x0, #0x8
    5a38:	d1003000 	sub	x0, x0, #0xc
    5a3c:	f9004fe0 	str	x0, [sp, #152]
/home/hei/Desktop/optee-qemu/optee_os/lib/libmbedtls/mbedtls/library/bignum.c:1535 (discriminator 2)
    5a40:	f9403be0 	ldr	x0, [sp, #112]
    5a44:	f94053e1 	ldr	x1, [sp, #160]
    5a48:	eb01001f 	cmp	x0, x1
    5a4c:	54000568 	b.hi	5af8 <mbedtls_mpi_div_mpi+0x320>  // b.pmore
/home/hei/Desktop/optee-qemu/optee_os/lib/libmbedtls/mbedtls/library/bignum.c:1575
    5a50:	b400015b 	cbz	x27, 5a78 <mbedtls_mpi_div_mpi+0x2a0>
/home/hei/Desktop/optee-qemu/optee_os/lib/libmbedtls/mbedtls/library/bignum.c:1577
    5a54:	aa1a03e1 	mov	x1, x26
    5a58:	aa1b03e0 	mov	x0, x27
    5a5c:	97fffb39 	bl	4740 <mbedtls_mpi_copy>
    5a60:	350014a0 	cbnz	w0, 5cf4 <mbedtls_mpi_div_mpi+0x51c>
/home/hei/Desktop/optee-qemu/optee_os/lib/libmbedtls/mbedtls/library/bignum.c:1578
    5a64:	f94047e1 	ldr	x1, [sp, #136]
    5a68:	79400300 	ldrh	w0, [x24]
    5a6c:	79400021 	ldrh	w1, [x1]
    5a70:	1b017c00 	mul	w0, w0, w1
    5a74:	79000360 	strh	w0, [x27]
/home/hei/Desktop/optee-qemu/optee_os/lib/libmbedtls/mbedtls/library/bignum.c:1581
    5a78:	b4fff197 	cbz	x23, 58a8 <mbedtls_mpi_div_mpi+0xd0>
/home/hei/Desktop/optee-qemu/optee_os/lib/libmbedtls/mbedtls/library/bignum.c:1583
    5a7c:	f94043e1 	ldr	x1, [sp, #128]
    5a80:	aa1403e0 	mov	x0, x20
    5a84:	97fffcf7 	bl	4e60 <mbedtls_mpi_shift_r>
    5a88:	35001360 	cbnz	w0, 5cf4 <mbedtls_mpi_div_mpi+0x51c>
/home/hei/Desktop/optee-qemu/optee_os/lib/libmbedtls/mbedtls/library/bignum.c:1584
    5a8c:	79400300 	ldrh	w0, [x24]
/home/hei/Desktop/optee-qemu/optee_os/lib/libmbedtls/mbedtls/library/bignum.c:1585
    5a90:	aa1403e1 	mov	x1, x20
/home/hei/Desktop/optee-qemu/optee_os/lib/libmbedtls/mbedtls/library/bignum.c:1584
    5a94:	790173e0 	strh	w0, [sp, #184]
/home/hei/Desktop/optee-qemu/optee_os/lib/libmbedtls/mbedtls/library/bignum.c:1585
    5a98:	aa1703e0 	mov	x0, x23
    5a9c:	97fffb29 	bl	4740 <mbedtls_mpi_copy>
    5aa0:	350012a0 	cbnz	w0, 5cf4 <mbedtls_mpi_div_mpi+0x51c>
/home/hei/Desktop/optee-qemu/optee_os/lib/libmbedtls/mbedtls/library/bignum.c:1587
    5aa4:	52800001 	mov	w1, #0x0                   	// #0
    5aa8:	aa1703e0 	mov	x0, x23
    5aac:	97fffd7c 	bl	509c <mbedtls_mpi_cmp_int>
    5ab0:	35ffefc0 	cbnz	w0, 58a8 <mbedtls_mpi_div_mpi+0xd0>
/home/hei/Desktop/optee-qemu/optee_os/lib/libmbedtls/mbedtls/library/bignum.c:1588
    5ab4:	52800020 	mov	w0, #0x1                   	// #1
/home/hei/Desktop/optee-qemu/optee_os/lib/libmbedtls/mbedtls/library/bignum.c:1585
    5ab8:	52800019 	mov	w25, #0x0                   	// #0
/home/hei/Desktop/optee-qemu/optee_os/lib/libmbedtls/mbedtls/library/bignum.c:1588
    5abc:	790002e0 	strh	w0, [x23]
    5ac0:	17ffff7a 	b	58a8 <mbedtls_mpi_div_mpi+0xd0>
/home/hei/Desktop/optee-qemu/optee_os/lib/libmbedtls/mbedtls/library/bignum.c:1522
    5ac4:	f90043ff 	str	xzr, [sp, #128]
    5ac8:	17ffffbd 	b	59bc <mbedtls_mpi_div_mpi+0x1e4>
/home/hei/Desktop/optee-qemu/optee_os/lib/libmbedtls/mbedtls/library/bignum.c:1530
    5acc:	f9407fe1 	ldr	x1, [sp, #248]
/home/hei/Desktop/optee-qemu/optee_os/lib/libmbedtls/mbedtls/library/bignum.c:1531
    5ad0:	aa1603e2 	mov	x2, x22
/home/hei/Desktop/optee-qemu/optee_os/lib/libmbedtls/mbedtls/library/bignum.c:1530
    5ad4:	b8736820 	ldr	w0, [x1, x19]
    5ad8:	11000400 	add	w0, w0, #0x1
    5adc:	b8336820 	str	w0, [x1, x19]
/home/hei/Desktop/optee-qemu/optee_os/lib/libmbedtls/mbedtls/library/bignum.c:1531
    5ae0:	aa1403e1 	mov	x1, x20
    5ae4:	aa1403e0 	mov	x0, x20
    5ae8:	97fffe1f 	bl	5364 <mbedtls_mpi_sub_mpi>
    5aec:	2a0003f9 	mov	w25, w0
    5af0:	34fff7e0 	cbz	w0, 59ec <mbedtls_mpi_div_mpi+0x214>
    5af4:	17ffff6d 	b	58a8 <mbedtls_mpi_div_mpi+0xd0>
/home/hei/Desktop/optee-qemu/optee_os/lib/libmbedtls/mbedtls/library/bignum.c:1537
    5af8:	f9403be1 	ldr	x1, [sp, #112]
    5afc:	f9404be3 	ldr	x3, [sp, #144]
    5b00:	f94067e0 	ldr	x0, [sp, #200]
    5b04:	d37ef421 	lsl	x1, x1, #2
    5b08:	f94073e2 	ldr	x2, [sp, #224]
    5b0c:	f90057e1 	str	x1, [sp, #168]
    5b10:	f9407fe5 	ldr	x5, [sp, #248]
    5b14:	b8636842 	ldr	w2, [x2, x3]
    5b18:	b8616801 	ldr	w1, [x0, x1]
    5b1c:	8b1300a4 	add	x4, x5, x19
    5b20:	6b02003f 	cmp	w1, w2
    5b24:	54000c63 	b.cc	5cb0 <mbedtls_mpi_div_mpi+0x4d8>  // b.lo, b.ul, b.last
/home/hei/Desktop/optee-qemu/optee_os/lib/libmbedtls/mbedtls/library/bignum.c:1538
    5b28:	12800000 	mov	w0, #0xffffffff            	// #-1
    5b2c:	b83368a0 	str	w0, [x5, x19]
/home/hei/Desktop/optee-qemu/optee_os/lib/libmbedtls/mbedtls/library/bignum.c:1545
    5b30:	b9400080 	ldr	w0, [x4]
    5b34:	11000400 	add	w0, w0, #0x1
    5b38:	b9000080 	str	w0, [x4]
/home/hei/Desktop/optee-qemu/optee_os/lib/libmbedtls/mbedtls/library/bignum.c:1548
    5b3c:	f9407fe1 	ldr	x1, [sp, #248]
    5b40:	b8736820 	ldr	w0, [x1, x19]
    5b44:	51000400 	sub	w0, w0, #0x1
    5b48:	b8336820 	str	w0, [x1, x19]
/home/hei/Desktop/optee-qemu/optee_os/lib/libmbedtls/mbedtls/library/bignum.c:1550
    5b4c:	52800001 	mov	w1, #0x0                   	// #0
    5b50:	aa1503e0 	mov	x0, x21
    5b54:	97fffba9 	bl	49f8 <mbedtls_mpi_lset>
    5b58:	35000ce0 	cbnz	w0, 5cf4 <mbedtls_mpi_div_mpi+0x51c>
/home/hei/Desktop/optee-qemu/optee_os/lib/libmbedtls/mbedtls/library/bignum.c:1551
    5b5c:	f94053e0 	ldr	x0, [sp, #160]
    5b60:	f94073e1 	ldr	x1, [sp, #224]
    5b64:	b4000c00 	cbz	x0, 5ce4 <mbedtls_mpi_div_mpi+0x50c>
/home/hei/Desktop/optee-qemu/optee_os/lib/libmbedtls/mbedtls/library/bignum.c:1551 (discriminator 1)
    5b68:	f9404be0 	ldr	x0, [sp, #144]
    5b6c:	8b000020 	add	x0, x1, x0
    5b70:	b85fc002 	ldur	w2, [x0, #-4]
/home/hei/Desktop/optee-qemu/optee_os/lib/libmbedtls/mbedtls/library/bignum.c:1551 (discriminator 4)
    5b74:	f9408be0 	ldr	x0, [sp, #272]
    5b78:	b9000002 	str	w2, [x0]
/home/hei/Desktop/optee-qemu/optee_os/lib/libmbedtls/mbedtls/library/bignum.c:1552 (discriminator 4)
    5b7c:	f9404be2 	ldr	x2, [sp, #144]
    5b80:	b8626821 	ldr	w1, [x1, x2]
    5b84:	b9000401 	str	w1, [x0, #4]
/home/hei/Desktop/optee-qemu/optee_os/lib/libmbedtls/mbedtls/library/bignum.c:1553 (discriminator 4)
    5b88:	aa1503e1 	mov	x1, x21
    5b8c:	f9407fe0 	ldr	x0, [sp, #248]
    5b90:	b8736802 	ldr	w2, [x0, x19]
    5b94:	aa1503e0 	mov	x0, x21
    5b98:	97fffe8a 	bl	55c0 <mbedtls_mpi_mul_int>
    5b9c:	35000ac0 	cbnz	w0, 5cf4 <mbedtls_mpi_div_mpi+0x51c>
/home/hei/Desktop/optee-qemu/optee_os/lib/libmbedtls/mbedtls/library/bignum.c:1555
    5ba0:	f9403fe0 	ldr	x0, [sp, #120]
    5ba4:	52800001 	mov	w1, #0x0                   	// #0
    5ba8:	97fffb94 	bl	49f8 <mbedtls_mpi_lset>
    5bac:	35000a40 	cbnz	w0, 5cf4 <mbedtls_mpi_div_mpi+0x51c>
/home/hei/Desktop/optee-qemu/optee_os/lib/libmbedtls/mbedtls/library/bignum.c:1556
    5bb0:	f9403be0 	ldr	x0, [sp, #112]
    5bb4:	f94067e1 	ldr	x1, [sp, #200]
    5bb8:	f100041f 	cmp	x0, #0x1
    5bbc:	54000980 	b.eq	5cec <mbedtls_mpi_div_mpi+0x514>  // b.none
/home/hei/Desktop/optee-qemu/optee_os/lib/libmbedtls/mbedtls/library/bignum.c:1556 (discriminator 1)
    5bc0:	f9404fe0 	ldr	x0, [sp, #152]
    5bc4:	b8606822 	ldr	w2, [x1, x0]
/home/hei/Desktop/optee-qemu/optee_os/lib/libmbedtls/mbedtls/library/bignum.c:1556 (discriminator 4)
    5bc8:	f94097e0 	ldr	x0, [sp, #296]
    5bcc:	b9000002 	str	w2, [x0]
/home/hei/Desktop/optee-qemu/optee_os/lib/libmbedtls/mbedtls/library/bignum.c:1557 (discriminator 4)
    5bd0:	b87c6822 	ldr	w2, [x1, x28]
    5bd4:	b9000402 	str	w2, [x0, #4]
/home/hei/Desktop/optee-qemu/optee_os/lib/libmbedtls/mbedtls/library/bignum.c:1558 (discriminator 4)
    5bd8:	f94057e2 	ldr	x2, [sp, #168]
    5bdc:	b8626821 	ldr	w1, [x1, x2]
    5be0:	b9000801 	str	w1, [x0, #8]
/home/hei/Desktop/optee-qemu/optee_os/lib/libmbedtls/mbedtls/library/bignum.c:1560 (discriminator 4)
    5be4:	aa1503e0 	mov	x0, x21
    5be8:	f9403fe1 	ldr	x1, [sp, #120]
    5bec:	97fffcf6 	bl	4fc4 <mbedtls_mpi_cmp_mpi>
    5bf0:	7100001f 	cmp	w0, #0x0
    5bf4:	54fffa4c 	b.gt	5b3c <mbedtls_mpi_div_mpi+0x364>
/home/hei/Desktop/optee-qemu/optee_os/lib/libmbedtls/mbedtls/library/bignum.c:1562
    5bf8:	f9407fe0 	ldr	x0, [sp, #248]
    5bfc:	aa1603e1 	mov	x1, x22
    5c00:	b8736802 	ldr	w2, [x0, x19]
    5c04:	aa1503e0 	mov	x0, x21
    5c08:	97fffe6e 	bl	55c0 <mbedtls_mpi_mul_int>
    5c0c:	35000740 	cbnz	w0, 5cf4 <mbedtls_mpi_div_mpi+0x51c>
/home/hei/Desktop/optee-qemu/optee_os/lib/libmbedtls/mbedtls/library/bignum.c:1563
    5c10:	d37df260 	lsl	x0, x19, #3
    5c14:	f90057e0 	str	x0, [sp, #168]
    5c18:	aa0003e1 	mov	x1, x0
    5c1c:	aa1503e0 	mov	x0, x21
    5c20:	97fffc50 	bl	4d60 <mbedtls_mpi_shift_l>
    5c24:	35000680 	cbnz	w0, 5cf4 <mbedtls_mpi_div_mpi+0x51c>
/home/hei/Desktop/optee-qemu/optee_os/lib/libmbedtls/mbedtls/library/bignum.c:1564
    5c28:	aa1503e2 	mov	x2, x21
    5c2c:	aa1403e1 	mov	x1, x20
    5c30:	aa1403e0 	mov	x0, x20
    5c34:	97fffdcc 	bl	5364 <mbedtls_mpi_sub_mpi>
    5c38:	350005e0 	cbnz	w0, 5cf4 <mbedtls_mpi_div_mpi+0x51c>
/home/hei/Desktop/optee-qemu/optee_os/lib/libmbedtls/mbedtls/library/bignum.c:1566
    5c3c:	52800001 	mov	w1, #0x0                   	// #0
    5c40:	aa1403e0 	mov	x0, x20
    5c44:	97fffd16 	bl	509c <mbedtls_mpi_cmp_int>
    5c48:	36f80240 	tbz	w0, #31, 5c90 <mbedtls_mpi_div_mpi+0x4b8>
/home/hei/Desktop/optee-qemu/optee_os/lib/libmbedtls/mbedtls/library/bignum.c:1568
    5c4c:	aa1603e1 	mov	x1, x22
    5c50:	aa1503e0 	mov	x0, x21
    5c54:	97fffabb 	bl	4740 <mbedtls_mpi_copy>
    5c58:	350004e0 	cbnz	w0, 5cf4 <mbedtls_mpi_div_mpi+0x51c>
/home/hei/Desktop/optee-qemu/optee_os/lib/libmbedtls/mbedtls/library/bignum.c:1569
    5c5c:	d37df261 	lsl	x1, x19, #3
    5c60:	aa1503e0 	mov	x0, x21
    5c64:	97fffc3f 	bl	4d60 <mbedtls_mpi_shift_l>
    5c68:	35000460 	cbnz	w0, 5cf4 <mbedtls_mpi_div_mpi+0x51c>
/home/hei/Desktop/optee-qemu/optee_os/lib/libmbedtls/mbedtls/library/bignum.c:1570
    5c6c:	aa1503e2 	mov	x2, x21
    5c70:	aa1403e1 	mov	x1, x20
    5c74:	aa1403e0 	mov	x0, x20
    5c78:	97fffd99 	bl	52dc <mbedtls_mpi_add_mpi>
    5c7c:	350003c0 	cbnz	w0, 5cf4 <mbedtls_mpi_div_mpi+0x51c>
/home/hei/Desktop/optee-qemu/optee_os/lib/libmbedtls/mbedtls/library/bignum.c:1571
    5c80:	f9407fe1 	ldr	x1, [sp, #248]
    5c84:	b8736820 	ldr	w0, [x1, x19]
    5c88:	51000400 	sub	w0, w0, #0x1
    5c8c:	b8336820 	str	w0, [x1, x19]
/home/hei/Desktop/optee-qemu/optee_os/lib/libmbedtls/mbedtls/library/bignum.c:1535 (discriminator 2)
    5c90:	f9403be0 	ldr	x0, [sp, #112]
    5c94:	d1001273 	sub	x19, x19, #0x4
    5c98:	d100139c 	sub	x28, x28, #0x4
    5c9c:	d1000400 	sub	x0, x0, #0x1
    5ca0:	f9003be0 	str	x0, [sp, #112]
    5ca4:	f9404fe0 	ldr	x0, [sp, #152]
    5ca8:	d1001000 	sub	x0, x0, #0x4
    5cac:	17ffff64 	b	5a3c <mbedtls_mpi_div_mpi+0x264>
/home/hei/Desktop/optee-qemu/optee_os/lib/libmbedtls/mbedtls/library/bignum.c:1541
    5cb0:	b87c6800 	ldr	w0, [x0, x28]
mbedtls_int_div_int():
/home/hei/Desktop/optee-qemu/optee_os/lib/libmbedtls/mbedtls/library/bignum.c:1404
    5cb4:	34000142 	cbz	w2, 5cdc <mbedtls_mpi_div_mpi+0x504>
/home/hei/Desktop/optee-qemu/optee_os/lib/libmbedtls/mbedtls/library/bignum.c:1413
    5cb8:	2a0003e0 	mov	w0, w0
/home/hei/Desktop/optee-qemu/optee_os/lib/libmbedtls/mbedtls/library/bignum.c:1414
    5cbc:	2a0203e2 	mov	w2, w2
/home/hei/Desktop/optee-qemu/optee_os/lib/libmbedtls/mbedtls/library/bignum.c:1413
    5cc0:	aa018000 	orr	x0, x0, x1, lsl #32
/home/hei/Desktop/optee-qemu/optee_os/lib/libmbedtls/mbedtls/library/bignum.c:1421
    5cc4:	b2407fe1 	mov	x1, #0xffffffff            	// #4294967295
/home/hei/Desktop/optee-qemu/optee_os/lib/libmbedtls/mbedtls/library/bignum.c:1414
    5cc8:	9ac20800 	udiv	x0, x0, x2
/home/hei/Desktop/optee-qemu/optee_os/lib/libmbedtls/mbedtls/library/bignum.c:1421
    5ccc:	eb01001f 	cmp	x0, x1
    5cd0:	9a819000 	csel	x0, x0, x1, ls  // ls = plast
mbedtls_mpi_div_mpi():
/home/hei/Desktop/optee-qemu/optee_os/lib/libmbedtls/mbedtls/library/bignum.c:1541
    5cd4:	b9000080 	str	w0, [x4]
    5cd8:	17ffff96 	b	5b30 <mbedtls_mpi_div_mpi+0x358>
mbedtls_int_div_int():
/home/hei/Desktop/optee-qemu/optee_os/lib/libmbedtls/mbedtls/library/bignum.c:1408
    5cdc:	12800000 	mov	w0, #0xffffffff            	// #-1
    5ce0:	17fffffd 	b	5cd4 <mbedtls_mpi_div_mpi+0x4fc>
mbedtls_mpi_div_mpi():
/home/hei/Desktop/optee-qemu/optee_os/lib/libmbedtls/mbedtls/library/bignum.c:1551
    5ce4:	52800002 	mov	w2, #0x0                   	// #0
    5ce8:	17ffffa3 	b	5b74 <mbedtls_mpi_div_mpi+0x39c>
/home/hei/Desktop/optee-qemu/optee_os/lib/libmbedtls/mbedtls/library/bignum.c:1556
    5cec:	52800002 	mov	w2, #0x0                   	// #0
    5cf0:	17ffffb6 	b	5bc8 <mbedtls_mpi_div_mpi+0x3f0>
    5cf4:	2a0003f9 	mov	w25, w0
    5cf8:	17fffeec 	b	58a8 <mbedtls_mpi_div_mpi+0xd0>
/home/hei/Desktop/optee-qemu/optee_os/lib/libmbedtls/mbedtls/library/bignum.c:1493
    5cfc:	12800179 	mov	w25, #0xfffffff4            	// #-12
    5d00:	17fffedc 	b	5870 <mbedtls_mpi_div_mpi+0x98>

0000000000005d04 <mbedtls_mpi_div_int>:
mbedtls_mpi_div_int():
/home/hei/Desktop/optee-qemu/optee_os/lib/libmbedtls/mbedtls/library/bignum.c:1605
    5d04:	a9bd7bfd 	stp	x29, x30, [sp, #-48]!
/home/hei/Desktop/optee-qemu/optee_os/lib/libmbedtls/mbedtls/library/bignum.c:1610
    5d08:	7100007f 	cmp	w3, #0x0
    5d0c:	5a83a464 	cneg	w4, w3, lt  // lt = tstop
/home/hei/Desktop/optee-qemu/optee_os/lib/libmbedtls/mbedtls/library/bignum.c:1605
    5d10:	910003fd 	mov	x29, sp
/home/hei/Desktop/optee-qemu/optee_os/lib/libmbedtls/mbedtls/library/bignum.c:1610
    5d14:	b90013e4 	str	w4, [sp, #16]
/home/hei/Desktop/optee-qemu/optee_os/lib/libmbedtls/mbedtls/library/bignum.c:1611
    5d18:	52800024 	mov	w4, #0x1                   	// #1
    5d1c:	5a84a484 	cneg	w4, w4, lt  // lt = tstop
/home/hei/Desktop/optee-qemu/optee_os/lib/libmbedtls/mbedtls/library/bignum.c:1612
    5d20:	d2800023 	mov	x3, #0x1                   	// #1
    5d24:	f90013e3 	str	x3, [sp, #32]
/home/hei/Desktop/optee-qemu/optee_os/lib/libmbedtls/mbedtls/library/bignum.c:1613
    5d28:	910043e3 	add	x3, sp, #0x10
/home/hei/Desktop/optee-qemu/optee_os/lib/libmbedtls/mbedtls/library/bignum.c:1611
    5d2c:	790033e4 	strh	w4, [sp, #24]
/home/hei/Desktop/optee-qemu/optee_os/lib/libmbedtls/mbedtls/library/bignum.c:1613
    5d30:	f90017e3 	str	x3, [sp, #40]
/home/hei/Desktop/optee-qemu/optee_os/lib/libmbedtls/mbedtls/library/bignum.c:1615
    5d34:	910063e3 	add	x3, sp, #0x18
    5d38:	97fffea8 	bl	57d8 <mbedtls_mpi_div_mpi>
/home/hei/Desktop/optee-qemu/optee_os/lib/libmbedtls/mbedtls/library/bignum.c:1616
    5d3c:	a8c37bfd 	ldp	x29, x30, [sp], #48
    5d40:	d65f03c0 	ret

0000000000005d44 <mbedtls_mpi_mod_mpi>:
mbedtls_mpi_mod_mpi():
/home/hei/Desktop/optee-qemu/optee_os/lib/libmbedtls/mbedtls/library/bignum.c:1622
    5d44:	a9bd7bfd 	stp	x29, x30, [sp, #-48]!
    5d48:	910003fd 	mov	x29, sp
    5d4c:	a90153f3 	stp	x19, x20, [sp, #16]
    5d50:	aa0003f3 	mov	x19, x0
    5d54:	aa0103f4 	mov	x20, x1
/home/hei/Desktop/optee-qemu/optee_os/lib/libmbedtls/mbedtls/library/bignum.c:1628
    5d58:	aa0203e0 	mov	x0, x2
    5d5c:	52800001 	mov	w1, #0x0                   	// #0
/home/hei/Desktop/optee-qemu/optee_os/lib/libmbedtls/mbedtls/library/bignum.c:1622
    5d60:	f90013f5 	str	x21, [sp, #32]
    5d64:	aa0203f5 	mov	x21, x2
/home/hei/Desktop/optee-qemu/optee_os/lib/libmbedtls/mbedtls/library/bignum.c:1628
    5d68:	97fffccd 	bl	509c <mbedtls_mpi_cmp_int>
    5d6c:	37f80420 	tbnz	w0, #31, 5df0 <mbedtls_mpi_mod_mpi+0xac>
/home/hei/Desktop/optee-qemu/optee_os/lib/libmbedtls/mbedtls/library/bignum.c:1631
    5d70:	aa1403e2 	mov	x2, x20
    5d74:	aa1503e3 	mov	x3, x21
    5d78:	aa1303e1 	mov	x1, x19
    5d7c:	d2800000 	mov	x0, #0x0                   	// #0
    5d80:	97fffe96 	bl	57d8 <mbedtls_mpi_div_mpi>
    5d84:	2a0003f4 	mov	w20, w0
    5d88:	34000160 	cbz	w0, 5db4 <mbedtls_mpi_mod_mpi+0x70>
/home/hei/Desktop/optee-qemu/optee_os/lib/libmbedtls/mbedtls/library/bignum.c:1642
    5d8c:	2a1403e0 	mov	w0, w20
    5d90:	a94153f3 	ldp	x19, x20, [sp, #16]
    5d94:	f94013f5 	ldr	x21, [sp, #32]
    5d98:	a8c37bfd 	ldp	x29, x30, [sp], #48
    5d9c:	d65f03c0 	ret
/home/hei/Desktop/optee-qemu/optee_os/lib/libmbedtls/mbedtls/library/bignum.c:1634
    5da0:	aa1503e2 	mov	x2, x21
    5da4:	aa1303e1 	mov	x1, x19
    5da8:	aa1303e0 	mov	x0, x19
    5dac:	97fffd4c 	bl	52dc <mbedtls_mpi_add_mpi>
    5db0:	350001c0 	cbnz	w0, 5de8 <mbedtls_mpi_mod_mpi+0xa4>
/home/hei/Desktop/optee-qemu/optee_os/lib/libmbedtls/mbedtls/library/bignum.c:1633
    5db4:	52800001 	mov	w1, #0x0                   	// #0
    5db8:	aa1303e0 	mov	x0, x19
    5dbc:	97fffcb8 	bl	509c <mbedtls_mpi_cmp_int>
    5dc0:	37ffff00 	tbnz	w0, #31, 5da0 <mbedtls_mpi_mod_mpi+0x5c>
/home/hei/Desktop/optee-qemu/optee_os/lib/libmbedtls/mbedtls/library/bignum.c:1636
    5dc4:	aa1503e1 	mov	x1, x21
    5dc8:	aa1303e0 	mov	x0, x19
    5dcc:	97fffc7e 	bl	4fc4 <mbedtls_mpi_cmp_mpi>
    5dd0:	37fffde0 	tbnz	w0, #31, 5d8c <mbedtls_mpi_mod_mpi+0x48>
/home/hei/Desktop/optee-qemu/optee_os/lib/libmbedtls/mbedtls/library/bignum.c:1637
    5dd4:	aa1503e2 	mov	x2, x21
    5dd8:	aa1303e1 	mov	x1, x19
    5ddc:	aa1303e0 	mov	x0, x19
    5de0:	97fffd61 	bl	5364 <mbedtls_mpi_sub_mpi>
    5de4:	34ffff00 	cbz	w0, 5dc4 <mbedtls_mpi_mod_mpi+0x80>
    5de8:	2a0003f4 	mov	w20, w0
    5dec:	17ffffe8 	b	5d8c <mbedtls_mpi_mod_mpi+0x48>
/home/hei/Desktop/optee-qemu/optee_os/lib/libmbedtls/mbedtls/library/bignum.c:1629
    5df0:	12800134 	mov	w20, #0xfffffff6            	// #-10
    5df4:	17ffffe6 	b	5d8c <mbedtls_mpi_mod_mpi+0x48>

0000000000005df8 <mbedtls_mpi_mod_int>:
mbedtls_mpi_mod_int():
/home/hei/Desktop/optee-qemu/optee_os/lib/libmbedtls/mbedtls/library/bignum.c:1654
    5df8:	7100005f 	cmp	w2, #0x0
    5dfc:	54000460 	b.eq	5e88 <mbedtls_mpi_mod_int+0x90>  // b.none
/home/hei/Desktop/optee-qemu/optee_os/lib/libmbedtls/mbedtls/library/bignum.c:1657
    5e00:	5400048b 	b.lt	5e90 <mbedtls_mpi_mod_int+0x98>  // b.tstop
/home/hei/Desktop/optee-qemu/optee_os/lib/libmbedtls/mbedtls/library/bignum.c:1663
    5e04:	7100045f 	cmp	w2, #0x1
    5e08:	54000081 	b.ne	5e18 <mbedtls_mpi_mod_int+0x20>  // b.any
/home/hei/Desktop/optee-qemu/optee_os/lib/libmbedtls/mbedtls/library/bignum.c:1665
    5e0c:	b900001f 	str	wzr, [x0]
/home/hei/Desktop/optee-qemu/optee_os/lib/libmbedtls/mbedtls/library/bignum.c:1698
    5e10:	52800000 	mov	w0, #0x0                   	// #0
/home/hei/Desktop/optee-qemu/optee_os/lib/libmbedtls/mbedtls/library/bignum.c:1701
    5e14:	d65f03c0 	ret
/home/hei/Desktop/optee-qemu/optee_os/lib/libmbedtls/mbedtls/library/bignum.c:1669
    5e18:	7100085f 	cmp	w2, #0x2
    5e1c:	540000c1 	b.ne	5e34 <mbedtls_mpi_mod_int+0x3c>  // b.any
/home/hei/Desktop/optee-qemu/optee_os/lib/libmbedtls/mbedtls/library/bignum.c:1671
    5e20:	f9400821 	ldr	x1, [x1, #16]
    5e24:	b9400021 	ldr	w1, [x1]
    5e28:	12000021 	and	w1, w1, #0x1
    5e2c:	b9000001 	str	w1, [x0]
/home/hei/Desktop/optee-qemu/optee_os/lib/libmbedtls/mbedtls/library/bignum.c:1672
    5e30:	17fffff8 	b	5e10 <mbedtls_mpi_mod_int+0x18>
/home/hei/Desktop/optee-qemu/optee_os/lib/libmbedtls/mbedtls/library/bignum.c:1678
    5e34:	f9400425 	ldr	x5, [x1, #8]
    5e38:	52800003 	mov	w3, #0x0                   	// #0
    5e3c:	d10004a5 	sub	x5, x5, #0x1
    5e40:	b10004bf 	cmn	x5, #0x1
    5e44:	540000e1 	b.ne	5e60 <mbedtls_mpi_mod_int+0x68>  // b.any
/home/hei/Desktop/optee-qemu/optee_os/lib/libmbedtls/mbedtls/library/bignum.c:1695
    5e48:	79c00021 	ldrsh	w1, [x1]
    5e4c:	36f80061 	tbz	w1, #31, 5e58 <mbedtls_mpi_mod_int+0x60>
    5e50:	34000043 	cbz	w3, 5e58 <mbedtls_mpi_mod_int+0x60>
/home/hei/Desktop/optee-qemu/optee_os/lib/libmbedtls/mbedtls/library/bignum.c:1696
    5e54:	4b030043 	sub	w3, w2, w3
/home/hei/Desktop/optee-qemu/optee_os/lib/libmbedtls/mbedtls/library/bignum.c:1698
    5e58:	b9000003 	str	w3, [x0]
    5e5c:	17ffffed 	b	5e10 <mbedtls_mpi_mod_int+0x18>
/home/hei/Desktop/optee-qemu/optee_os/lib/libmbedtls/mbedtls/library/bignum.c:1680
    5e60:	f9400824 	ldr	x4, [x1, #16]
    5e64:	b8657886 	ldr	w6, [x4, x5, lsl #2]
/home/hei/Desktop/optee-qemu/optee_os/lib/libmbedtls/mbedtls/library/bignum.c:1681
    5e68:	13864063 	extr	w3, w3, w6, #16
/home/hei/Desktop/optee-qemu/optee_os/lib/libmbedtls/mbedtls/library/bignum.c:1686
    5e6c:	1ac20864 	udiv	w4, w3, w2
    5e70:	1b028c83 	msub	w3, w4, w2, w3
    5e74:	12003cc4 	and	w4, w6, #0xffff
    5e78:	2a034084 	orr	w4, w4, w3, lsl #16
    5e7c:	1ac20883 	udiv	w3, w4, w2
    5e80:	1b029063 	msub	w3, w3, w2, w4
    5e84:	17ffffee 	b	5e3c <mbedtls_mpi_mod_int+0x44>
/home/hei/Desktop/optee-qemu/optee_os/lib/libmbedtls/mbedtls/library/bignum.c:1655
    5e88:	12800160 	mov	w0, #0xfffffff4            	// #-12
    5e8c:	17ffffe2 	b	5e14 <mbedtls_mpi_mod_int+0x1c>
/home/hei/Desktop/optee-qemu/optee_os/lib/libmbedtls/mbedtls/library/bignum.c:1658
    5e90:	12800120 	mov	w0, #0xfffffff6            	// #-10
    5e94:	17ffffe0 	b	5e14 <mbedtls_mpi_mod_int+0x1c>

0000000000005e98 <mpi_write_hlp>:
mpi_write_hlp():
/home/hei/Desktop/optee-qemu/optee_os/lib/libmbedtls/mbedtls/library/bignum.c:580
    5e98:	a9bc7bfd 	stp	x29, x30, [sp, #-64]!
/home/hei/Desktop/optee-qemu/optee_os/lib/libmbedtls/mbedtls/library/bignum.c:584
    5e9c:	51000823 	sub	w3, w1, #0x2
    5ea0:	7100387f 	cmp	w3, #0xe
/home/hei/Desktop/optee-qemu/optee_os/lib/libmbedtls/mbedtls/library/bignum.c:580
    5ea4:	910003fd 	mov	x29, sp
    5ea8:	a90153f3 	stp	x19, x20, [sp, #16]
    5eac:	a9025bf5 	stp	x21, x22, [sp, #32]
/home/hei/Desktop/optee-qemu/optee_os/lib/libmbedtls/mbedtls/library/bignum.c:584
    5eb0:	540005a8 	b.hi	5f64 <mpi_write_hlp+0xcc>  // b.pmore
    5eb4:	aa0203f5 	mov	x21, x2
    5eb8:	2a0103f6 	mov	w22, w1
/home/hei/Desktop/optee-qemu/optee_os/lib/libmbedtls/mbedtls/library/bignum.c:587
    5ebc:	2a0103e2 	mov	w2, w1
    5ec0:	aa0003f3 	mov	x19, x0
    5ec4:	aa0003e1 	mov	x1, x0
    5ec8:	9100f3e0 	add	x0, sp, #0x3c
    5ecc:	97ffffcb 	bl	5df8 <mbedtls_mpi_mod_int>
    5ed0:	2a0003f4 	mov	w20, w0
    5ed4:	350003e0 	cbnz	w0, 5f50 <mpi_write_hlp+0xb8>
/home/hei/Desktop/optee-qemu/optee_os/lib/libmbedtls/mbedtls/library/bignum.c:588
    5ed8:	2a1603e3 	mov	w3, w22
    5edc:	aa1303e2 	mov	x2, x19
    5ee0:	d2800001 	mov	x1, #0x0                   	// #0
    5ee4:	aa1303e0 	mov	x0, x19
    5ee8:	97ffff87 	bl	5d04 <mbedtls_mpi_div_int>
    5eec:	2a0003f4 	mov	w20, w0
    5ef0:	35000300 	cbnz	w0, 5f50 <mpi_write_hlp+0xb8>
/home/hei/Desktop/optee-qemu/optee_os/lib/libmbedtls/mbedtls/library/bignum.c:590
    5ef4:	52800001 	mov	w1, #0x0                   	// #0
    5ef8:	aa1303e0 	mov	x0, x19
    5efc:	97fffc68 	bl	509c <mbedtls_mpi_cmp_int>
    5f00:	35000140 	cbnz	w0, 5f28 <mpi_write_hlp+0x90>
/home/hei/Desktop/optee-qemu/optee_os/lib/libmbedtls/mbedtls/library/bignum.c:593
    5f04:	f94002a1 	ldr	x1, [x21]
    5f08:	b9403fe3 	ldr	w3, [sp, #60]
    5f0c:	91000422 	add	x2, x1, #0x1
    5f10:	12001c60 	and	w0, w3, #0xff
    5f14:	7100247f 	cmp	w3, #0x9
    5f18:	54000169 	b.ls	5f44 <mpi_write_hlp+0xac>  // b.plast
/home/hei/Desktop/optee-qemu/optee_os/lib/libmbedtls/mbedtls/library/bignum.c:596
    5f1c:	1100dc00 	add	w0, w0, #0x37
    5f20:	f90002a2 	str	x2, [x21]
    5f24:	1400000a 	b	5f4c <mpi_write_hlp+0xb4>
/home/hei/Desktop/optee-qemu/optee_os/lib/libmbedtls/mbedtls/library/bignum.c:591
    5f28:	aa1503e2 	mov	x2, x21
    5f2c:	2a1603e1 	mov	w1, w22
    5f30:	aa1303e0 	mov	x0, x19
    5f34:	97ffffd9 	bl	5e98 <mpi_write_hlp>
    5f38:	34fffe60 	cbz	w0, 5f04 <mpi_write_hlp+0x6c>
    5f3c:	2a0003f4 	mov	w20, w0
    5f40:	14000004 	b	5f50 <mpi_write_hlp+0xb8>
/home/hei/Desktop/optee-qemu/optee_os/lib/libmbedtls/mbedtls/library/bignum.c:594
    5f44:	1100c000 	add	w0, w0, #0x30
    5f48:	f90002a2 	str	x2, [x21]
/home/hei/Desktop/optee-qemu/optee_os/lib/libmbedtls/mbedtls/library/bignum.c:596
    5f4c:	39000020 	strb	w0, [x1]
/home/hei/Desktop/optee-qemu/optee_os/lib/libmbedtls/mbedtls/library/bignum.c:601
    5f50:	2a1403e0 	mov	w0, w20
    5f54:	a94153f3 	ldp	x19, x20, [sp, #16]
    5f58:	a9425bf5 	ldp	x21, x22, [sp, #32]
    5f5c:	a8c47bfd 	ldp	x29, x30, [sp], #64
    5f60:	d65f03c0 	ret
/home/hei/Desktop/optee-qemu/optee_os/lib/libmbedtls/mbedtls/library/bignum.c:585
    5f64:	12800074 	mov	w20, #0xfffffffc            	// #-4
    5f68:	17fffffa 	b	5f50 <mpi_write_hlp+0xb8>

0000000000005f6c <mbedtls_mpi_write_string>:
mbedtls_mpi_write_string():
/home/hei/Desktop/optee-qemu/optee_os/lib/libmbedtls/mbedtls/library/bignum.c:608
    5f6c:	a9ba7bfd 	stp	x29, x30, [sp, #-96]!
/home/hei/Desktop/optee-qemu/optee_os/lib/libmbedtls/mbedtls/library/bignum.c:617
    5f70:	51000825 	sub	w5, w1, #0x2
    5f74:	710038bf 	cmp	w5, #0xe
/home/hei/Desktop/optee-qemu/optee_os/lib/libmbedtls/mbedtls/library/bignum.c:608
    5f78:	910003fd 	mov	x29, sp
    5f7c:	a90153f3 	stp	x19, x20, [sp, #16]
    5f80:	a9025bf5 	stp	x21, x22, [sp, #32]
    5f84:	f9001bf7 	str	x23, [sp, #48]
/home/hei/Desktop/optee-qemu/optee_os/lib/libmbedtls/mbedtls/library/bignum.c:617
    5f88:	54000d88 	b.hi	6138 <mbedtls_mpi_write_string+0x1cc>  // b.pmore
    5f8c:	2a0103f4 	mov	w20, w1
/home/hei/Desktop/optee-qemu/optee_os/lib/libmbedtls/mbedtls/library/bignum.c:620
    5f90:	aa0003f3 	mov	x19, x0
    5f94:	aa0403f5 	mov	x21, x4
    5f98:	aa0303f6 	mov	x22, x3
    5f9c:	aa0203f7 	mov	x23, x2
    5fa0:	97fffaf3 	bl	4b6c <mbedtls_mpi_bitlen>
/home/hei/Desktop/optee-qemu/optee_os/lib/libmbedtls/mbedtls/library/bignum.c:621
    5fa4:	71000e9f 	cmp	w20, #0x3
    5fa8:	5400004d 	b.le	5fb0 <mbedtls_mpi_write_string+0x44>
/home/hei/Desktop/optee-qemu/optee_os/lib/libmbedtls/mbedtls/library/bignum.c:621 (discriminator 1)
    5fac:	d341fc00 	lsr	x0, x0, #1
/home/hei/Desktop/optee-qemu/optee_os/lib/libmbedtls/mbedtls/library/bignum.c:622
    5fb0:	7100429f 	cmp	w20, #0x10
    5fb4:	54000041 	b.ne	5fbc <mbedtls_mpi_write_string+0x50>  // b.any
/home/hei/Desktop/optee-qemu/optee_os/lib/libmbedtls/mbedtls/library/bignum.c:622 (discriminator 1)
    5fb8:	d341fc00 	lsr	x0, x0, #1
/home/hei/Desktop/optee-qemu/optee_os/lib/libmbedtls/mbedtls/library/bignum.c:628
    5fbc:	91000401 	add	x1, x0, #0x1
    5fc0:	91000c05 	add	x5, x0, #0x3
    5fc4:	92400021 	and	x1, x1, #0x1
    5fc8:	8b050020 	add	x0, x1, x5
/home/hei/Desktop/optee-qemu/optee_os/lib/libmbedtls/mbedtls/library/bignum.c:630
    5fcc:	eb16001f 	cmp	x0, x22
    5fd0:	54000129 	b.ls	5ff4 <mbedtls_mpi_write_string+0x88>  // b.plast
/home/hei/Desktop/optee-qemu/optee_os/lib/libmbedtls/mbedtls/library/bignum.c:633
    5fd4:	128000f3 	mov	w19, #0xfffffff8            	// #-8
/home/hei/Desktop/optee-qemu/optee_os/lib/libmbedtls/mbedtls/library/bignum.c:632
    5fd8:	f90002a0 	str	x0, [x21]
/home/hei/Desktop/optee-qemu/optee_os/lib/libmbedtls/mbedtls/library/bignum.c:680
    5fdc:	2a1303e0 	mov	w0, w19
    5fe0:	a94153f3 	ldp	x19, x20, [sp, #16]
    5fe4:	a9425bf5 	ldp	x21, x22, [sp, #32]
    5fe8:	f9401bf7 	ldr	x23, [sp, #48]
    5fec:	a8c67bfd 	ldp	x29, x30, [sp], #96
    5ff0:	d65f03c0 	ret
/home/hei/Desktop/optee-qemu/optee_os/lib/libmbedtls/mbedtls/library/bignum.c:637
    5ff4:	910123f6 	add	x22, sp, #0x48
/home/hei/Desktop/optee-qemu/optee_os/lib/libmbedtls/mbedtls/library/bignum.c:636
    5ff8:	f90023f7 	str	x23, [sp, #64]
/home/hei/Desktop/optee-qemu/optee_os/lib/libmbedtls/mbedtls/library/bignum.c:637
    5ffc:	aa1603e0 	mov	x0, x22
    6000:	97fff925 	bl	4494 <mbedtls_mpi_init_mempool>
/home/hei/Desktop/optee-qemu/optee_os/lib/libmbedtls/mbedtls/library/bignum.c:639
    6004:	79c00260 	ldrsh	w0, [x19]
    6008:	3100041f 	cmn	w0, #0x1
    600c:	540000c1 	b.ne	6024 <mbedtls_mpi_write_string+0xb8>  // b.any
/home/hei/Desktop/optee-qemu/optee_os/lib/libmbedtls/mbedtls/library/bignum.c:640
    6010:	f94023e0 	ldr	x0, [sp, #64]
    6014:	91000401 	add	x1, x0, #0x1
    6018:	f90023e1 	str	x1, [sp, #64]
    601c:	528005a1 	mov	w1, #0x2d                  	// #45
    6020:	39000001 	strb	w1, [x0]
/home/hei/Desktop/optee-qemu/optee_os/lib/libmbedtls/mbedtls/library/bignum.c:642
    6024:	7100429f 	cmp	w20, #0x10
    6028:	54000661 	b.ne	60f4 <mbedtls_mpi_write_string+0x188>  // b.any
/home/hei/Desktop/optee-qemu/optee_os/lib/libmbedtls/mbedtls/library/bignum.c:647
    602c:	f9400660 	ldr	x0, [x19, #8]
/home/hei/Desktop/optee-qemu/optee_os/lib/libmbedtls/mbedtls/library/bignum.c:656
    6030:	90000022 	adrp	x2, a000 <__text_end+0x1540>
    6034:	91380442 	add	x2, x2, #0xe01
/home/hei/Desktop/optee-qemu/optee_os/lib/libmbedtls/mbedtls/library/bignum.c:647
    6038:	d2800005 	mov	x5, #0x0                   	// #0
/home/hei/Desktop/optee-qemu/optee_os/lib/libmbedtls/mbedtls/library/bignum.c:647 (discriminator 1)
    603c:	b5000180 	cbnz	x0, 606c <mbedtls_mpi_write_string+0x100>
/home/hei/Desktop/optee-qemu/optee_os/lib/libmbedtls/mbedtls/library/bignum.c:672
    6040:	f94023e0 	ldr	x0, [sp, #64]
/home/hei/Desktop/optee-qemu/optee_os/lib/libmbedtls/mbedtls/library/bignum.c:673
    6044:	52800013 	mov	w19, #0x0                   	// #0
/home/hei/Desktop/optee-qemu/optee_os/lib/libmbedtls/mbedtls/library/bignum.c:672
    6048:	91000401 	add	x1, x0, #0x1
    604c:	f90023e1 	str	x1, [sp, #64]
    6050:	3900001f 	strb	wzr, [x0]
/home/hei/Desktop/optee-qemu/optee_os/lib/libmbedtls/mbedtls/library/bignum.c:673
    6054:	f94023e2 	ldr	x2, [sp, #64]
    6058:	cb170057 	sub	x23, x2, x23
    605c:	f90002b7 	str	x23, [x21]
/home/hei/Desktop/optee-qemu/optee_os/lib/libmbedtls/mbedtls/library/bignum.c:677
    6060:	aa1603e0 	mov	x0, x22
    6064:	97fff916 	bl	44bc <mbedtls_mpi_free>
/home/hei/Desktop/optee-qemu/optee_os/lib/libmbedtls/mbedtls/library/bignum.c:679
    6068:	17ffffdd 	b	5fdc <mbedtls_mpi_write_string+0x70>
/home/hei/Desktop/optee-qemu/optee_os/lib/libmbedtls/mbedtls/library/bignum.c:651
    606c:	d37ef404 	lsl	x4, x0, #2
/home/hei/Desktop/optee-qemu/optee_os/lib/libmbedtls/mbedtls/library/bignum.c:649
    6070:	d2800081 	mov	x1, #0x4                   	// #4
/home/hei/Desktop/optee-qemu/optee_os/lib/libmbedtls/mbedtls/library/bignum.c:651
    6074:	d1001084 	sub	x4, x4, #0x4
    6078:	f9400a67 	ldr	x7, [x19, #16]
    607c:	531d7023 	lsl	w3, w1, #3
    6080:	51002066 	sub	w6, w3, #0x8
/home/hei/Desktop/optee-qemu/optee_os/lib/libmbedtls/mbedtls/library/bignum.c:653
    6084:	520000a5 	eor	w5, w5, #0x1
/home/hei/Desktop/optee-qemu/optee_os/lib/libmbedtls/mbedtls/library/bignum.c:651
    6088:	b86468e3 	ldr	w3, [x7, x4]
    608c:	1ac62463 	lsr	w3, w3, w6
/home/hei/Desktop/optee-qemu/optee_os/lib/libmbedtls/mbedtls/library/bignum.c:653
    6090:	72001c66 	ands	w6, w3, #0xff
    6094:	1a9f00a5 	csel	w5, w5, wzr, eq  // eq = none
    6098:	34000085 	cbz	w5, 60a8 <mbedtls_mpi_write_string+0x13c>
/home/hei/Desktop/optee-qemu/optee_os/lib/libmbedtls/mbedtls/library/bignum.c:653 (discriminator 1)
    609c:	8b010005 	add	x5, x0, x1
    60a0:	f10008bf 	cmp	x5, #0x2
    60a4:	54000241 	b.ne	60ec <mbedtls_mpi_write_string+0x180>  // b.any
/home/hei/Desktop/optee-qemu/optee_os/lib/libmbedtls/mbedtls/library/bignum.c:656
    60a8:	f94023e7 	ldr	x7, [sp, #64]
/home/hei/Desktop/optee-qemu/optee_os/lib/libmbedtls/mbedtls/library/bignum.c:657
    60ac:	92400c63 	and	x3, x3, #0xf
/home/hei/Desktop/optee-qemu/optee_os/lib/libmbedtls/mbedtls/library/bignum.c:656
    60b0:	910004e5 	add	x5, x7, #0x1
    60b4:	f90023e5 	str	x5, [sp, #64]
    60b8:	d3441cc5 	ubfx	x5, x6, #4, #4
/home/hei/Desktop/optee-qemu/optee_os/lib/libmbedtls/mbedtls/library/bignum.c:657
    60bc:	38636843 	ldrb	w3, [x2, x3]
/home/hei/Desktop/optee-qemu/optee_os/lib/libmbedtls/mbedtls/library/bignum.c:656
    60c0:	38656845 	ldrb	w5, [x2, x5]
    60c4:	390000e5 	strb	w5, [x7]
/home/hei/Desktop/optee-qemu/optee_os/lib/libmbedtls/mbedtls/library/bignum.c:657
    60c8:	f94023e5 	ldr	x5, [sp, #64]
    60cc:	910004a6 	add	x6, x5, #0x1
    60d0:	f90023e6 	str	x6, [sp, #64]
    60d4:	390000a3 	strb	w3, [x5]
/home/hei/Desktop/optee-qemu/optee_os/lib/libmbedtls/mbedtls/library/bignum.c:658
    60d8:	d2800025 	mov	x5, #0x1                   	// #1
/home/hei/Desktop/optee-qemu/optee_os/lib/libmbedtls/mbedtls/library/bignum.c:649 (discriminator 2)
    60dc:	f1000421 	subs	x1, x1, #0x1
    60e0:	54fffcc1 	b.ne	6078 <mbedtls_mpi_write_string+0x10c>  // b.any
/home/hei/Desktop/optee-qemu/optee_os/lib/libmbedtls/mbedtls/library/bignum.c:647 (discriminator 2)
    60e4:	d1000400 	sub	x0, x0, #0x1
    60e8:	17ffffd5 	b	603c <mbedtls_mpi_write_string+0xd0>
    60ec:	d2800005 	mov	x5, #0x0                   	// #0
    60f0:	17fffffb 	b	60dc <mbedtls_mpi_write_string+0x170>
/home/hei/Desktop/optee-qemu/optee_os/lib/libmbedtls/mbedtls/library/bignum.c:664
    60f4:	aa1303e1 	mov	x1, x19
    60f8:	aa1603e0 	mov	x0, x22
    60fc:	97fff991 	bl	4740 <mbedtls_mpi_copy>
    6100:	2a0003f3 	mov	w19, w0
    6104:	35fffae0 	cbnz	w0, 6060 <mbedtls_mpi_write_string+0xf4>
/home/hei/Desktop/optee-qemu/optee_os/lib/libmbedtls/mbedtls/library/bignum.c:666
    6108:	79c093e0 	ldrsh	w0, [sp, #72]
    610c:	3100041f 	cmn	w0, #0x1
    6110:	54000061 	b.ne	611c <mbedtls_mpi_write_string+0x1b0>  // b.any
/home/hei/Desktop/optee-qemu/optee_os/lib/libmbedtls/mbedtls/library/bignum.c:667
    6114:	52800020 	mov	w0, #0x1                   	// #1
    6118:	790093e0 	strh	w0, [sp, #72]
/home/hei/Desktop/optee-qemu/optee_os/lib/libmbedtls/mbedtls/library/bignum.c:669
    611c:	910103e2 	add	x2, sp, #0x40
    6120:	2a1403e1 	mov	w1, w20
    6124:	aa1603e0 	mov	x0, x22
    6128:	97ffff5c 	bl	5e98 <mpi_write_hlp>
    612c:	2a0003f3 	mov	w19, w0
    6130:	34fff880 	cbz	w0, 6040 <mbedtls_mpi_write_string+0xd4>
    6134:	17ffffcb 	b	6060 <mbedtls_mpi_write_string+0xf4>
/home/hei/Desktop/optee-qemu/optee_os/lib/libmbedtls/mbedtls/library/bignum.c:618
    6138:	12800073 	mov	w19, #0xfffffffc            	// #-4
    613c:	17ffffa8 	b	5fdc <mbedtls_mpi_write_string+0x70>

0000000000006140 <mpi_check_small_factors>:
mpi_check_small_factors():
/home/hei/Desktop/optee-qemu/optee_os/lib/libmbedtls/mbedtls/library/bignum.c:2233
    6140:	f9400801 	ldr	x1, [x0, #16]
    6144:	b9400021 	ldr	w1, [x1]
    6148:	36000441 	tbz	w1, #0, 61d0 <mpi_check_small_factors+0x90>
/home/hei/Desktop/optee-qemu/optee_os/lib/libmbedtls/mbedtls/library/bignum.c:2228
    614c:	a9bc7bfd 	stp	x29, x30, [sp, #-64]!
    6150:	910003fd 	mov	x29, sp
    6154:	a90153f3 	stp	x19, x20, [sp, #16]
    6158:	90000033 	adrp	x19, a000 <__text_end+0x1540>
    615c:	aa0003f4 	mov	x20, x0
    6160:	91183273 	add	x19, x19, #0x60c
    6164:	a9025bf5 	stp	x21, x22, [sp, #32]
/home/hei/Desktop/optee-qemu/optee_os/lib/libmbedtls/mbedtls/library/bignum.c:2241
    6168:	9100f3f6 	add	x22, sp, #0x3c
/home/hei/Desktop/optee-qemu/optee_os/lib/libmbedtls/mbedtls/library/bignum.c:2236
    616c:	b9400275 	ldr	w21, [x19]
    6170:	710002bf 	cmp	w21, #0x0
    6174:	540000cc 	b.gt	618c <mpi_check_small_factors+0x4c>
    6178:	52800000 	mov	w0, #0x0                   	// #0
/home/hei/Desktop/optee-qemu/optee_os/lib/libmbedtls/mbedtls/library/bignum.c:2249
    617c:	a94153f3 	ldp	x19, x20, [sp, #16]
    6180:	a9425bf5 	ldp	x21, x22, [sp, #32]
    6184:	a8c47bfd 	ldp	x29, x30, [sp], #64
    6188:	d65f03c0 	ret
/home/hei/Desktop/optee-qemu/optee_os/lib/libmbedtls/mbedtls/library/bignum.c:2238
    618c:	2a1503e1 	mov	w1, w21
    6190:	aa1403e0 	mov	x0, x20
    6194:	97fffbc2 	bl	509c <mbedtls_mpi_cmp_int>
    6198:	7100001f 	cmp	w0, #0x0
    619c:	5400016d 	b.le	61c8 <mpi_check_small_factors+0x88>
/home/hei/Desktop/optee-qemu/optee_os/lib/libmbedtls/mbedtls/library/bignum.c:2241
    61a0:	2a1503e2 	mov	w2, w21
    61a4:	aa1403e1 	mov	x1, x20
    61a8:	aa1603e0 	mov	x0, x22
    61ac:	97ffff13 	bl	5df8 <mbedtls_mpi_mod_int>
    61b0:	35fffe60 	cbnz	w0, 617c <mpi_check_small_factors+0x3c>
/home/hei/Desktop/optee-qemu/optee_os/lib/libmbedtls/mbedtls/library/bignum.c:2243
    61b4:	b9403fe0 	ldr	w0, [sp, #60]
    61b8:	91001273 	add	x19, x19, #0x4
    61bc:	35fffd80 	cbnz	w0, 616c <mpi_check_small_factors+0x2c>
/home/hei/Desktop/optee-qemu/optee_os/lib/libmbedtls/mbedtls/library/bignum.c:2244
    61c0:	128001a0 	mov	w0, #0xfffffff2            	// #-14
    61c4:	17ffffee 	b	617c <mpi_check_small_factors+0x3c>
/home/hei/Desktop/optee-qemu/optee_os/lib/libmbedtls/mbedtls/library/bignum.c:2239
    61c8:	52800020 	mov	w0, #0x1                   	// #1
    61cc:	17ffffec 	b	617c <mpi_check_small_factors+0x3c>
/home/hei/Desktop/optee-qemu/optee_os/lib/libmbedtls/mbedtls/library/bignum.c:2234
    61d0:	128001a0 	mov	w0, #0xfffffff2            	// #-14
/home/hei/Desktop/optee-qemu/optee_os/lib/libmbedtls/mbedtls/library/bignum.c:2249
    61d4:	d65f03c0 	ret

00000000000061d8 <mbedtls_mpi_montg_init>:
mbedtls_mpi_montg_init():
/home/hei/Desktop/optee-qemu/optee_os/lib/libmbedtls/mbedtls/library/bignum.c:1708
    61d8:	f9400821 	ldr	x1, [x1, #16]
/home/hei/Desktop/optee-qemu/optee_os/lib/libmbedtls/mbedtls/library/bignum.c:1712
    61dc:	52800062 	mov	w2, #0x3                   	// #3
/home/hei/Desktop/optee-qemu/optee_os/lib/libmbedtls/mbedtls/library/bignum.c:1715
    61e0:	52800045 	mov	w5, #0x2                   	// #2
/home/hei/Desktop/optee-qemu/optee_os/lib/libmbedtls/mbedtls/library/bignum.c:1708
    61e4:	b9400023 	ldr	w3, [x1]
/home/hei/Desktop/optee-qemu/optee_os/lib/libmbedtls/mbedtls/library/bignum.c:1712
    61e8:	11000861 	add	w1, w3, #0x2
    61ec:	531f7821 	lsl	w1, w1, #1
    61f0:	121d0021 	and	w1, w1, #0x8
    61f4:	0b030021 	add	w1, w1, w3
/home/hei/Desktop/optee-qemu/optee_os/lib/libmbedtls/mbedtls/library/bignum.c:1715 (discriminator 3)
    61f8:	1b019464 	msub	w4, w3, w1, w5
/home/hei/Desktop/optee-qemu/optee_os/lib/libmbedtls/mbedtls/library/bignum.c:1714 (discriminator 3)
    61fc:	71000442 	subs	w2, w2, #0x1
/home/hei/Desktop/optee-qemu/optee_os/lib/libmbedtls/mbedtls/library/bignum.c:1715 (discriminator 3)
    6200:	1b047c21 	mul	w1, w1, w4
/home/hei/Desktop/optee-qemu/optee_os/lib/libmbedtls/mbedtls/library/bignum.c:1714 (discriminator 3)
    6204:	54ffffa1 	b.ne	61f8 <mbedtls_mpi_montg_init+0x20>  // b.any
/home/hei/Desktop/optee-qemu/optee_os/lib/libmbedtls/mbedtls/library/bignum.c:1717
    6208:	4b0103e1 	neg	w1, w1
    620c:	b9000001 	str	w1, [x0]
/home/hei/Desktop/optee-qemu/optee_os/lib/libmbedtls/mbedtls/library/bignum.c:1718
    6210:	d65f03c0 	ret

0000000000006214 <mbedtls_mpi_montmul>:
mbedtls_mpi_montmul():
/home/hei/Desktop/optee-qemu/optee_os/lib/libmbedtls/mbedtls/library/bignum.c:1730
    6214:	f9400445 	ldr	x5, [x2, #8]
    6218:	f9400486 	ldr	x6, [x4, #8]
    621c:	910004a5 	add	x5, x5, #0x1
    6220:	eb0500df 	cmp	x6, x5
    6224:	540008e3 	b.cc	6340 <mbedtls_mpi_montmul+0x12c>  // b.lo, b.ul, b.last
/home/hei/Desktop/optee-qemu/optee_os/lib/libmbedtls/mbedtls/library/bignum.c:1730 (discriminator 1)
    6228:	f9400885 	ldr	x5, [x4, #16]
    622c:	b40008a5 	cbz	x5, 6340 <mbedtls_mpi_montmul+0x12c>
/home/hei/Desktop/optee-qemu/optee_os/lib/libmbedtls/mbedtls/library/bignum.c:1726
    6230:	a9bb7bfd 	stp	x29, x30, [sp, #-80]!
    6234:	910003fd 	mov	x29, sp
    6238:	a90153f3 	stp	x19, x20, [sp, #16]
    623c:	aa0203f3 	mov	x19, x2
/home/hei/Desktop/optee-qemu/optee_os/lib/libmbedtls/mbedtls/library/bignum.c:1733
    6240:	d37ef4c2 	lsl	x2, x6, #2
/home/hei/Desktop/optee-qemu/optee_os/lib/libmbedtls/mbedtls/library/bignum.c:1726
    6244:	a90363f7 	stp	x23, x24, [sp, #48]
    6248:	aa0103f8 	mov	x24, x1
    624c:	2a0303f7 	mov	w23, w3
/home/hei/Desktop/optee-qemu/optee_os/lib/libmbedtls/mbedtls/library/bignum.c:1733
    6250:	52800001 	mov	w1, #0x0                   	// #0
/home/hei/Desktop/optee-qemu/optee_os/lib/libmbedtls/mbedtls/library/bignum.c:1726
    6254:	a9025bf5 	stp	x21, x22, [sp, #32]
    6258:	aa0403f6 	mov	x22, x4
    625c:	aa0003f5 	mov	x21, x0
/home/hei/Desktop/optee-qemu/optee_os/lib/libmbedtls/mbedtls/library/bignum.c:1733
    6260:	aa0503e0 	mov	x0, x5
/home/hei/Desktop/optee-qemu/optee_os/lib/libmbedtls/mbedtls/library/bignum.c:1726
    6264:	f90023f9 	str	x25, [sp, #64]
/home/hei/Desktop/optee-qemu/optee_os/lib/libmbedtls/mbedtls/library/bignum.c:1733
    6268:	94000973 	bl	8834 <memset>
/home/hei/Desktop/optee-qemu/optee_os/lib/libmbedtls/mbedtls/library/bignum.c:1736
    626c:	f940066d 	ldr	x13, [x19, #8]
/home/hei/Desktop/optee-qemu/optee_os/lib/libmbedtls/mbedtls/library/bignum.c:1739
    6270:	d2800014 	mov	x20, #0x0                   	// #0
/home/hei/Desktop/optee-qemu/optee_os/lib/libmbedtls/mbedtls/library/bignum.c:1737
    6274:	f9400700 	ldr	x0, [x24, #8]
/home/hei/Desktop/optee-qemu/optee_os/lib/libmbedtls/mbedtls/library/bignum.c:1750
    6278:	910005ac 	add	x12, x13, #0x1
/home/hei/Desktop/optee-qemu/optee_os/lib/libmbedtls/mbedtls/library/bignum.c:1735
    627c:	f9400ad9 	ldr	x25, [x22, #16]
/home/hei/Desktop/optee-qemu/optee_os/lib/libmbedtls/mbedtls/library/bignum.c:1737
    6280:	eb0d001f 	cmp	x0, x13
/home/hei/Desktop/optee-qemu/optee_os/lib/libmbedtls/mbedtls/library/bignum.c:1750
    6284:	d37ef58c 	lsl	x12, x12, #2
/home/hei/Desktop/optee-qemu/optee_os/lib/libmbedtls/mbedtls/library/bignum.c:1737
    6288:	9a8d900f 	csel	x15, x0, x13, ls  // ls = plast
/home/hei/Desktop/optee-qemu/optee_os/lib/libmbedtls/mbedtls/library/bignum.c:1735
    628c:	aa1903eb 	mov	x11, x25
/home/hei/Desktop/optee-qemu/optee_os/lib/libmbedtls/mbedtls/library/bignum.c:1739 (discriminator 1)
    6290:	eb0d029f 	cmp	x20, x13
    6294:	f9400aa0 	ldr	x0, [x21, #16]
    6298:	54000281 	b.ne	62e8 <mbedtls_mpi_montmul+0xd4>  // b.any
/home/hei/Desktop/optee-qemu/optee_os/lib/libmbedtls/mbedtls/library/bignum.c:1753
    629c:	aa0c03e2 	mov	x2, x12
    62a0:	d1001181 	sub	x1, x12, #0x4
    62a4:	8b010321 	add	x1, x25, x1
    62a8:	97ffe81a 	bl	310 <memcpy>
/home/hei/Desktop/optee-qemu/optee_os/lib/libmbedtls/mbedtls/library/bignum.c:1755
    62ac:	aa1303e1 	mov	x1, x19
    62b0:	aa1503e0 	mov	x0, x21
    62b4:	97fffb1d 	bl	4f28 <mbedtls_mpi_cmp_abs>
    62b8:	37f803e0 	tbnz	w0, #31, 6334 <mbedtls_mpi_montmul+0x120>
/home/hei/Desktop/optee-qemu/optee_os/lib/libmbedtls/mbedtls/library/bignum.c:1756
    62bc:	f9400a61 	ldr	x1, [x19, #16]
    62c0:	f9400aa2 	ldr	x2, [x21, #16]
/home/hei/Desktop/optee-qemu/optee_os/lib/libmbedtls/mbedtls/library/bignum.c:1759
    62c4:	aa1403e0 	mov	x0, x20
    62c8:	97fff722 	bl	3f50 <mpi_sub_hlp>
/home/hei/Desktop/optee-qemu/optee_os/lib/libmbedtls/mbedtls/library/bignum.c:1761
    62cc:	52800000 	mov	w0, #0x0                   	// #0
/home/hei/Desktop/optee-qemu/optee_os/lib/libmbedtls/mbedtls/library/bignum.c:1762
    62d0:	a94153f3 	ldp	x19, x20, [sp, #16]
    62d4:	a9425bf5 	ldp	x21, x22, [sp, #32]
    62d8:	a94363f7 	ldp	x23, x24, [sp, #48]
    62dc:	f94023f9 	ldr	x25, [sp, #64]
    62e0:	a8c57bfd 	ldp	x29, x30, [sp], #80
    62e4:	d65f03c0 	ret
/home/hei/Desktop/optee-qemu/optee_os/lib/libmbedtls/mbedtls/library/bignum.c:1745 (discriminator 3)
    62e8:	f9400b01 	ldr	x1, [x24, #16]
/home/hei/Desktop/optee-qemu/optee_os/lib/libmbedtls/mbedtls/library/bignum.c:1747 (discriminator 3)
    62ec:	aa0b03e2 	mov	x2, x11
/home/hei/Desktop/optee-qemu/optee_os/lib/libmbedtls/mbedtls/library/bignum.c:1744 (discriminator 3)
    62f0:	b8747812 	ldr	w18, [x0, x20, lsl #2]
/home/hei/Desktop/optee-qemu/optee_os/lib/libmbedtls/mbedtls/library/bignum.c:1739 (discriminator 3)
    62f4:	91000694 	add	x20, x20, #0x1
/home/hei/Desktop/optee-qemu/optee_os/lib/libmbedtls/mbedtls/library/bignum.c:1745 (discriminator 3)
    62f8:	b9400160 	ldr	w0, [x11]
    62fc:	b940002e 	ldr	w14, [x1]
/home/hei/Desktop/optee-qemu/optee_os/lib/libmbedtls/mbedtls/library/bignum.c:1747 (discriminator 3)
    6300:	2a1203e3 	mov	w3, w18
/home/hei/Desktop/optee-qemu/optee_os/lib/libmbedtls/mbedtls/library/bignum.c:1745 (discriminator 3)
    6304:	1b0e024e 	madd	w14, w18, w14, w0
/home/hei/Desktop/optee-qemu/optee_os/lib/libmbedtls/mbedtls/library/bignum.c:1747 (discriminator 3)
    6308:	aa0f03e0 	mov	x0, x15
/home/hei/Desktop/optee-qemu/optee_os/lib/libmbedtls/mbedtls/library/bignum.c:1745 (discriminator 3)
    630c:	1b177dce 	mul	w14, w14, w23
/home/hei/Desktop/optee-qemu/optee_os/lib/libmbedtls/mbedtls/library/bignum.c:1747 (discriminator 3)
    6310:	97fff728 	bl	3fb0 <mpi_mul_hlp>
/home/hei/Desktop/optee-qemu/optee_os/lib/libmbedtls/mbedtls/library/bignum.c:1748 (discriminator 3)
    6314:	aa0b03e2 	mov	x2, x11
    6318:	f9400a61 	ldr	x1, [x19, #16]
    631c:	2a0e03e3 	mov	w3, w14
    6320:	aa0d03e0 	mov	x0, x13
    6324:	97fff723 	bl	3fb0 <mpi_mul_hlp>
/home/hei/Desktop/optee-qemu/optee_os/lib/libmbedtls/mbedtls/library/bignum.c:1750 (discriminator 3)
    6328:	b8004572 	str	w18, [x11], #4
    632c:	b82c697f 	str	wzr, [x11, x12]
    6330:	17ffffd8 	b	6290 <mbedtls_mpi_montmul+0x7c>
/home/hei/Desktop/optee-qemu/optee_os/lib/libmbedtls/mbedtls/library/bignum.c:1759
    6334:	f9400aa1 	ldr	x1, [x21, #16]
    6338:	f9400ac2 	ldr	x2, [x22, #16]
    633c:	17ffffe2 	b	62c4 <mbedtls_mpi_montmul+0xb0>
/home/hei/Desktop/optee-qemu/optee_os/lib/libmbedtls/mbedtls/library/bignum.c:1731
    6340:	12800060 	mov	w0, #0xfffffffc            	// #-4
/home/hei/Desktop/optee-qemu/optee_os/lib/libmbedtls/mbedtls/library/bignum.c:1762
    6344:	d65f03c0 	ret

0000000000006348 <mbedtls_mpi_montred>:
mbedtls_mpi_montred():
/home/hei/Desktop/optee-qemu/optee_os/lib/libmbedtls/mbedtls/library/bignum.c:1769
    6348:	a9bd7bfd 	stp	x29, x30, [sp, #-48]!
/home/hei/Desktop/optee-qemu/optee_os/lib/libmbedtls/mbedtls/library/bignum.c:1770
    634c:	52800024 	mov	w4, #0x1                   	// #1
/home/hei/Desktop/optee-qemu/optee_os/lib/libmbedtls/mbedtls/library/bignum.c:1769
    6350:	910003fd 	mov	x29, sp
/home/hei/Desktop/optee-qemu/optee_os/lib/libmbedtls/mbedtls/library/bignum.c:1770
    6354:	b90017e4 	str	w4, [sp, #20]
/home/hei/Desktop/optee-qemu/optee_os/lib/libmbedtls/mbedtls/library/bignum.c:1773
    6358:	790033e4 	strh	w4, [sp, #24]
    635c:	d2800024 	mov	x4, #0x1                   	// #1
    6360:	f90013e4 	str	x4, [sp, #32]
/home/hei/Desktop/optee-qemu/optee_os/lib/libmbedtls/mbedtls/library/bignum.c:1774
    6364:	910053e4 	add	x4, sp, #0x14
    6368:	f90017e4 	str	x4, [sp, #40]
/home/hei/Desktop/optee-qemu/optee_os/lib/libmbedtls/mbedtls/library/bignum.c:1776
    636c:	aa0303e4 	mov	x4, x3
    6370:	2a0203e3 	mov	w3, w2
    6374:	aa0103e2 	mov	x2, x1
    6378:	910063e1 	add	x1, sp, #0x18
    637c:	97ffffa6 	bl	6214 <mbedtls_mpi_montmul>
/home/hei/Desktop/optee-qemu/optee_os/lib/libmbedtls/mbedtls/library/bignum.c:1777
    6380:	a8c37bfd 	ldp	x29, x30, [sp], #48
    6384:	d65f03c0 	ret

0000000000006388 <mbedtls_mpi_exp_mod>:
mbedtls_mpi_exp_mod():
/home/hei/Desktop/optee-qemu/optee_os/lib/libmbedtls/mbedtls/library/bignum.c:1785
    6388:	a9b07bfd 	stp	x29, x30, [sp, #-256]!
    638c:	910003fd 	mov	x29, sp
    6390:	a90153f3 	stp	x19, x20, [sp, #16]
    6394:	aa0303f3 	mov	x19, x3
    6398:	a9025bf5 	stp	x21, x22, [sp, #32]
    639c:	aa0003f5 	mov	x21, x0
/home/hei/Desktop/optee-qemu/optee_os/lib/libmbedtls/mbedtls/library/bignum.c:1801
    63a0:	aa0303e0 	mov	x0, x3
/home/hei/Desktop/optee-qemu/optee_os/lib/libmbedtls/mbedtls/library/bignum.c:1785
    63a4:	a90363f7 	stp	x23, x24, [sp, #48]
    63a8:	a9046bf9 	stp	x25, x26, [sp, #64]
    63ac:	aa0103fa 	mov	x26, x1
    63b0:	aa0403f9 	mov	x25, x4
/home/hei/Desktop/optee-qemu/optee_os/lib/libmbedtls/mbedtls/library/bignum.c:1801
    63b4:	52800001 	mov	w1, #0x0                   	// #0
/home/hei/Desktop/optee-qemu/optee_os/lib/libmbedtls/mbedtls/library/bignum.c:1785
    63b8:	a90573fb 	stp	x27, x28, [sp, #80]
    63bc:	aa0203fc 	mov	x28, x2
/home/hei/Desktop/optee-qemu/optee_os/lib/libmbedtls/mbedtls/library/bignum.c:1801
    63c0:	97fffb37 	bl	509c <mbedtls_mpi_cmp_int>
    63c4:	7100001f 	cmp	w0, #0x0
    63c8:	5400014c 	b.gt	63f0 <mbedtls_mpi_exp_mod+0x68>
/home/hei/Desktop/optee-qemu/optee_os/lib/libmbedtls/mbedtls/library/bignum.c:1802
    63cc:	12800062 	mov	w2, #0xfffffffc            	// #-4
/home/hei/Desktop/optee-qemu/optee_os/lib/libmbedtls/mbedtls/library/bignum.c:2005
    63d0:	2a0203e0 	mov	w0, w2
    63d4:	a94153f3 	ldp	x19, x20, [sp, #16]
    63d8:	a9425bf5 	ldp	x21, x22, [sp, #32]
    63dc:	a94363f7 	ldp	x23, x24, [sp, #48]
    63e0:	a9446bf9 	ldp	x25, x26, [sp, #64]
    63e4:	a94573fb 	ldp	x27, x28, [sp, #80]
    63e8:	a8d07bfd 	ldp	x29, x30, [sp], #256
    63ec:	d65f03c0 	ret
/home/hei/Desktop/optee-qemu/optee_os/lib/libmbedtls/mbedtls/library/bignum.c:1801 (discriminator 1)
    63f0:	f9400a60 	ldr	x0, [x19, #16]
    63f4:	b9400000 	ldr	w0, [x0]
    63f8:	12000001 	and	w1, w0, #0x1
    63fc:	b9008fe1 	str	w1, [sp, #140]
    6400:	3607fe60 	tbz	w0, #0, 63cc <mbedtls_mpi_exp_mod+0x44>
/home/hei/Desktop/optee-qemu/optee_os/lib/libmbedtls/mbedtls/library/bignum.c:1804
    6404:	52800001 	mov	w1, #0x0                   	// #0
    6408:	aa1c03e0 	mov	x0, x28
    640c:	97fffb24 	bl	509c <mbedtls_mpi_cmp_int>
    6410:	37fffde0 	tbnz	w0, #31, 63cc <mbedtls_mpi_exp_mod+0x44>
/home/hei/Desktop/optee-qemu/optee_os/lib/libmbedtls/mbedtls/library/bignum.c:1810
    6414:	aa1303e1 	mov	x1, x19
    6418:	9102d3e0 	add	x0, sp, #0xb4
/home/hei/Desktop/optee-qemu/optee_os/lib/libmbedtls/mbedtls/library/bignum.c:1811
    641c:	9102e3f8 	add	x24, sp, #0xb8
/home/hei/Desktop/optee-qemu/optee_os/lib/libmbedtls/mbedtls/library/bignum.c:1810
    6420:	97ffff6e 	bl	61d8 <mbedtls_mpi_montg_init>
/home/hei/Desktop/optee-qemu/optee_os/lib/libmbedtls/mbedtls/library/bignum.c:1811
    6424:	aa1803e0 	mov	x0, x24
    6428:	910343f6 	add	x22, sp, #0xd0
    642c:	97fff81a 	bl	4494 <mbedtls_mpi_init_mempool>
    6430:	aa1603e0 	mov	x0, x22
    6434:	97fff818 	bl	4494 <mbedtls_mpi_init_mempool>
/home/hei/Desktop/optee-qemu/optee_os/lib/libmbedtls/mbedtls/library/bignum.c:1812
    6438:	9103a3e0 	add	x0, sp, #0xe8
    643c:	f9003be0 	str	x0, [sp, #112]
    6440:	97fff815 	bl	4494 <mbedtls_mpi_init_mempool>
/home/hei/Desktop/optee-qemu/optee_os/lib/libmbedtls/mbedtls/library/bignum.c:1814
    6444:	aa1c03e0 	mov	x0, x28
    6448:	97fff9c9 	bl	4b6c <mbedtls_mpi_bitlen>
/home/hei/Desktop/optee-qemu/optee_os/lib/libmbedtls/mbedtls/library/bignum.c:1816
    644c:	f10a7c1f 	cmp	x0, #0x29f
    6450:	540012c8 	b.hi	66a8 <mbedtls_mpi_exp_mod+0x320>  // b.pmore
/home/hei/Desktop/optee-qemu/optee_os/lib/libmbedtls/mbedtls/library/bignum.c:1816 (discriminator 1)
    6454:	f103bc1f 	cmp	x0, #0xef
    6458:	540012c8 	b.hi	66b0 <mbedtls_mpi_exp_mod+0x328>  // b.pmore
/home/hei/Desktop/optee-qemu/optee_os/lib/libmbedtls/mbedtls/library/bignum.c:1816 (discriminator 3)
    645c:	f1013c1f 	cmp	x0, #0x4f
    6460:	540012c8 	b.hi	66b8 <mbedtls_mpi_exp_mod+0x330>  // b.pmore
/home/hei/Desktop/optee-qemu/optee_os/lib/libmbedtls/mbedtls/library/bignum.c:1816 (discriminator 5)
    6464:	f1005c1f 	cmp	x0, #0x17
    6468:	d2800077 	mov	x23, #0x3                   	// #3
    646c:	9a9f86f7 	csinc	x23, x23, xzr, hi  // hi = pmore
/home/hei/Desktop/optee-qemu/optee_os/lib/libmbedtls/mbedtls/library/bignum.c:1822
    6470:	f9400660 	ldr	x0, [x19, #8]
    6474:	91000400 	add	x0, x0, #0x1
    6478:	f9003fe0 	str	x0, [sp, #120]
/home/hei/Desktop/optee-qemu/optee_os/lib/libmbedtls/mbedtls/library/bignum.c:1823
    647c:	aa0003e1 	mov	x1, x0
    6480:	aa1503e0 	mov	x0, x21
    6484:	97fff829 	bl	4528 <mbedtls_mpi_grow>
    6488:	2a0003e2 	mov	w2, w0
    648c:	d0000020 	adrp	x0, c000 <_DYNAMIC>
    6490:	f90053e0 	str	x0, [sp, #160]
    6494:	35002b82 	cbnz	w2, 6a04 <mbedtls_mpi_exp_mod+0x67c>
/home/hei/Desktop/optee-qemu/optee_os/lib/libmbedtls/mbedtls/library/bignum.c:1825
    6498:	f9403fe0 	ldr	x0, [sp, #120]
    649c:	d37ff801 	lsl	x1, x0, #1
    64a0:	aa1603e0 	mov	x0, x22
    64a4:	97fff821 	bl	4528 <mbedtls_mpi_grow>
    64a8:	2a0003e2 	mov	w2, w0
    64ac:	35002ac0 	cbnz	w0, 6a04 <mbedtls_mpi_exp_mod+0x67c>
/home/hei/Desktop/optee-qemu/optee_os/lib/libmbedtls/mbedtls/library/bignum.c:1830
    64b0:	79c00340 	ldrsh	w0, [x26]
    64b4:	b9008be0 	str	w0, [sp, #136]
/home/hei/Desktop/optee-qemu/optee_os/lib/libmbedtls/mbedtls/library/bignum.c:1831
    64b8:	3100041f 	cmn	w0, #0x1
    64bc:	54000121 	b.ne	64e0 <mbedtls_mpi_exp_mod+0x158>  // b.any
/home/hei/Desktop/optee-qemu/optee_os/lib/libmbedtls/mbedtls/library/bignum.c:1833
    64c0:	f9403be0 	ldr	x0, [sp, #112]
    64c4:	aa1a03e1 	mov	x1, x26
    64c8:	97fff89e 	bl	4740 <mbedtls_mpi_copy>
    64cc:	2a0003e2 	mov	w2, w0
    64d0:	350029a0 	cbnz	w0, 6a04 <mbedtls_mpi_exp_mod+0x67c>
/home/hei/Desktop/optee-qemu/optee_os/lib/libmbedtls/mbedtls/library/bignum.c:1835
    64d4:	f9403bfa 	ldr	x26, [sp, #112]
/home/hei/Desktop/optee-qemu/optee_os/lib/libmbedtls/mbedtls/library/bignum.c:1834
    64d8:	52800020 	mov	w0, #0x1                   	// #1
    64dc:	7901d3e0 	strh	w0, [sp, #232]
/home/hei/Desktop/optee-qemu/optee_os/lib/libmbedtls/mbedtls/library/bignum.c:1841
    64e0:	b4000079 	cbz	x25, 64ec <mbedtls_mpi_exp_mod+0x164>
/home/hei/Desktop/optee-qemu/optee_os/lib/libmbedtls/mbedtls/library/bignum.c:1841 (discriminator 1)
    64e4:	f9400b20 	ldr	x0, [x25, #16]
    64e8:	b5000ec0 	cbnz	x0, 66c0 <mbedtls_mpi_exp_mod+0x338>
/home/hei/Desktop/optee-qemu/optee_os/lib/libmbedtls/mbedtls/library/bignum.c:1843
    64ec:	52800021 	mov	w1, #0x1                   	// #1
    64f0:	aa1803e0 	mov	x0, x24
    64f4:	97fff941 	bl	49f8 <mbedtls_mpi_lset>
    64f8:	2a0003e2 	mov	w2, w0
    64fc:	35002840 	cbnz	w0, 6a04 <mbedtls_mpi_exp_mod+0x67c>
/home/hei/Desktop/optee-qemu/optee_os/lib/libmbedtls/mbedtls/library/bignum.c:1844
    6500:	f9400661 	ldr	x1, [x19, #8]
    6504:	aa1803e0 	mov	x0, x24
    6508:	d37ae421 	lsl	x1, x1, #6
    650c:	97fffa15 	bl	4d60 <mbedtls_mpi_shift_l>
    6510:	2a0003e2 	mov	w2, w0
    6514:	35002780 	cbnz	w0, 6a04 <mbedtls_mpi_exp_mod+0x67c>
/home/hei/Desktop/optee-qemu/optee_os/lib/libmbedtls/mbedtls/library/bignum.c:1845
    6518:	aa1303e2 	mov	x2, x19
    651c:	aa1803e1 	mov	x1, x24
    6520:	aa1803e0 	mov	x0, x24
    6524:	97fffe08 	bl	5d44 <mbedtls_mpi_mod_mpi>
    6528:	2a0003e2 	mov	w2, w0
    652c:	350026c0 	cbnz	w0, 6a04 <mbedtls_mpi_exp_mod+0x67c>
/home/hei/Desktop/optee-qemu/optee_os/lib/libmbedtls/mbedtls/library/bignum.c:1847
    6530:	b40000b9 	cbz	x25, 6544 <mbedtls_mpi_exp_mod+0x1bc>
/home/hei/Desktop/optee-qemu/optee_os/lib/libmbedtls/mbedtls/library/bignum.c:1848
    6534:	aa1803e1 	mov	x1, x24
    6538:	aa1903e0 	mov	x0, x25
    653c:	d2800302 	mov	x2, #0x18                  	// #24
/home/hei/Desktop/optee-qemu/optee_os/lib/libmbedtls/mbedtls/library/bignum.c:1851
    6540:	97ffe774 	bl	310 <memcpy>
/home/hei/Desktop/optee-qemu/optee_os/lib/libmbedtls/mbedtls/library/bignum.c:1853
    6544:	d0000020 	adrp	x0, c000 <_DYNAMIC>
    6548:	d2818001 	mov	x1, #0xc00                 	// #3072
    654c:	f940c400 	ldr	x0, [x0, #392]
    6550:	f9400000 	ldr	x0, [x0]
    6554:	940008d9 	bl	88b8 <mempool_alloc>
    6558:	aa0003f4 	mov	x20, x0
/home/hei/Desktop/optee-qemu/optee_os/lib/libmbedtls/mbedtls/library/bignum.c:1855
    655c:	b4002580 	cbz	x0, 6a0c <mbedtls_mpi_exp_mod+0x684>
    6560:	aa1403fb 	mov	x27, x20
    6564:	91300000 	add	x0, x0, #0xc00
    6568:	f90037f4 	str	x20, [sp, #104]
    656c:	f9004be0 	str	x0, [sp, #144]
/home/hei/Desktop/optee-qemu/optee_os/lib/libmbedtls/mbedtls/library/bignum.c:1860 (discriminator 3)
    6570:	aa1b03e0 	mov	x0, x27
    6574:	97fff7c8 	bl	4494 <mbedtls_mpi_init_mempool>
/home/hei/Desktop/optee-qemu/optee_os/lib/libmbedtls/mbedtls/library/bignum.c:1859 (discriminator 3)
    6578:	f9404be0 	ldr	x0, [sp, #144]
    657c:	9100637b 	add	x27, x27, #0x18
    6580:	eb00037f 	cmp	x27, x0
    6584:	54ffff61 	b.ne	6570 <mbedtls_mpi_exp_mod+0x1e8>  // b.any
/home/hei/Desktop/optee-qemu/optee_os/lib/libmbedtls/mbedtls/library/bignum.c:1861
    6588:	f9403fe1 	ldr	x1, [sp, #120]
    658c:	9100629b 	add	x27, x20, #0x18
    6590:	aa1b03e0 	mov	x0, x27
    6594:	97fff7e5 	bl	4528 <mbedtls_mpi_grow>
    6598:	2a0003e2 	mov	w2, w0
    659c:	35001fa0 	cbnz	w0, 6990 <mbedtls_mpi_exp_mod+0x608>
/home/hei/Desktop/optee-qemu/optee_os/lib/libmbedtls/mbedtls/library/bignum.c:1866
    65a0:	aa1303e1 	mov	x1, x19
    65a4:	aa1a03e0 	mov	x0, x26
    65a8:	97fffa87 	bl	4fc4 <mbedtls_mpi_cmp_mpi>
    65ac:	37f80920 	tbnz	w0, #31, 66d0 <mbedtls_mpi_exp_mod+0x348>
/home/hei/Desktop/optee-qemu/optee_os/lib/libmbedtls/mbedtls/library/bignum.c:1867
    65b0:	aa1303e2 	mov	x2, x19
    65b4:	aa1a03e1 	mov	x1, x26
    65b8:	aa1b03e0 	mov	x0, x27
    65bc:	97fffde2 	bl	5d44 <mbedtls_mpi_mod_mpi>
    65c0:	2a0003e2 	mov	w2, w0
    65c4:	35001e60 	cbnz	w0, 6990 <mbedtls_mpi_exp_mod+0x608>
/home/hei/Desktop/optee-qemu/optee_os/lib/libmbedtls/mbedtls/library/bignum.c:1871
    65c8:	b940b7e3 	ldr	w3, [sp, #180]
    65cc:	aa1303e2 	mov	x2, x19
    65d0:	aa1603e4 	mov	x4, x22
    65d4:	aa1803e1 	mov	x1, x24
    65d8:	aa1b03e0 	mov	x0, x27
    65dc:	97ffff0e 	bl	6214 <mbedtls_mpi_montmul>
    65e0:	2a0003e2 	mov	w2, w0
    65e4:	35001d60 	cbnz	w0, 6990 <mbedtls_mpi_exp_mod+0x608>
/home/hei/Desktop/optee-qemu/optee_os/lib/libmbedtls/mbedtls/library/bignum.c:1876
    65e8:	aa1803e1 	mov	x1, x24
    65ec:	aa1503e0 	mov	x0, x21
    65f0:	97fff854 	bl	4740 <mbedtls_mpi_copy>
    65f4:	2a0003e2 	mov	w2, w0
    65f8:	35001cc0 	cbnz	w0, 6990 <mbedtls_mpi_exp_mod+0x608>
/home/hei/Desktop/optee-qemu/optee_os/lib/libmbedtls/mbedtls/library/bignum.c:1877
    65fc:	b940b7e2 	ldr	w2, [sp, #180]
    6600:	aa1603e3 	mov	x3, x22
    6604:	aa1303e1 	mov	x1, x19
    6608:	aa1503e0 	mov	x0, x21
    660c:	97ffff4f 	bl	6348 <mbedtls_mpi_montred>
    6610:	2a0003e2 	mov	w2, w0
    6614:	35001be0 	cbnz	w0, 6990 <mbedtls_mpi_exp_mod+0x608>
/home/hei/Desktop/optee-qemu/optee_os/lib/libmbedtls/mbedtls/library/bignum.c:1879
    6618:	f10006ff 	cmp	x23, #0x1
    661c:	54000621 	b.ne	66e0 <mbedtls_mpi_exp_mod+0x358>  // b.any
/home/hei/Desktop/optee-qemu/optee_os/lib/libmbedtls/mbedtls/library/bignum.c:1904
    6620:	f940079a 	ldr	x26, [x28, #8]
/home/hei/Desktop/optee-qemu/optee_os/lib/libmbedtls/mbedtls/library/bignum.c:1908
    6624:	52800003 	mov	w3, #0x0                   	// #0
/home/hei/Desktop/optee-qemu/optee_os/lib/libmbedtls/mbedtls/library/bignum.c:1906
    6628:	d2800005 	mov	x5, #0x0                   	// #0
/home/hei/Desktop/optee-qemu/optee_os/lib/libmbedtls/mbedtls/library/bignum.c:1905
    662c:	d2800007 	mov	x7, #0x0                   	// #0
/home/hei/Desktop/optee-qemu/optee_os/lib/libmbedtls/mbedtls/library/bignum.c:1907
    6630:	d2800006 	mov	x6, #0x0                   	// #0
/home/hei/Desktop/optee-qemu/optee_os/lib/libmbedtls/mbedtls/library/bignum.c:1912
    6634:	b5000fc7 	cbnz	x7, 682c <mbedtls_mpi_exp_mod+0x4a4>
/home/hei/Desktop/optee-qemu/optee_os/lib/libmbedtls/mbedtls/library/bignum.c:1914
    6638:	b5000f7a 	cbnz	x26, 6824 <mbedtls_mpi_exp_mod+0x49c>
/home/hei/Desktop/optee-qemu/optee_os/lib/libmbedtls/mbedtls/library/bignum.c:1977
    663c:	d2800020 	mov	x0, #0x1                   	// #1
    6640:	9ad72017 	lsl	x23, x0, x23
/home/hei/Desktop/optee-qemu/optee_os/lib/libmbedtls/mbedtls/library/bignum.c:1971 (discriminator 1)
    6644:	eb05035f 	cmp	x26, x5
    6648:	b940b7e2 	ldr	w2, [sp, #180]
    664c:	54001701 	b.ne	692c <mbedtls_mpi_exp_mod+0x5a4>  // b.any
/home/hei/Desktop/optee-qemu/optee_os/lib/libmbedtls/mbedtls/library/bignum.c:1984
    6650:	aa1603e3 	mov	x3, x22
    6654:	aa1303e1 	mov	x1, x19
    6658:	aa1503e0 	mov	x0, x21
    665c:	97ffff3b 	bl	6348 <mbedtls_mpi_montred>
    6660:	2a0003e2 	mov	w2, w0
    6664:	35001960 	cbnz	w0, 6990 <mbedtls_mpi_exp_mod+0x608>
/home/hei/Desktop/optee-qemu/optee_os/lib/libmbedtls/mbedtls/library/bignum.c:1986
    6668:	b9408be0 	ldr	w0, [sp, #136]
    666c:	3100041f 	cmn	w0, #0x1
    6670:	54001901 	b.ne	6990 <mbedtls_mpi_exp_mod+0x608>  // b.any
/home/hei/Desktop/optee-qemu/optee_os/lib/libmbedtls/mbedtls/library/bignum.c:1986 (discriminator 1)
    6674:	f9400780 	ldr	x0, [x28, #8]
    6678:	b40018c0 	cbz	x0, 6990 <mbedtls_mpi_exp_mod+0x608>
/home/hei/Desktop/optee-qemu/optee_os/lib/libmbedtls/mbedtls/library/bignum.c:1986 (discriminator 2)
    667c:	f9400b80 	ldr	x0, [x28, #16]
    6680:	b9400000 	ldr	w0, [x0]
    6684:	36001860 	tbz	w0, #0, 6990 <mbedtls_mpi_exp_mod+0x608>
/home/hei/Desktop/optee-qemu/optee_os/lib/libmbedtls/mbedtls/library/bignum.c:1988
    6688:	794113e0 	ldrh	w0, [sp, #136]
/home/hei/Desktop/optee-qemu/optee_os/lib/libmbedtls/mbedtls/library/bignum.c:1989
    668c:	aa1503e2 	mov	x2, x21
/home/hei/Desktop/optee-qemu/optee_os/lib/libmbedtls/mbedtls/library/bignum.c:1988
    6690:	790002a0 	strh	w0, [x21]
/home/hei/Desktop/optee-qemu/optee_os/lib/libmbedtls/mbedtls/library/bignum.c:1989
    6694:	aa1303e1 	mov	x1, x19
    6698:	aa1503e0 	mov	x0, x21
    669c:	97fffb10 	bl	52dc <mbedtls_mpi_add_mpi>
    66a0:	2a0003e2 	mov	w2, w0
/home/hei/Desktop/optee-qemu/optee_os/lib/libmbedtls/mbedtls/library/bignum.c:1992
    66a4:	140000bb 	b	6990 <mbedtls_mpi_exp_mod+0x608>
/home/hei/Desktop/optee-qemu/optee_os/lib/libmbedtls/mbedtls/library/bignum.c:1816
    66a8:	d28000d7 	mov	x23, #0x6                   	// #6
    66ac:	17ffff71 	b	6470 <mbedtls_mpi_exp_mod+0xe8>
    66b0:	d28000b7 	mov	x23, #0x5                   	// #5
    66b4:	17ffff6f 	b	6470 <mbedtls_mpi_exp_mod+0xe8>
    66b8:	d2800097 	mov	x23, #0x4                   	// #4
    66bc:	17ffff6d 	b	6470 <mbedtls_mpi_exp_mod+0xe8>
/home/hei/Desktop/optee-qemu/optee_os/lib/libmbedtls/mbedtls/library/bignum.c:1851
    66c0:	d2800302 	mov	x2, #0x18                  	// #24
    66c4:	aa1903e1 	mov	x1, x25
    66c8:	aa1803e0 	mov	x0, x24
    66cc:	17ffff9d 	b	6540 <mbedtls_mpi_exp_mod+0x1b8>
/home/hei/Desktop/optee-qemu/optee_os/lib/libmbedtls/mbedtls/library/bignum.c:1869
    66d0:	aa1a03e1 	mov	x1, x26
    66d4:	aa1b03e0 	mov	x0, x27
    66d8:	97fff81a 	bl	4740 <mbedtls_mpi_copy>
    66dc:	17ffffb9 	b	65c0 <mbedtls_mpi_exp_mod+0x238>
/home/hei/Desktop/optee-qemu/optee_os/lib/libmbedtls/mbedtls/library/bignum.c:1884
    66e0:	510006e0 	sub	w0, w23, #0x1
    66e4:	b9007be0 	str	w0, [sp, #120]
/home/hei/Desktop/optee-qemu/optee_os/lib/libmbedtls/mbedtls/library/bignum.c:1886
    66e8:	f9400661 	ldr	x1, [x19, #8]
    66ec:	d280031a 	mov	x26, #0x18                  	// #24
    66f0:	3941e3e0 	ldrb	w0, [sp, #120]
    66f4:	91000421 	add	x1, x1, #0x1
/home/hei/Desktop/optee-qemu/optee_os/lib/libmbedtls/mbedtls/library/bignum.c:1884
    66f8:	b9009bf7 	str	w23, [sp, #152]
/home/hei/Desktop/optee-qemu/optee_os/lib/libmbedtls/mbedtls/library/bignum.c:1886
    66fc:	9ac0235a 	lsl	x26, x26, x0
    6700:	8b1a029a 	add	x26, x20, x26
    6704:	aa1a03e0 	mov	x0, x26
    6708:	97fff788 	bl	4528 <mbedtls_mpi_grow>
    670c:	2a0003e2 	mov	w2, w0
    6710:	35001400 	cbnz	w0, 6990 <mbedtls_mpi_exp_mod+0x608>
/home/hei/Desktop/optee-qemu/optee_os/lib/libmbedtls/mbedtls/library/bignum.c:1887
    6714:	aa1b03e1 	mov	x1, x27
    6718:	aa1a03e0 	mov	x0, x26
    671c:	97fff809 	bl	4740 <mbedtls_mpi_copy>
    6720:	2a0003e2 	mov	w2, w0
    6724:	35001360 	cbnz	w0, 6990 <mbedtls_mpi_exp_mod+0x608>
/home/hei/Desktop/optee-qemu/optee_os/lib/libmbedtls/mbedtls/library/bignum.c:1889
    6728:	d10006e6 	sub	x6, x23, #0x1
    672c:	d2800005 	mov	x5, #0x0                   	// #0
/home/hei/Desktop/optee-qemu/optee_os/lib/libmbedtls/mbedtls/library/bignum.c:1890
    6730:	b940b7e3 	ldr	w3, [sp, #180]
    6734:	aa1303e2 	mov	x2, x19
    6738:	aa1603e4 	mov	x4, x22
    673c:	aa1a03e1 	mov	x1, x26
    6740:	aa1a03e0 	mov	x0, x26
    6744:	f90043e5 	str	x5, [sp, #128]
    6748:	f90057e6 	str	x6, [sp, #168]
    674c:	97fffeb2 	bl	6214 <mbedtls_mpi_montmul>
    6750:	2a0003e2 	mov	w2, w0
    6754:	350011e0 	cbnz	w0, 6990 <mbedtls_mpi_exp_mod+0x608>
/home/hei/Desktop/optee-qemu/optee_os/lib/libmbedtls/mbedtls/library/bignum.c:1889 (discriminator 2)
    6758:	f94043e5 	ldr	x5, [sp, #128]
    675c:	f94057e6 	ldr	x6, [sp, #168]
    6760:	910004a5 	add	x5, x5, #0x1
    6764:	eb0500df 	cmp	x6, x5
    6768:	54fffe48 	b.hi	6730 <mbedtls_mpi_exp_mod+0x3a8>  // b.pmore
/home/hei/Desktop/optee-qemu/optee_os/lib/libmbedtls/mbedtls/library/bignum.c:1884
    676c:	3941e3e1 	ldrb	w1, [sp, #120]
    6770:	d2800020 	mov	x0, #0x1                   	// #1
    6774:	d2800303 	mov	x3, #0x18                  	// #24
    6778:	9ac12001 	lsl	x1, x0, x1
/home/hei/Desktop/optee-qemu/optee_os/lib/libmbedtls/mbedtls/library/bignum.c:1895
    677c:	8b000021 	add	x1, x1, x0
    6780:	f90043e1 	str	x1, [sp, #128]
    6784:	394263e1 	ldrb	w1, [sp, #152]
    6788:	9ac12000 	lsl	x0, x0, x1
    678c:	f9004fe0 	str	x0, [sp, #152]
    6790:	3941e3e0 	ldrb	w0, [sp, #120]
    6794:	9ac02063 	lsl	x3, x3, x0
    6798:	8b030283 	add	x3, x20, x3
/home/hei/Desktop/optee-qemu/optee_os/lib/libmbedtls/mbedtls/library/bignum.c:1895 (discriminator 1)
    679c:	f94043e1 	ldr	x1, [sp, #128]
    67a0:	f9404fe0 	ldr	x0, [sp, #152]
    67a4:	eb01001f 	cmp	x0, x1
    67a8:	54fff3c9 	b.ls	6620 <mbedtls_mpi_exp_mod+0x298>  // b.plast
/home/hei/Desktop/optee-qemu/optee_os/lib/libmbedtls/mbedtls/library/bignum.c:1897
    67ac:	f9400661 	ldr	x1, [x19, #8]
    67b0:	9100607a 	add	x26, x3, #0x18
    67b4:	aa1a03e0 	mov	x0, x26
    67b8:	f9003fe3 	str	x3, [sp, #120]
    67bc:	91000421 	add	x1, x1, #0x1
    67c0:	97fff75a 	bl	4528 <mbedtls_mpi_grow>
    67c4:	2a0003e2 	mov	w2, w0
    67c8:	35000e40 	cbnz	w0, 6990 <mbedtls_mpi_exp_mod+0x608>
/home/hei/Desktop/optee-qemu/optee_os/lib/libmbedtls/mbedtls/library/bignum.c:1898
    67cc:	f9403fe3 	ldr	x3, [sp, #120]
    67d0:	aa1a03e0 	mov	x0, x26
    67d4:	aa0303e1 	mov	x1, x3
    67d8:	97fff7da 	bl	4740 <mbedtls_mpi_copy>
    67dc:	2a0003e2 	mov	w2, w0
    67e0:	35000d80 	cbnz	w0, 6990 <mbedtls_mpi_exp_mod+0x608>
/home/hei/Desktop/optee-qemu/optee_os/lib/libmbedtls/mbedtls/library/bignum.c:1900
    67e4:	b940b7e3 	ldr	w3, [sp, #180]
    67e8:	aa1303e2 	mov	x2, x19
    67ec:	aa1603e4 	mov	x4, x22
    67f0:	aa1b03e1 	mov	x1, x27
    67f4:	aa1a03e0 	mov	x0, x26
    67f8:	97fffe87 	bl	6214 <mbedtls_mpi_montmul>
    67fc:	2a0003e2 	mov	w2, w0
    6800:	35000c80 	cbnz	w0, 6990 <mbedtls_mpi_exp_mod+0x608>
/home/hei/Desktop/optee-qemu/optee_os/lib/libmbedtls/mbedtls/library/bignum.c:1895 (discriminator 2)
    6804:	f94043e0 	ldr	x0, [sp, #128]
    6808:	aa1a03e3 	mov	x3, x26
    680c:	91000400 	add	x0, x0, #0x1
    6810:	f90043e0 	str	x0, [sp, #128]
    6814:	17ffffe2 	b	679c <mbedtls_mpi_exp_mod+0x414>
/home/hei/Desktop/optee-qemu/optee_os/lib/libmbedtls/mbedtls/library/bignum.c:1944
    6818:	52800040 	mov	w0, #0x2                   	// #2
/home/hei/Desktop/optee-qemu/optee_os/lib/libmbedtls/mbedtls/library/bignum.c:1964
    681c:	2a0003e3 	mov	w3, w0
    6820:	17ffff85 	b	6634 <mbedtls_mpi_exp_mod+0x2ac>
/home/hei/Desktop/optee-qemu/optee_os/lib/libmbedtls/mbedtls/library/bignum.c:1917
    6824:	d100075a 	sub	x26, x26, #0x1
/home/hei/Desktop/optee-qemu/optee_os/lib/libmbedtls/mbedtls/library/bignum.c:1919
    6828:	d2800407 	mov	x7, #0x20                  	// #32
/home/hei/Desktop/optee-qemu/optee_os/lib/libmbedtls/mbedtls/library/bignum.c:1924
    682c:	f9400b80 	ldr	x0, [x28, #16]
/home/hei/Desktop/optee-qemu/optee_os/lib/libmbedtls/mbedtls/library/bignum.c:1922
    6830:	d10004e7 	sub	x7, x7, #0x1
/home/hei/Desktop/optee-qemu/optee_os/lib/libmbedtls/mbedtls/library/bignum.c:1924
    6834:	b87a7802 	ldr	w2, [x0, x26, lsl #2]
    6838:	1ac72442 	lsr	w2, w2, w7
    683c:	12000041 	and	w1, w2, #0x1
/home/hei/Desktop/optee-qemu/optee_os/lib/libmbedtls/mbedtls/library/bignum.c:1929
    6840:	2a010060 	orr	w0, w3, w1
    6844:	34fffec0 	cbz	w0, 681c <mbedtls_mpi_exp_mod+0x494>
/home/hei/Desktop/optee-qemu/optee_os/lib/libmbedtls/mbedtls/library/bignum.c:1932
    6848:	7100047f 	cmp	w3, #0x1
    684c:	1a9f17e0 	cset	w0, eq  // eq = none
    6850:	6a22001f 	bics	wzr, w0, w2
    6854:	540001e0 	b.eq	6890 <mbedtls_mpi_exp_mod+0x508>  // b.none
/home/hei/Desktop/optee-qemu/optee_os/lib/libmbedtls/mbedtls/library/bignum.c:1937
    6858:	b940b7e3 	ldr	w3, [sp, #180]
    685c:	aa1303e2 	mov	x2, x19
    6860:	aa1603e4 	mov	x4, x22
    6864:	aa1503e1 	mov	x1, x21
    6868:	aa1503e0 	mov	x0, x21
    686c:	a9079fe6 	stp	x6, x7, [sp, #120]
    6870:	f9004fe5 	str	x5, [sp, #152]
    6874:	97fffe68 	bl	6214 <mbedtls_mpi_montmul>
    6878:	2a0003e2 	mov	w2, w0
    687c:	350008a0 	cbnz	w0, 6990 <mbedtls_mpi_exp_mod+0x608>
    6880:	b9408fe0 	ldr	w0, [sp, #140]
    6884:	a9479fe6 	ldp	x6, x7, [sp, #120]
    6888:	f9404fe5 	ldr	x5, [sp, #152]
    688c:	17ffffe4 	b	681c <mbedtls_mpi_exp_mod+0x494>
/home/hei/Desktop/optee-qemu/optee_os/lib/libmbedtls/mbedtls/library/bignum.c:1946
    6890:	910004a5 	add	x5, x5, #0x1
/home/hei/Desktop/optee-qemu/optee_os/lib/libmbedtls/mbedtls/library/bignum.c:1947
    6894:	4b0502e0 	sub	w0, w23, w5
/home/hei/Desktop/optee-qemu/optee_os/lib/libmbedtls/mbedtls/library/bignum.c:1949
    6898:	eb0502ff 	cmp	x23, x5
/home/hei/Desktop/optee-qemu/optee_os/lib/libmbedtls/mbedtls/library/bignum.c:1947
    689c:	1ac02021 	lsl	w1, w1, w0
    68a0:	aa0100c6 	orr	x6, x6, x1
/home/hei/Desktop/optee-qemu/optee_os/lib/libmbedtls/mbedtls/library/bignum.c:1949
    68a4:	54fffba1 	b.ne	6818 <mbedtls_mpi_exp_mod+0x490>  // b.any
/home/hei/Desktop/optee-qemu/optee_os/lib/libmbedtls/mbedtls/library/bignum.c:1954
    68a8:	d2800008 	mov	x8, #0x0                   	// #0
/home/hei/Desktop/optee-qemu/optee_os/lib/libmbedtls/mbedtls/library/bignum.c:1955
    68ac:	b940b7e3 	ldr	w3, [sp, #180]
    68b0:	aa1303e2 	mov	x2, x19
    68b4:	aa1603e4 	mov	x4, x22
    68b8:	aa1503e1 	mov	x1, x21
    68bc:	aa1503e0 	mov	x0, x21
    68c0:	a9079fe6 	stp	x6, x7, [sp, #120]
    68c4:	f9004fe5 	str	x5, [sp, #152]
    68c8:	f90057e8 	str	x8, [sp, #168]
    68cc:	97fffe52 	bl	6214 <mbedtls_mpi_montmul>
    68d0:	2a0003e2 	mov	w2, w0
    68d4:	350005e0 	cbnz	w0, 6990 <mbedtls_mpi_exp_mod+0x608>
/home/hei/Desktop/optee-qemu/optee_os/lib/libmbedtls/mbedtls/library/bignum.c:1954 (discriminator 2)
    68d8:	f94057e8 	ldr	x8, [sp, #168]
    68dc:	f9404fe5 	ldr	x5, [sp, #152]
    68e0:	91000508 	add	x8, x8, #0x1
    68e4:	a9479fe6 	ldp	x6, x7, [sp, #120]
    68e8:	eb0800bf 	cmp	x5, x8
    68ec:	54fffe08 	b.hi	68ac <mbedtls_mpi_exp_mod+0x524>  // b.pmore
/home/hei/Desktop/optee-qemu/optee_os/lib/libmbedtls/mbedtls/library/bignum.c:1960
    68f0:	d2800300 	mov	x0, #0x18                  	// #24
    68f4:	b940b7e3 	ldr	w3, [sp, #180]
    68f8:	aa1303e2 	mov	x2, x19
    68fc:	aa1603e4 	mov	x4, x22
    6900:	9b0050c1 	madd	x1, x6, x0, x20
    6904:	aa1503e0 	mov	x0, x21
    6908:	f9003fe7 	str	x7, [sp, #120]
    690c:	97fffe42 	bl	6214 <mbedtls_mpi_montmul>
    6910:	2a0003e2 	mov	w2, w0
    6914:	350003e0 	cbnz	w0, 6990 <mbedtls_mpi_exp_mod+0x608>
/home/hei/Desktop/optee-qemu/optee_os/lib/libmbedtls/mbedtls/library/bignum.c:1963
    6918:	d2800005 	mov	x5, #0x0                   	// #0
/home/hei/Desktop/optee-qemu/optee_os/lib/libmbedtls/mbedtls/library/bignum.c:1964
    691c:	d2800006 	mov	x6, #0x0                   	// #0
/home/hei/Desktop/optee-qemu/optee_os/lib/libmbedtls/mbedtls/library/bignum.c:1962
    6920:	b9408fe0 	ldr	w0, [sp, #140]
    6924:	f9403fe7 	ldr	x7, [sp, #120]
    6928:	17ffffbd 	b	681c <mbedtls_mpi_exp_mod+0x494>
/home/hei/Desktop/optee-qemu/optee_os/lib/libmbedtls/mbedtls/library/bignum.c:1973
    692c:	2a0203e3 	mov	w3, w2
    6930:	aa1303e2 	mov	x2, x19
    6934:	aa1603e4 	mov	x4, x22
    6938:	aa1503e1 	mov	x1, x21
    693c:	aa1503e0 	mov	x0, x21
    6940:	a90797e6 	stp	x6, x5, [sp, #120]
    6944:	97fffe34 	bl	6214 <mbedtls_mpi_montmul>
    6948:	2a0003e2 	mov	w2, w0
    694c:	35000220 	cbnz	w0, 6990 <mbedtls_mpi_exp_mod+0x608>
/home/hei/Desktop/optee-qemu/optee_os/lib/libmbedtls/mbedtls/library/bignum.c:1977
    6950:	a94797e6 	ldp	x6, x5, [sp, #120]
/home/hei/Desktop/optee-qemu/optee_os/lib/libmbedtls/mbedtls/library/bignum.c:1975
    6954:	d37ff8c6 	lsl	x6, x6, #1
/home/hei/Desktop/optee-qemu/optee_os/lib/libmbedtls/mbedtls/library/bignum.c:1977
    6958:	ea0602ff 	tst	x23, x6
    695c:	54000061 	b.ne	6968 <mbedtls_mpi_exp_mod+0x5e0>  // b.any
/home/hei/Desktop/optee-qemu/optee_os/lib/libmbedtls/mbedtls/library/bignum.c:1971
    6960:	9100075a 	add	x26, x26, #0x1
    6964:	17ffff38 	b	6644 <mbedtls_mpi_exp_mod+0x2bc>
/home/hei/Desktop/optee-qemu/optee_os/lib/libmbedtls/mbedtls/library/bignum.c:1978
    6968:	b940b7e3 	ldr	w3, [sp, #180]
    696c:	aa1303e2 	mov	x2, x19
    6970:	aa1603e4 	mov	x4, x22
    6974:	aa1b03e1 	mov	x1, x27
    6978:	aa1503e0 	mov	x0, x21
    697c:	a90797e6 	stp	x6, x5, [sp, #120]
    6980:	97fffe25 	bl	6214 <mbedtls_mpi_montmul>
    6984:	2a0003e2 	mov	w2, w0
    6988:	a94797e6 	ldp	x6, x5, [sp, #120]
    698c:	34fffea0 	cbz	w0, 6960 <mbedtls_mpi_exp_mod+0x5d8>
/home/hei/Desktop/optee-qemu/optee_os/lib/libmbedtls/mbedtls/library/bignum.c:1996 (discriminator 3)
    6990:	f94037e0 	ldr	x0, [sp, #104]
    6994:	b9008be2 	str	w2, [sp, #136]
    6998:	97fff6c9 	bl	44bc <mbedtls_mpi_free>
    699c:	f94037e0 	ldr	x0, [sp, #104]
/home/hei/Desktop/optee-qemu/optee_os/lib/libmbedtls/mbedtls/library/bignum.c:1995 (discriminator 3)
    69a0:	f9404be1 	ldr	x1, [sp, #144]
    69a4:	91006000 	add	x0, x0, #0x18
    69a8:	f90037e0 	str	x0, [sp, #104]
    69ac:	b9408be2 	ldr	w2, [sp, #136]
    69b0:	eb01001f 	cmp	x0, x1
    69b4:	54fffee1 	b.ne	6990 <mbedtls_mpi_exp_mod+0x608>  // b.any
/home/hei/Desktop/optee-qemu/optee_os/lib/libmbedtls/mbedtls/library/bignum.c:1997
    69b8:	f94053e0 	ldr	x0, [sp, #160]
    69bc:	aa1403e1 	mov	x1, x20
    69c0:	b9006be2 	str	w2, [sp, #104]
    69c4:	f940c400 	ldr	x0, [x0, #392]
    69c8:	f9400000 	ldr	x0, [x0]
    69cc:	940007fa 	bl	89b4 <mempool_free>
/home/hei/Desktop/optee-qemu/optee_os/lib/libmbedtls/mbedtls/library/bignum.c:1999
    69d0:	aa1603e0 	mov	x0, x22
    69d4:	97fff6ba 	bl	44bc <mbedtls_mpi_free>
    69d8:	f9403be0 	ldr	x0, [sp, #112]
    69dc:	97fff6b8 	bl	44bc <mbedtls_mpi_free>
/home/hei/Desktop/optee-qemu/optee_os/lib/libmbedtls/mbedtls/library/bignum.c:2001
    69e0:	b9406be2 	ldr	w2, [sp, #104]
    69e4:	b4000079 	cbz	x25, 69f0 <mbedtls_mpi_exp_mod+0x668>
/home/hei/Desktop/optee-qemu/optee_os/lib/libmbedtls/mbedtls/library/bignum.c:2001 (discriminator 1)
    69e8:	f9400b20 	ldr	x0, [x25, #16]
    69ec:	b5ffcf20 	cbnz	x0, 63d0 <mbedtls_mpi_exp_mod+0x48>
/home/hei/Desktop/optee-qemu/optee_os/lib/libmbedtls/mbedtls/library/bignum.c:2002
    69f0:	aa1803e0 	mov	x0, x24
    69f4:	b9006be2 	str	w2, [sp, #104]
    69f8:	97fff6b1 	bl	44bc <mbedtls_mpi_free>
    69fc:	b9406be2 	ldr	w2, [sp, #104]
    6a00:	17fffe74 	b	63d0 <mbedtls_mpi_exp_mod+0x48>
/home/hei/Desktop/optee-qemu/optee_os/lib/libmbedtls/mbedtls/library/bignum.c:1792
    6a04:	d2800014 	mov	x20, #0x0                   	// #0
    6a08:	17ffffec 	b	69b8 <mbedtls_mpi_exp_mod+0x630>
/home/hei/Desktop/optee-qemu/optee_os/lib/libmbedtls/mbedtls/library/bignum.c:1856
    6a0c:	128001e2 	mov	w2, #0xfffffff0            	// #-16
    6a10:	17ffffea 	b	69b8 <mbedtls_mpi_exp_mod+0x630>

0000000000006a14 <mbedtls_mpi_gcd>:
mbedtls_mpi_gcd():
/home/hei/Desktop/optee-qemu/optee_os/lib/libmbedtls/mbedtls/library/bignum.c:2011
    6a14:	a9b67bfd 	stp	x29, x30, [sp, #-160]!
    6a18:	910003fd 	mov	x29, sp
    6a1c:	a90363f7 	stp	x23, x24, [sp, #48]
/home/hei/Desktop/optee-qemu/optee_os/lib/libmbedtls/mbedtls/library/bignum.c:2020
    6a20:	910163f7 	add	x23, sp, #0x58
/home/hei/Desktop/optee-qemu/optee_os/lib/libmbedtls/mbedtls/library/bignum.c:2011
    6a24:	aa0003f8 	mov	x24, x0
/home/hei/Desktop/optee-qemu/optee_os/lib/libmbedtls/mbedtls/library/bignum.c:2020
    6a28:	aa1703e0 	mov	x0, x23
/home/hei/Desktop/optee-qemu/optee_os/lib/libmbedtls/mbedtls/library/bignum.c:2011
    6a2c:	a90153f3 	stp	x19, x20, [sp, #16]
/home/hei/Desktop/optee-qemu/optee_os/lib/libmbedtls/mbedtls/library/bignum.c:2021
    6a30:	910223f4 	add	x20, sp, #0x88
/home/hei/Desktop/optee-qemu/optee_os/lib/libmbedtls/mbedtls/library/bignum.c:2011
    6a34:	a9025bf5 	stp	x21, x22, [sp, #32]
/home/hei/Desktop/optee-qemu/optee_os/lib/libmbedtls/mbedtls/library/bignum.c:2020
    6a38:	9101c3f5 	add	x21, sp, #0x70
/home/hei/Desktop/optee-qemu/optee_os/lib/libmbedtls/mbedtls/library/bignum.c:2011
    6a3c:	a90407e2 	stp	x2, x1, [sp, #64]
/home/hei/Desktop/optee-qemu/optee_os/lib/libmbedtls/mbedtls/library/bignum.c:2020
    6a40:	97fff695 	bl	4494 <mbedtls_mpi_init_mempool>
    6a44:	aa1503e0 	mov	x0, x21
    6a48:	97fff693 	bl	4494 <mbedtls_mpi_init_mempool>
/home/hei/Desktop/optee-qemu/optee_os/lib/libmbedtls/mbedtls/library/bignum.c:2021
    6a4c:	aa1403e0 	mov	x0, x20
    6a50:	97fff691 	bl	4494 <mbedtls_mpi_init_mempool>
/home/hei/Desktop/optee-qemu/optee_os/lib/libmbedtls/mbedtls/library/bignum.c:2023
    6a54:	f94027e1 	ldr	x1, [sp, #72]
    6a58:	aa1503e0 	mov	x0, x21
    6a5c:	97fff739 	bl	4740 <mbedtls_mpi_copy>
    6a60:	2a0003f3 	mov	w19, w0
    6a64:	350008c0 	cbnz	w0, 6b7c <mbedtls_mpi_gcd+0x168>
/home/hei/Desktop/optee-qemu/optee_os/lib/libmbedtls/mbedtls/library/bignum.c:2024
    6a68:	f94023e2 	ldr	x2, [sp, #64]
    6a6c:	aa1403e0 	mov	x0, x20
    6a70:	aa0203e1 	mov	x1, x2
    6a74:	97fff733 	bl	4740 <mbedtls_mpi_copy>
    6a78:	2a0003f3 	mov	w19, w0
    6a7c:	35000800 	cbnz	w0, 6b7c <mbedtls_mpi_gcd+0x168>
/home/hei/Desktop/optee-qemu/optee_os/lib/libmbedtls/mbedtls/library/bignum.c:2026
    6a80:	aa1503e0 	mov	x0, x21
    6a84:	97fff825 	bl	4b18 <mbedtls_mpi_lsb>
    6a88:	aa0003f6 	mov	x22, x0
/home/hei/Desktop/optee-qemu/optee_os/lib/libmbedtls/mbedtls/library/bignum.c:2027
    6a8c:	aa1403e0 	mov	x0, x20
    6a90:	97fff822 	bl	4b18 <mbedtls_mpi_lsb>
/home/hei/Desktop/optee-qemu/optee_os/lib/libmbedtls/mbedtls/library/bignum.c:2029
    6a94:	eb0002df 	cmp	x22, x0
    6a98:	9a8092d6 	csel	x22, x22, x0, ls  // ls = plast
/home/hei/Desktop/optee-qemu/optee_os/lib/libmbedtls/mbedtls/library/bignum.c:2032
    6a9c:	aa1503e0 	mov	x0, x21
    6aa0:	aa1603e1 	mov	x1, x22
    6aa4:	97fff8ef 	bl	4e60 <mbedtls_mpi_shift_r>
    6aa8:	2a0003f3 	mov	w19, w0
    6aac:	35000680 	cbnz	w0, 6b7c <mbedtls_mpi_gcd+0x168>
/home/hei/Desktop/optee-qemu/optee_os/lib/libmbedtls/mbedtls/library/bignum.c:2033
    6ab0:	aa1603e1 	mov	x1, x22
    6ab4:	aa1403e0 	mov	x0, x20
    6ab8:	97fff8ea 	bl	4e60 <mbedtls_mpi_shift_r>
    6abc:	2a0003f3 	mov	w19, w0
    6ac0:	350005e0 	cbnz	w0, 6b7c <mbedtls_mpi_gcd+0x168>
/home/hei/Desktop/optee-qemu/optee_os/lib/libmbedtls/mbedtls/library/bignum.c:2035
    6ac4:	52800020 	mov	w0, #0x1                   	// #1
    6ac8:	7900e3e0 	strh	w0, [sp, #112]
    6acc:	790113e0 	strh	w0, [sp, #136]
/home/hei/Desktop/optee-qemu/optee_os/lib/libmbedtls/mbedtls/library/bignum.c:2037
    6ad0:	52800001 	mov	w1, #0x0                   	// #0
    6ad4:	aa1503e0 	mov	x0, x21
    6ad8:	97fff971 	bl	509c <mbedtls_mpi_cmp_int>
    6adc:	35000160 	cbnz	w0, 6b08 <mbedtls_mpi_gcd+0xf4>
/home/hei/Desktop/optee-qemu/optee_os/lib/libmbedtls/mbedtls/library/bignum.c:2054
    6ae0:	aa1603e1 	mov	x1, x22
    6ae4:	aa1403e0 	mov	x0, x20
    6ae8:	97fff89e 	bl	4d60 <mbedtls_mpi_shift_l>
    6aec:	2a0003f3 	mov	w19, w0
    6af0:	35000460 	cbnz	w0, 6b7c <mbedtls_mpi_gcd+0x168>
/home/hei/Desktop/optee-qemu/optee_os/lib/libmbedtls/mbedtls/library/bignum.c:2055
    6af4:	aa1403e1 	mov	x1, x20
    6af8:	aa1803e0 	mov	x0, x24
    6afc:	97fff711 	bl	4740 <mbedtls_mpi_copy>
    6b00:	2a0003f3 	mov	w19, w0
/home/hei/Desktop/optee-qemu/optee_os/lib/libmbedtls/mbedtls/library/bignum.c:2057
    6b04:	1400001e 	b	6b7c <mbedtls_mpi_gcd+0x168>
/home/hei/Desktop/optee-qemu/optee_os/lib/libmbedtls/mbedtls/library/bignum.c:2039
    6b08:	aa1503e0 	mov	x0, x21
    6b0c:	97fff803 	bl	4b18 <mbedtls_mpi_lsb>
    6b10:	aa0003e1 	mov	x1, x0
    6b14:	aa1503e0 	mov	x0, x21
    6b18:	97fff8d2 	bl	4e60 <mbedtls_mpi_shift_r>
    6b1c:	2a0003f3 	mov	w19, w0
    6b20:	350002e0 	cbnz	w0, 6b7c <mbedtls_mpi_gcd+0x168>
/home/hei/Desktop/optee-qemu/optee_os/lib/libmbedtls/mbedtls/library/bignum.c:2040
    6b24:	aa1403e0 	mov	x0, x20
    6b28:	97fff7fc 	bl	4b18 <mbedtls_mpi_lsb>
    6b2c:	aa0003e1 	mov	x1, x0
    6b30:	aa1403e0 	mov	x0, x20
    6b34:	97fff8cb 	bl	4e60 <mbedtls_mpi_shift_r>
    6b38:	2a0003f3 	mov	w19, w0
    6b3c:	35000200 	cbnz	w0, 6b7c <mbedtls_mpi_gcd+0x168>
/home/hei/Desktop/optee-qemu/optee_os/lib/libmbedtls/mbedtls/library/bignum.c:2042
    6b40:	aa1403e1 	mov	x1, x20
    6b44:	aa1503e0 	mov	x0, x21
    6b48:	97fff91f 	bl	4fc4 <mbedtls_mpi_cmp_mpi>
    6b4c:	37f80300 	tbnz	w0, #31, 6bac <mbedtls_mpi_gcd+0x198>
/home/hei/Desktop/optee-qemu/optee_os/lib/libmbedtls/mbedtls/library/bignum.c:2044
    6b50:	aa1403e2 	mov	x2, x20
    6b54:	aa1503e1 	mov	x1, x21
    6b58:	aa1503e0 	mov	x0, x21
    6b5c:	97fff9ab 	bl	5208 <mbedtls_mpi_sub_abs>
    6b60:	2a0003f3 	mov	w19, w0
    6b64:	350000c0 	cbnz	w0, 6b7c <mbedtls_mpi_gcd+0x168>
/home/hei/Desktop/optee-qemu/optee_os/lib/libmbedtls/mbedtls/library/bignum.c:2045
    6b68:	aa1503e0 	mov	x0, x21
    6b6c:	d2800021 	mov	x1, #0x1                   	// #1
/home/hei/Desktop/optee-qemu/optee_os/lib/libmbedtls/mbedtls/library/bignum.c:2050
    6b70:	97fff8bc 	bl	4e60 <mbedtls_mpi_shift_r>
    6b74:	2a0003f3 	mov	w19, w0
    6b78:	34fffac0 	cbz	w0, 6ad0 <mbedtls_mpi_gcd+0xbc>
/home/hei/Desktop/optee-qemu/optee_os/lib/libmbedtls/mbedtls/library/bignum.c:2059
    6b7c:	aa1703e0 	mov	x0, x23
    6b80:	97fff64f 	bl	44bc <mbedtls_mpi_free>
    6b84:	aa1503e0 	mov	x0, x21
    6b88:	97fff64d 	bl	44bc <mbedtls_mpi_free>
    6b8c:	aa1403e0 	mov	x0, x20
    6b90:	97fff64b 	bl	44bc <mbedtls_mpi_free>
/home/hei/Desktop/optee-qemu/optee_os/lib/libmbedtls/mbedtls/library/bignum.c:2062
    6b94:	2a1303e0 	mov	w0, w19
    6b98:	a94153f3 	ldp	x19, x20, [sp, #16]
    6b9c:	a9425bf5 	ldp	x21, x22, [sp, #32]
    6ba0:	a94363f7 	ldp	x23, x24, [sp, #48]
    6ba4:	a8ca7bfd 	ldp	x29, x30, [sp], #160
    6ba8:	d65f03c0 	ret
/home/hei/Desktop/optee-qemu/optee_os/lib/libmbedtls/mbedtls/library/bignum.c:2049
    6bac:	aa1503e2 	mov	x2, x21
    6bb0:	aa1403e1 	mov	x1, x20
    6bb4:	aa1403e0 	mov	x0, x20
    6bb8:	97fff994 	bl	5208 <mbedtls_mpi_sub_abs>
    6bbc:	2a0003f3 	mov	w19, w0
    6bc0:	35fffde0 	cbnz	w0, 6b7c <mbedtls_mpi_gcd+0x168>
/home/hei/Desktop/optee-qemu/optee_os/lib/libmbedtls/mbedtls/library/bignum.c:2050
    6bc4:	d2800021 	mov	x1, #0x1                   	// #1
    6bc8:	aa1403e0 	mov	x0, x20
    6bcc:	17ffffe9 	b	6b70 <mbedtls_mpi_gcd+0x15c>

0000000000006bd0 <mbedtls_mpi_fill_random>:
mbedtls_mpi_fill_random():
/home/hei/Desktop/optee-qemu/optee_os/lib/libmbedtls/mbedtls/library/bignum.c:2074
    6bd0:	d110c3ff 	sub	sp, sp, #0x430
/home/hei/Desktop/optee-qemu/optee_os/lib/libmbedtls/mbedtls/library/bignum.c:2080
    6bd4:	f110003f 	cmp	x1, #0x400
/home/hei/Desktop/optee-qemu/optee_os/lib/libmbedtls/mbedtls/library/bignum.c:2074
    6bd8:	a9007bfd 	stp	x29, x30, [sp]
    6bdc:	910003fd 	mov	x29, sp
    6be0:	a90153f3 	stp	x19, x20, [sp, #16]
    6be4:	a9025bf5 	stp	x21, x22, [sp, #32]
/home/hei/Desktop/optee-qemu/optee_os/lib/libmbedtls/mbedtls/library/bignum.c:2080
    6be8:	54000328 	b.hi	6c4c <mbedtls_mpi_fill_random+0x7c>  // b.pmore
/home/hei/Desktop/optee-qemu/optee_os/lib/libmbedtls/mbedtls/library/bignum.c:2083
    6bec:	9100c3f5 	add	x21, sp, #0x30
    6bf0:	aa0203e4 	mov	x4, x2
    6bf4:	aa0003f6 	mov	x22, x0
    6bf8:	aa0103e2 	mov	x2, x1
    6bfc:	aa0303e0 	mov	x0, x3
    6c00:	aa0103f3 	mov	x19, x1
    6c04:	aa1503e1 	mov	x1, x21
    6c08:	d63f0080 	blr	x4
    6c0c:	2a0003f4 	mov	w20, w0
    6c10:	350000c0 	cbnz	w0, 6c28 <mbedtls_mpi_fill_random+0x58>
/home/hei/Desktop/optee-qemu/optee_os/lib/libmbedtls/mbedtls/library/bignum.c:2084
    6c14:	aa1303e2 	mov	x2, x19
    6c18:	aa1503e1 	mov	x1, x21
    6c1c:	aa1603e0 	mov	x0, x22
    6c20:	97fff7f1 	bl	4be4 <mbedtls_mpi_read_binary>
    6c24:	2a0003f4 	mov	w20, w0
/home/hei/Desktop/optee-qemu/optee_os/lib/libmbedtls/mbedtls/library/bignum.c:2087
    6c28:	d2808001 	mov	x1, #0x400                 	// #1024
    6c2c:	aa1503e0 	mov	x0, x21
    6c30:	940003a1 	bl	7ab4 <mbedtls_platform_zeroize>
/home/hei/Desktop/optee-qemu/optee_os/lib/libmbedtls/mbedtls/library/bignum.c:2089
    6c34:	2a1403e0 	mov	w0, w20
    6c38:	a9407bfd 	ldp	x29, x30, [sp]
    6c3c:	a94153f3 	ldp	x19, x20, [sp, #16]
    6c40:	a9425bf5 	ldp	x21, x22, [sp, #32]
    6c44:	9110c3ff 	add	sp, sp, #0x430
    6c48:	d65f03c0 	ret
/home/hei/Desktop/optee-qemu/optee_os/lib/libmbedtls/mbedtls/library/bignum.c:2081
    6c4c:	12800074 	mov	w20, #0xfffffffc            	// #-4
    6c50:	17fffff9 	b	6c34 <mbedtls_mpi_fill_random+0x64>

0000000000006c54 <mpi_miller_rabin>:
mpi_miller_rabin():
/home/hei/Desktop/optee-qemu/optee_os/lib/libmbedtls/mbedtls/library/bignum.c:2257
    6c54:	a9b07bfd 	stp	x29, x30, [sp, #-256]!
    6c58:	910003fd 	mov	x29, sp
    6c5c:	6d0627e8 	stp	d8, d9, [sp, #96]
    6c60:	9e670048 	fmov	d8, x2
    6c64:	9e670069 	fmov	d9, x3
    6c68:	a9025bf5 	stp	x21, x22, [sp, #32]
/home/hei/Desktop/optee-qemu/optee_os/lib/libmbedtls/mbedtls/library/bignum.c:2265
    6c6c:	910223f5 	add	x21, sp, #0x88
    6c70:	910283f6 	add	x22, sp, #0xa0
/home/hei/Desktop/optee-qemu/optee_os/lib/libmbedtls/mbedtls/library/bignum.c:2257
    6c74:	a90153f3 	stp	x19, x20, [sp, #16]
/home/hei/Desktop/optee-qemu/optee_os/lib/libmbedtls/mbedtls/library/bignum.c:2266
    6c78:	910343f3 	add	x19, sp, #0xd0
/home/hei/Desktop/optee-qemu/optee_os/lib/libmbedtls/mbedtls/library/bignum.c:2257
    6c7c:	a90363f7 	stp	x23, x24, [sp, #48]
    6c80:	aa0003f7 	mov	x23, x0
/home/hei/Desktop/optee-qemu/optee_os/lib/libmbedtls/mbedtls/library/bignum.c:2265
    6c84:	aa1503e0 	mov	x0, x21
/home/hei/Desktop/optee-qemu/optee_os/lib/libmbedtls/mbedtls/library/bignum.c:2257
    6c88:	a9046bf9 	stp	x25, x26, [sp, #64]
/home/hei/Desktop/optee-qemu/optee_os/lib/libmbedtls/mbedtls/library/bignum.c:2266
    6c8c:	9102e3f8 	add	x24, sp, #0xb8
/home/hei/Desktop/optee-qemu/optee_os/lib/libmbedtls/mbedtls/library/bignum.c:2267
    6c90:	9103a3f9 	add	x25, sp, #0xe8
/home/hei/Desktop/optee-qemu/optee_os/lib/libmbedtls/mbedtls/library/bignum.c:2257
    6c94:	a90573fb 	stp	x27, x28, [sp, #80]
    6c98:	f9003be1 	str	x1, [sp, #112]
/home/hei/Desktop/optee-qemu/optee_os/lib/libmbedtls/mbedtls/library/bignum.c:2265
    6c9c:	97fff5fe 	bl	4494 <mbedtls_mpi_init_mempool>
    6ca0:	aa1603e0 	mov	x0, x22
    6ca4:	97fff5fc 	bl	4494 <mbedtls_mpi_init_mempool>
/home/hei/Desktop/optee-qemu/optee_os/lib/libmbedtls/mbedtls/library/bignum.c:2266
    6ca8:	aa1803e0 	mov	x0, x24
    6cac:	97fff5fa 	bl	4494 <mbedtls_mpi_init_mempool>
    6cb0:	aa1303e0 	mov	x0, x19
    6cb4:	97fff5f8 	bl	4494 <mbedtls_mpi_init_mempool>
/home/hei/Desktop/optee-qemu/optee_os/lib/libmbedtls/mbedtls/library/bignum.c:2267
    6cb8:	aa1903e0 	mov	x0, x25
    6cbc:	97fff5f6 	bl	4494 <mbedtls_mpi_init_mempool>
/home/hei/Desktop/optee-qemu/optee_os/lib/libmbedtls/mbedtls/library/bignum.c:2273
    6cc0:	52800022 	mov	w2, #0x1                   	// #1
    6cc4:	aa1703e1 	mov	x1, x23
    6cc8:	aa1503e0 	mov	x0, x21
    6ccc:	97fff9d9 	bl	5430 <mbedtls_mpi_sub_int>
    6cd0:	2a0003f4 	mov	w20, w0
    6cd4:	35000660 	cbnz	w0, 6da0 <mpi_miller_rabin+0x14c>
/home/hei/Desktop/optee-qemu/optee_os/lib/libmbedtls/mbedtls/library/bignum.c:2274
    6cd8:	aa1503e0 	mov	x0, x21
    6cdc:	97fff78f 	bl	4b18 <mbedtls_mpi_lsb>
/home/hei/Desktop/optee-qemu/optee_os/lib/libmbedtls/mbedtls/library/bignum.c:2275
    6ce0:	aa1503e1 	mov	x1, x21
/home/hei/Desktop/optee-qemu/optee_os/lib/libmbedtls/mbedtls/library/bignum.c:2274
    6ce4:	aa0003fc 	mov	x28, x0
/home/hei/Desktop/optee-qemu/optee_os/lib/libmbedtls/mbedtls/library/bignum.c:2275
    6ce8:	aa1603e0 	mov	x0, x22
    6cec:	97fff695 	bl	4740 <mbedtls_mpi_copy>
    6cf0:	2a0003f4 	mov	w20, w0
    6cf4:	35000560 	cbnz	w0, 6da0 <mpi_miller_rabin+0x14c>
/home/hei/Desktop/optee-qemu/optee_os/lib/libmbedtls/mbedtls/library/bignum.c:2276
    6cf8:	aa1c03e1 	mov	x1, x28
    6cfc:	aa1603e0 	mov	x0, x22
    6d00:	97fff858 	bl	4e60 <mbedtls_mpi_shift_r>
    6d04:	2a0003f4 	mov	w20, w0
    6d08:	350004c0 	cbnz	w0, 6da0 <mpi_miller_rabin+0x14c>
/home/hei/Desktop/optee-qemu/optee_os/lib/libmbedtls/mbedtls/library/bignum.c:2280
    6d0c:	d280001a 	mov	x26, #0x0                   	// #0
/home/hei/Desktop/optee-qemu/optee_os/lib/libmbedtls/mbedtls/library/bignum.c:2278
    6d10:	aa1703e0 	mov	x0, x23
    6d14:	97fff796 	bl	4b6c <mbedtls_mpi_bitlen>
/home/hei/Desktop/optee-qemu/optee_os/lib/libmbedtls/mbedtls/library/bignum.c:2280 (discriminator 1)
    6d18:	f9403be0 	ldr	x0, [sp, #112]
    6d1c:	eb00035f 	cmp	x26, x0
    6d20:	54000400 	b.eq	6da0 <mpi_miller_rabin+0x14c>  // b.none
    6d24:	528025db 	mov	w27, #0x12e                 	// #302
/home/hei/Desktop/optee-qemu/optee_os/lib/libmbedtls/mbedtls/library/bignum.c:2287
    6d28:	9e660123 	fmov	x3, d9
    6d2c:	9e660102 	fmov	x2, d8
    6d30:	f94006e1 	ldr	x1, [x23, #8]
    6d34:	aa1303e0 	mov	x0, x19
    6d38:	d37ef421 	lsl	x1, x1, #2
    6d3c:	97ffffa5 	bl	6bd0 <mbedtls_mpi_fill_random>
    6d40:	35000ca0 	cbnz	w0, 6ed4 <mpi_miller_rabin+0x280>
/home/hei/Desktop/optee-qemu/optee_os/lib/libmbedtls/mbedtls/library/bignum.c:2289
    6d44:	aa1303e0 	mov	x0, x19
    6d48:	97fff789 	bl	4b6c <mbedtls_mpi_bitlen>
    6d4c:	aa0003e1 	mov	x1, x0
/home/hei/Desktop/optee-qemu/optee_os/lib/libmbedtls/mbedtls/library/bignum.c:2290
    6d50:	aa1503e0 	mov	x0, x21
/home/hei/Desktop/optee-qemu/optee_os/lib/libmbedtls/mbedtls/library/bignum.c:2289
    6d54:	f9003fe1 	str	x1, [sp, #120]
/home/hei/Desktop/optee-qemu/optee_os/lib/libmbedtls/mbedtls/library/bignum.c:2290
    6d58:	97fff785 	bl	4b6c <mbedtls_mpi_bitlen>
/home/hei/Desktop/optee-qemu/optee_os/lib/libmbedtls/mbedtls/library/bignum.c:2291
    6d5c:	f9403fe1 	ldr	x1, [sp, #120]
    6d60:	eb00003f 	cmp	x1, x0
    6d64:	54000189 	b.ls	6d94 <mpi_miller_rabin+0x140>  // b.plast
/home/hei/Desktop/optee-qemu/optee_os/lib/libmbedtls/mbedtls/library/bignum.c:2292
    6d68:	a94d8fe1 	ldp	x1, x3, [sp, #216]
    6d6c:	128003e4 	mov	w4, #0xffffffe0            	// #-32
    6d70:	d37ef422 	lsl	x2, x1, #2
    6d74:	1b010081 	madd	w1, w4, w1, w0
    6d78:	d1001042 	sub	x2, x2, #0x4
    6d7c:	12800000 	mov	w0, #0xffffffff            	// #-1
    6d80:	11007c21 	add	w1, w1, #0x1f
    6d84:	1ac12001 	lsl	w1, w0, w1
    6d88:	b8626860 	ldr	w0, [x3, x2]
    6d8c:	0a210001 	bic	w1, w0, w1
    6d90:	b8226861 	str	w1, [x3, x2]
/home/hei/Desktop/optee-qemu/optee_os/lib/libmbedtls/mbedtls/library/bignum.c:2295
    6d94:	7100077b 	subs	w27, w27, #0x1
    6d98:	540002a1 	b.ne	6dec <mpi_miller_rabin+0x198>  // b.any
/home/hei/Desktop/optee-qemu/optee_os/lib/libmbedtls/mbedtls/library/bignum.c:2296
    6d9c:	128001b4 	mov	w20, #0xfffffff2            	// #-14
/home/hei/Desktop/optee-qemu/optee_os/lib/libmbedtls/mbedtls/library/bignum.c:2339
    6da0:	aa1503e0 	mov	x0, x21
    6da4:	97fff5c6 	bl	44bc <mbedtls_mpi_free>
    6da8:	aa1603e0 	mov	x0, x22
    6dac:	97fff5c4 	bl	44bc <mbedtls_mpi_free>
/home/hei/Desktop/optee-qemu/optee_os/lib/libmbedtls/mbedtls/library/bignum.c:2340
    6db0:	aa1803e0 	mov	x0, x24
    6db4:	97fff5c2 	bl	44bc <mbedtls_mpi_free>
    6db8:	aa1303e0 	mov	x0, x19
    6dbc:	97fff5c0 	bl	44bc <mbedtls_mpi_free>
/home/hei/Desktop/optee-qemu/optee_os/lib/libmbedtls/mbedtls/library/bignum.c:2341
    6dc0:	aa1903e0 	mov	x0, x25
    6dc4:	97fff5be 	bl	44bc <mbedtls_mpi_free>
/home/hei/Desktop/optee-qemu/optee_os/lib/libmbedtls/mbedtls/library/bignum.c:2344
    6dc8:	2a1403e0 	mov	w0, w20
    6dcc:	a94153f3 	ldp	x19, x20, [sp, #16]
    6dd0:	a9425bf5 	ldp	x21, x22, [sp, #32]
    6dd4:	a94363f7 	ldp	x23, x24, [sp, #48]
    6dd8:	a9446bf9 	ldp	x25, x26, [sp, #64]
    6ddc:	a94573fb 	ldp	x27, x28, [sp, #80]
    6de0:	6d4627e8 	ldp	d8, d9, [sp, #96]
    6de4:	a8d07bfd 	ldp	x29, x30, [sp], #256
    6de8:	d65f03c0 	ret
/home/hei/Desktop/optee-qemu/optee_os/lib/libmbedtls/mbedtls/library/bignum.c:2300
    6dec:	aa1503e1 	mov	x1, x21
    6df0:	aa1303e0 	mov	x0, x19
    6df4:	97fff874 	bl	4fc4 <mbedtls_mpi_cmp_mpi>
/home/hei/Desktop/optee-qemu/optee_os/lib/libmbedtls/mbedtls/library/bignum.c:2301
    6df8:	36fff980 	tbz	w0, #31, 6d28 <mpi_miller_rabin+0xd4>
/home/hei/Desktop/optee-qemu/optee_os/lib/libmbedtls/mbedtls/library/bignum.c:2301 (discriminator 1)
    6dfc:	52800021 	mov	w1, #0x1                   	// #1
    6e00:	aa1303e0 	mov	x0, x19
    6e04:	97fff8a6 	bl	509c <mbedtls_mpi_cmp_int>
/home/hei/Desktop/optee-qemu/optee_os/lib/libmbedtls/mbedtls/library/bignum.c:2300 (discriminator 1)
    6e08:	7100001f 	cmp	w0, #0x0
    6e0c:	54fff8ed 	b.le	6d28 <mpi_miller_rabin+0xd4>
/home/hei/Desktop/optee-qemu/optee_os/lib/libmbedtls/mbedtls/library/bignum.c:2306
    6e10:	aa1903e4 	mov	x4, x25
    6e14:	aa1703e3 	mov	x3, x23
    6e18:	aa1603e2 	mov	x2, x22
    6e1c:	aa1303e1 	mov	x1, x19
    6e20:	aa1303e0 	mov	x0, x19
    6e24:	97fffd59 	bl	6388 <mbedtls_mpi_exp_mod>
    6e28:	35000560 	cbnz	w0, 6ed4 <mpi_miller_rabin+0x280>
/home/hei/Desktop/optee-qemu/optee_os/lib/libmbedtls/mbedtls/library/bignum.c:2308
    6e2c:	aa1503e1 	mov	x1, x21
    6e30:	aa1303e0 	mov	x0, x19
    6e34:	97fff864 	bl	4fc4 <mbedtls_mpi_cmp_mpi>
    6e38:	35000060 	cbnz	w0, 6e44 <mpi_miller_rabin+0x1f0>
/home/hei/Desktop/optee-qemu/optee_os/lib/libmbedtls/mbedtls/library/bignum.c:2280
    6e3c:	9100075a 	add	x26, x26, #0x1
    6e40:	17ffffb6 	b	6d18 <mpi_miller_rabin+0xc4>
/home/hei/Desktop/optee-qemu/optee_os/lib/libmbedtls/mbedtls/library/bignum.c:2309 (discriminator 1)
    6e44:	52800021 	mov	w1, #0x1                   	// #1
    6e48:	aa1303e0 	mov	x0, x19
    6e4c:	97fff894 	bl	509c <mbedtls_mpi_cmp_int>
/home/hei/Desktop/optee-qemu/optee_os/lib/libmbedtls/mbedtls/library/bignum.c:2308 (discriminator 1)
    6e50:	34ffff60 	cbz	w0, 6e3c <mpi_miller_rabin+0x1e8>
/home/hei/Desktop/optee-qemu/optee_os/lib/libmbedtls/mbedtls/library/bignum.c:2312
    6e54:	d280003b 	mov	x27, #0x1                   	// #1
/home/hei/Desktop/optee-qemu/optee_os/lib/libmbedtls/mbedtls/library/bignum.c:2313
    6e58:	eb1c037f 	cmp	x27, x28
    6e5c:	54000262 	b.cs	6ea8 <mpi_miller_rabin+0x254>  // b.hs, b.nlast
/home/hei/Desktop/optee-qemu/optee_os/lib/libmbedtls/mbedtls/library/bignum.c:2313 (discriminator 1)
    6e60:	aa1503e1 	mov	x1, x21
    6e64:	aa1303e0 	mov	x0, x19
    6e68:	97fff857 	bl	4fc4 <mbedtls_mpi_cmp_mpi>
    6e6c:	340001e0 	cbz	w0, 6ea8 <mpi_miller_rabin+0x254>
/home/hei/Desktop/optee-qemu/optee_os/lib/libmbedtls/mbedtls/library/bignum.c:2318
    6e70:	aa1303e2 	mov	x2, x19
    6e74:	aa1303e1 	mov	x1, x19
    6e78:	aa1803e0 	mov	x0, x24
    6e7c:	97fff97d 	bl	5470 <mbedtls_mpi_mul_mpi>
    6e80:	350002a0 	cbnz	w0, 6ed4 <mpi_miller_rabin+0x280>
/home/hei/Desktop/optee-qemu/optee_os/lib/libmbedtls/mbedtls/library/bignum.c:2319
    6e84:	aa1703e2 	mov	x2, x23
    6e88:	aa1803e1 	mov	x1, x24
    6e8c:	aa1303e0 	mov	x0, x19
    6e90:	97fffbad 	bl	5d44 <mbedtls_mpi_mod_mpi>
    6e94:	35000200 	cbnz	w0, 6ed4 <mpi_miller_rabin+0x280>
/home/hei/Desktop/optee-qemu/optee_os/lib/libmbedtls/mbedtls/library/bignum.c:2321
    6e98:	52800021 	mov	w1, #0x1                   	// #1
    6e9c:	aa1303e0 	mov	x0, x19
    6ea0:	97fff87f 	bl	509c <mbedtls_mpi_cmp_int>
    6ea4:	35000140 	cbnz	w0, 6ecc <mpi_miller_rabin+0x278>
/home/hei/Desktop/optee-qemu/optee_os/lib/libmbedtls/mbedtls/library/bignum.c:2330
    6ea8:	aa1503e1 	mov	x1, x21
    6eac:	aa1303e0 	mov	x0, x19
    6eb0:	97fff845 	bl	4fc4 <mbedtls_mpi_cmp_mpi>
    6eb4:	35fff740 	cbnz	w0, 6d9c <mpi_miller_rabin+0x148>
/home/hei/Desktop/optee-qemu/optee_os/lib/libmbedtls/mbedtls/library/bignum.c:2331 (discriminator 1)
    6eb8:	52800021 	mov	w1, #0x1                   	// #1
    6ebc:	aa1303e0 	mov	x0, x19
    6ec0:	97fff877 	bl	509c <mbedtls_mpi_cmp_int>
/home/hei/Desktop/optee-qemu/optee_os/lib/libmbedtls/mbedtls/library/bignum.c:2330 (discriminator 1)
    6ec4:	35fffbc0 	cbnz	w0, 6e3c <mpi_miller_rabin+0x1e8>
    6ec8:	17ffffb5 	b	6d9c <mpi_miller_rabin+0x148>
/home/hei/Desktop/optee-qemu/optee_os/lib/libmbedtls/mbedtls/library/bignum.c:2324
    6ecc:	9100077b 	add	x27, x27, #0x1
    6ed0:	17ffffe2 	b	6e58 <mpi_miller_rabin+0x204>
    6ed4:	2a0003f4 	mov	w20, w0
    6ed8:	17ffffb2 	b	6da0 <mpi_miller_rabin+0x14c>

0000000000006edc <mbedtls_mpi_inv_mod>:
mbedtls_mpi_inv_mod():
/home/hei/Desktop/optee-qemu/optee_os/lib/libmbedtls/mbedtls/library/bignum.c:2095
    6edc:	a9aa7bfd 	stp	x29, x30, [sp, #-352]!
    6ee0:	910003fd 	mov	x29, sp
    6ee4:	6d0627e8 	stp	d8, d9, [sp, #96]
    6ee8:	9e670029 	fmov	d9, x1
    6eec:	9e670048 	fmov	d8, x2
    6ef0:	fd003bea 	str	d10, [sp, #112]
    6ef4:	9e67000a 	fmov	d10, x0
/home/hei/Desktop/optee-qemu/optee_os/lib/libmbedtls/mbedtls/library/bignum.c:2102
    6ef8:	52800021 	mov	w1, #0x1                   	// #1
    6efc:	aa0203e0 	mov	x0, x2
/home/hei/Desktop/optee-qemu/optee_os/lib/libmbedtls/mbedtls/library/bignum.c:2095
    6f00:	a90153f3 	stp	x19, x20, [sp, #16]
    6f04:	a9025bf5 	stp	x21, x22, [sp, #32]
    6f08:	a90363f7 	stp	x23, x24, [sp, #48]
    6f0c:	a9046bf9 	stp	x25, x26, [sp, #64]
    6f10:	a90573fb 	stp	x27, x28, [sp, #80]
/home/hei/Desktop/optee-qemu/optee_os/lib/libmbedtls/mbedtls/library/bignum.c:2102
    6f14:	97fff862 	bl	509c <mbedtls_mpi_cmp_int>
    6f18:	7100001f 	cmp	w0, #0x0
    6f1c:	54001f8d 	b.le	730c <mbedtls_mpi_inv_mod+0x430>
/home/hei/Desktop/optee-qemu/optee_os/lib/libmbedtls/mbedtls/library/bignum.c:2105
    6f20:	910283fa 	add	x26, sp, #0xa0
    6f24:	9102e3f8 	add	x24, sp, #0xb8
    6f28:	aa1a03e0 	mov	x0, x26
    6f2c:	97fff55a 	bl	4494 <mbedtls_mpi_init_mempool>
    6f30:	aa1803e0 	mov	x0, x24
/home/hei/Desktop/optee-qemu/optee_os/lib/libmbedtls/mbedtls/library/bignum.c:2106
    6f34:	910343f7 	add	x23, sp, #0xd0
/home/hei/Desktop/optee-qemu/optee_os/lib/libmbedtls/mbedtls/library/bignum.c:2105
    6f38:	97fff557 	bl	4494 <mbedtls_mpi_init_mempool>
/home/hei/Desktop/optee-qemu/optee_os/lib/libmbedtls/mbedtls/library/bignum.c:2106
    6f3c:	9103a3f6 	add	x22, sp, #0xe8
    6f40:	aa1703e0 	mov	x0, x23
    6f44:	97fff554 	bl	4494 <mbedtls_mpi_init_mempool>
    6f48:	aa1603e0 	mov	x0, x22
/home/hei/Desktop/optee-qemu/optee_os/lib/libmbedtls/mbedtls/library/bignum.c:2107
    6f4c:	910223fc 	add	x28, sp, #0x88
/home/hei/Desktop/optee-qemu/optee_os/lib/libmbedtls/mbedtls/library/bignum.c:2106
    6f50:	97fff551 	bl	4494 <mbedtls_mpi_init_mempool>
/home/hei/Desktop/optee-qemu/optee_os/lib/libmbedtls/mbedtls/library/bignum.c:2107
    6f54:	910403fb 	add	x27, sp, #0x100
    6f58:	aa1c03e0 	mov	x0, x28
    6f5c:	97fff54e 	bl	4494 <mbedtls_mpi_init_mempool>
    6f60:	aa1b03e0 	mov	x0, x27
/home/hei/Desktop/optee-qemu/optee_os/lib/libmbedtls/mbedtls/library/bignum.c:2108
    6f64:	910463f9 	add	x25, sp, #0x118
/home/hei/Desktop/optee-qemu/optee_os/lib/libmbedtls/mbedtls/library/bignum.c:2107
    6f68:	97fff54b 	bl	4494 <mbedtls_mpi_init_mempool>
/home/hei/Desktop/optee-qemu/optee_os/lib/libmbedtls/mbedtls/library/bignum.c:2108
    6f6c:	9104c3f4 	add	x20, sp, #0x130
    6f70:	aa1903e0 	mov	x0, x25
    6f74:	97fff548 	bl	4494 <mbedtls_mpi_init_mempool>
    6f78:	aa1403e0 	mov	x0, x20
/home/hei/Desktop/optee-qemu/optee_os/lib/libmbedtls/mbedtls/library/bignum.c:2109
    6f7c:	910523f5 	add	x21, sp, #0x148
/home/hei/Desktop/optee-qemu/optee_os/lib/libmbedtls/mbedtls/library/bignum.c:2108
    6f80:	97fff545 	bl	4494 <mbedtls_mpi_init_mempool>
/home/hei/Desktop/optee-qemu/optee_os/lib/libmbedtls/mbedtls/library/bignum.c:2109
    6f84:	aa1503e0 	mov	x0, x21
    6f88:	97fff543 	bl	4494 <mbedtls_mpi_init_mempool>
/home/hei/Desktop/optee-qemu/optee_os/lib/libmbedtls/mbedtls/library/bignum.c:2111
    6f8c:	9e660102 	fmov	x2, d8
    6f90:	9e660121 	fmov	x1, d9
    6f94:	aa1c03e0 	mov	x0, x28
    6f98:	97fffe9f 	bl	6a14 <mbedtls_mpi_gcd>
    6f9c:	2a0003f3 	mov	w19, w0
    6fa0:	35000d60 	cbnz	w0, 714c <mbedtls_mpi_inv_mod+0x270>
/home/hei/Desktop/optee-qemu/optee_os/lib/libmbedtls/mbedtls/library/bignum.c:2113
    6fa4:	52800021 	mov	w1, #0x1                   	// #1
    6fa8:	aa1c03e0 	mov	x0, x28
    6fac:	97fff83c 	bl	509c <mbedtls_mpi_cmp_int>
    6fb0:	35001aa0 	cbnz	w0, 7304 <mbedtls_mpi_inv_mod+0x428>
/home/hei/Desktop/optee-qemu/optee_os/lib/libmbedtls/mbedtls/library/bignum.c:2119
    6fb4:	9e660102 	fmov	x2, d8
    6fb8:	9e660121 	fmov	x1, d9
    6fbc:	aa1a03e0 	mov	x0, x26
    6fc0:	97fffb61 	bl	5d44 <mbedtls_mpi_mod_mpi>
    6fc4:	2a0003f3 	mov	w19, w0
    6fc8:	35000c20 	cbnz	w0, 714c <mbedtls_mpi_inv_mod+0x270>
/home/hei/Desktop/optee-qemu/optee_os/lib/libmbedtls/mbedtls/library/bignum.c:2120
    6fcc:	aa1a03e1 	mov	x1, x26
    6fd0:	aa1803e0 	mov	x0, x24
    6fd4:	97fff5db 	bl	4740 <mbedtls_mpi_copy>
    6fd8:	2a0003f3 	mov	w19, w0
    6fdc:	35000b80 	cbnz	w0, 714c <mbedtls_mpi_inv_mod+0x270>
/home/hei/Desktop/optee-qemu/optee_os/lib/libmbedtls/mbedtls/library/bignum.c:2121
    6fe0:	9e660101 	fmov	x1, d8
    6fe4:	aa1b03e0 	mov	x0, x27
    6fe8:	97fff5d6 	bl	4740 <mbedtls_mpi_copy>
    6fec:	2a0003f3 	mov	w19, w0
    6ff0:	35000ae0 	cbnz	w0, 714c <mbedtls_mpi_inv_mod+0x270>
/home/hei/Desktop/optee-qemu/optee_os/lib/libmbedtls/mbedtls/library/bignum.c:2122
    6ff4:	9e660101 	fmov	x1, d8
    6ff8:	aa1903e0 	mov	x0, x25
    6ffc:	97fff5d1 	bl	4740 <mbedtls_mpi_copy>
    7000:	2a0003f3 	mov	w19, w0
    7004:	35000a40 	cbnz	w0, 714c <mbedtls_mpi_inv_mod+0x270>
/home/hei/Desktop/optee-qemu/optee_os/lib/libmbedtls/mbedtls/library/bignum.c:2124
    7008:	52800021 	mov	w1, #0x1                   	// #1
    700c:	aa1703e0 	mov	x0, x23
    7010:	97fff67a 	bl	49f8 <mbedtls_mpi_lset>
    7014:	2a0003f3 	mov	w19, w0
    7018:	350009a0 	cbnz	w0, 714c <mbedtls_mpi_inv_mod+0x270>
/home/hei/Desktop/optee-qemu/optee_os/lib/libmbedtls/mbedtls/library/bignum.c:2125
    701c:	52800001 	mov	w1, #0x0                   	// #0
    7020:	aa1603e0 	mov	x0, x22
    7024:	97fff675 	bl	49f8 <mbedtls_mpi_lset>
    7028:	2a0003f3 	mov	w19, w0
    702c:	35000900 	cbnz	w0, 714c <mbedtls_mpi_inv_mod+0x270>
/home/hei/Desktop/optee-qemu/optee_os/lib/libmbedtls/mbedtls/library/bignum.c:2126
    7030:	52800001 	mov	w1, #0x0                   	// #0
    7034:	aa1403e0 	mov	x0, x20
    7038:	97fff670 	bl	49f8 <mbedtls_mpi_lset>
    703c:	2a0003f3 	mov	w19, w0
    7040:	35000860 	cbnz	w0, 714c <mbedtls_mpi_inv_mod+0x270>
/home/hei/Desktop/optee-qemu/optee_os/lib/libmbedtls/mbedtls/library/bignum.c:2127
    7044:	52800021 	mov	w1, #0x1                   	// #1
    7048:	aa1503e0 	mov	x0, x21
    704c:	97fff66b 	bl	49f8 <mbedtls_mpi_lset>
/home/hei/Desktop/optee-qemu/optee_os/lib/libmbedtls/mbedtls/library/bignum.c:2142
    7050:	2a0003f3 	mov	w19, w0
    7054:	350007c0 	cbnz	w0, 714c <mbedtls_mpi_inv_mod+0x270>
/home/hei/Desktop/optee-qemu/optee_os/lib/libmbedtls/mbedtls/library/bignum.c:2131
    7058:	f94067e0 	ldr	x0, [sp, #200]
    705c:	b9400000 	ldr	w0, [x0]
    7060:	36000560 	tbz	w0, #0, 710c <mbedtls_mpi_inv_mod+0x230>
/home/hei/Desktop/optee-qemu/optee_os/lib/libmbedtls/mbedtls/library/bignum.c:2145
    7064:	f94097e0 	ldr	x0, [sp, #296]
    7068:	b9400000 	ldr	w0, [x0]
    706c:	36000ca0 	tbz	w0, #0, 7200 <mbedtls_mpi_inv_mod+0x324>
/home/hei/Desktop/optee-qemu/optee_os/lib/libmbedtls/mbedtls/library/bignum.c:2159
    7070:	aa1903e1 	mov	x1, x25
    7074:	aa1803e0 	mov	x0, x24
    7078:	97fff7d3 	bl	4fc4 <mbedtls_mpi_cmp_mpi>
    707c:	37f81080 	tbnz	w0, #31, 728c <mbedtls_mpi_inv_mod+0x3b0>
/home/hei/Desktop/optee-qemu/optee_os/lib/libmbedtls/mbedtls/library/bignum.c:2161
    7080:	aa1903e2 	mov	x2, x25
    7084:	aa1803e1 	mov	x1, x24
    7088:	aa1803e0 	mov	x0, x24
    708c:	97fff8b6 	bl	5364 <mbedtls_mpi_sub_mpi>
    7090:	2a0003f3 	mov	w19, w0
    7094:	350005c0 	cbnz	w0, 714c <mbedtls_mpi_inv_mod+0x270>
/home/hei/Desktop/optee-qemu/optee_os/lib/libmbedtls/mbedtls/library/bignum.c:2162
    7098:	aa1403e2 	mov	x2, x20
    709c:	aa1703e1 	mov	x1, x23
    70a0:	aa1703e0 	mov	x0, x23
    70a4:	97fff8b0 	bl	5364 <mbedtls_mpi_sub_mpi>
    70a8:	2a0003f3 	mov	w19, w0
    70ac:	35000500 	cbnz	w0, 714c <mbedtls_mpi_inv_mod+0x270>
/home/hei/Desktop/optee-qemu/optee_os/lib/libmbedtls/mbedtls/library/bignum.c:2163
    70b0:	aa1503e2 	mov	x2, x21
    70b4:	aa1603e1 	mov	x1, x22
    70b8:	aa1603e0 	mov	x0, x22
    70bc:	97fff8aa 	bl	5364 <mbedtls_mpi_sub_mpi>
    70c0:	2a0003f3 	mov	w19, w0
    70c4:	35000440 	cbnz	w0, 714c <mbedtls_mpi_inv_mod+0x270>
/home/hei/Desktop/optee-qemu/optee_os/lib/libmbedtls/mbedtls/library/bignum.c:2172
    70c8:	52800001 	mov	w1, #0x0                   	// #0
    70cc:	aa1803e0 	mov	x0, x24
    70d0:	97fff7f3 	bl	509c <mbedtls_mpi_cmp_int>
    70d4:	35fffc20 	cbnz	w0, 7058 <mbedtls_mpi_inv_mod+0x17c>
/home/hei/Desktop/optee-qemu/optee_os/lib/libmbedtls/mbedtls/library/bignum.c:2174
    70d8:	52800001 	mov	w1, #0x0                   	// #0
    70dc:	aa1403e0 	mov	x0, x20
    70e0:	97fff7ef 	bl	509c <mbedtls_mpi_cmp_int>
    70e4:	37f80f40 	tbnz	w0, #31, 72cc <mbedtls_mpi_inv_mod+0x3f0>
/home/hei/Desktop/optee-qemu/optee_os/lib/libmbedtls/mbedtls/library/bignum.c:2177
    70e8:	9e660101 	fmov	x1, d8
    70ec:	aa1403e0 	mov	x0, x20
    70f0:	97fff7b5 	bl	4fc4 <mbedtls_mpi_cmp_mpi>
    70f4:	36f80fa0 	tbz	w0, #31, 72e8 <mbedtls_mpi_inv_mod+0x40c>
/home/hei/Desktop/optee-qemu/optee_os/lib/libmbedtls/mbedtls/library/bignum.c:2180
    70f8:	9e660140 	fmov	x0, d10
    70fc:	aa1403e1 	mov	x1, x20
    7100:	97fff590 	bl	4740 <mbedtls_mpi_copy>
    7104:	2a0003f3 	mov	w19, w0
/home/hei/Desktop/optee-qemu/optee_os/lib/libmbedtls/mbedtls/library/bignum.c:2182
    7108:	14000011 	b	714c <mbedtls_mpi_inv_mod+0x270>
/home/hei/Desktop/optee-qemu/optee_os/lib/libmbedtls/mbedtls/library/bignum.c:2133
    710c:	d2800021 	mov	x1, #0x1                   	// #1
    7110:	aa1803e0 	mov	x0, x24
    7114:	97fff753 	bl	4e60 <mbedtls_mpi_shift_r>
    7118:	2a0003f3 	mov	w19, w0
    711c:	35000180 	cbnz	w0, 714c <mbedtls_mpi_inv_mod+0x270>
/home/hei/Desktop/optee-qemu/optee_os/lib/libmbedtls/mbedtls/library/bignum.c:2135
    7120:	f94073e0 	ldr	x0, [sp, #224]
    7124:	b9400000 	ldr	w0, [x0]
    7128:	370004a0 	tbnz	w0, #0, 71bc <mbedtls_mpi_inv_mod+0x2e0>
/home/hei/Desktop/optee-qemu/optee_os/lib/libmbedtls/mbedtls/library/bignum.c:2135 (discriminator 1)
    712c:	f9407fe0 	ldr	x0, [sp, #248]
    7130:	b9400000 	ldr	w0, [x0]
    7134:	37000440 	tbnz	w0, #0, 71bc <mbedtls_mpi_inv_mod+0x2e0>
/home/hei/Desktop/optee-qemu/optee_os/lib/libmbedtls/mbedtls/library/bignum.c:2141
    7138:	d2800021 	mov	x1, #0x1                   	// #1
    713c:	aa1703e0 	mov	x0, x23
    7140:	97fff748 	bl	4e60 <mbedtls_mpi_shift_r>
    7144:	2a0003f3 	mov	w19, w0
    7148:	34000540 	cbz	w0, 71f0 <mbedtls_mpi_inv_mod+0x314>
/home/hei/Desktop/optee-qemu/optee_os/lib/libmbedtls/mbedtls/library/bignum.c:2184
    714c:	aa1a03e0 	mov	x0, x26
    7150:	97fff4db 	bl	44bc <mbedtls_mpi_free>
    7154:	aa1803e0 	mov	x0, x24
    7158:	97fff4d9 	bl	44bc <mbedtls_mpi_free>
    715c:	aa1703e0 	mov	x0, x23
    7160:	97fff4d7 	bl	44bc <mbedtls_mpi_free>
    7164:	aa1603e0 	mov	x0, x22
    7168:	97fff4d5 	bl	44bc <mbedtls_mpi_free>
/home/hei/Desktop/optee-qemu/optee_os/lib/libmbedtls/mbedtls/library/bignum.c:2185
    716c:	aa1c03e0 	mov	x0, x28
    7170:	97fff4d3 	bl	44bc <mbedtls_mpi_free>
    7174:	aa1b03e0 	mov	x0, x27
    7178:	97fff4d1 	bl	44bc <mbedtls_mpi_free>
    717c:	aa1903e0 	mov	x0, x25
    7180:	97fff4cf 	bl	44bc <mbedtls_mpi_free>
/home/hei/Desktop/optee-qemu/optee_os/lib/libmbedtls/mbedtls/library/bignum.c:2186
    7184:	aa1403e0 	mov	x0, x20
    7188:	97fff4cd 	bl	44bc <mbedtls_mpi_free>
    718c:	aa1503e0 	mov	x0, x21
    7190:	97fff4cb 	bl	44bc <mbedtls_mpi_free>
/home/hei/Desktop/optee-qemu/optee_os/lib/libmbedtls/mbedtls/library/bignum.c:2189
    7194:	2a1303e0 	mov	w0, w19
    7198:	fd403bea 	ldr	d10, [sp, #112]
    719c:	a94153f3 	ldp	x19, x20, [sp, #16]
    71a0:	a9425bf5 	ldp	x21, x22, [sp, #32]
    71a4:	a94363f7 	ldp	x23, x24, [sp, #48]
    71a8:	a9446bf9 	ldp	x25, x26, [sp, #64]
    71ac:	a94573fb 	ldp	x27, x28, [sp, #80]
    71b0:	6d4627e8 	ldp	d8, d9, [sp, #96]
    71b4:	a8d67bfd 	ldp	x29, x30, [sp], #352
    71b8:	d65f03c0 	ret
/home/hei/Desktop/optee-qemu/optee_os/lib/libmbedtls/mbedtls/library/bignum.c:2137
    71bc:	aa1b03e2 	mov	x2, x27
    71c0:	aa1703e1 	mov	x1, x23
    71c4:	aa1703e0 	mov	x0, x23
    71c8:	97fff845 	bl	52dc <mbedtls_mpi_add_mpi>
    71cc:	2a0003f3 	mov	w19, w0
    71d0:	35fffbe0 	cbnz	w0, 714c <mbedtls_mpi_inv_mod+0x270>
/home/hei/Desktop/optee-qemu/optee_os/lib/libmbedtls/mbedtls/library/bignum.c:2138
    71d4:	aa1a03e2 	mov	x2, x26
    71d8:	aa1603e1 	mov	x1, x22
    71dc:	aa1603e0 	mov	x0, x22
    71e0:	97fff861 	bl	5364 <mbedtls_mpi_sub_mpi>
    71e4:	2a0003f3 	mov	w19, w0
    71e8:	34fffa80 	cbz	w0, 7138 <mbedtls_mpi_inv_mod+0x25c>
    71ec:	17ffffd8 	b	714c <mbedtls_mpi_inv_mod+0x270>
/home/hei/Desktop/optee-qemu/optee_os/lib/libmbedtls/mbedtls/library/bignum.c:2142
    71f0:	d2800021 	mov	x1, #0x1                   	// #1
    71f4:	aa1603e0 	mov	x0, x22
    71f8:	97fff71a 	bl	4e60 <mbedtls_mpi_shift_r>
    71fc:	17ffff95 	b	7050 <mbedtls_mpi_inv_mod+0x174>
/home/hei/Desktop/optee-qemu/optee_os/lib/libmbedtls/mbedtls/library/bignum.c:2147
    7200:	d2800021 	mov	x1, #0x1                   	// #1
    7204:	aa1903e0 	mov	x0, x25
    7208:	97fff716 	bl	4e60 <mbedtls_mpi_shift_r>
    720c:	2a0003f3 	mov	w19, w0
    7210:	35fff9e0 	cbnz	w0, 714c <mbedtls_mpi_inv_mod+0x270>
/home/hei/Desktop/optee-qemu/optee_os/lib/libmbedtls/mbedtls/library/bignum.c:2149
    7214:	f940a3e0 	ldr	x0, [sp, #320]
    7218:	b9400000 	ldr	w0, [x0]
    721c:	370001e0 	tbnz	w0, #0, 7258 <mbedtls_mpi_inv_mod+0x37c>
/home/hei/Desktop/optee-qemu/optee_os/lib/libmbedtls/mbedtls/library/bignum.c:2149 (discriminator 1)
    7220:	f940afe0 	ldr	x0, [sp, #344]
    7224:	b9400000 	ldr	w0, [x0]
    7228:	37000180 	tbnz	w0, #0, 7258 <mbedtls_mpi_inv_mod+0x37c>
/home/hei/Desktop/optee-qemu/optee_os/lib/libmbedtls/mbedtls/library/bignum.c:2155
    722c:	d2800021 	mov	x1, #0x1                   	// #1
    7230:	aa1403e0 	mov	x0, x20
    7234:	97fff70b 	bl	4e60 <mbedtls_mpi_shift_r>
    7238:	2a0003f3 	mov	w19, w0
    723c:	35fff880 	cbnz	w0, 714c <mbedtls_mpi_inv_mod+0x270>
/home/hei/Desktop/optee-qemu/optee_os/lib/libmbedtls/mbedtls/library/bignum.c:2156
    7240:	d2800021 	mov	x1, #0x1                   	// #1
    7244:	aa1503e0 	mov	x0, x21
    7248:	97fff706 	bl	4e60 <mbedtls_mpi_shift_r>
    724c:	2a0003f3 	mov	w19, w0
    7250:	34fff0a0 	cbz	w0, 7064 <mbedtls_mpi_inv_mod+0x188>
    7254:	17ffffbe 	b	714c <mbedtls_mpi_inv_mod+0x270>
/home/hei/Desktop/optee-qemu/optee_os/lib/libmbedtls/mbedtls/library/bignum.c:2151
    7258:	aa1b03e2 	mov	x2, x27
    725c:	aa1403e1 	mov	x1, x20
    7260:	aa1403e0 	mov	x0, x20
    7264:	97fff81e 	bl	52dc <mbedtls_mpi_add_mpi>
    7268:	2a0003f3 	mov	w19, w0
    726c:	35fff700 	cbnz	w0, 714c <mbedtls_mpi_inv_mod+0x270>
/home/hei/Desktop/optee-qemu/optee_os/lib/libmbedtls/mbedtls/library/bignum.c:2152
    7270:	aa1a03e2 	mov	x2, x26
    7274:	aa1503e1 	mov	x1, x21
    7278:	aa1503e0 	mov	x0, x21
    727c:	97fff83a 	bl	5364 <mbedtls_mpi_sub_mpi>
    7280:	2a0003f3 	mov	w19, w0
    7284:	34fffd40 	cbz	w0, 722c <mbedtls_mpi_inv_mod+0x350>
    7288:	17ffffb1 	b	714c <mbedtls_mpi_inv_mod+0x270>
/home/hei/Desktop/optee-qemu/optee_os/lib/libmbedtls/mbedtls/library/bignum.c:2167
    728c:	aa1803e2 	mov	x2, x24
    7290:	aa1903e1 	mov	x1, x25
    7294:	aa1903e0 	mov	x0, x25
    7298:	97fff833 	bl	5364 <mbedtls_mpi_sub_mpi>
    729c:	2a0003f3 	mov	w19, w0
    72a0:	35fff560 	cbnz	w0, 714c <mbedtls_mpi_inv_mod+0x270>
/home/hei/Desktop/optee-qemu/optee_os/lib/libmbedtls/mbedtls/library/bignum.c:2168
    72a4:	aa1703e2 	mov	x2, x23
    72a8:	aa1403e1 	mov	x1, x20
    72ac:	aa1403e0 	mov	x0, x20
    72b0:	97fff82d 	bl	5364 <mbedtls_mpi_sub_mpi>
    72b4:	2a0003f3 	mov	w19, w0
    72b8:	35fff4a0 	cbnz	w0, 714c <mbedtls_mpi_inv_mod+0x270>
/home/hei/Desktop/optee-qemu/optee_os/lib/libmbedtls/mbedtls/library/bignum.c:2169
    72bc:	aa1603e2 	mov	x2, x22
    72c0:	aa1503e1 	mov	x1, x21
    72c4:	aa1503e0 	mov	x0, x21
    72c8:	17ffff7d 	b	70bc <mbedtls_mpi_inv_mod+0x1e0>
/home/hei/Desktop/optee-qemu/optee_os/lib/libmbedtls/mbedtls/library/bignum.c:2175
    72cc:	9e660102 	fmov	x2, d8
    72d0:	aa1403e1 	mov	x1, x20
    72d4:	aa1403e0 	mov	x0, x20
    72d8:	97fff801 	bl	52dc <mbedtls_mpi_add_mpi>
    72dc:	2a0003f3 	mov	w19, w0
    72e0:	34ffefc0 	cbz	w0, 70d8 <mbedtls_mpi_inv_mod+0x1fc>
    72e4:	17ffff9a 	b	714c <mbedtls_mpi_inv_mod+0x270>
/home/hei/Desktop/optee-qemu/optee_os/lib/libmbedtls/mbedtls/library/bignum.c:2178
    72e8:	9e660102 	fmov	x2, d8
    72ec:	aa1403e1 	mov	x1, x20
    72f0:	aa1403e0 	mov	x0, x20
    72f4:	97fff81c 	bl	5364 <mbedtls_mpi_sub_mpi>
    72f8:	2a0003f3 	mov	w19, w0
    72fc:	34ffef60 	cbz	w0, 70e8 <mbedtls_mpi_inv_mod+0x20c>
    7300:	17ffff93 	b	714c <mbedtls_mpi_inv_mod+0x270>
/home/hei/Desktop/optee-qemu/optee_os/lib/libmbedtls/mbedtls/library/bignum.c:2115
    7304:	128001b3 	mov	w19, #0xfffffff2            	// #-14
    7308:	17ffff91 	b	714c <mbedtls_mpi_inv_mod+0x270>
/home/hei/Desktop/optee-qemu/optee_os/lib/libmbedtls/mbedtls/library/bignum.c:2103
    730c:	12800073 	mov	w19, #0xfffffffc            	// #-4
    7310:	17ffffa1 	b	7194 <mbedtls_mpi_inv_mod+0x2b8>

0000000000007314 <mbedtls_mpi_is_prime_ext>:
mbedtls_mpi_is_prime_ext():
/home/hei/Desktop/optee-qemu/optee_os/lib/libmbedtls/mbedtls/library/bignum.c:2352
    7314:	a9bb7bfd 	stp	x29, x30, [sp, #-80]!
    7318:	910003fd 	mov	x29, sp
    731c:	a90153f3 	stp	x19, x20, [sp, #16]
    7320:	2a0103f4 	mov	w20, w1
/home/hei/Desktop/optee-qemu/optee_os/lib/libmbedtls/mbedtls/library/bignum.c:2358
    7324:	52800021 	mov	w1, #0x1                   	// #1
    7328:	790073e1 	strh	w1, [sp, #56]
/home/hei/Desktop/optee-qemu/optee_os/lib/libmbedtls/mbedtls/library/bignum.c:2362
    732c:	9100e3f3 	add	x19, sp, #0x38
/home/hei/Desktop/optee-qemu/optee_os/lib/libmbedtls/mbedtls/library/bignum.c:2360
    7330:	a9408001 	ldp	x1, x0, [x0, #8]
/home/hei/Desktop/optee-qemu/optee_os/lib/libmbedtls/mbedtls/library/bignum.c:2352
    7334:	a9025bf5 	stp	x21, x22, [sp, #32]
    7338:	aa0203f5 	mov	x21, x2
    733c:	aa0303f6 	mov	x22, x3
/home/hei/Desktop/optee-qemu/optee_os/lib/libmbedtls/mbedtls/library/bignum.c:2360
    7340:	a90403e1 	stp	x1, x0, [sp, #64]
/home/hei/Desktop/optee-qemu/optee_os/lib/libmbedtls/mbedtls/library/bignum.c:2362
    7344:	52800001 	mov	w1, #0x0                   	// #0
    7348:	aa1303e0 	mov	x0, x19
    734c:	97fff754 	bl	509c <mbedtls_mpi_cmp_int>
    7350:	350000c0 	cbnz	w0, 7368 <mbedtls_mpi_is_prime_ext+0x54>
/home/hei/Desktop/optee-qemu/optee_os/lib/libmbedtls/mbedtls/library/bignum.c:2364
    7354:	128001a0 	mov	w0, #0xfffffff2            	// #-14
/home/hei/Desktop/optee-qemu/optee_os/lib/libmbedtls/mbedtls/library/bignum.c:2378
    7358:	a94153f3 	ldp	x19, x20, [sp, #16]
    735c:	a9425bf5 	ldp	x21, x22, [sp, #32]
    7360:	a8c57bfd 	ldp	x29, x30, [sp], #80
    7364:	d65f03c0 	ret
/home/hei/Desktop/optee-qemu/optee_os/lib/libmbedtls/mbedtls/library/bignum.c:2363 (discriminator 1)
    7368:	52800021 	mov	w1, #0x1                   	// #1
    736c:	aa1303e0 	mov	x0, x19
    7370:	97fff74b 	bl	509c <mbedtls_mpi_cmp_int>
/home/hei/Desktop/optee-qemu/optee_os/lib/libmbedtls/mbedtls/library/bignum.c:2362 (discriminator 1)
    7374:	34ffff00 	cbz	w0, 7354 <mbedtls_mpi_is_prime_ext+0x40>
/home/hei/Desktop/optee-qemu/optee_os/lib/libmbedtls/mbedtls/library/bignum.c:2366
    7378:	52800041 	mov	w1, #0x2                   	// #2
    737c:	aa1303e0 	mov	x0, x19
    7380:	97fff747 	bl	509c <mbedtls_mpi_cmp_int>
    7384:	340000c0 	cbz	w0, 739c <mbedtls_mpi_is_prime_ext+0x88>
/home/hei/Desktop/optee-qemu/optee_os/lib/libmbedtls/mbedtls/library/bignum.c:2369
    7388:	aa1303e0 	mov	x0, x19
    738c:	97fffb6d 	bl	6140 <mpi_check_small_factors>
    7390:	340000a0 	cbz	w0, 73a4 <mbedtls_mpi_is_prime_ext+0x90>
/home/hei/Desktop/optee-qemu/optee_os/lib/libmbedtls/mbedtls/library/bignum.c:2371
    7394:	7100041f 	cmp	w0, #0x1
    7398:	54fffe01 	b.ne	7358 <mbedtls_mpi_is_prime_ext+0x44>  // b.any
/home/hei/Desktop/optee-qemu/optee_os/lib/libmbedtls/mbedtls/library/bignum.c:2372
    739c:	52800000 	mov	w0, #0x0                   	// #0
    73a0:	17ffffee 	b	7358 <mbedtls_mpi_is_prime_ext+0x44>
/home/hei/Desktop/optee-qemu/optee_os/lib/libmbedtls/mbedtls/library/bignum.c:2377
    73a4:	aa1603e3 	mov	x3, x22
    73a8:	aa1503e2 	mov	x2, x21
    73ac:	93407e81 	sxtw	x1, w20
    73b0:	aa1303e0 	mov	x0, x19
    73b4:	97fffe28 	bl	6c54 <mpi_miller_rabin>
    73b8:	17ffffe8 	b	7358 <mbedtls_mpi_is_prime_ext+0x44>

00000000000073bc <mbedtls_mpi_is_prime>:
mbedtls_mpi_is_prime():
/home/hei/Desktop/optee-qemu/optee_os/lib/libmbedtls/mbedtls/library/bignum.c:2396
    73bc:	aa0203e3 	mov	x3, x2
    73c0:	aa0103e2 	mov	x2, x1
    73c4:	52800501 	mov	w1, #0x28                  	// #40
    73c8:	17ffffd3 	b	7314 <mbedtls_mpi_is_prime_ext>

00000000000073cc <mbedtls_mpi_gen_prime>:
mbedtls_mpi_gen_prime():
/home/hei/Desktop/optee-qemu/optee_os/lib/libmbedtls/mbedtls/library/bignum.c:2410
    73cc:	a9b67bfd 	stp	x29, x30, [sp, #-160]!
/home/hei/Desktop/optee-qemu/optee_os/lib/libmbedtls/mbedtls/library/bignum.c:2427
    73d0:	d1000c26 	sub	x6, x1, #0x3
    73d4:	d283ffa5 	mov	x5, #0x1ffd                	// #8189
/home/hei/Desktop/optee-qemu/optee_os/lib/libmbedtls/mbedtls/library/bignum.c:2410
    73d8:	910003fd 	mov	x29, sp
    73dc:	a90153f3 	stp	x19, x20, [sp, #16]
/home/hei/Desktop/optee-qemu/optee_os/lib/libmbedtls/mbedtls/library/bignum.c:2427
    73e0:	eb0500df 	cmp	x6, x5
/home/hei/Desktop/optee-qemu/optee_os/lib/libmbedtls/mbedtls/library/bignum.c:2410
    73e4:	a9025bf5 	stp	x21, x22, [sp, #32]
    73e8:	a90363f7 	stp	x23, x24, [sp, #48]
    73ec:	a9046bf9 	stp	x25, x26, [sp, #64]
    73f0:	a90573fb 	stp	x27, x28, [sp, #80]
    73f4:	6d0627e8 	stp	d8, d9, [sp, #96]
/home/hei/Desktop/optee-qemu/optee_os/lib/libmbedtls/mbedtls/library/bignum.c:2427
    73f8:	540016c8 	b.hi	76d0 <mbedtls_mpi_gen_prime+0x304>  // b.pmore
    73fc:	9e670089 	fmov	d9, x4
    7400:	9e670068 	fmov	d8, x3
    7404:	aa0103fa 	mov	x26, x1
/home/hei/Desktop/optee-qemu/optee_os/lib/libmbedtls/mbedtls/library/bignum.c:2430
    7408:	910223f6 	add	x22, sp, #0x88
    740c:	2a0203f8 	mov	w24, w2
    7410:	aa0003f5 	mov	x21, x0
    7414:	aa1603e0 	mov	x0, x22
    7418:	97fff41f 	bl	4494 <mbedtls_mpi_init_mempool>
/home/hei/Desktop/optee-qemu/optee_os/lib/libmbedtls/mbedtls/library/bignum.c:2432
    741c:	f240135f 	tst	x26, #0x1f
    7420:	d345ff57 	lsr	x23, x26, #5
    7424:	9a9706f7 	cinc	x23, x23, ne  // ne = any
/home/hei/Desktop/optee-qemu/optee_os/lib/libmbedtls/mbedtls/library/bignum.c:2434
    7428:	37080cf8 	tbnz	w24, #1, 75c4 <mbedtls_mpi_gen_prime+0x1f8>
/home/hei/Desktop/optee-qemu/optee_os/lib/libmbedtls/mbedtls/library/bignum.c:2439
    742c:	f1144f5f 	cmp	x26, #0x513
    7430:	54000ee8 	b.hi	760c <mbedtls_mpi_gen_prime+0x240>  // b.pmore
/home/hei/Desktop/optee-qemu/optee_os/lib/libmbedtls/mbedtls/library/bignum.c:2439 (discriminator 1)
    7434:	f10d475f 	cmp	x26, #0x351
    7438:	54000ee8 	b.hi	7614 <mbedtls_mpi_gen_prime+0x248>  // b.pmore
/home/hei/Desktop/optee-qemu/optee_os/lib/libmbedtls/mbedtls/library/bignum.c:2440
    743c:	f10a275f 	cmp	x26, #0x289
    7440:	54000f28 	b.hi	7624 <mbedtls_mpi_gen_prime+0x258>  // b.pmore
/home/hei/Desktop/optee-qemu/optee_os/lib/libmbedtls/mbedtls/library/bignum.c:2440 (discriminator 1)
    7444:	f105775f 	cmp	x26, #0x15d
    7448:	54000fe8 	b.hi	7644 <mbedtls_mpi_gen_prime+0x278>  // b.pmore
/home/hei/Desktop/optee-qemu/optee_os/lib/libmbedtls/mbedtls/library/bignum.c:2441
    744c:	f103e75f 	cmp	x26, #0xf9
    7450:	54000e68 	b.hi	761c <mbedtls_mpi_gen_prime+0x250>  // b.pmore
/home/hei/Desktop/optee-qemu/optee_os/lib/libmbedtls/mbedtls/library/bignum.c:2441 (discriminator 1)
    7454:	f102575f 	cmp	x26, #0x95
    7458:	d2800254 	mov	x20, #0x12                  	// #18
    745c:	d2800360 	mov	x0, #0x1b                  	// #27
/home/hei/Desktop/optee-qemu/optee_os/lib/libmbedtls/mbedtls/library/bignum.c:2452 (discriminator 1)
    7460:	9a808294 	csel	x20, x20, x0, hi  // hi = pmore
/home/hei/Desktop/optee-qemu/optee_os/lib/libmbedtls/mbedtls/library/bignum.c:2457
    7464:	d37ef6f9 	lsl	x25, x23, #2
/home/hei/Desktop/optee-qemu/optee_os/lib/libmbedtls/mbedtls/library/bignum.c:2461
    7468:	d37beaf7 	lsl	x23, x23, #5
/home/hei/Desktop/optee-qemu/optee_os/lib/libmbedtls/mbedtls/library/bignum.c:2459
    746c:	529e667c 	mov	w28, #0xf333                	// #62259
/home/hei/Desktop/optee-qemu/optee_os/lib/libmbedtls/mbedtls/library/bignum.c:2462
    7470:	cb1a02fb 	sub	x27, x23, x26
/home/hei/Desktop/optee-qemu/optee_os/lib/libmbedtls/mbedtls/library/bignum.c:2465
    7474:	12000318 	and	w24, w24, #0x1
/home/hei/Desktop/optee-qemu/optee_os/lib/libmbedtls/mbedtls/library/bignum.c:2459
    7478:	d1001320 	sub	x0, x25, #0x4
    747c:	72b6a09c 	movk	w28, #0xb504, lsl #16
    7480:	f9003fe0 	str	x0, [sp, #120]
/home/hei/Desktop/optee-qemu/optee_os/lib/libmbedtls/mbedtls/library/bignum.c:2457
    7484:	9e660123 	fmov	x3, d9
    7488:	9e660102 	fmov	x2, d8
    748c:	aa1903e1 	mov	x1, x25
    7490:	aa1503e0 	mov	x0, x21
    7494:	97fffdcf 	bl	6bd0 <mbedtls_mpi_fill_random>
    7498:	2a0003f3 	mov	w19, w0
    749c:	35000ea0 	cbnz	w0, 7670 <mbedtls_mpi_gen_prime+0x2a4>
/home/hei/Desktop/optee-qemu/optee_os/lib/libmbedtls/mbedtls/library/bignum.c:2459
    74a0:	f9400aa0 	ldr	x0, [x21, #16]
    74a4:	f9403fe1 	ldr	x1, [sp, #120]
    74a8:	b8616800 	ldr	w0, [x0, x1]
    74ac:	6b1c001f 	cmp	w0, w28
    74b0:	54fffea9 	b.ls	7484 <mbedtls_mpi_gen_prime+0xb8>  // b.plast
/home/hei/Desktop/optee-qemu/optee_os/lib/libmbedtls/mbedtls/library/bignum.c:2462
    74b4:	eb17035f 	cmp	x26, x23
    74b8:	54000d23 	b.cc	765c <mbedtls_mpi_gen_prime+0x290>  // b.lo, b.ul, b.last
/home/hei/Desktop/optee-qemu/optee_os/lib/libmbedtls/mbedtls/library/bignum.c:2463
    74bc:	f9400aa1 	ldr	x1, [x21, #16]
    74c0:	b9400020 	ldr	w0, [x1]
    74c4:	32000002 	orr	w2, w0, #0x1
    74c8:	b9000022 	str	w2, [x1]
/home/hei/Desktop/optee-qemu/optee_os/lib/libmbedtls/mbedtls/library/bignum.c:2465
    74cc:	34000e98 	cbz	w24, 769c <mbedtls_mpi_gen_prime+0x2d0>
/home/hei/Desktop/optee-qemu/optee_os/lib/libmbedtls/mbedtls/library/bignum.c:2480
    74d0:	32000400 	orr	w0, w0, #0x3
    74d4:	b9000020 	str	w0, [x1]
/home/hei/Desktop/optee-qemu/optee_os/lib/libmbedtls/mbedtls/library/bignum.c:2482
    74d8:	52800062 	mov	w2, #0x3                   	// #3
    74dc:	aa1503e1 	mov	x1, x21
    74e0:	910213e0 	add	x0, sp, #0x84
    74e4:	97fffa45 	bl	5df8 <mbedtls_mpi_mod_int>
    74e8:	2a0003f3 	mov	w19, w0
    74ec:	35000c20 	cbnz	w0, 7670 <mbedtls_mpi_gen_prime+0x2a4>
/home/hei/Desktop/optee-qemu/optee_os/lib/libmbedtls/mbedtls/library/bignum.c:2483
    74f0:	b94087e0 	ldr	w0, [sp, #132]
    74f4:	35000e60 	cbnz	w0, 76c0 <mbedtls_mpi_gen_prime+0x2f4>
/home/hei/Desktop/optee-qemu/optee_os/lib/libmbedtls/mbedtls/library/bignum.c:2484
    74f8:	52800102 	mov	w2, #0x8                   	// #8
    74fc:	aa1503e1 	mov	x1, x21
    7500:	aa1503e0 	mov	x0, x21
    7504:	97fff7bb 	bl	53f0 <mbedtls_mpi_add_int>
    7508:	2a0003f3 	mov	w19, w0
    750c:	35000b20 	cbnz	w0, 7670 <mbedtls_mpi_gen_prime+0x2a4>
/home/hei/Desktop/optee-qemu/optee_os/lib/libmbedtls/mbedtls/library/bignum.c:2489
    7510:	aa1503e1 	mov	x1, x21
    7514:	aa1603e0 	mov	x0, x22
    7518:	97fff48a 	bl	4740 <mbedtls_mpi_copy>
    751c:	2a0003f3 	mov	w19, w0
    7520:	35000a80 	cbnz	w0, 7670 <mbedtls_mpi_gen_prime+0x2a4>
/home/hei/Desktop/optee-qemu/optee_os/lib/libmbedtls/mbedtls/library/bignum.c:2490
    7524:	d2800021 	mov	x1, #0x1                   	// #1
    7528:	aa1603e0 	mov	x0, x22
    752c:	97fff64d 	bl	4e60 <mbedtls_mpi_shift_r>
    7530:	2a0003f3 	mov	w19, w0
    7534:	350009e0 	cbnz	w0, 7670 <mbedtls_mpi_gen_prime+0x2a4>
/home/hei/Desktop/optee-qemu/optee_os/lib/libmbedtls/mbedtls/library/bignum.c:2498
    7538:	aa1503e0 	mov	x0, x21
    753c:	97fffb01 	bl	6140 <mpi_check_small_factors>
    7540:	2a0003f3 	mov	w19, w0
    7544:	35000260 	cbnz	w0, 7590 <mbedtls_mpi_gen_prime+0x1c4>
/home/hei/Desktop/optee-qemu/optee_os/lib/libmbedtls/mbedtls/library/bignum.c:2499 (discriminator 1)
    7548:	aa1603e0 	mov	x0, x22
    754c:	97fffafd 	bl	6140 <mpi_check_small_factors>
    7550:	2a0003f3 	mov	w19, w0
/home/hei/Desktop/optee-qemu/optee_os/lib/libmbedtls/mbedtls/library/bignum.c:2498 (discriminator 1)
    7554:	350001e0 	cbnz	w0, 7590 <mbedtls_mpi_gen_prime+0x1c4>
/home/hei/Desktop/optee-qemu/optee_os/lib/libmbedtls/mbedtls/library/bignum.c:2500
    7558:	9e660123 	fmov	x3, d9
    755c:	9e660102 	fmov	x2, d8
    7560:	aa1403e1 	mov	x1, x20
    7564:	aa1503e0 	mov	x0, x21
    7568:	97fffdbb 	bl	6c54 <mpi_miller_rabin>
    756c:	2a0003f3 	mov	w19, w0
/home/hei/Desktop/optee-qemu/optee_os/lib/libmbedtls/mbedtls/library/bignum.c:2499
    7570:	35000100 	cbnz	w0, 7590 <mbedtls_mpi_gen_prime+0x1c4>
/home/hei/Desktop/optee-qemu/optee_os/lib/libmbedtls/mbedtls/library/bignum.c:2502
    7574:	9e660123 	fmov	x3, d9
    7578:	9e660102 	fmov	x2, d8
    757c:	aa1403e1 	mov	x1, x20
    7580:	aa1603e0 	mov	x0, x22
    7584:	97fffdb4 	bl	6c54 <mpi_miller_rabin>
    7588:	2a0003f3 	mov	w19, w0
/home/hei/Desktop/optee-qemu/optee_os/lib/libmbedtls/mbedtls/library/bignum.c:2501
    758c:	34000720 	cbz	w0, 7670 <mbedtls_mpi_gen_prime+0x2a4>
/home/hei/Desktop/optee-qemu/optee_os/lib/libmbedtls/mbedtls/library/bignum.c:2506
    7590:	31003a7f 	cmn	w19, #0xe
    7594:	540006e1 	b.ne	7670 <mbedtls_mpi_gen_prime+0x2a4>  // b.any
/home/hei/Desktop/optee-qemu/optee_os/lib/libmbedtls/mbedtls/library/bignum.c:2514
    7598:	52800182 	mov	w2, #0xc                   	// #12
    759c:	aa1503e1 	mov	x1, x21
    75a0:	aa1503e0 	mov	x0, x21
    75a4:	97fff793 	bl	53f0 <mbedtls_mpi_add_int>
    75a8:	2a0003f3 	mov	w19, w0
    75ac:	35000620 	cbnz	w0, 7670 <mbedtls_mpi_gen_prime+0x2a4>
/home/hei/Desktop/optee-qemu/optee_os/lib/libmbedtls/mbedtls/library/bignum.c:2515
    75b0:	528000c2 	mov	w2, #0x6                   	// #6
    75b4:	aa1603e1 	mov	x1, x22
    75b8:	aa1603e0 	mov	x0, x22
    75bc:	97fff78d 	bl	53f0 <mbedtls_mpi_add_int>
    75c0:	17ffffdc 	b	7530 <mbedtls_mpi_gen_prime+0x164>
/home/hei/Desktop/optee-qemu/optee_os/lib/libmbedtls/mbedtls/library/bignum.c:2449
    75c4:	f116a75f 	cmp	x26, #0x5a9
    75c8:	540002e8 	b.hi	7624 <mbedtls_mpi_gen_prime+0x258>  // b.pmore
/home/hei/Desktop/optee-qemu/optee_os/lib/libmbedtls/mbedtls/library/bignum.c:2449 (discriminator 1)
    75cc:	f111f75f 	cmp	x26, #0x47d
    75d0:	540002e8 	b.hi	762c <mbedtls_mpi_gen_prime+0x260>  // b.pmore
/home/hei/Desktop/optee-qemu/optee_os/lib/libmbedtls/mbedtls/library/bignum.c:2450
    75d4:	f10f9f5f 	cmp	x26, #0x3e7
    75d8:	540002e8 	b.hi	7634 <mbedtls_mpi_gen_prime+0x268>  // b.pmore
/home/hei/Desktop/optee-qemu/optee_os/lib/libmbedtls/mbedtls/library/bignum.c:2450 (discriminator 1)
    75dc:	f10d475f 	cmp	x26, #0x351
    75e0:	540002e8 	b.hi	763c <mbedtls_mpi_gen_prime+0x270>  // b.pmore
/home/hei/Desktop/optee-qemu/optee_os/lib/libmbedtls/mbedtls/library/bignum.c:2451
    75e4:	f10bb75f 	cmp	x26, #0x2ed
    75e8:	540002e8 	b.hi	7644 <mbedtls_mpi_gen_prime+0x278>  // b.pmore
/home/hei/Desktop/optee-qemu/optee_os/lib/libmbedtls/mbedtls/library/bignum.c:2451 (discriminator 1)
    75ec:	f107cf5f 	cmp	x26, #0x1f3
    75f0:	540002e8 	b.hi	764c <mbedtls_mpi_gen_prime+0x280>  // b.pmore
/home/hei/Desktop/optee-qemu/optee_os/lib/libmbedtls/mbedtls/library/bignum.c:2452
    75f4:	f103e75f 	cmp	x26, #0xf9
    75f8:	540002e8 	b.hi	7654 <mbedtls_mpi_gen_prime+0x288>  // b.pmore
/home/hei/Desktop/optee-qemu/optee_os/lib/libmbedtls/mbedtls/library/bignum.c:2452 (discriminator 1)
    75fc:	f102575f 	cmp	x26, #0x95
    7600:	d2800514 	mov	x20, #0x28                  	// #40
    7604:	d2800660 	mov	x0, #0x33                  	// #51
    7608:	17ffff96 	b	7460 <mbedtls_mpi_gen_prime+0x94>
/home/hei/Desktop/optee-qemu/optee_os/lib/libmbedtls/mbedtls/library/bignum.c:2439
    760c:	d2800054 	mov	x20, #0x2                   	// #2
    7610:	17ffff95 	b	7464 <mbedtls_mpi_gen_prime+0x98>
    7614:	d2800074 	mov	x20, #0x3                   	// #3
    7618:	17ffff93 	b	7464 <mbedtls_mpi_gen_prime+0x98>
/home/hei/Desktop/optee-qemu/optee_os/lib/libmbedtls/mbedtls/library/bignum.c:2441
    761c:	d2800194 	mov	x20, #0xc                   	// #12
    7620:	17ffff91 	b	7464 <mbedtls_mpi_gen_prime+0x98>
/home/hei/Desktop/optee-qemu/optee_os/lib/libmbedtls/mbedtls/library/bignum.c:2440
    7624:	d2800094 	mov	x20, #0x4                   	// #4
    7628:	17ffff8f 	b	7464 <mbedtls_mpi_gen_prime+0x98>
/home/hei/Desktop/optee-qemu/optee_os/lib/libmbedtls/mbedtls/library/bignum.c:2449
    762c:	d28000b4 	mov	x20, #0x5                   	// #5
    7630:	17ffff8d 	b	7464 <mbedtls_mpi_gen_prime+0x98>
/home/hei/Desktop/optee-qemu/optee_os/lib/libmbedtls/mbedtls/library/bignum.c:2450
    7634:	d28000d4 	mov	x20, #0x6                   	// #6
    7638:	17ffff8b 	b	7464 <mbedtls_mpi_gen_prime+0x98>
    763c:	d28000f4 	mov	x20, #0x7                   	// #7
    7640:	17ffff89 	b	7464 <mbedtls_mpi_gen_prime+0x98>
/home/hei/Desktop/optee-qemu/optee_os/lib/libmbedtls/mbedtls/library/bignum.c:2440
    7644:	d2800114 	mov	x20, #0x8                   	// #8
    7648:	17ffff87 	b	7464 <mbedtls_mpi_gen_prime+0x98>
/home/hei/Desktop/optee-qemu/optee_os/lib/libmbedtls/mbedtls/library/bignum.c:2451
    764c:	d28001b4 	mov	x20, #0xd                   	// #13
    7650:	17ffff85 	b	7464 <mbedtls_mpi_gen_prime+0x98>
/home/hei/Desktop/optee-qemu/optee_os/lib/libmbedtls/mbedtls/library/bignum.c:2452
    7654:	d2800394 	mov	x20, #0x1c                  	// #28
    7658:	17ffff83 	b	7464 <mbedtls_mpi_gen_prime+0x98>
/home/hei/Desktop/optee-qemu/optee_os/lib/libmbedtls/mbedtls/library/bignum.c:2462 (discriminator 1)
    765c:	aa1b03e1 	mov	x1, x27
    7660:	aa1503e0 	mov	x0, x21
    7664:	97fff5ff 	bl	4e60 <mbedtls_mpi_shift_r>
    7668:	2a0003f3 	mov	w19, w0
    766c:	34fff280 	cbz	w0, 74bc <mbedtls_mpi_gen_prime+0xf0>
/home/hei/Desktop/optee-qemu/optee_os/lib/libmbedtls/mbedtls/library/bignum.c:2522
    7670:	aa1603e0 	mov	x0, x22
    7674:	97fff392 	bl	44bc <mbedtls_mpi_free>
/home/hei/Desktop/optee-qemu/optee_os/lib/libmbedtls/mbedtls/library/bignum.c:2525
    7678:	2a1303e0 	mov	w0, w19
    767c:	a94153f3 	ldp	x19, x20, [sp, #16]
    7680:	a9425bf5 	ldp	x21, x22, [sp, #32]
    7684:	a94363f7 	ldp	x23, x24, [sp, #48]
    7688:	a9446bf9 	ldp	x25, x26, [sp, #64]
    768c:	a94573fb 	ldp	x27, x28, [sp, #80]
    7690:	6d4627e8 	ldp	d8, d9, [sp, #96]
    7694:	a8ca7bfd 	ldp	x29, x30, [sp], #160
    7698:	d65f03c0 	ret
/home/hei/Desktop/optee-qemu/optee_os/lib/libmbedtls/mbedtls/library/bignum.c:2467
    769c:	9e660123 	fmov	x3, d9
    76a0:	9e660102 	fmov	x2, d8
    76a4:	2a1403e1 	mov	w1, w20
    76a8:	aa1503e0 	mov	x0, x21
    76ac:	97ffff1a 	bl	7314 <mbedtls_mpi_is_prime_ext>
    76b0:	2a0003f3 	mov	w19, w0
/home/hei/Desktop/optee-qemu/optee_os/lib/libmbedtls/mbedtls/library/bignum.c:2469
    76b4:	3100381f 	cmn	w0, #0xe
    76b8:	54ffee60 	b.eq	7484 <mbedtls_mpi_gen_prime+0xb8>  // b.none
    76bc:	17ffffed 	b	7670 <mbedtls_mpi_gen_prime+0x2a4>
/home/hei/Desktop/optee-qemu/optee_os/lib/libmbedtls/mbedtls/library/bignum.c:2485
    76c0:	7100041f 	cmp	w0, #0x1
    76c4:	54fff261 	b.ne	7510 <mbedtls_mpi_gen_prime+0x144>  // b.any
/home/hei/Desktop/optee-qemu/optee_os/lib/libmbedtls/mbedtls/library/bignum.c:2486
    76c8:	52800082 	mov	w2, #0x4                   	// #4
    76cc:	17ffff8c 	b	74fc <mbedtls_mpi_gen_prime+0x130>
/home/hei/Desktop/optee-qemu/optee_os/lib/libmbedtls/mbedtls/library/bignum.c:2428
    76d0:	12800073 	mov	w19, #0xfffffffc            	// #-4
    76d4:	17ffffe9 	b	7678 <mbedtls_mpi_gen_prime+0x2ac>

00000000000076d8 <mbedtls_mpi_self_test>:
mbedtls_mpi_self_test():
/home/hei/Desktop/optee-qemu/optee_os/lib/libmbedtls/mbedtls/library/bignum.c:2544
    76d8:	a9ae7bfd 	stp	x29, x30, [sp, #-288]!
    76dc:	910003fd 	mov	x29, sp
    76e0:	a9025bf5 	stp	x21, x22, [sp, #32]
/home/hei/Desktop/optee-qemu/optee_os/lib/libmbedtls/mbedtls/library/bignum.c:2548
    76e4:	9101e3f6 	add	x22, sp, #0x78
/home/hei/Desktop/optee-qemu/optee_os/lib/libmbedtls/mbedtls/library/bignum.c:2550
    76e8:	9103c3f5 	add	x21, sp, #0xf0
/home/hei/Desktop/optee-qemu/optee_os/lib/libmbedtls/mbedtls/library/bignum.c:2544
    76ec:	a90153f3 	stp	x19, x20, [sp, #16]
    76f0:	2a0003f3 	mov	w19, w0
/home/hei/Desktop/optee-qemu/optee_os/lib/libmbedtls/mbedtls/library/bignum.c:2548
    76f4:	aa1603e0 	mov	x0, x22
/home/hei/Desktop/optee-qemu/optee_os/lib/libmbedtls/mbedtls/library/bignum.c:2544
    76f8:	a90363f7 	stp	x23, x24, [sp, #48]
/home/hei/Desktop/optee-qemu/optee_os/lib/libmbedtls/mbedtls/library/bignum.c:2549
    76fc:	9102a3f8 	add	x24, sp, #0xa8
    7700:	910303f4 	add	x20, sp, #0xc0
/home/hei/Desktop/optee-qemu/optee_os/lib/libmbedtls/mbedtls/library/bignum.c:2544
    7704:	a9046bf9 	stp	x25, x26, [sp, #64]
/home/hei/Desktop/optee-qemu/optee_os/lib/libmbedtls/mbedtls/library/bignum.c:2550
    7708:	910363f9 	add	x25, sp, #0xd8
/home/hei/Desktop/optee-qemu/optee_os/lib/libmbedtls/mbedtls/library/bignum.c:2544
    770c:	a90573fb 	stp	x27, x28, [sp, #80]
/home/hei/Desktop/optee-qemu/optee_os/lib/libmbedtls/mbedtls/library/bignum.c:2548
    7710:	97fff361 	bl	4494 <mbedtls_mpi_init_mempool>
    7714:	910243fc 	add	x28, sp, #0x90
    7718:	aa1c03e0 	mov	x0, x28
    771c:	97fff35e 	bl	4494 <mbedtls_mpi_init_mempool>
/home/hei/Desktop/optee-qemu/optee_os/lib/libmbedtls/mbedtls/library/bignum.c:2549
    7720:	aa1803e0 	mov	x0, x24
    7724:	97fff35c 	bl	4494 <mbedtls_mpi_init_mempool>
    7728:	aa1403e0 	mov	x0, x20
    772c:	97fff35a 	bl	4494 <mbedtls_mpi_init_mempool>
/home/hei/Desktop/optee-qemu/optee_os/lib/libmbedtls/mbedtls/library/bignum.c:2550
    7730:	aa1903e0 	mov	x0, x25
    7734:	97fff358 	bl	4494 <mbedtls_mpi_init_mempool>
    7738:	aa1503e0 	mov	x0, x21
    773c:	97fff356 	bl	4494 <mbedtls_mpi_init_mempool>
/home/hei/Desktop/optee-qemu/optee_os/lib/libmbedtls/mbedtls/library/bignum.c:2551
    7740:	910423e0 	add	x0, sp, #0x108
    7744:	f90037e0 	str	x0, [sp, #104]
    7748:	97fff353 	bl	4494 <mbedtls_mpi_init_mempool>
/home/hei/Desktop/optee-qemu/optee_os/lib/libmbedtls/mbedtls/library/bignum.c:2553
    774c:	f0000002 	adrp	x2, a000 <__text_end+0x1540>
    7750:	52800201 	mov	w1, #0x10                  	// #16
    7754:	91384842 	add	x2, x2, #0xe12
    7758:	aa1603e0 	mov	x0, x22
    775c:	97fff7a6 	bl	55f4 <mbedtls_mpi_read_string>
    7760:	2a0003fb 	mov	w27, w0
    7764:	350004c0 	cbnz	w0, 77fc <mbedtls_mpi_self_test+0x124>
/home/hei/Desktop/optee-qemu/optee_os/lib/libmbedtls/mbedtls/library/bignum.c:2559
    7768:	f0000002 	adrp	x2, a000 <__text_end+0x1540>
    776c:	52800201 	mov	w1, #0x10                  	// #16
    7770:	913a4c42 	add	x2, x2, #0xe93
    7774:	aa1c03e0 	mov	x0, x28
    7778:	97fff79f 	bl	55f4 <mbedtls_mpi_read_string>
    777c:	2a0003fb 	mov	w27, w0
    7780:	350003e0 	cbnz	w0, 77fc <mbedtls_mpi_self_test+0x124>
/home/hei/Desktop/optee-qemu/optee_os/lib/libmbedtls/mbedtls/library/bignum.c:2565
    7784:	f0000002 	adrp	x2, a000 <__text_end+0x1540>
    7788:	52800201 	mov	w1, #0x10                  	// #16
    778c:	913c5042 	add	x2, x2, #0xf14
    7790:	aa1803e0 	mov	x0, x24
    7794:	97fff798 	bl	55f4 <mbedtls_mpi_read_string>
    7798:	2a0003fb 	mov	w27, w0
    779c:	35000300 	cbnz	w0, 77fc <mbedtls_mpi_self_test+0x124>
/home/hei/Desktop/optee-qemu/optee_os/lib/libmbedtls/mbedtls/library/bignum.c:2570
    77a0:	aa1803e2 	mov	x2, x24
    77a4:	aa1603e1 	mov	x1, x22
    77a8:	aa1403e0 	mov	x0, x20
    77ac:	97fff731 	bl	5470 <mbedtls_mpi_mul_mpi>
    77b0:	2a0003fb 	mov	w27, w0
    77b4:	35000240 	cbnz	w0, 77fc <mbedtls_mpi_self_test+0x124>
/home/hei/Desktop/optee-qemu/optee_os/lib/libmbedtls/mbedtls/library/bignum.c:2572
    77b8:	f0000002 	adrp	x2, a000 <__text_end+0x1540>
    77bc:	52800201 	mov	w1, #0x10                  	// #16
    77c0:	913dd442 	add	x2, x2, #0xf75
    77c4:	aa1503e0 	mov	x0, x21
    77c8:	97fff78b 	bl	55f4 <mbedtls_mpi_read_string>
    77cc:	2a0003fb 	mov	w27, w0
    77d0:	35000160 	cbnz	w0, 77fc <mbedtls_mpi_self_test+0x124>
/home/hei/Desktop/optee-qemu/optee_os/lib/libmbedtls/mbedtls/library/bignum.c:2581
    77d4:	34000093 	cbz	w19, 77e4 <mbedtls_mpi_self_test+0x10c>
/home/hei/Desktop/optee-qemu/optee_os/lib/libmbedtls/mbedtls/library/bignum.c:2582
    77d8:	90000020 	adrp	x0, b000 <__func__.5086+0x2cb>
    77dc:	91015000 	add	x0, x0, #0x54
    77e0:	97ffe760 	bl	1560 <printf>
/home/hei/Desktop/optee-qemu/optee_os/lib/libmbedtls/mbedtls/library/bignum.c:2584
    77e4:	aa1503e1 	mov	x1, x21
    77e8:	aa1403e0 	mov	x0, x20
    77ec:	97fff5f6 	bl	4fc4 <mbedtls_mpi_cmp_mpi>
    77f0:	340004e0 	cbz	w0, 788c <mbedtls_mpi_self_test+0x1b4>
/home/hei/Desktop/optee-qemu/optee_os/lib/libmbedtls/mbedtls/library/bignum.c:2586
    77f4:	35000453 	cbnz	w19, 787c <mbedtls_mpi_self_test+0x1a4>
/home/hei/Desktop/optee-qemu/optee_os/lib/libmbedtls/mbedtls/library/bignum.c:2681
    77f8:	5280003b 	mov	w27, #0x1                   	// #1
/home/hei/Desktop/optee-qemu/optee_os/lib/libmbedtls/mbedtls/library/bignum.c:2691
    77fc:	7100037f 	cmp	w27, #0x0
    7800:	7a401a64 	ccmp	w19, #0x0, #0x4, ne  // ne = any
    7804:	540000a0 	b.eq	7818 <mbedtls_mpi_self_test+0x140>  // b.none
/home/hei/Desktop/optee-qemu/optee_os/lib/libmbedtls/mbedtls/library/bignum.c:2692
    7808:	90000020 	adrp	x0, b000 <__func__.5086+0x2cb>
    780c:	2a1b03e1 	mov	w1, w27
    7810:	9108e000 	add	x0, x0, #0x238
    7814:	97ffe753 	bl	1560 <printf>
/home/hei/Desktop/optee-qemu/optee_os/lib/libmbedtls/mbedtls/library/bignum.c:2694
    7818:	aa1603e0 	mov	x0, x22
    781c:	97fff328 	bl	44bc <mbedtls_mpi_free>
    7820:	aa1c03e0 	mov	x0, x28
    7824:	97fff326 	bl	44bc <mbedtls_mpi_free>
    7828:	aa1803e0 	mov	x0, x24
    782c:	97fff324 	bl	44bc <mbedtls_mpi_free>
    7830:	aa1403e0 	mov	x0, x20
    7834:	97fff322 	bl	44bc <mbedtls_mpi_free>
/home/hei/Desktop/optee-qemu/optee_os/lib/libmbedtls/mbedtls/library/bignum.c:2695
    7838:	aa1903e0 	mov	x0, x25
    783c:	97fff320 	bl	44bc <mbedtls_mpi_free>
    7840:	aa1503e0 	mov	x0, x21
    7844:	97fff31e 	bl	44bc <mbedtls_mpi_free>
    7848:	f94037e0 	ldr	x0, [sp, #104]
    784c:	97fff31c 	bl	44bc <mbedtls_mpi_free>
/home/hei/Desktop/optee-qemu/optee_os/lib/libmbedtls/mbedtls/library/bignum.c:2697
    7850:	34000073 	cbz	w19, 785c <mbedtls_mpi_self_test+0x184>
/home/hei/Desktop/optee-qemu/optee_os/lib/libmbedtls/mbedtls/library/bignum.c:2698
    7854:	52800140 	mov	w0, #0xa                   	// #10
    7858:	97ffe784 	bl	1668 <putchar>
/home/hei/Desktop/optee-qemu/optee_os/lib/libmbedtls/mbedtls/library/bignum.c:2701
    785c:	2a1b03e0 	mov	w0, w27
    7860:	a94153f3 	ldp	x19, x20, [sp, #16]
    7864:	a9425bf5 	ldp	x21, x22, [sp, #32]
    7868:	a94363f7 	ldp	x23, x24, [sp, #48]
    786c:	a9446bf9 	ldp	x25, x26, [sp, #64]
    7870:	a94573fb 	ldp	x27, x28, [sp, #80]
    7874:	a8d27bfd 	ldp	x29, x30, [sp], #288
    7878:	d65f03c0 	ret
/home/hei/Desktop/optee-qemu/optee_os/lib/libmbedtls/mbedtls/library/bignum.c:2587
    787c:	90000020 	adrp	x0, b000 <__func__.5086+0x2cb>
    7880:	9101b800 	add	x0, x0, #0x6e
    7884:	97ffe769 	bl	1628 <puts>
    7888:	17ffffdc 	b	77f8 <mbedtls_mpi_self_test+0x120>
/home/hei/Desktop/optee-qemu/optee_os/lib/libmbedtls/mbedtls/library/bignum.c:2593
    788c:	34000093 	cbz	w19, 789c <mbedtls_mpi_self_test+0x1c4>
/home/hei/Desktop/optee-qemu/optee_os/lib/libmbedtls/mbedtls/library/bignum.c:2594
    7890:	90000020 	adrp	x0, b000 <__func__.5086+0x2cb>
    7894:	9101d400 	add	x0, x0, #0x75
    7898:	97ffe764 	bl	1628 <puts>
/home/hei/Desktop/optee-qemu/optee_os/lib/libmbedtls/mbedtls/library/bignum.c:2596
    789c:	aa1803e3 	mov	x3, x24
    78a0:	aa1603e2 	mov	x2, x22
    78a4:	aa1903e1 	mov	x1, x25
    78a8:	aa1403e0 	mov	x0, x20
    78ac:	97fff7cb 	bl	57d8 <mbedtls_mpi_div_mpi>
    78b0:	2a0003fb 	mov	w27, w0
    78b4:	35fffa40 	cbnz	w0, 77fc <mbedtls_mpi_self_test+0x124>
/home/hei/Desktop/optee-qemu/optee_os/lib/libmbedtls/mbedtls/library/bignum.c:2598
    78b8:	90000022 	adrp	x2, b000 <__func__.5086+0x2cb>
    78bc:	52800201 	mov	w1, #0x10                  	// #16
    78c0:	9101f042 	add	x2, x2, #0x7c
    78c4:	aa1503e0 	mov	x0, x21
    78c8:	97fff74b 	bl	55f4 <mbedtls_mpi_read_string>
    78cc:	2a0003fb 	mov	w27, w0
    78d0:	35fff960 	cbnz	w0, 77fc <mbedtls_mpi_self_test+0x124>
/home/hei/Desktop/optee-qemu/optee_os/lib/libmbedtls/mbedtls/library/bignum.c:2601
    78d4:	f94037e0 	ldr	x0, [sp, #104]
    78d8:	90000022 	adrp	x2, b000 <__func__.5086+0x2cb>
    78dc:	52800201 	mov	w1, #0x10                  	// #16
    78e0:	91028042 	add	x2, x2, #0xa0
    78e4:	97fff744 	bl	55f4 <mbedtls_mpi_read_string>
    78e8:	2a0003fb 	mov	w27, w0
    78ec:	35fff880 	cbnz	w0, 77fc <mbedtls_mpi_self_test+0x124>
/home/hei/Desktop/optee-qemu/optee_os/lib/libmbedtls/mbedtls/library/bignum.c:2606
    78f0:	34000093 	cbz	w19, 7900 <mbedtls_mpi_self_test+0x228>
/home/hei/Desktop/optee-qemu/optee_os/lib/libmbedtls/mbedtls/library/bignum.c:2607
    78f4:	90000020 	adrp	x0, b000 <__func__.5086+0x2cb>
    78f8:	9103fc00 	add	x0, x0, #0xff
    78fc:	97ffe719 	bl	1560 <printf>
/home/hei/Desktop/optee-qemu/optee_os/lib/libmbedtls/mbedtls/library/bignum.c:2609
    7900:	aa1503e1 	mov	x1, x21
    7904:	aa1403e0 	mov	x0, x20
    7908:	97fff5af 	bl	4fc4 <mbedtls_mpi_cmp_mpi>
    790c:	35fff740 	cbnz	w0, 77f4 <mbedtls_mpi_self_test+0x11c>
/home/hei/Desktop/optee-qemu/optee_os/lib/libmbedtls/mbedtls/library/bignum.c:2610 (discriminator 1)
    7910:	f94037e1 	ldr	x1, [sp, #104]
    7914:	aa1903e0 	mov	x0, x25
    7918:	97fff5ab 	bl	4fc4 <mbedtls_mpi_cmp_mpi>
/home/hei/Desktop/optee-qemu/optee_os/lib/libmbedtls/mbedtls/library/bignum.c:2609 (discriminator 1)
    791c:	35fff6c0 	cbnz	w0, 77f4 <mbedtls_mpi_self_test+0x11c>
/home/hei/Desktop/optee-qemu/optee_os/lib/libmbedtls/mbedtls/library/bignum.c:2619
    7920:	34000093 	cbz	w19, 7930 <mbedtls_mpi_self_test+0x258>
/home/hei/Desktop/optee-qemu/optee_os/lib/libmbedtls/mbedtls/library/bignum.c:2620
    7924:	90000020 	adrp	x0, b000 <__func__.5086+0x2cb>
    7928:	9101d400 	add	x0, x0, #0x75
    792c:	97ffe73f 	bl	1628 <puts>
/home/hei/Desktop/optee-qemu/optee_os/lib/libmbedtls/mbedtls/library/bignum.c:2622
    7930:	d2800004 	mov	x4, #0x0                   	// #0
    7934:	aa1803e3 	mov	x3, x24
    7938:	aa1c03e2 	mov	x2, x28
    793c:	aa1603e1 	mov	x1, x22
    7940:	aa1403e0 	mov	x0, x20
    7944:	97fffa91 	bl	6388 <mbedtls_mpi_exp_mod>
    7948:	2a0003fb 	mov	w27, w0
    794c:	35fff580 	cbnz	w0, 77fc <mbedtls_mpi_self_test+0x124>
/home/hei/Desktop/optee-qemu/optee_os/lib/libmbedtls/mbedtls/library/bignum.c:2624
    7950:	90000022 	adrp	x2, b000 <__func__.5086+0x2cb>
    7954:	52800201 	mov	w1, #0x10                  	// #16
    7958:	91046442 	add	x2, x2, #0x119
    795c:	aa1503e0 	mov	x0, x21
    7960:	97fff725 	bl	55f4 <mbedtls_mpi_read_string>
    7964:	2a0003fb 	mov	w27, w0
    7968:	35fff4a0 	cbnz	w0, 77fc <mbedtls_mpi_self_test+0x124>
/home/hei/Desktop/optee-qemu/optee_os/lib/libmbedtls/mbedtls/library/bignum.c:2629
    796c:	34000093 	cbz	w19, 797c <mbedtls_mpi_self_test+0x2a4>
/home/hei/Desktop/optee-qemu/optee_os/lib/libmbedtls/mbedtls/library/bignum.c:2630
    7970:	90000020 	adrp	x0, b000 <__func__.5086+0x2cb>
    7974:	9105e000 	add	x0, x0, #0x178
    7978:	97ffe6fa 	bl	1560 <printf>
/home/hei/Desktop/optee-qemu/optee_os/lib/libmbedtls/mbedtls/library/bignum.c:2632
    797c:	aa1503e1 	mov	x1, x21
    7980:	aa1403e0 	mov	x0, x20
    7984:	97fff590 	bl	4fc4 <mbedtls_mpi_cmp_mpi>
    7988:	35fff360 	cbnz	w0, 77f4 <mbedtls_mpi_self_test+0x11c>
/home/hei/Desktop/optee-qemu/optee_os/lib/libmbedtls/mbedtls/library/bignum.c:2641
    798c:	34000093 	cbz	w19, 799c <mbedtls_mpi_self_test+0x2c4>
/home/hei/Desktop/optee-qemu/optee_os/lib/libmbedtls/mbedtls/library/bignum.c:2642
    7990:	90000020 	adrp	x0, b000 <__func__.5086+0x2cb>
    7994:	9101d400 	add	x0, x0, #0x75
    7998:	97ffe724 	bl	1628 <puts>
/home/hei/Desktop/optee-qemu/optee_os/lib/libmbedtls/mbedtls/library/bignum.c:2644
    799c:	aa1803e2 	mov	x2, x24
    79a0:	aa1603e1 	mov	x1, x22
    79a4:	aa1403e0 	mov	x0, x20
    79a8:	97fffd4d 	bl	6edc <mbedtls_mpi_inv_mod>
    79ac:	2a0003fb 	mov	w27, w0
    79b0:	35fff260 	cbnz	w0, 77fc <mbedtls_mpi_self_test+0x124>
/home/hei/Desktop/optee-qemu/optee_os/lib/libmbedtls/mbedtls/library/bignum.c:2646
    79b4:	90000022 	adrp	x2, b000 <__func__.5086+0x2cb>
    79b8:	52800201 	mov	w1, #0x10                  	// #16
    79bc:	91064842 	add	x2, x2, #0x192
    79c0:	aa1503e0 	mov	x0, x21
    79c4:	97fff70c 	bl	55f4 <mbedtls_mpi_read_string>
    79c8:	2a0003fb 	mov	w27, w0
    79cc:	35fff180 	cbnz	w0, 77fc <mbedtls_mpi_self_test+0x124>
/home/hei/Desktop/optee-qemu/optee_os/lib/libmbedtls/mbedtls/library/bignum.c:2651
    79d0:	34000093 	cbz	w19, 79e0 <mbedtls_mpi_self_test+0x308>
/home/hei/Desktop/optee-qemu/optee_os/lib/libmbedtls/mbedtls/library/bignum.c:2652
    79d4:	90000020 	adrp	x0, b000 <__func__.5086+0x2cb>
    79d8:	9107cc00 	add	x0, x0, #0x1f3
    79dc:	97ffe6e1 	bl	1560 <printf>
/home/hei/Desktop/optee-qemu/optee_os/lib/libmbedtls/mbedtls/library/bignum.c:2654
    79e0:	aa1503e1 	mov	x1, x21
    79e4:	aa1403e0 	mov	x0, x20
    79e8:	97fff577 	bl	4fc4 <mbedtls_mpi_cmp_mpi>
    79ec:	2a0003fa 	mov	w26, w0
    79f0:	35fff020 	cbnz	w0, 77f4 <mbedtls_mpi_self_test+0x11c>
/home/hei/Desktop/optee-qemu/optee_os/lib/libmbedtls/mbedtls/library/bignum.c:2663
    79f4:	340000f3 	cbz	w19, 7a10 <mbedtls_mpi_self_test+0x338>
/home/hei/Desktop/optee-qemu/optee_os/lib/libmbedtls/mbedtls/library/bignum.c:2664
    79f8:	90000020 	adrp	x0, b000 <__func__.5086+0x2cb>
    79fc:	9101d400 	add	x0, x0, #0x75
    7a00:	97ffe70a 	bl	1628 <puts>
/home/hei/Desktop/optee-qemu/optee_os/lib/libmbedtls/mbedtls/library/bignum.c:2667
    7a04:	90000020 	adrp	x0, b000 <__func__.5086+0x2cb>
    7a08:	91083400 	add	x0, x0, #0x20d
    7a0c:	97ffe6d5 	bl	1560 <printf>
    7a10:	f0000017 	adrp	x23, a000 <__text_end+0x1540>
    7a14:	911832f7 	add	x23, x23, #0x60c
    7a18:	910a82f7 	add	x23, x23, #0x2a0
/home/hei/Desktop/optee-qemu/optee_os/lib/libmbedtls/mbedtls/library/bignum.c:2671
    7a1c:	b94002e1 	ldr	w1, [x23]
    7a20:	aa1403e0 	mov	x0, x20
    7a24:	97fff3f5 	bl	49f8 <mbedtls_mpi_lset>
    7a28:	2a0003fb 	mov	w27, w0
    7a2c:	35ffee80 	cbnz	w0, 77fc <mbedtls_mpi_self_test+0x124>
/home/hei/Desktop/optee-qemu/optee_os/lib/libmbedtls/mbedtls/library/bignum.c:2672
    7a30:	b94006e1 	ldr	w1, [x23, #4]
    7a34:	aa1903e0 	mov	x0, x25
    7a38:	97fff3f0 	bl	49f8 <mbedtls_mpi_lset>
    7a3c:	2a0003fb 	mov	w27, w0
    7a40:	35ffede0 	cbnz	w0, 77fc <mbedtls_mpi_self_test+0x124>
/home/hei/Desktop/optee-qemu/optee_os/lib/libmbedtls/mbedtls/library/bignum.c:2674
    7a44:	aa1903e2 	mov	x2, x25
    7a48:	aa1403e1 	mov	x1, x20
    7a4c:	aa1603e0 	mov	x0, x22
    7a50:	97fffbf1 	bl	6a14 <mbedtls_mpi_gcd>
    7a54:	2a0003fb 	mov	w27, w0
    7a58:	35ffed20 	cbnz	w0, 77fc <mbedtls_mpi_self_test+0x124>
/home/hei/Desktop/optee-qemu/optee_os/lib/libmbedtls/mbedtls/library/bignum.c:2676
    7a5c:	b9400ae1 	ldr	w1, [x23, #8]
    7a60:	aa1603e0 	mov	x0, x22
    7a64:	97fff58e 	bl	509c <mbedtls_mpi_cmp_int>
    7a68:	2a0003fb 	mov	w27, w0
    7a6c:	340000e0 	cbz	w0, 7a88 <mbedtls_mpi_self_test+0x3b0>
/home/hei/Desktop/optee-qemu/optee_os/lib/libmbedtls/mbedtls/library/bignum.c:2678
    7a70:	34ffec53 	cbz	w19, 77f8 <mbedtls_mpi_self_test+0x120>
/home/hei/Desktop/optee-qemu/optee_os/lib/libmbedtls/mbedtls/library/bignum.c:2679
    7a74:	2a1a03e1 	mov	w1, w26
    7a78:	90000020 	adrp	x0, b000 <__func__.5086+0x2cb>
    7a7c:	9108a800 	add	x0, x0, #0x22a
    7a80:	97ffe6b8 	bl	1560 <printf>
    7a84:	17ffff5d 	b	77f8 <mbedtls_mpi_self_test+0x120>
/home/hei/Desktop/optee-qemu/optee_os/lib/libmbedtls/mbedtls/library/bignum.c:2669 (discriminator 2)
    7a88:	1100075a 	add	w26, w26, #0x1
    7a8c:	910032f7 	add	x23, x23, #0xc
    7a90:	71000f5f 	cmp	w26, #0x3
    7a94:	54fffc41 	b.ne	7a1c <mbedtls_mpi_self_test+0x344>  // b.any
/home/hei/Desktop/optee-qemu/optee_os/lib/libmbedtls/mbedtls/library/bignum.c:2686
    7a98:	340000b3 	cbz	w19, 7aac <mbedtls_mpi_self_test+0x3d4>
/home/hei/Desktop/optee-qemu/optee_os/lib/libmbedtls/mbedtls/library/bignum.c:2687
    7a9c:	90000020 	adrp	x0, b000 <__func__.5086+0x2cb>
    7aa0:	9101d400 	add	x0, x0, #0x75
    7aa4:	97ffe6e1 	bl	1628 <puts>
    7aa8:	17ffff55 	b	77fc <mbedtls_mpi_self_test+0x124>
/home/hei/Desktop/optee-qemu/optee_os/lib/libmbedtls/mbedtls/library/bignum.c:2689
    7aac:	2a1303fb 	mov	w27, w19
    7ab0:	17ffff53 	b	77fc <mbedtls_mpi_self_test+0x124>

0000000000007ab4 <mbedtls_platform_zeroize>:
mbedtls_platform_zeroize():
/home/hei/Desktop/optee-qemu/optee_os/lib/libmbedtls/mbedtls/library/platform_util.c:75
    7ab4:	b0000022 	adrp	x2, c000 <_DYNAMIC>
    7ab8:	f941cc43 	ldr	x3, [x2, #920]
    7abc:	aa0103e2 	mov	x2, x1
    7ac0:	52800001 	mov	w1, #0x0                   	// #0
    7ac4:	d61f0060 	br	x3

0000000000007ac8 <raw_malloc_return_hook.constprop.21>:
raw_malloc_return_hook():
/home/hei/Desktop/optee-qemu/optee_os/lib/libutils/isoc/bget_malloc.c:210
    7ac8:	b0000022 	adrp	x2, c000 <_DYNAMIC>
    7acc:	910e8044 	add	x4, x2, #0x3a0
    7ad0:	f9401083 	ldr	x3, [x4, #32]
    7ad4:	b9406c85 	ldr	w5, [x4, #108]
    7ad8:	eb05007f 	cmp	x3, x5
    7adc:	5400004d 	b.le	7ae4 <raw_malloc_return_hook.constprop.21+0x1c>
/home/hei/Desktop/optee-qemu/optee_os/lib/libutils/isoc/bget_malloc.c:211
    7ae0:	b9006c83 	str	w3, [x4, #108]
/home/hei/Desktop/optee-qemu/optee_os/lib/libutils/isoc/bget_malloc.c:213
    7ae4:	b5000120 	cbnz	x0, 7b08 <raw_malloc_return_hook.constprop.21+0x40>
/home/hei/Desktop/optee-qemu/optee_os/lib/libutils/isoc/bget_malloc.c:214
    7ae8:	910e8040 	add	x0, x2, #0x3a0
    7aec:	b9407402 	ldr	w2, [x0, #116]
    7af0:	11000442 	add	w2, w2, #0x1
    7af4:	b9007402 	str	w2, [x0, #116]
/home/hei/Desktop/optee-qemu/optee_os/lib/libutils/isoc/bget_malloc.c:216
    7af8:	b9407802 	ldr	w2, [x0, #120]
    7afc:	eb01005f 	cmp	x2, x1
    7b00:	54000042 	b.cs	7b08 <raw_malloc_return_hook.constprop.21+0x40>  // b.hs, b.nlast
/home/hei/Desktop/optee-qemu/optee_os/lib/libutils/isoc/bget_malloc.c:218
    7b04:	290f0c01 	stp	w1, w3, [x0, #120]
/home/hei/Desktop/optee-qemu/optee_os/lib/libutils/isoc/bget_malloc.c:222
    7b08:	d65f03c0 	ret

0000000000007b0c <bget>:
bget():
/home/hei/Desktop/optee-qemu/optee_os/lib/libutils/isoc/bget.c:583
    7b0c:	a9bf7bfd 	stp	x29, x30, [sp, #-16]!
/home/hei/Desktop/optee-qemu/optee_os/lib/libutils/isoc/bget.c:594
    7b10:	f100001f 	cmp	x0, #0x0
/home/hei/Desktop/optee-qemu/optee_os/lib/libutils/isoc/bget.c:583
    7b14:	910003fd 	mov	x29, sp
/home/hei/Desktop/optee-qemu/optee_os/lib/libutils/isoc/bget.c:594
    7b18:	5400014c 	b.gt	7b40 <bget+0x34>
/home/hei/Desktop/optee-qemu/optee_os/lib/libutils/isoc/bget.c:594 (discriminator 1)
    7b1c:	90000023 	adrp	x3, b000 <__func__.5086+0x2cb>
    7b20:	90000021 	adrp	x1, b000 <__func__.5086+0x2cb>
    7b24:	90000020 	adrp	x0, b000 <__func__.5086+0x2cb>
    7b28:	91097863 	add	x3, x3, #0x25e
    7b2c:	910ad821 	add	x1, x1, #0x2b6
    7b30:	91148c00 	add	x0, x0, #0x523
    7b34:	52804a42 	mov	w2, #0x252                 	// #594
/home/hei/Desktop/optee-qemu/optee_os/lib/libutils/isoc/bget.c:658 (discriminator 1)
    7b38:	940003cc 	bl	8a68 <_assert_log>
    7b3c:	940003dc 	bl	8aac <_assert_break>
/home/hei/Desktop/optee-qemu/optee_os/lib/libutils/isoc/bget.c:601
    7b40:	f100401f 	cmp	x0, #0x10
    7b44:	d2800202 	mov	x2, #0x10                  	// #16
    7b48:	9a82a000 	csel	x0, x0, x2, ge  // ge = tcont
    7b4c:	b1003c02 	adds	x2, x0, #0xf
    7b50:	54000144 	b.mi	7b78 <bget+0x6c>  // b.first
    7b54:	eb00005f 	cmp	x2, x0
    7b58:	54000103 	b.cc	7b78 <bget+0x6c>  // b.lo, b.ul, b.last
/home/hei/Desktop/optee-qemu/optee_os/lib/libutils/isoc/bget.c:604
    7b5c:	927cec40 	and	x0, x2, #0xfffffffffffffff0
/home/hei/Desktop/optee-qemu/optee_os/lib/libutils/isoc/bget.c:609
    7b60:	91004003 	add	x3, x0, #0x10
    7b64:	eb00007f 	cmp	x3, x0
    7b68:	5400008b 	b.lt	7b78 <bget+0x6c>  // b.tstop
/home/hei/Desktop/optee-qemu/optee_os/lib/libutils/isoc/bget.c:619
    7b6c:	f9400820 	ldr	x0, [x1, #16]
/home/hei/Desktop/optee-qemu/optee_os/lib/libutils/isoc/bget.c:641
    7b70:	eb00003f 	cmp	x1, x0
    7b74:	54000061 	b.ne	7b80 <bget+0x74>  // b.any
/home/hei/Desktop/optee-qemu/optee_os/lib/libutils/isoc/bget.c:602
    7b78:	d2800000 	mov	x0, #0x0                   	// #0
    7b7c:	1400001e 	b	7bf4 <bget+0xe8>
/home/hei/Desktop/optee-qemu/optee_os/lib/libutils/isoc/bget.c:642
    7b80:	f9400402 	ldr	x2, [x0, #8]
    7b84:	eb02007f 	cmp	x3, x2
    7b88:	540009ec 	b.gt	7cc4 <bget+0x1b8>
/home/hei/Desktop/optee-qemu/optee_os/lib/libutils/isoc/bget.c:653
    7b8c:	cb030044 	sub	x4, x2, x3
    7b90:	f100809f 	cmp	x4, #0x20
    7b94:	5400034d 	b.le	7bfc <bget+0xf0>
/home/hei/Desktop/optee-qemu/optee_os/lib/libutils/isoc/bget.c:656
    7b98:	8b040005 	add	x5, x0, x4
/home/hei/Desktop/optee-qemu/optee_os/lib/libutils/isoc/bget.c:658
    7b9c:	f86368a6 	ldr	x6, [x5, x3]
    7ba0:	eb06005f 	cmp	x2, x6
    7ba4:	54000120 	b.eq	7bc8 <bget+0xbc>  // b.none
/home/hei/Desktop/optee-qemu/optee_os/lib/libutils/isoc/bget.c:658 (discriminator 1)
    7ba8:	90000023 	adrp	x3, b000 <__func__.5086+0x2cb>
    7bac:	90000021 	adrp	x1, b000 <__func__.5086+0x2cb>
    7bb0:	90000020 	adrp	x0, b000 <__func__.5086+0x2cb>
    7bb4:	91097863 	add	x3, x3, #0x25e
    7bb8:	52805242 	mov	w2, #0x292                 	// #658
    7bbc:	910ad821 	add	x1, x1, #0x2b6
    7bc0:	910b3c00 	add	x0, x0, #0x2cf
    7bc4:	17ffffdd 	b	7b38 <bget+0x2c>
/home/hei/Desktop/optee-qemu/optee_os/lib/libutils/isoc/bget.c:660
    7bc8:	f9000404 	str	x4, [x0, #8]
/home/hei/Desktop/optee-qemu/optee_os/lib/libutils/isoc/bget.c:662
    7bcc:	f8246804 	str	x4, [x0, x4]
/home/hei/Desktop/optee-qemu/optee_os/lib/libutils/isoc/bget.c:664
    7bd0:	cb0303e0 	neg	x0, x3
    7bd4:	f90004a0 	str	x0, [x5, #8]
/home/hei/Desktop/optee-qemu/optee_os/lib/libutils/isoc/bget.c:669
    7bd8:	f9401020 	ldr	x0, [x1, #32]
/home/hei/Desktop/optee-qemu/optee_os/lib/libutils/isoc/bget.c:666
    7bdc:	f82368bf 	str	xzr, [x5, x3]
/home/hei/Desktop/optee-qemu/optee_os/lib/libutils/isoc/bget.c:669
    7be0:	8b030003 	add	x3, x0, x3
/home/hei/Desktop/optee-qemu/optee_os/lib/libutils/isoc/bget.c:670
    7be4:	f9401420 	ldr	x0, [x1, #40]
    7be8:	91000400 	add	x0, x0, #0x1
    7bec:	a9020023 	stp	x3, x0, [x1, #32]
/home/hei/Desktop/optee-qemu/optee_os/lib/libutils/isoc/bget.c:672
    7bf0:	910040a0 	add	x0, x5, #0x10
/home/hei/Desktop/optee-qemu/optee_os/lib/libutils/isoc/bget.c:770
    7bf4:	a8c17bfd 	ldp	x29, x30, [sp], #16
    7bf8:	d65f03c0 	ret
/home/hei/Desktop/optee-qemu/optee_os/lib/libutils/isoc/bget.c:679
    7bfc:	f8626803 	ldr	x3, [x0, x2]
/home/hei/Desktop/optee-qemu/optee_os/lib/libutils/isoc/bget.c:678
    7c00:	8b020005 	add	x5, x0, x2
/home/hei/Desktop/optee-qemu/optee_os/lib/libutils/isoc/bget.c:679
    7c04:	eb03005f 	cmp	x2, x3
    7c08:	54000120 	b.eq	7c2c <bget+0x120>  // b.none
/home/hei/Desktop/optee-qemu/optee_os/lib/libutils/isoc/bget.c:679 (discriminator 1)
    7c0c:	90000023 	adrp	x3, b000 <__func__.5086+0x2cb>
    7c10:	90000021 	adrp	x1, b000 <__func__.5086+0x2cb>
    7c14:	90000020 	adrp	x0, b000 <__func__.5086+0x2cb>
    7c18:	91097863 	add	x3, x3, #0x25e
    7c1c:	528054e2 	mov	w2, #0x2a7                 	// #679
    7c20:	910ad821 	add	x1, x1, #0x2b6
    7c24:	910bac00 	add	x0, x0, #0x2eb
    7c28:	17ffffc4 	b	7b38 <bget+0x2c>
/home/hei/Desktop/optee-qemu/optee_os/lib/libutils/isoc/bget.c:684
    7c2c:	f9400c03 	ldr	x3, [x0, #24]
    7c30:	f9400864 	ldr	x4, [x3, #16]
    7c34:	eb00009f 	cmp	x4, x0
    7c38:	54000120 	b.eq	7c5c <bget+0x150>  // b.none
/home/hei/Desktop/optee-qemu/optee_os/lib/libutils/isoc/bget.c:684 (discriminator 1)
    7c3c:	90000023 	adrp	x3, b000 <__func__.5086+0x2cb>
    7c40:	90000021 	adrp	x1, b000 <__func__.5086+0x2cb>
    7c44:	90000020 	adrp	x0, b000 <__func__.5086+0x2cb>
    7c48:	91097863 	add	x3, x3, #0x25e
    7c4c:	52805582 	mov	w2, #0x2ac                 	// #684
    7c50:	910ad821 	add	x1, x1, #0x2b6
    7c54:	910c1c00 	add	x0, x0, #0x307
    7c58:	17ffffb8 	b	7b38 <bget+0x2c>
/home/hei/Desktop/optee-qemu/optee_os/lib/libutils/isoc/bget.c:685
    7c5c:	f9400804 	ldr	x4, [x0, #16]
    7c60:	f9400c86 	ldr	x6, [x4, #24]
    7c64:	eb0000df 	cmp	x6, x0
    7c68:	54000120 	b.eq	7c8c <bget+0x180>  // b.none
/home/hei/Desktop/optee-qemu/optee_os/lib/libutils/isoc/bget.c:685 (discriminator 1)
    7c6c:	90000023 	adrp	x3, b000 <__func__.5086+0x2cb>
    7c70:	90000021 	adrp	x1, b000 <__func__.5086+0x2cb>
    7c74:	90000020 	adrp	x0, b000 <__func__.5086+0x2cb>
    7c78:	91097863 	add	x3, x3, #0x25e
    7c7c:	528055a2 	mov	w2, #0x2ad                 	// #685
    7c80:	910ad821 	add	x1, x1, #0x2b6
    7c84:	910c8800 	add	x0, x0, #0x322
    7c88:	17ffffac 	b	7b38 <bget+0x2c>
/home/hei/Desktop/optee-qemu/optee_os/lib/libutils/isoc/bget.c:686
    7c8c:	f9000864 	str	x4, [x3, #16]
/home/hei/Desktop/optee-qemu/optee_os/lib/libutils/isoc/bget.c:701
    7c90:	91004000 	add	x0, x0, #0x10
/home/hei/Desktop/optee-qemu/optee_os/lib/libutils/isoc/bget.c:687
    7c94:	f9400004 	ldr	x4, [x0]
    7c98:	f9000c83 	str	x3, [x4, #24]
/home/hei/Desktop/optee-qemu/optee_os/lib/libutils/isoc/bget.c:690
    7c9c:	f9401023 	ldr	x3, [x1, #32]
    7ca0:	8b020063 	add	x3, x3, x2
    7ca4:	f9001023 	str	x3, [x1, #32]
/home/hei/Desktop/optee-qemu/optee_os/lib/libutils/isoc/bget.c:691
    7ca8:	f9401423 	ldr	x3, [x1, #40]
/home/hei/Desktop/optee-qemu/optee_os/lib/libutils/isoc/bget.c:694
    7cac:	cb0203e2 	neg	x2, x2
/home/hei/Desktop/optee-qemu/optee_os/lib/libutils/isoc/bget.c:691
    7cb0:	91000463 	add	x3, x3, #0x1
    7cb4:	f9001423 	str	x3, [x1, #40]
/home/hei/Desktop/optee-qemu/optee_os/lib/libutils/isoc/bget.c:694
    7cb8:	f81f8002 	stur	x2, [x0, #-8]
/home/hei/Desktop/optee-qemu/optee_os/lib/libutils/isoc/bget.c:698
    7cbc:	f90000bf 	str	xzr, [x5]
/home/hei/Desktop/optee-qemu/optee_os/lib/libutils/isoc/bget.c:703
    7cc0:	17ffffcd 	b	7bf4 <bget+0xe8>
/home/hei/Desktop/optee-qemu/optee_os/lib/libutils/isoc/bget.c:706
    7cc4:	f9400800 	ldr	x0, [x0, #16]
    7cc8:	17ffffaa 	b	7b70 <bget+0x64>

0000000000007ccc <bgetz>:
bgetz():
/home/hei/Desktop/optee-qemu/optee_os/lib/libutils/isoc/bget.c:779
    7ccc:	a9be7bfd 	stp	x29, x30, [sp, #-32]!
    7cd0:	910003fd 	mov	x29, sp
    7cd4:	f9000bf3 	str	x19, [sp, #16]
    7cd8:	aa0003f3 	mov	x19, x0
/home/hei/Desktop/optee-qemu/optee_os/lib/libutils/isoc/bget.c:780
    7cdc:	97ffff8c 	bl	7b0c <bget>
    7ce0:	aa0003e3 	mov	x3, x0
/home/hei/Desktop/optee-qemu/optee_os/lib/libutils/isoc/bget.c:782
    7ce4:	b4000320 	cbz	x0, 7d48 <bgetz+0x7c>
/home/hei/Desktop/optee-qemu/optee_os/lib/libutils/isoc/bget.c:787
    7ce8:	f85f8000 	ldur	x0, [x0, #-8]
/home/hei/Desktop/optee-qemu/optee_os/lib/libutils/isoc/bget.c:788
    7cec:	b50001e0 	cbnz	x0, 7d28 <bgetz+0x5c>
/home/hei/Desktop/optee-qemu/optee_os/lib/libutils/isoc/bget.c:792
    7cf0:	f85e8062 	ldur	x2, [x3, #-24]
    7cf4:	d1006042 	sub	x2, x2, #0x18
/home/hei/Desktop/optee-qemu/optee_os/lib/libutils/isoc/bget.c:796
    7cf8:	eb13005f 	cmp	x2, x19
    7cfc:	540001ca 	b.ge	7d34 <bgetz+0x68>  // b.tcont
    7d00:	90000023 	adrp	x3, b000 <__func__.5086+0x2cb>
    7d04:	91097863 	add	x3, x3, #0x25e
    7d08:	91001463 	add	x3, x3, #0x5
    7d0c:	90000021 	adrp	x1, b000 <__func__.5086+0x2cb>
    7d10:	90000020 	adrp	x0, b000 <__func__.5086+0x2cb>
    7d14:	910ad821 	add	x1, x1, #0x2b6
    7d18:	910cf400 	add	x0, x0, #0x33d
    7d1c:	52806382 	mov	w2, #0x31c                 	// #796
    7d20:	94000352 	bl	8a68 <_assert_log>
    7d24:	94000362 	bl	8aac <_assert_break>
/home/hei/Desktop/optee-qemu/optee_os/lib/libutils/isoc/bget.c:794
    7d28:	928001e2 	mov	x2, #0xfffffffffffffff0    	// #-16
    7d2c:	cb000042 	sub	x2, x2, x0
    7d30:	17fffff2 	b	7cf8 <bgetz+0x2c>
memset_unchecked():
/home/hei/Desktop/optee-qemu/optee_os/lib/libutils/isoc/bget_malloc.c:130
    7d34:	aa0303e0 	mov	x0, x3
    7d38:	93407c42 	sxtw	x2, w2
    7d3c:	52800001 	mov	w1, #0x0                   	// #0
    7d40:	940002bd 	bl	8834 <memset>
    7d44:	aa0003e3 	mov	x3, x0
bgetz():
/home/hei/Desktop/optee-qemu/optee_os/lib/libutils/isoc/bget.c:800
    7d48:	aa0303e0 	mov	x0, x3
    7d4c:	f9400bf3 	ldr	x19, [sp, #16]
    7d50:	a8c27bfd 	ldp	x29, x30, [sp], #32
    7d54:	d65f03c0 	ret

0000000000007d58 <brel>:
brel():
/home/hei/Desktop/optee-qemu/optee_os/lib/libutils/isoc/bget.c:852
    7d58:	a9be7bfd 	stp	x29, x30, [sp, #-32]!
    7d5c:	910003fd 	mov	x29, sp
/home/hei/Desktop/optee-qemu/optee_os/lib/libutils/isoc/bget.c:858
    7d60:	f9401823 	ldr	x3, [x1, #48]
/home/hei/Desktop/optee-qemu/optee_os/lib/libutils/isoc/bget.c:852
    7d64:	a90153f3 	stp	x19, x20, [sp, #16]
/home/hei/Desktop/optee-qemu/optee_os/lib/libutils/isoc/bget.c:858
    7d68:	91000463 	add	x3, x3, #0x1
    7d6c:	f9001823 	str	x3, [x1, #48]
/home/hei/Desktop/optee-qemu/optee_os/lib/libutils/isoc/bget.c:860
    7d70:	b5000160 	cbnz	x0, 7d9c <brel+0x44>
/home/hei/Desktop/optee-qemu/optee_os/lib/libutils/isoc/bget.c:860 (discriminator 1)
    7d74:	90000023 	adrp	x3, b000 <__func__.5086+0x2cb>
    7d78:	91097863 	add	x3, x3, #0x25e
    7d7c:	90000021 	adrp	x1, b000 <__func__.5086+0x2cb>
    7d80:	90000020 	adrp	x0, b000 <__func__.5086+0x2cb>
    7d84:	91002c63 	add	x3, x3, #0xb
    7d88:	910ad821 	add	x1, x1, #0x2b6
    7d8c:	910d2c00 	add	x0, x0, #0x34b
    7d90:	52806b82 	mov	w2, #0x35c                 	// #860
/home/hei/Desktop/optee-qemu/optee_os/lib/libutils/isoc/bget.c:895 (discriminator 1)
    7d94:	94000335 	bl	8a68 <_assert_log>
    7d98:	94000345 	bl	8aac <_assert_break>
/home/hei/Desktop/optee-qemu/optee_os/lib/libutils/isoc/bget.c:892
    7d9c:	f85f8003 	ldur	x3, [x0, #-8]
/home/hei/Desktop/optee-qemu/optee_os/lib/libutils/isoc/bget.c:895
    7da0:	b7f80143 	tbnz	x3, #63, 7dc8 <brel+0x70>
/home/hei/Desktop/optee-qemu/optee_os/lib/libutils/isoc/bget.c:895 (discriminator 1)
    7da4:	90000023 	adrp	x3, b000 <__func__.5086+0x2cb>
    7da8:	91097863 	add	x3, x3, #0x25e
    7dac:	90000021 	adrp	x1, b000 <__func__.5086+0x2cb>
    7db0:	90000020 	adrp	x0, b000 <__func__.5086+0x2cb>
    7db4:	91002c63 	add	x3, x3, #0xb
    7db8:	52806fe2 	mov	w2, #0x37f                 	// #895
    7dbc:	910ad821 	add	x1, x1, #0x2b6
    7dc0:	910d5c00 	add	x0, x0, #0x357
    7dc4:	17fffff4 	b	7d94 <brel+0x3c>
    7dc8:	d1004013 	sub	x19, x0, #0x10
/home/hei/Desktop/optee-qemu/optee_os/lib/libutils/isoc/bget.c:901
    7dcc:	cb030264 	sub	x4, x19, x3
    7dd0:	f9400084 	ldr	x4, [x4]
    7dd4:	b4000144 	cbz	x4, 7dfc <brel+0xa4>
/home/hei/Desktop/optee-qemu/optee_os/lib/libutils/isoc/bget.c:901 (discriminator 1)
    7dd8:	90000023 	adrp	x3, b000 <__func__.5086+0x2cb>
    7ddc:	91097863 	add	x3, x3, #0x25e
    7de0:	90000021 	adrp	x1, b000 <__func__.5086+0x2cb>
    7de4:	90000020 	adrp	x0, b000 <__func__.5086+0x2cb>
    7de8:	91002c63 	add	x3, x3, #0xb
    7dec:	528070a2 	mov	w2, #0x385                 	// #901
    7df0:	910ad821 	add	x1, x1, #0x2b6
    7df4:	910d9c00 	add	x0, x0, #0x367
    7df8:	17ffffe7 	b	7d94 <brel+0x3c>
/home/hei/Desktop/optee-qemu/optee_os/lib/libutils/isoc/bget.c:904
    7dfc:	f9401024 	ldr	x4, [x1, #32]
    7e00:	8b040064 	add	x4, x3, x4
    7e04:	f9001024 	str	x4, [x1, #32]
/home/hei/Desktop/optee-qemu/optee_os/lib/libutils/isoc/bget.c:905
    7e08:	b6f80144 	tbz	x4, #63, 7e30 <brel+0xd8>
/home/hei/Desktop/optee-qemu/optee_os/lib/libutils/isoc/bget.c:905 (discriminator 1)
    7e0c:	90000023 	adrp	x3, b000 <__func__.5086+0x2cb>
    7e10:	91097863 	add	x3, x3, #0x25e
    7e14:	90000021 	adrp	x1, b000 <__func__.5086+0x2cb>
    7e18:	90000020 	adrp	x0, b000 <__func__.5086+0x2cb>
    7e1c:	91002c63 	add	x3, x3, #0xb
    7e20:	52807122 	mov	w2, #0x389                 	// #905
    7e24:	910ad821 	add	x1, x1, #0x2b6
    7e28:	910e4c00 	add	x0, x0, #0x393
    7e2c:	17ffffda 	b	7d94 <brel+0x3c>
/home/hei/Desktop/optee-qemu/optee_os/lib/libutils/isoc/bget.c:910
    7e30:	f85f0004 	ldur	x4, [x0, #-16]
    7e34:	b4000424 	cbz	x4, 7eb8 <brel+0x160>
/home/hei/Desktop/optee-qemu/optee_os/lib/libutils/isoc/bget.c:921
    7e38:	cb040273 	sub	x19, x19, x4
    7e3c:	f9400660 	ldr	x0, [x19, #8]
    7e40:	eb00009f 	cmp	x4, x0
    7e44:	54000140 	b.eq	7e6c <brel+0x114>  // b.none
/home/hei/Desktop/optee-qemu/optee_os/lib/libutils/isoc/bget.c:921 (discriminator 1)
    7e48:	90000023 	adrp	x3, b000 <__func__.5086+0x2cb>
    7e4c:	91097863 	add	x3, x3, #0x25e
    7e50:	90000021 	adrp	x1, b000 <__func__.5086+0x2cb>
    7e54:	90000020 	adrp	x0, b000 <__func__.5086+0x2cb>
    7e58:	91002c63 	add	x3, x3, #0xb
    7e5c:	52807322 	mov	w2, #0x399                 	// #921
    7e60:	910ad821 	add	x1, x1, #0x2b6
    7e64:	910ea800 	add	x0, x0, #0x3aa
    7e68:	17ffffcb 	b	7d94 <brel+0x3c>
/home/hei/Desktop/optee-qemu/optee_os/lib/libutils/isoc/bget.c:923
    7e6c:	cb030083 	sub	x3, x4, x3
    7e70:	f9000663 	str	x3, [x19, #8]
/home/hei/Desktop/optee-qemu/optee_os/lib/libutils/isoc/bget.c:943
    7e74:	f9400660 	ldr	x0, [x19, #8]
    7e78:	8b000274 	add	x20, x19, x0
/home/hei/Desktop/optee-qemu/optee_os/lib/libutils/isoc/bget.c:944
    7e7c:	f9400681 	ldr	x1, [x20, #8]
    7e80:	f100003f 	cmp	x1, #0x0
    7e84:	540009ad 	b.le	7fb8 <brel+0x260>
/home/hei/Desktop/optee-qemu/optee_os/lib/libutils/isoc/bget.c:949
    7e88:	f8616a83 	ldr	x3, [x20, x1]
    7e8c:	eb03003f 	cmp	x1, x3
    7e90:	54000560 	b.eq	7f3c <brel+0x1e4>  // b.none
/home/hei/Desktop/optee-qemu/optee_os/lib/libutils/isoc/bget.c:949 (discriminator 1)
    7e94:	90000023 	adrp	x3, b000 <__func__.5086+0x2cb>
    7e98:	91097863 	add	x3, x3, #0x25e
    7e9c:	90000021 	adrp	x1, b000 <__func__.5086+0x2cb>
    7ea0:	90000020 	adrp	x0, b000 <__func__.5086+0x2cb>
    7ea4:	91002c63 	add	x3, x3, #0xb
    7ea8:	528076a2 	mov	w2, #0x3b5                 	// #949
    7eac:	910ad821 	add	x1, x1, #0x2b6
    7eb0:	91116400 	add	x0, x0, #0x459
    7eb4:	17ffffb8 	b	7d94 <brel+0x3c>
/home/hei/Desktop/optee-qemu/optee_os/lib/libutils/isoc/bget.c:929
    7eb8:	f9400c25 	ldr	x5, [x1, #24]
    7ebc:	f94008a4 	ldr	x4, [x5, #16]
    7ec0:	eb01009f 	cmp	x4, x1
    7ec4:	54000140 	b.eq	7eec <brel+0x194>  // b.none
/home/hei/Desktop/optee-qemu/optee_os/lib/libutils/isoc/bget.c:929 (discriminator 1)
    7ec8:	90000023 	adrp	x3, b000 <__func__.5086+0x2cb>
    7ecc:	91097863 	add	x3, x3, #0x25e
    7ed0:	90000021 	adrp	x1, b000 <__func__.5086+0x2cb>
    7ed4:	90000020 	adrp	x0, b000 <__func__.5086+0x2cb>
    7ed8:	91002c63 	add	x3, x3, #0xb
    7edc:	52807422 	mov	w2, #0x3a1                 	// #929
    7ee0:	910ad821 	add	x1, x1, #0x2b6
    7ee4:	910f8c00 	add	x0, x0, #0x3e3
    7ee8:	17ffffab 	b	7d94 <brel+0x3c>
/home/hei/Desktop/optee-qemu/optee_os/lib/libutils/isoc/bget.c:930
    7eec:	f9400881 	ldr	x1, [x4, #16]
    7ef0:	f9400c21 	ldr	x1, [x1, #24]
    7ef4:	eb01009f 	cmp	x4, x1
    7ef8:	54000140 	b.eq	7f20 <brel+0x1c8>  // b.none
/home/hei/Desktop/optee-qemu/optee_os/lib/libutils/isoc/bget.c:930 (discriminator 1)
    7efc:	90000023 	adrp	x3, b000 <__func__.5086+0x2cb>
    7f00:	91097863 	add	x3, x3, #0x25e
    7f04:	90000021 	adrp	x1, b000 <__func__.5086+0x2cb>
    7f08:	90000020 	adrp	x0, b000 <__func__.5086+0x2cb>
    7f0c:	91002c63 	add	x3, x3, #0xb
    7f10:	52807442 	mov	w2, #0x3a2                 	// #930
    7f14:	910ad821 	add	x1, x1, #0x2b6
    7f18:	91107800 	add	x0, x0, #0x41e
    7f1c:	17ffff9e 	b	7d94 <brel+0x3c>
/home/hei/Desktop/optee-qemu/optee_os/lib/libutils/isoc/bget.c:932
    7f20:	a9011664 	stp	x4, x5, [x19, #16]
/home/hei/Desktop/optee-qemu/optee_os/lib/libutils/isoc/bget.c:896
    7f24:	cb0303e3 	neg	x3, x3
/home/hei/Desktop/optee-qemu/optee_os/lib/libutils/isoc/bget.c:933
    7f28:	f9000c93 	str	x19, [x4, #24]
/home/hei/Desktop/optee-qemu/optee_os/lib/libutils/isoc/bget.c:934
    7f2c:	f9400e61 	ldr	x1, [x19, #24]
    7f30:	f9000833 	str	x19, [x1, #16]
/home/hei/Desktop/optee-qemu/optee_os/lib/libutils/isoc/bget.c:935
    7f34:	f81f8003 	stur	x3, [x0, #-8]
    7f38:	17ffffcf 	b	7e74 <brel+0x11c>
/home/hei/Desktop/optee-qemu/optee_os/lib/libutils/isoc/bget.c:950
    7f3c:	f9400e84 	ldr	x4, [x20, #24]
    7f40:	f9400885 	ldr	x5, [x4, #16]
    7f44:	eb1400bf 	cmp	x5, x20
    7f48:	54000140 	b.eq	7f70 <brel+0x218>  // b.none
/home/hei/Desktop/optee-qemu/optee_os/lib/libutils/isoc/bget.c:950 (discriminator 1)
    7f4c:	90000023 	adrp	x3, b000 <__func__.5086+0x2cb>
    7f50:	91097863 	add	x3, x3, #0x25e
    7f54:	90000021 	adrp	x1, b000 <__func__.5086+0x2cb>
    7f58:	90000020 	adrp	x0, b000 <__func__.5086+0x2cb>
    7f5c:	91002c63 	add	x3, x3, #0xb
    7f60:	528076c2 	mov	w2, #0x3b6                 	// #950
    7f64:	910ad821 	add	x1, x1, #0x2b6
    7f68:	91124800 	add	x0, x0, #0x492
    7f6c:	17ffff8a 	b	7d94 <brel+0x3c>
/home/hei/Desktop/optee-qemu/optee_os/lib/libutils/isoc/bget.c:951
    7f70:	f94008a3 	ldr	x3, [x5, #16]
    7f74:	f9400c66 	ldr	x6, [x3, #24]
    7f78:	eb0500df 	cmp	x6, x5
    7f7c:	54000140 	b.eq	7fa4 <brel+0x24c>  // b.none
/home/hei/Desktop/optee-qemu/optee_os/lib/libutils/isoc/bget.c:951 (discriminator 1)
    7f80:	90000023 	adrp	x3, b000 <__func__.5086+0x2cb>
    7f84:	91097863 	add	x3, x3, #0x25e
    7f88:	90000021 	adrp	x1, b000 <__func__.5086+0x2cb>
    7f8c:	90000020 	adrp	x0, b000 <__func__.5086+0x2cb>
    7f90:	91002c63 	add	x3, x3, #0xb
    7f94:	528076e2 	mov	w2, #0x3b7                 	// #951
    7f98:	910ad821 	add	x1, x1, #0x2b6
    7f9c:	9112bc00 	add	x0, x0, #0x4af
    7fa0:	17ffff7d 	b	7d94 <brel+0x3c>
/home/hei/Desktop/optee-qemu/optee_os/lib/libutils/isoc/bget.c:952
    7fa4:	f9000883 	str	x3, [x4, #16]
/home/hei/Desktop/optee-qemu/optee_os/lib/libutils/isoc/bget.c:954
    7fa8:	8b010014 	add	x20, x0, x1
/home/hei/Desktop/optee-qemu/optee_os/lib/libutils/isoc/bget.c:953
    7fac:	f9000c64 	str	x4, [x3, #24]
/home/hei/Desktop/optee-qemu/optee_os/lib/libutils/isoc/bget.c:954
    7fb0:	f9000674 	str	x20, [x19, #8]
/home/hei/Desktop/optee-qemu/optee_os/lib/libutils/isoc/bget.c:963
    7fb4:	8b140274 	add	x20, x19, x20
/home/hei/Desktop/optee-qemu/optee_os/lib/libutils/isoc/bget.c:965
    7fb8:	340000e2 	cbz	w2, 7fd4 <brel+0x27c>
/home/hei/Desktop/optee-qemu/optee_os/lib/libutils/isoc/bget.c:967
    7fbc:	f9400662 	ldr	x2, [x19, #8]
memset_unchecked():
/home/hei/Desktop/optee-qemu/optee_os/lib/libutils/isoc/bget_malloc.c:130
    7fc0:	52800aa1 	mov	w1, #0x55                  	// #85
    7fc4:	91008260 	add	x0, x19, #0x20
brel():
/home/hei/Desktop/optee-qemu/optee_os/lib/libutils/isoc/bget.c:967
    7fc8:	51008042 	sub	w2, w2, #0x20
memset_unchecked():
/home/hei/Desktop/optee-qemu/optee_os/lib/libutils/isoc/bget_malloc.c:130
    7fcc:	93407c42 	sxtw	x2, w2
    7fd0:	94000219 	bl	8834 <memset>
brel():
/home/hei/Desktop/optee-qemu/optee_os/lib/libutils/isoc/bget.c:969
    7fd4:	f9400680 	ldr	x0, [x20, #8]
    7fd8:	b7f80140 	tbnz	x0, #63, 8000 <brel+0x2a8>
/home/hei/Desktop/optee-qemu/optee_os/lib/libutils/isoc/bget.c:969 (discriminator 1)
    7fdc:	90000023 	adrp	x3, b000 <__func__.5086+0x2cb>
    7fe0:	91097863 	add	x3, x3, #0x25e
    7fe4:	90000021 	adrp	x1, b000 <__func__.5086+0x2cb>
    7fe8:	90000020 	adrp	x0, b000 <__func__.5086+0x2cb>
    7fec:	91002c63 	add	x3, x3, #0xb
    7ff0:	52807922 	mov	w2, #0x3c9                 	// #969
    7ff4:	910ad821 	add	x1, x1, #0x2b6
    7ff8:	91133000 	add	x0, x0, #0x4cc
    7ffc:	17ffff66 	b	7d94 <brel+0x3c>
/home/hei/Desktop/optee-qemu/optee_os/lib/libutils/isoc/bget.c:974
    8000:	f9400660 	ldr	x0, [x19, #8]
    8004:	f9000280 	str	x0, [x20]
/home/hei/Desktop/optee-qemu/optee_os/lib/libutils/isoc/bget.c:1002
    8008:	a94153f3 	ldp	x19, x20, [sp, #16]
    800c:	a8c27bfd 	ldp	x29, x30, [sp], #32
    8010:	d65f03c0 	ret

0000000000008014 <bgetr>:
bgetr():
/home/hei/Desktop/optee-qemu/optee_os/lib/libutils/isoc/bget.c:811
    8014:	a9bc7bfd 	stp	x29, x30, [sp, #-64]!
    8018:	910003fd 	mov	x29, sp
    801c:	a90153f3 	stp	x19, x20, [sp, #16]
    8020:	aa0103f4 	mov	x20, x1
/home/hei/Desktop/optee-qemu/optee_os/lib/libutils/isoc/bget.c:816
    8024:	aa0203e1 	mov	x1, x2
/home/hei/Desktop/optee-qemu/optee_os/lib/libutils/isoc/bget.c:811
    8028:	a9025bf5 	stp	x21, x22, [sp, #32]
    802c:	aa0003f5 	mov	x21, x0
/home/hei/Desktop/optee-qemu/optee_os/lib/libutils/isoc/bget.c:816
    8030:	aa1403e0 	mov	x0, x20
/home/hei/Desktop/optee-qemu/optee_os/lib/libutils/isoc/bget.c:811
    8034:	f9001bf7 	str	x23, [sp, #48]
    8038:	aa0203f7 	mov	x23, x2
/home/hei/Desktop/optee-qemu/optee_os/lib/libutils/isoc/bget.c:816
    803c:	97fffeb4 	bl	7b0c <bget>
    8040:	aa0003f6 	mov	x22, x0
    8044:	b4000420 	cbz	x0, 80c8 <bgetr+0xb4>
/home/hei/Desktop/optee-qemu/optee_os/lib/libutils/isoc/bget.c:819
    8048:	b4000415 	cbz	x21, 80c8 <bgetr+0xb4>
/home/hei/Desktop/optee-qemu/optee_os/lib/libutils/isoc/bget.c:833
    804c:	f85f82a1 	ldur	x1, [x21, #-8]
    8050:	928001f3 	mov	x19, #0xfffffffffffffff0    	// #-16
    8054:	cb010273 	sub	x19, x19, x1
/home/hei/Desktop/optee-qemu/optee_os/lib/libutils/isoc/bget.c:834
    8058:	f100027f 	cmp	x19, #0x0
    805c:	5400016c 	b.gt	8088 <bgetr+0x74>
    8060:	f0000003 	adrp	x3, b000 <__func__.5086+0x2cb>
    8064:	91097863 	add	x3, x3, #0x25e
    8068:	91004063 	add	x3, x3, #0x10
    806c:	f0000001 	adrp	x1, b000 <__func__.5086+0x2cb>
    8070:	f0000000 	adrp	x0, b000 <__func__.5086+0x2cb>
    8074:	910ad821 	add	x1, x1, #0x2b6
    8078:	91137400 	add	x0, x0, #0x4dd
    807c:	52806842 	mov	w2, #0x342                 	// #834
    8080:	9400027a 	bl	8a68 <_assert_log>
    8084:	9400028a 	bl	8aac <_assert_break>
/home/hei/Desktop/optee-qemu/optee_os/lib/libutils/isoc/bget.c:835
    8088:	eb13029f 	cmp	x20, x19
    808c:	93407e81 	sxtw	x1, w20
    8090:	93407e62 	sxtw	x2, w19
    8094:	9a81a042 	csel	x2, x2, x1, ge  // ge = tcont
    8098:	aa1503e1 	mov	x1, x21
    809c:	97ffe09d 	bl	310 <memcpy>
/home/hei/Desktop/optee-qemu/optee_os/lib/libutils/isoc/bget.c:839
    80a0:	eb13029f 	cmp	x20, x19
    80a4:	540000ad 	b.le	80b8 <bgetr+0xa4>
/home/hei/Desktop/optee-qemu/optee_os/lib/libutils/isoc/bget.c:840
    80a8:	cb130282 	sub	x2, x20, x19
    80ac:	52800001 	mov	w1, #0x0                   	// #0
    80b0:	8b1302c0 	add	x0, x22, x19
    80b4:	940001e0 	bl	8834 <memset>
/home/hei/Desktop/optee-qemu/optee_os/lib/libutils/isoc/bget.c:842
    80b8:	52800002 	mov	w2, #0x0                   	// #0
    80bc:	aa1703e1 	mov	x1, x23
    80c0:	aa1503e0 	mov	x0, x21
    80c4:	97ffff25 	bl	7d58 <brel>
/home/hei/Desktop/optee-qemu/optee_os/lib/libutils/isoc/bget.c:844
    80c8:	aa1603e0 	mov	x0, x22
    80cc:	a94153f3 	ldp	x19, x20, [sp, #16]
    80d0:	a9425bf5 	ldp	x21, x22, [sp, #32]
    80d4:	f9401bf7 	ldr	x23, [sp, #48]
    80d8:	a8c47bfd 	ldp	x29, x30, [sp], #64
    80dc:	d65f03c0 	ret

00000000000080e0 <bpool>:
bpool():
/home/hei/Desktop/optee-qemu/optee_os/lib/libutils/isoc/bget.c:1028
    80e0:	a9bf7bfd 	stp	x29, x30, [sp, #-16]!
/home/hei/Desktop/optee-qemu/optee_os/lib/libutils/isoc/bget.c:1033
    80e4:	927cec21 	and	x1, x1, #0xfffffffffffffff0
/home/hei/Desktop/optee-qemu/optee_os/lib/libutils/isoc/bget.c:1052
    80e8:	f1004021 	subs	x1, x1, #0x10
/home/hei/Desktop/optee-qemu/optee_os/lib/libutils/isoc/bget.c:1028
    80ec:	910003fd 	mov	x29, sp
/home/hei/Desktop/optee-qemu/optee_os/lib/libutils/isoc/bget.c:1052
    80f0:	54000165 	b.pl	811c <bpool+0x3c>  // b.nfrst
/home/hei/Desktop/optee-qemu/optee_os/lib/libutils/isoc/bget.c:1052 (discriminator 1)
    80f4:	f0000003 	adrp	x3, b000 <__func__.5086+0x2cb>
    80f8:	91097863 	add	x3, x3, #0x25e
    80fc:	f0000001 	adrp	x1, b000 <__func__.5086+0x2cb>
    8100:	f0000000 	adrp	x0, b000 <__func__.5086+0x2cb>
    8104:	91005863 	add	x3, x3, #0x16
    8108:	910ad821 	add	x1, x1, #0x2b6
    810c:	91139c00 	add	x0, x0, #0x4e7
    8110:	52808382 	mov	w2, #0x41c                 	// #1052
/home/hei/Desktop/optee-qemu/optee_os/lib/libutils/isoc/bget.c:1062 (discriminator 1)
    8114:	94000255 	bl	8a68 <_assert_log>
    8118:	94000265 	bl	8aac <_assert_break>
/home/hei/Desktop/optee-qemu/optee_os/lib/libutils/isoc/bget.c:1062
    811c:	f9400c44 	ldr	x4, [x2, #24]
    8120:	f9400883 	ldr	x3, [x4, #16]
/home/hei/Desktop/optee-qemu/optee_os/lib/libutils/isoc/bget.c:1058
    8124:	f900001f 	str	xzr, [x0]
/home/hei/Desktop/optee-qemu/optee_os/lib/libutils/isoc/bget.c:1062
    8128:	eb02007f 	cmp	x3, x2
    812c:	54000140 	b.eq	8154 <bpool+0x74>  // b.none
/home/hei/Desktop/optee-qemu/optee_os/lib/libutils/isoc/bget.c:1062 (discriminator 1)
    8130:	f0000003 	adrp	x3, b000 <__func__.5086+0x2cb>
    8134:	91097863 	add	x3, x3, #0x25e
    8138:	f0000001 	adrp	x1, b000 <__func__.5086+0x2cb>
    813c:	f0000000 	adrp	x0, b000 <__func__.5086+0x2cb>
    8140:	91005863 	add	x3, x3, #0x16
    8144:	528084c2 	mov	w2, #0x426                 	// #1062
    8148:	910ad821 	add	x1, x1, #0x2b6
    814c:	910f8c00 	add	x0, x0, #0x3e3
    8150:	17fffff1 	b	8114 <bpool+0x34>
/home/hei/Desktop/optee-qemu/optee_os/lib/libutils/isoc/bget.c:1063
    8154:	f9400862 	ldr	x2, [x3, #16]
    8158:	f9400c42 	ldr	x2, [x2, #24]
    815c:	eb02007f 	cmp	x3, x2
    8160:	54000140 	b.eq	8188 <bpool+0xa8>  // b.none
    8164:	f0000003 	adrp	x3, b000 <__func__.5086+0x2cb>
    8168:	91097863 	add	x3, x3, #0x25e
    816c:	f0000001 	adrp	x1, b000 <__func__.5086+0x2cb>
    8170:	f0000000 	adrp	x0, b000 <__func__.5086+0x2cb>
    8174:	91005863 	add	x3, x3, #0x16
    8178:	528084e2 	mov	w2, #0x427                 	// #1063
    817c:	910ad821 	add	x1, x1, #0x2b6
    8180:	91107800 	add	x0, x0, #0x41e
    8184:	17ffffe4 	b	8114 <bpool+0x34>
/home/hei/Desktop/optee-qemu/optee_os/lib/libutils/isoc/bget.c:1065
    8188:	a9011003 	stp	x3, x4, [x0, #16]
/home/hei/Desktop/optee-qemu/optee_os/lib/libutils/isoc/bget.c:1066
    818c:	f9000c60 	str	x0, [x3, #24]
/home/hei/Desktop/optee-qemu/optee_os/lib/libutils/isoc/bget.c:1067
    8190:	f9400c02 	ldr	x2, [x0, #24]
    8194:	f9000840 	str	x0, [x2, #16]
/home/hei/Desktop/optee-qemu/optee_os/lib/libutils/isoc/bget.c:1083
    8198:	8b010002 	add	x2, x0, x1
/home/hei/Desktop/optee-qemu/optee_os/lib/libutils/isoc/bget.c:1078
    819c:	f9000401 	str	x1, [x0, #8]
/home/hei/Desktop/optee-qemu/optee_os/lib/libutils/isoc/bget.c:1084
    81a0:	f8216801 	str	x1, [x0, x1]
/home/hei/Desktop/optee-qemu/optee_os/lib/libutils/isoc/bget.c:1087
    81a4:	d2f00000 	mov	x0, #0x8000000000000000    	// #-9223372036854775808
    81a8:	f9000440 	str	x0, [x2, #8]
/home/hei/Desktop/optee-qemu/optee_os/lib/libutils/isoc/bget.c:1088
    81ac:	a8c17bfd 	ldp	x29, x30, [sp], #16
    81b0:	d65f03c0 	ret

00000000000081b4 <bstats>:
bstats():
/home/hei/Desktop/optee-qemu/optee_os/lib/libutils/isoc/bget.c:1101
    81b4:	f94014a7 	ldr	x7, [x5, #40]
/home/hei/Desktop/optee-qemu/optee_os/lib/libutils/isoc/bget.c:1099
    81b8:	f94008a6 	ldr	x6, [x5, #16]
/home/hei/Desktop/optee-qemu/optee_os/lib/libutils/isoc/bget.c:1101
    81bc:	f9000067 	str	x7, [x3]
/home/hei/Desktop/optee-qemu/optee_os/lib/libutils/isoc/bget.c:1102
    81c0:	f94018a3 	ldr	x3, [x5, #48]
    81c4:	f9000083 	str	x3, [x4]
/home/hei/Desktop/optee-qemu/optee_os/lib/libutils/isoc/bget.c:1103
    81c8:	f94010a3 	ldr	x3, [x5, #32]
    81cc:	f9000003 	str	x3, [x0]
/home/hei/Desktop/optee-qemu/optee_os/lib/libutils/isoc/bget.c:1104
    81d0:	f900003f 	str	xzr, [x1]
/home/hei/Desktop/optee-qemu/optee_os/lib/libutils/isoc/bget.c:1105
    81d4:	92800000 	mov	x0, #0xffffffffffffffff    	// #-1
    81d8:	f9000040 	str	x0, [x2]
/home/hei/Desktop/optee-qemu/optee_os/lib/libutils/isoc/bget.c:1106
    81dc:	eb0600bf 	cmp	x5, x6
    81e0:	54000041 	b.ne	81e8 <bstats+0x34>  // b.any
    81e4:	d65f03c0 	ret
/home/hei/Desktop/optee-qemu/optee_os/lib/libutils/isoc/bget.c:1107
    81e8:	f94004c3 	ldr	x3, [x6, #8]
    81ec:	f100007f 	cmp	x3, #0x0
    81f0:	540001ac 	b.gt	8224 <bstats+0x70>
/home/hei/Desktop/optee-qemu/optee_os/lib/libutils/isoc/bget.c:1107 (discriminator 1)
    81f4:	f0000003 	adrp	x3, b000 <__func__.5086+0x2cb>
    81f8:	91097863 	add	x3, x3, #0x25e
    81fc:	91007063 	add	x3, x3, #0x1c
    8200:	f0000001 	adrp	x1, b000 <__func__.5086+0x2cb>
    8204:	f0000000 	adrp	x0, b000 <__func__.5086+0x2cb>
    8208:	910ad821 	add	x1, x1, #0x2b6
    820c:	91147000 	add	x0, x0, #0x51c
/home/hei/Desktop/optee-qemu/optee_os/lib/libutils/isoc/bget.c:1098 (discriminator 1)
    8210:	a9bf7bfd 	stp	x29, x30, [sp, #-16]!
/home/hei/Desktop/optee-qemu/optee_os/lib/libutils/isoc/bget.c:1107 (discriminator 1)
    8214:	52808a62 	mov	w2, #0x453                 	// #1107
/home/hei/Desktop/optee-qemu/optee_os/lib/libutils/isoc/bget.c:1098 (discriminator 1)
    8218:	910003fd 	mov	x29, sp
/home/hei/Desktop/optee-qemu/optee_os/lib/libutils/isoc/bget.c:1107 (discriminator 1)
    821c:	94000213 	bl	8a68 <_assert_log>
    8220:	94000223 	bl	8aac <_assert_break>
/home/hei/Desktop/optee-qemu/optee_os/lib/libutils/isoc/bget.c:1108
    8224:	f9400020 	ldr	x0, [x1]
    8228:	8b030000 	add	x0, x0, x3
    822c:	f9000020 	str	x0, [x1]
/home/hei/Desktop/optee-qemu/optee_os/lib/libutils/isoc/bget.c:1109
    8230:	f9400043 	ldr	x3, [x2]
    8234:	f94004c0 	ldr	x0, [x6, #8]
    8238:	eb03001f 	cmp	x0, x3
    823c:	5400004d 	b.le	8244 <bstats+0x90>
/home/hei/Desktop/optee-qemu/optee_os/lib/libutils/isoc/bget.c:1110
    8240:	f9000040 	str	x0, [x2]
/home/hei/Desktop/optee-qemu/optee_os/lib/libutils/isoc/bget.c:1112
    8244:	f94008c6 	ldr	x6, [x6, #16]
    8248:	17ffffe5 	b	81dc <bstats+0x28>

000000000000824c <malloc_reset_stats>:
gen_malloc_reset_stats():
/home/hei/Desktop/optee-qemu/optee_os/lib/libutils/isoc/bget_malloc.c:228
    824c:	90000020 	adrp	x0, c000 <_DYNAMIC>
    8250:	910e8000 	add	x0, x0, #0x3a0
    8254:	b9006c1f 	str	wzr, [x0, #108]
/home/hei/Desktop/optee-qemu/optee_os/lib/libutils/isoc/bget_malloc.c:229
    8258:	b900741f 	str	wzr, [x0, #116]
/home/hei/Desktop/optee-qemu/optee_os/lib/libutils/isoc/bget_malloc.c:230
    825c:	f9003c1f 	str	xzr, [x0, #120]
malloc_reset_stats():
/home/hei/Desktop/optee-qemu/optee_os/lib/libutils/isoc/bget_malloc.c:238
    8260:	d65f03c0 	ret

0000000000008264 <malloc_get_stats>:
malloc_get_stats():
/home/hei/Desktop/optee-qemu/optee_os/lib/libutils/isoc/bget_malloc.c:251
    8264:	a9be7bfd 	stp	x29, x30, [sp, #-32]!
memcpy_unchecked():
/home/hei/Desktop/optee-qemu/optee_os/lib/libutils/isoc/bget_malloc.c:136
    8268:	d2800702 	mov	x2, #0x38                  	// #56
malloc_get_stats():
/home/hei/Desktop/optee-qemu/optee_os/lib/libutils/isoc/bget_malloc.c:251
    826c:	910003fd 	mov	x29, sp
    8270:	f9000bf3 	str	x19, [sp, #16]
memcpy_unchecked():
/home/hei/Desktop/optee-qemu/optee_os/lib/libutils/isoc/bget_malloc.c:136
    8274:	90000033 	adrp	x19, c000 <_DYNAMIC>
    8278:	910e8273 	add	x19, x19, #0x3a0
    827c:	91012261 	add	x1, x19, #0x48
    8280:	97ffe024 	bl	310 <memcpy>
    8284:	aa0003e3 	mov	x3, x0
gen_malloc_get_stats():
/home/hei/Desktop/optee-qemu/optee_os/lib/libutils/isoc/bget_malloc.c:246
    8288:	f9401260 	ldr	x0, [x19, #32]
malloc_get_stats():
/home/hei/Desktop/optee-qemu/optee_os/lib/libutils/isoc/bget_malloc.c:253
    828c:	f9400bf3 	ldr	x19, [sp, #16]
gen_malloc_get_stats():
/home/hei/Desktop/optee-qemu/optee_os/lib/libutils/isoc/bget_malloc.c:246
    8290:	b9002060 	str	w0, [x3, #32]
malloc_get_stats():
/home/hei/Desktop/optee-qemu/optee_os/lib/libutils/isoc/bget_malloc.c:253
    8294:	a8c27bfd 	ldp	x29, x30, [sp], #32
    8298:	d65f03c0 	ret

000000000000829c <malloc>:
malloc():
/home/hei/Desktop/optee-qemu/optee_os/lib/libutils/isoc/bget_malloc.c:668
    829c:	a9be7bfd 	stp	x29, x30, [sp, #-32]!
    82a0:	910003fd 	mov	x29, sp
    82a4:	f9000bf3 	str	x19, [sp, #16]
    82a8:	aa0003f3 	mov	x19, x0
raw_malloc():
/home/hei/Desktop/optee-qemu/optee_os/lib/libutils/isoc/bget_malloc.c:364
    82ac:	b7f801c0 	tbnz	x0, #63, 82e4 <malloc+0x48>
/home/hei/Desktop/optee-qemu/optee_os/lib/libutils/isoc/bget_malloc.c:371
    82b0:	f100001f 	cmp	x0, #0x0
/home/hei/Desktop/optee-qemu/optee_os/lib/libutils/isoc/bget_malloc.c:373
    82b4:	90000021 	adrp	x1, c000 <_DYNAMIC>
    82b8:	9a9f1400 	csinc	x0, x0, xzr, ne  // ne = any
    82bc:	910e8021 	add	x1, x1, #0x3a0
    82c0:	97fffe13 	bl	7b0c <bget>
    82c4:	aa0003e6 	mov	x6, x0
/home/hei/Desktop/optee-qemu/optee_os/lib/libutils/isoc/bget_malloc.c:375
    82c8:	aa1303e1 	mov	x1, x19
    82cc:	aa0603e0 	mov	x0, x6
    82d0:	97fffdfe 	bl	7ac8 <raw_malloc_return_hook.constprop.21>
malloc():
/home/hei/Desktop/optee-qemu/optee_os/lib/libutils/isoc/bget_malloc.c:675
    82d4:	aa0603e0 	mov	x0, x6
    82d8:	f9400bf3 	ldr	x19, [sp, #16]
    82dc:	a8c27bfd 	ldp	x29, x30, [sp], #32
    82e0:	d65f03c0 	ret
raw_malloc():
/home/hei/Desktop/optee-qemu/optee_os/lib/libutils/isoc/bget_malloc.c:351
    82e4:	d2800006 	mov	x6, #0x0                   	// #0
    82e8:	17fffff8 	b	82c8 <malloc+0x2c>

00000000000082ec <calloc>:
calloc():
/home/hei/Desktop/optee-qemu/optee_os/lib/libutils/isoc/bget_malloc.c:686
    82ec:	a9be7bfd 	stp	x29, x30, [sp, #-32]!
    82f0:	910003fd 	mov	x29, sp
    82f4:	f9000bf3 	str	x19, [sp, #16]
raw_calloc():
/home/hei/Desktop/optee-qemu/optee_os/lib/libutils/isoc/bget_malloc.c:397
    82f8:	9b017c13 	mul	x19, x0, x1
    82fc:	9bc17c00 	umulh	x0, x0, x1
    8300:	f100001f 	cmp	x0, #0x0
    8304:	d2800020 	mov	x0, #0x1                   	// #1
    8308:	9a9f07e1 	cset	x1, ne  // ne = any
    830c:	f100027f 	cmp	x19, #0x0
    8310:	9a80a021 	csel	x1, x1, x0, ge  // ge = tcont
    8314:	b50001a1 	cbnz	x1, 8348 <calloc+0x5c>
/home/hei/Desktop/optee-qemu/optee_os/lib/libutils/isoc/bget_malloc.c:408
    8318:	90000021 	adrp	x1, c000 <_DYNAMIC>
    831c:	9a801260 	csel	x0, x19, x0, ne  // ne = any
    8320:	910e8021 	add	x1, x1, #0x3a0
    8324:	97fffe6a 	bl	7ccc <bgetz>
    8328:	aa0003e6 	mov	x6, x0
/home/hei/Desktop/optee-qemu/optee_os/lib/libutils/isoc/bget_malloc.c:410
    832c:	aa1303e1 	mov	x1, x19
    8330:	aa0603e0 	mov	x0, x6
    8334:	97fffde5 	bl	7ac8 <raw_malloc_return_hook.constprop.21>
calloc():
/home/hei/Desktop/optee-qemu/optee_os/lib/libutils/isoc/bget_malloc.c:693
    8338:	aa0603e0 	mov	x0, x6
    833c:	f9400bf3 	ldr	x19, [sp, #16]
    8340:	a8c27bfd 	ldp	x29, x30, [sp], #32
    8344:	d65f03c0 	ret
raw_calloc():
/home/hei/Desktop/optee-qemu/optee_os/lib/libutils/isoc/bget_malloc.c:391
    8348:	d2800006 	mov	x6, #0x0                   	// #0
    834c:	17fffff8 	b	832c <calloc+0x40>

0000000000008350 <realloc>:
realloc():
/home/hei/Desktop/optee-qemu/optee_os/lib/libutils/isoc/bget_malloc.c:702
    8350:	a9be7bfd 	stp	x29, x30, [sp, #-32]!
    8354:	910003fd 	mov	x29, sp
    8358:	f9000bf3 	str	x19, [sp, #16]
    835c:	aa0103f3 	mov	x19, x1
raw_realloc():
/home/hei/Desktop/optee-qemu/optee_os/lib/libutils/isoc/bget_malloc.c:422
    8360:	b7f801c1 	tbnz	x1, #63, 8398 <realloc+0x48>
/home/hei/Desktop/optee-qemu/optee_os/lib/libutils/isoc/bget_malloc.c:431
    8364:	f100003f 	cmp	x1, #0x0
/home/hei/Desktop/optee-qemu/optee_os/lib/libutils/isoc/bget_malloc.c:433
    8368:	90000022 	adrp	x2, c000 <_DYNAMIC>
    836c:	9a9f1421 	csinc	x1, x1, xzr, ne  // ne = any
    8370:	910e8042 	add	x2, x2, #0x3a0
    8374:	97ffff28 	bl	8014 <bgetr>
    8378:	aa0003e6 	mov	x6, x0
/home/hei/Desktop/optee-qemu/optee_os/lib/libutils/isoc/bget_malloc.c:435
    837c:	aa1303e1 	mov	x1, x19
    8380:	aa0603e0 	mov	x0, x6
    8384:	97fffdd1 	bl	7ac8 <raw_malloc_return_hook.constprop.21>
realloc():
/home/hei/Desktop/optee-qemu/optee_os/lib/libutils/isoc/bget_malloc.c:709
    8388:	aa0603e0 	mov	x0, x6
    838c:	f9400bf3 	ldr	x19, [sp, #16]
    8390:	a8c27bfd 	ldp	x29, x30, [sp], #32
    8394:	d65f03c0 	ret
raw_realloc():
/home/hei/Desktop/optee-qemu/optee_os/lib/libutils/isoc/bget_malloc.c:418
    8398:	d2800006 	mov	x6, #0x0                   	// #0
    839c:	17fffff8 	b	837c <realloc+0x2c>

00000000000083a0 <free>:
raw_free():
/home/hei/Desktop/optee-qemu/optee_os/lib/libutils/isoc/bget_malloc.c:384
    83a0:	b40000a0 	cbz	x0, 83b4 <free+0x14>
/home/hei/Desktop/optee-qemu/optee_os/lib/libutils/isoc/bget_malloc.c:385
    83a4:	52800002 	mov	w2, #0x0                   	// #0
    83a8:	90000021 	adrp	x1, c000 <_DYNAMIC>
    83ac:	910e8021 	add	x1, x1, #0x3a0
    83b0:	17fffe6a 	b	7d58 <brel>
free():
/home/hei/Desktop/optee-qemu/optee_os/lib/libutils/isoc/bget_malloc.c:722
    83b4:	d65f03c0 	ret

00000000000083b8 <free_wipe>:
raw_free():
/home/hei/Desktop/optee-qemu/optee_os/lib/libutils/isoc/bget_malloc.c:384
    83b8:	b40000a0 	cbz	x0, 83cc <free_wipe+0x14>
/home/hei/Desktop/optee-qemu/optee_os/lib/libutils/isoc/bget_malloc.c:385
    83bc:	52800022 	mov	w2, #0x1                   	// #1
    83c0:	90000021 	adrp	x1, c000 <_DYNAMIC>
    83c4:	910e8021 	add	x1, x1, #0x3a0
    83c8:	17fffe64 	b	7d58 <brel>
free_wipe():
/home/hei/Desktop/optee-qemu/optee_os/lib/libutils/isoc/bget_malloc.c:727
    83cc:	d65f03c0 	ret

00000000000083d0 <malloc_add_pool>:
malloc_add_pool():
/home/hei/Desktop/optee-qemu/optee_os/lib/libutils/isoc/bget_malloc.c:835
    83d0:	a9bc7bfd 	stp	x29, x30, [sp, #-64]!
    83d4:	910003fd 	mov	x29, sp
    83d8:	a90153f3 	stp	x19, x20, [sp, #16]
gen_malloc_add_pool():
/home/hei/Desktop/optee-qemu/optee_os/lib/libutils/isoc/bget_malloc.c:735
    83dc:	8b010014 	add	x20, x0, x1
/home/hei/Desktop/optee-qemu/optee_os/lib/libutils/isoc/bget_malloc.c:741
    83e0:	91003c00 	add	x0, x0, #0xf
malloc_add_pool():
/home/hei/Desktop/optee-qemu/optee_os/lib/libutils/isoc/bget_malloc.c:835
    83e4:	a9025bf5 	stp	x21, x22, [sp, #32]
gen_malloc_add_pool():
/home/hei/Desktop/optee-qemu/optee_os/lib/libutils/isoc/bget_malloc.c:742
    83e8:	927cee94 	and	x20, x20, #0xfffffffffffffff0
/home/hei/Desktop/optee-qemu/optee_os/lib/libutils/isoc/bget_malloc.c:741
    83ec:	927cec16 	and	x22, x0, #0xfffffffffffffff0
malloc_add_pool():
/home/hei/Desktop/optee-qemu/optee_os/lib/libutils/isoc/bget_malloc.c:835
    83f0:	a90363f7 	stp	x23, x24, [sp, #48]
gen_malloc_add_pool():
/home/hei/Desktop/optee-qemu/optee_os/lib/libutils/isoc/bget_malloc.c:743
    83f4:	eb1402df 	cmp	x22, x20
    83f8:	54000163 	b.cc	8424 <malloc_add_pool+0x54>  // b.lo, b.ul, b.last
    83fc:	f0000003 	adrp	x3, b000 <__func__.5086+0x2cb>
    8400:	91097863 	add	x3, x3, #0x25e
    8404:	f0000001 	adrp	x1, b000 <__func__.5086+0x2cb>
    8408:	f0000000 	adrp	x0, b000 <__func__.5086+0x2cb>
    840c:	91008c63 	add	x3, x3, #0x23
    8410:	9114b021 	add	x1, x1, #0x52c
    8414:	91153000 	add	x0, x0, #0x54c
    8418:	52805ce2 	mov	w2, #0x2e7                 	// #743
/home/hei/Desktop/optee-qemu/optee_os/lib/libutils/isoc/bget_malloc.c:756
    841c:	94000193 	bl	8a68 <_assert_log>
    8420:	940001a3 	bl	8aac <_assert_break>
/home/hei/Desktop/optee-qemu/optee_os/lib/libutils/isoc/bget_malloc.c:745
    8424:	cb160294 	sub	x20, x20, x22
    8428:	f100be9f 	cmp	x20, #0x2f
    842c:	540001c8 	b.hi	8464 <malloc_add_pool+0x94>  // b.pmore
malloc_add_pool():
/home/hei/Desktop/optee-qemu/optee_os/lib/libutils/isoc/bget_malloc.c:837
    8430:	a94153f3 	ldp	x19, x20, [sp, #16]
gen_malloc_add_pool():
/home/hei/Desktop/optee-qemu/optee_os/lib/libutils/isoc/bget_malloc.c:746
    8434:	f0000000 	adrp	x0, b000 <__func__.5086+0x2cb>
malloc_add_pool():
/home/hei/Desktop/optee-qemu/optee_os/lib/libutils/isoc/bget_malloc.c:837
    8438:	a9425bf5 	ldp	x21, x22, [sp, #32]
gen_malloc_add_pool():
/home/hei/Desktop/optee-qemu/optee_os/lib/libutils/isoc/bget_malloc.c:746
    843c:	91097800 	add	x0, x0, #0x25e
malloc_add_pool():
/home/hei/Desktop/optee-qemu/optee_os/lib/libutils/isoc/bget_malloc.c:837
    8440:	a94363f7 	ldp	x23, x24, [sp, #48]
gen_malloc_add_pool():
/home/hei/Desktop/optee-qemu/optee_os/lib/libutils/isoc/bget_malloc.c:746
    8444:	f0000004 	adrp	x4, b000 <__func__.5086+0x2cb>
malloc_add_pool():
/home/hei/Desktop/optee-qemu/optee_os/lib/libutils/isoc/bget_malloc.c:837
    8448:	a8c47bfd 	ldp	x29, x30, [sp], #64
gen_malloc_add_pool():
/home/hei/Desktop/optee-qemu/optee_os/lib/libutils/isoc/bget_malloc.c:746
    844c:	91156084 	add	x4, x4, #0x558
    8450:	52800023 	mov	w3, #0x1                   	// #1
    8454:	52800062 	mov	w2, #0x3                   	// #3
    8458:	52805d41 	mov	w1, #0x2ea                 	// #746
    845c:	91008c00 	add	x0, x0, #0x23
    8460:	17ffe06c 	b	610 <trace_printf>
/home/hei/Desktop/optee-qemu/optee_os/lib/libutils/isoc/bget_malloc.c:753
    8464:	90000033 	adrp	x19, c000 <_DYNAMIC>
    8468:	910e8278 	add	x24, x19, #0x3a0
    846c:	aa1803e2 	mov	x2, x24
    8470:	aa1403e1 	mov	x1, x20
    8474:	aa1603e0 	mov	x0, x22
    8478:	97ffff1a 	bl	80e0 <bpool>
/home/hei/Desktop/optee-qemu/optee_os/lib/libutils/isoc/bget_malloc.c:754
    847c:	f9402317 	ldr	x23, [x24, #64]
    8480:	910006f7 	add	x23, x23, #0x1
/home/hei/Desktop/optee-qemu/optee_os/lib/libutils/isoc/bget_malloc.c:755
    8484:	d37ceef5 	lsl	x21, x23, #4
raw_realloc():
/home/hei/Desktop/optee-qemu/optee_os/lib/libutils/isoc/bget_malloc.c:422
    8488:	b7f80295 	tbnz	x21, #63, 84d8 <malloc_add_pool+0x108>
/home/hei/Desktop/optee-qemu/optee_os/lib/libutils/isoc/bget_malloc.c:433
    848c:	f9401f00 	ldr	x0, [x24, #56]
/home/hei/Desktop/optee-qemu/optee_os/lib/libutils/isoc/bget_malloc.c:431
    8490:	f10002bf 	cmp	x21, #0x0
/home/hei/Desktop/optee-qemu/optee_os/lib/libutils/isoc/bget_malloc.c:433
    8494:	aa1803e2 	mov	x2, x24
    8498:	9a9f16a1 	csinc	x1, x21, xzr, ne  // ne = any
    849c:	97fffede 	bl	8014 <bgetr>
    84a0:	aa0003e6 	mov	x6, x0
/home/hei/Desktop/optee-qemu/optee_os/lib/libutils/isoc/bget_malloc.c:435
    84a4:	aa1503e1 	mov	x1, x21
    84a8:	aa0603e0 	mov	x0, x6
    84ac:	97fffd87 	bl	7ac8 <raw_malloc_return_hook.constprop.21>
gen_malloc_add_pool():
/home/hei/Desktop/optee-qemu/optee_os/lib/libutils/isoc/bget_malloc.c:756
    84b0:	b5000186 	cbnz	x6, 84e0 <malloc_add_pool+0x110>
    84b4:	f0000003 	adrp	x3, b000 <__func__.5086+0x2cb>
    84b8:	91097863 	add	x3, x3, #0x25e
    84bc:	f0000001 	adrp	x1, b000 <__func__.5086+0x2cb>
    84c0:	d0000000 	adrp	x0, a000 <__text_end+0x1540>
    84c4:	91008c63 	add	x3, x3, #0x23
    84c8:	52805e82 	mov	w2, #0x2f4                 	// #756
    84cc:	9114b021 	add	x1, x1, #0x52c
    84d0:	91258000 	add	x0, x0, #0x960
    84d4:	17ffffd2 	b	841c <malloc_add_pool+0x4c>
raw_realloc():
/home/hei/Desktop/optee-qemu/optee_os/lib/libutils/isoc/bget_malloc.c:418
    84d8:	d2800006 	mov	x6, #0x0                   	// #0
    84dc:	17fffff2 	b	84a4 <malloc_add_pool+0xd4>
gen_malloc_add_pool():
/home/hei/Desktop/optee-qemu/optee_os/lib/libutils/isoc/bget_malloc.c:757
    84e0:	910e8260 	add	x0, x19, #0x3a0
/home/hei/Desktop/optee-qemu/optee_os/lib/libutils/isoc/bget_malloc.c:758
    84e4:	f9402001 	ldr	x1, [x0, #64]
/home/hei/Desktop/optee-qemu/optee_os/lib/libutils/isoc/bget_malloc.c:757
    84e8:	f9001c06 	str	x6, [x0, #56]
/home/hei/Desktop/optee-qemu/optee_os/lib/libutils/isoc/bget_malloc.c:758
    84ec:	d37cec21 	lsl	x1, x1, #4
    84f0:	8b0100c2 	add	x2, x6, x1
    84f4:	f82168d6 	str	x22, [x6, x1]
/home/hei/Desktop/optee-qemu/optee_os/lib/libutils/isoc/bget_malloc.c:761
    84f8:	b9407001 	ldr	w1, [x0, #112]
malloc_add_pool():
/home/hei/Desktop/optee-qemu/optee_os/lib/libutils/isoc/bget_malloc.c:837
    84fc:	a9425bf5 	ldp	x21, x22, [sp, #32]
gen_malloc_add_pool():
/home/hei/Desktop/optee-qemu/optee_os/lib/libutils/isoc/bget_malloc.c:759
    8500:	f9000454 	str	x20, [x2, #8]
/home/hei/Desktop/optee-qemu/optee_os/lib/libutils/isoc/bget_malloc.c:761
    8504:	0b140034 	add	w20, w1, w20
/home/hei/Desktop/optee-qemu/optee_os/lib/libutils/isoc/bget_malloc.c:763
    8508:	f9002017 	str	x23, [x0, #64]
/home/hei/Desktop/optee-qemu/optee_os/lib/libutils/isoc/bget_malloc.c:761
    850c:	b9007014 	str	w20, [x0, #112]
malloc_add_pool():
/home/hei/Desktop/optee-qemu/optee_os/lib/libutils/isoc/bget_malloc.c:837
    8510:	a94153f3 	ldp	x19, x20, [sp, #16]
    8514:	a94363f7 	ldp	x23, x24, [sp, #48]
    8518:	a8c47bfd 	ldp	x29, x30, [sp], #64
    851c:	d65f03c0 	ret

0000000000008520 <malloc_buffer_is_within_alloced>:
gen_malloc_buffer_is_within_alloced():
/home/hei/Desktop/optee-qemu/optee_os/lib/libutils/isoc/bget_malloc.c:773
    8520:	8b010001 	add	x1, x0, x1
/home/hei/Desktop/optee-qemu/optee_os/lib/libutils/isoc/bget_malloc.c:780
    8524:	eb01001f 	cmp	x0, x1
    8528:	54000b88 	b.hi	8698 <malloc_buffer_is_within_alloced+0x178>  // b.pmore
    852c:	aa0003e4 	mov	x4, x0
/home/hei/Desktop/optee-qemu/optee_os/lib/libutils/isoc/bget_malloc.c:783
    8530:	90000020 	adrp	x0, c000 <_DYNAMIC>
    8534:	910e8000 	add	x0, x0, #0x3a0
bpool_foreach_iterator_init():
/home/hei/Desktop/optee-qemu/optee_os/lib/libutils/isoc/bget_malloc.c:288
    8538:	d2800005 	mov	x5, #0x0                   	// #0
bpool_foreach_pool():
/home/hei/Desktop/optee-qemu/optee_os/lib/libutils/isoc/bget_malloc.c:298
    853c:	d2f0000a 	mov	x10, #0x8000000000000000    	// #-9223372036854775808
    8540:	928001eb 	mov	x11, #0xfffffffffffffff0    	// #-16
bpool_foreach():
/home/hei/Desktop/optee-qemu/optee_os/lib/libutils/isoc/bget_malloc.c:335
    8544:	a943a406 	ldp	x6, x9, [x0, #56]
bpool_foreach_iterator_init():
/home/hei/Desktop/optee-qemu/optee_os/lib/libutils/isoc/bget_malloc.c:289
    8548:	f94000c3 	ldr	x3, [x6]
/home/hei/Desktop/optee-qemu/optee_os/lib/libutils/isoc/bget_malloc.c:288
    854c:	aa0303e0 	mov	x0, x3
bpool_foreach_pool():
/home/hei/Desktop/optee-qemu/optee_os/lib/libutils/isoc/bget_malloc.c:296
    8550:	f9400462 	ldr	x2, [x3, #8]
/home/hei/Desktop/optee-qemu/optee_os/lib/libutils/isoc/bget_malloc.c:298
    8554:	eb0a005f 	cmp	x2, x10
    8558:	540009a0 	b.eq	868c <malloc_buffer_is_within_alloced+0x16c>  // b.none
malloc_buffer_is_within_alloced():
/home/hei/Desktop/optee-qemu/optee_os/lib/libutils/isoc/bget_malloc.c:840
    855c:	a9bf7bfd 	stp	x29, x30, [sp, #-16]!
    8560:	910003fd 	mov	x29, sp
    8564:	1400000d 	b	8598 <malloc_buffer_is_within_alloced+0x78>
bpool_foreach_pool():
/home/hei/Desktop/optee-qemu/optee_os/lib/libutils/isoc/bget_malloc.c:315
    8568:	91004000 	add	x0, x0, #0x10
gen_malloc_buffer_is_within_alloced():
/home/hei/Desktop/optee-qemu/optee_os/lib/libutils/isoc/bget_malloc.c:789
    856c:	8b020002 	add	x2, x0, x2
/home/hei/Desktop/optee-qemu/optee_os/lib/libutils/isoc/bget_malloc.c:791
    8570:	eb02003f 	cmp	x1, x2
    8574:	1a9f87e2 	cset	w2, ls  // ls = plast
    8578:	eb00009f 	cmp	x4, x0
    857c:	1a9f37e0 	cset	w0, cs  // cs = hs, nlast
    8580:	6a000040 	ands	w0, w2, w0
    8584:	540007a1 	b.ne	8678 <malloc_buffer_is_within_alloced+0x158>  // b.any
bpool_foreach_pool():
/home/hei/Desktop/optee-qemu/optee_os/lib/libutils/isoc/bget_malloc.c:296
    8588:	f9400462 	ldr	x2, [x3, #8]
bpool_foreach_iterator_init():
/home/hei/Desktop/optee-qemu/optee_os/lib/libutils/isoc/bget_malloc.c:288
    858c:	aa0303e0 	mov	x0, x3
bpool_foreach_pool():
/home/hei/Desktop/optee-qemu/optee_os/lib/libutils/isoc/bget_malloc.c:298
    8590:	eb0a005f 	cmp	x2, x10
    8594:	540006a0 	b.eq	8668 <malloc_buffer_is_within_alloced+0x148>  // b.none
/home/hei/Desktop/optee-qemu/optee_os/lib/libutils/isoc/bget_malloc.c:301
    8598:	b6f80242 	tbz	x2, #63, 85e0 <malloc_buffer_is_within_alloced+0xc0>
/home/hei/Desktop/optee-qemu/optee_os/lib/libutils/isoc/bget_malloc.c:303
    859c:	cb0203e8 	neg	x8, x2
/home/hei/Desktop/optee-qemu/optee_os/lib/libutils/isoc/bget_malloc.c:305
    85a0:	52800007 	mov	w7, #0x0                   	// #0
/home/hei/Desktop/optee-qemu/optee_os/lib/libutils/isoc/bget_malloc.c:318
    85a4:	8b080063 	add	x3, x3, x8
bpool_foreach():
/home/hei/Desktop/optee-qemu/optee_os/lib/libutils/isoc/bget_malloc.c:330
    85a8:	35ffff07 	cbnz	w7, 8588 <malloc_buffer_is_within_alloced+0x68>
bget_buf_size():
/home/hei/Desktop/optee-qemu/optee_os/lib/libutils/isoc/bget_malloc.c:457
    85ac:	cb020162 	sub	x2, x11, x2
/home/hei/Desktop/optee-qemu/optee_os/lib/libutils/isoc/bget_malloc.c:458
    85b0:	f100005f 	cmp	x2, #0x0
    85b4:	54fffdac 	b.gt	8568 <malloc_buffer_is_within_alloced+0x48>
    85b8:	f0000003 	adrp	x3, b000 <__func__.5086+0x2cb>
    85bc:	91097863 	add	x3, x3, #0x25e
    85c0:	9100dc63 	add	x3, x3, #0x37
    85c4:	f0000001 	adrp	x1, b000 <__func__.5086+0x2cb>
    85c8:	f0000000 	adrp	x0, b000 <__func__.5086+0x2cb>
    85cc:	9114b021 	add	x1, x1, #0x52c
    85d0:	91137400 	add	x0, x0, #0x4dd
    85d4:	52803942 	mov	w2, #0x1ca                 	// #458
    85d8:	94000124 	bl	8a68 <_assert_log>
    85dc:	94000134 	bl	8aac <_assert_break>
bpool_foreach_pool():
/home/hei/Desktop/optee-qemu/optee_os/lib/libutils/isoc/bget_malloc.c:311
    85e0:	f9400c67 	ldr	x7, [x3, #24]
    85e4:	f94008e7 	ldr	x7, [x7, #16]
    85e8:	eb0300ff 	cmp	x7, x3
    85ec:	54000160 	b.eq	8618 <malloc_buffer_is_within_alloced+0xf8>  // b.none
    85f0:	f0000003 	adrp	x3, b000 <__func__.5086+0x2cb>
    85f4:	91097863 	add	x3, x3, #0x25e
    85f8:	91011463 	add	x3, x3, #0x45
    85fc:	f0000001 	adrp	x1, b000 <__func__.5086+0x2cb>
    8600:	f0000000 	adrp	x0, b000 <__func__.5086+0x2cb>
    8604:	9114b021 	add	x1, x1, #0x52c
    8608:	910c1c00 	add	x0, x0, #0x307
    860c:	528026e2 	mov	w2, #0x137                 	// #311
    8610:	94000116 	bl	8a68 <_assert_log>
    8614:	94000126 	bl	8aac <_assert_break>
/home/hei/Desktop/optee-qemu/optee_os/lib/libutils/isoc/bget_malloc.c:312
    8618:	f9400867 	ldr	x7, [x3, #16]
    861c:	f9400ce7 	ldr	x7, [x7, #24]
    8620:	eb0300ff 	cmp	x7, x3
    8624:	54000160 	b.eq	8650 <malloc_buffer_is_within_alloced+0x130>  // b.none
    8628:	f0000003 	adrp	x3, b000 <__func__.5086+0x2cb>
    862c:	91097863 	add	x3, x3, #0x25e
    8630:	91011463 	add	x3, x3, #0x45
    8634:	f0000001 	adrp	x1, b000 <__func__.5086+0x2cb>
    8638:	f0000000 	adrp	x0, b000 <__func__.5086+0x2cb>
    863c:	9114b021 	add	x1, x1, #0x52c
    8640:	910c8800 	add	x0, x0, #0x322
    8644:	52802702 	mov	w2, #0x138                 	// #312
    8648:	94000108 	bl	8a68 <_assert_log>
    864c:	94000118 	bl	8aac <_assert_break>
    8650:	aa0203e8 	mov	x8, x2
/home/hei/Desktop/optee-qemu/optee_os/lib/libutils/isoc/bget_malloc.c:308
    8654:	52800027 	mov	w7, #0x1                   	// #1
    8658:	17ffffd3 	b	85a4 <malloc_buffer_is_within_alloced+0x84>
bpool_foreach():
/home/hei/Desktop/optee-qemu/optee_os/lib/libutils/isoc/bget_malloc.c:339
    865c:	d37ceca0 	lsl	x0, x5, #4
    8660:	f86068c3 	ldr	x3, [x6, x0]
    8664:	17ffffc9 	b	8588 <malloc_buffer_is_within_alloced+0x68>
/home/hei/Desktop/optee-qemu/optee_os/lib/libutils/isoc/bget_malloc.c:335
    8668:	910004a5 	add	x5, x5, #0x1
    866c:	eb0900bf 	cmp	x5, x9
    8670:	54ffff63 	b.cc	865c <malloc_buffer_is_within_alloced+0x13c>  // b.lo, b.ul, b.last
gen_malloc_buffer_is_within_alloced():
/home/hei/Desktop/optee-qemu/optee_os/lib/libutils/isoc/bget_malloc.c:774
    8674:	52800000 	mov	w0, #0x0                   	// #0
malloc_buffer_is_within_alloced():
/home/hei/Desktop/optee-qemu/optee_os/lib/libutils/isoc/bget_malloc.c:842
    8678:	a8c17bfd 	ldp	x29, x30, [sp], #16
    867c:	d65f03c0 	ret
bpool_foreach():
/home/hei/Desktop/optee-qemu/optee_os/lib/libutils/isoc/bget_malloc.c:339
    8680:	d37ceca0 	lsl	x0, x5, #4
    8684:	f86068c3 	ldr	x3, [x6, x0]
    8688:	17ffffb1 	b	854c <malloc_buffer_is_within_alloced+0x2c>
/home/hei/Desktop/optee-qemu/optee_os/lib/libutils/isoc/bget_malloc.c:335
    868c:	910004a5 	add	x5, x5, #0x1
    8690:	eb0900bf 	cmp	x5, x9
    8694:	54ffff63 	b.cc	8680 <malloc_buffer_is_within_alloced+0x160>  // b.lo, b.ul, b.last
gen_malloc_buffer_is_within_alloced():
/home/hei/Desktop/optee-qemu/optee_os/lib/libutils/isoc/bget_malloc.c:774
    8698:	52800000 	mov	w0, #0x0                   	// #0
malloc_buffer_is_within_alloced():
/home/hei/Desktop/optee-qemu/optee_os/lib/libutils/isoc/bget_malloc.c:842
    869c:	d65f03c0 	ret

00000000000086a0 <malloc_buffer_overlaps_heap>:
gen_malloc_buffer_overlaps_heap():
/home/hei/Desktop/optee-qemu/optee_os/lib/libutils/isoc/bget_malloc.c:814
    86a0:	90000022 	adrp	x2, c000 <_DYNAMIC>
    86a4:	910e8042 	add	x2, x2, #0x3a0
/home/hei/Desktop/optee-qemu/optee_os/lib/libutils/isoc/bget_malloc.c:807
    86a8:	8b010001 	add	x1, x0, x1
/home/hei/Desktop/optee-qemu/optee_os/lib/libutils/isoc/bget_malloc.c:814
    86ac:	d2800005 	mov	x5, #0x0                   	// #0
    86b0:	a9439c43 	ldp	x3, x7, [x2, #56]
    86b4:	eb0700bf 	cmp	x5, x7
    86b8:	54000081 	b.ne	86c8 <malloc_buffer_overlaps_heap+0x28>  // b.any
/home/hei/Desktop/optee-qemu/optee_os/lib/libutils/isoc/bget_malloc.c:809
    86bc:	52800002 	mov	w2, #0x0                   	// #0
malloc_buffer_overlaps_heap():
/home/hei/Desktop/optee-qemu/optee_os/lib/libutils/isoc/bget_malloc.c:847
    86c0:	2a0203e0 	mov	w0, w2
    86c4:	d65f03c0 	ret
gen_malloc_buffer_overlaps_heap():
/home/hei/Desktop/optee-qemu/optee_os/lib/libutils/isoc/bget_malloc.c:816
    86c8:	a9401066 	ldp	x6, x4, [x3]
/home/hei/Desktop/optee-qemu/optee_os/lib/libutils/isoc/bget_malloc.c:818
    86cc:	eb01001f 	cmp	x0, x1
    86d0:	1a9f97e2 	cset	w2, hi  // hi = pmore
/home/hei/Desktop/optee-qemu/optee_os/lib/libutils/isoc/bget_malloc.c:816
    86d4:	8b0400c4 	add	x4, x6, x4
/home/hei/Desktop/optee-qemu/optee_os/lib/libutils/isoc/bget_malloc.c:818
    86d8:	eb0400df 	cmp	x6, x4
    86dc:	1a9f97e8 	cset	w8, hi  // hi = pmore
    86e0:	2a080042 	orr	w2, w2, w8
    86e4:	35fffee2 	cbnz	w2, 86c0 <malloc_buffer_overlaps_heap+0x20>
/home/hei/Desktop/optee-qemu/optee_os/lib/libutils/isoc/bget_malloc.c:823
    86e8:	eb06003f 	cmp	x1, x6
    86ec:	91004063 	add	x3, x3, #0x10
    86f0:	1a9f97e2 	cset	w2, hi  // hi = pmore
    86f4:	eb04001f 	cmp	x0, x4
    86f8:	1a9f27e4 	cset	w4, cc  // cc = lo, ul, last
    86fc:	2a040042 	orr	w2, w2, w4
    8700:	35fffe02 	cbnz	w2, 86c0 <malloc_buffer_overlaps_heap+0x20>
/home/hei/Desktop/optee-qemu/optee_os/lib/libutils/isoc/bget_malloc.c:814
    8704:	910004a5 	add	x5, x5, #0x1
    8708:	17ffffeb 	b	86b4 <malloc_buffer_overlaps_heap+0x14>

000000000000870c <snprintf>:
snprintf():
/home/hei/Desktop/optee-qemu/optee_os/lib/libutils/isoc/snprintf.c:10
    870c:	a9b07bfd 	stp	x29, x30, [sp, #-256]!
    8710:	910003fd 	mov	x29, sp
    8714:	a90d93e3 	stp	x3, x4, [sp, #216]
/home/hei/Desktop/optee-qemu/optee_os/lib/libutils/isoc/snprintf.c:14
    8718:	910403e3 	add	x3, sp, #0x100
    871c:	a9030fe3 	stp	x3, x3, [sp, #48]
    8720:	910343e3 	add	x3, sp, #0xd0
    8724:	f90023e3 	str	x3, [sp, #64]
    8728:	128004e3 	mov	w3, #0xffffffd8            	// #-40
    872c:	b9004be3 	str	w3, [sp, #72]
    8730:	12800fe3 	mov	w3, #0xffffff80            	// #-128
    8734:	b9004fe3 	str	w3, [sp, #76]
/home/hei/Desktop/optee-qemu/optee_os/lib/libutils/isoc/snprintf.c:15
    8738:	910043e3 	add	x3, sp, #0x10
/home/hei/Desktop/optee-qemu/optee_os/lib/libutils/isoc/snprintf.c:10
    873c:	a90e9be5 	stp	x5, x6, [sp, #232]
/home/hei/Desktop/optee-qemu/optee_os/lib/libutils/isoc/snprintf.c:15
    8740:	a94317e4 	ldp	x4, x5, [sp, #48]
    8744:	a90117e4 	stp	x4, x5, [sp, #16]
    8748:	a94417e4 	ldp	x4, x5, [sp, #64]
    874c:	a90217e4 	stp	x4, x5, [sp, #32]
/home/hei/Desktop/optee-qemu/optee_os/lib/libutils/isoc/snprintf.c:10
    8750:	3d8017e0 	str	q0, [sp, #80]
/home/hei/Desktop/optee-qemu/optee_os/lib/libutils/isoc/snprintf.c:15
    8754:	52800004 	mov	w4, #0x0                   	// #0
/home/hei/Desktop/optee-qemu/optee_os/lib/libutils/isoc/snprintf.c:10
    8758:	3d801be1 	str	q1, [sp, #96]
    875c:	3d801fe2 	str	q2, [sp, #112]
    8760:	3d8023e3 	str	q3, [sp, #128]
    8764:	3d8027e4 	str	q4, [sp, #144]
    8768:	3d802be5 	str	q5, [sp, #160]
    876c:	3d802fe6 	str	q6, [sp, #176]
    8770:	3d8033e7 	str	q7, [sp, #192]
    8774:	f9007fe7 	str	x7, [sp, #248]
/home/hei/Desktop/optee-qemu/optee_os/lib/libutils/isoc/snprintf.c:15
    8778:	97ffe01d 	bl	7ec <__vsnprintf>
/home/hei/Desktop/optee-qemu/optee_os/lib/libutils/isoc/snprintf.c:19
    877c:	a8d07bfd 	ldp	x29, x30, [sp], #256
    8780:	d65f03c0 	ret

0000000000008784 <vsnprintf>:
vsnprintf():
/home/hei/Desktop/optee-qemu/optee_os/lib/libutils/isoc/snprintf.c:22
    8784:	a9bb7bfd 	stp	x29, x30, [sp, #-80]!
    8788:	910003fd 	mov	x29, sp
    878c:	a90153f3 	stp	x19, x20, [sp, #16]
    8790:	aa0003f3 	mov	x19, x0
    8794:	aa0103f4 	mov	x20, x1
/home/hei/Desktop/optee-qemu/optee_os/lib/libutils/isoc/snprintf.c:23
    8798:	9100c3e0 	add	x0, sp, #0x30
    879c:	aa0303e1 	mov	x1, x3
/home/hei/Desktop/optee-qemu/optee_os/lib/libutils/isoc/snprintf.c:22
    87a0:	f90013f5 	str	x21, [sp, #32]
    87a4:	aa0203f5 	mov	x21, x2
/home/hei/Desktop/optee-qemu/optee_os/lib/libutils/isoc/snprintf.c:23
    87a8:	d2800402 	mov	x2, #0x20                  	// #32
    87ac:	97ffded9 	bl	310 <memcpy>
    87b0:	aa1503e2 	mov	x2, x21
    87b4:	aa0003e3 	mov	x3, x0
    87b8:	aa1403e1 	mov	x1, x20
    87bc:	52800004 	mov	w4, #0x0                   	// #0
    87c0:	aa1303e0 	mov	x0, x19
    87c4:	97ffe00a 	bl	7ec <__vsnprintf>
/home/hei/Desktop/optee-qemu/optee_os/lib/libutils/isoc/snprintf.c:24
    87c8:	a94153f3 	ldp	x19, x20, [sp, #16]
    87cc:	f94013f5 	ldr	x21, [sp, #32]
    87d0:	a8c57bfd 	ldp	x29, x30, [sp], #80
    87d4:	d65f03c0 	ret

00000000000087d8 <memmove>:
memmove():
/home/hei/Desktop/optee-qemu/optee_os/lib/libutils/isoc/newlib/memmove.c:96
    87d8:	eb01001f 	cmp	x0, x1
    87dc:	54000289 	b.ls	882c <memmove+0x54>  // b.plast
/home/hei/Desktop/optee-qemu/optee_os/lib/libutils/isoc/newlib/memmove.c:96 (discriminator 1)
    87e0:	8b020023 	add	x3, x1, x2
    87e4:	eb00007f 	cmp	x3, x0
    87e8:	54000229 	b.ls	882c <memmove+0x54>  // b.plast
/home/hei/Desktop/optee-qemu/optee_os/lib/libutils/isoc/newlib/memmove.c:99
    87ec:	8b020004 	add	x4, x0, x2
/home/hei/Desktop/optee-qemu/optee_os/lib/libutils/isoc/newlib/memmove.c:100
    87f0:	aa2203e2 	mvn	x2, x2
    87f4:	d2800001 	mov	x1, #0x0                   	// #0
    87f8:	d1000421 	sub	x1, x1, #0x1
    87fc:	eb01005f 	cmp	x2, x1
    8800:	54000041 	b.ne	8808 <memmove+0x30>  // b.any
/home/hei/Desktop/optee-qemu/optee_os/lib/libutils/isoc/newlib/memmove.c:157
    8804:	d65f03c0 	ret
/home/hei/Desktop/optee-qemu/optee_os/lib/libutils/isoc/newlib/memmove.c:101
    8808:	38616865 	ldrb	w5, [x3, x1]
    880c:	38216885 	strb	w5, [x4, x1]
    8810:	17fffffa 	b	87f8 <memmove+0x20>
/home/hei/Desktop/optee-qemu/optee_os/lib/libutils/isoc/newlib/memmove.c:104
    8814:	38636824 	ldrb	w4, [x1, x3]
    8818:	38236804 	strb	w4, [x0, x3]
    881c:	91000463 	add	x3, x3, #0x1
/home/hei/Desktop/optee-qemu/optee_os/lib/libutils/isoc/newlib/memmove.c:103
    8820:	eb03005f 	cmp	x2, x3
    8824:	54ffff81 	b.ne	8814 <memmove+0x3c>  // b.any
    8828:	17fffff7 	b	8804 <memmove+0x2c>
    882c:	d2800003 	mov	x3, #0x0                   	// #0
    8830:	17fffffc 	b	8820 <memmove+0x48>

0000000000008834 <memset>:
memset():
/home/hei/Desktop/optee-qemu/optee_os/lib/libutils/isoc/newlib/memset.c:125
    8834:	d2800003 	mov	x3, #0x0                   	// #0
    8838:	eb03005f 	cmp	x2, x3
    883c:	54000041 	b.ne	8844 <memset+0x10>  // b.any
/home/hei/Desktop/optee-qemu/optee_os/lib/libutils/isoc/newlib/memset.c:129
    8840:	d65f03c0 	ret
/home/hei/Desktop/optee-qemu/optee_os/lib/libutils/isoc/newlib/memset.c:126
    8844:	38236801 	strb	w1, [x0, x3]
    8848:	91000463 	add	x3, x3, #0x1
    884c:	17fffffb 	b	8838 <memset+0x4>

0000000000008850 <mempool_alloc_pool>:
mempool_alloc_pool():
/home/hei/Desktop/optee-qemu/optee_os/lib/libutils/ext/mempool.c:133
    8850:	a9be7bfd 	stp	x29, x30, [sp, #-32]!
    8854:	910003fd 	mov	x29, sp
    8858:	a90153f3 	stp	x19, x20, [sp, #16]
    885c:	aa0003f3 	mov	x19, x0
    8860:	aa0103f4 	mov	x20, x1
/home/hei/Desktop/optee-qemu/optee_os/lib/libutils/ext/mempool.c:134
    8864:	d2800020 	mov	x0, #0x1                   	// #1
    8868:	d2800301 	mov	x1, #0x18                  	// #24
    886c:	97fffea0 	bl	82ec <calloc>
/home/hei/Desktop/optee-qemu/optee_os/lib/libutils/ext/mempool.c:137
    8870:	f2400a7f 	tst	x19, #0x7
    8874:	54000140 	b.eq	889c <mempool_alloc_pool+0x4c>  // b.none
/home/hei/Desktop/optee-qemu/optee_os/lib/libutils/ext/mempool.c:137 (discriminator 1)
    8878:	f0000003 	adrp	x3, b000 <__func__.5086+0x2cb>
    887c:	f0000001 	adrp	x1, b000 <__func__.5086+0x2cb>
    8880:	9115c063 	add	x3, x3, #0x570
    8884:	91164421 	add	x1, x1, #0x591
    8888:	f0000000 	adrp	x0, b000 <__func__.5086+0x2cb>
    888c:	9116b000 	add	x0, x0, #0x5ac
    8890:	52801122 	mov	w2, #0x89                  	// #137
    8894:	94000075 	bl	8a68 <_assert_log>
    8898:	94000085 	bl	8aac <_assert_break>
/home/hei/Desktop/optee-qemu/optee_os/lib/libutils/ext/mempool.c:139
    889c:	b4000080 	cbz	x0, 88ac <mempool_alloc_pool+0x5c>
/home/hei/Desktop/optee-qemu/optee_os/lib/libutils/ext/mempool.c:142
    88a0:	92800001 	mov	x1, #0xffffffffffffffff    	// #-1
    88a4:	a9000414 	stp	x20, x1, [x0]
/home/hei/Desktop/optee-qemu/optee_os/lib/libutils/ext/mempool.c:141
    88a8:	f9000813 	str	x19, [x0, #16]
/home/hei/Desktop/optee-qemu/optee_os/lib/libutils/ext/mempool.c:152
    88ac:	a94153f3 	ldp	x19, x20, [sp, #16]
    88b0:	a8c27bfd 	ldp	x29, x30, [sp], #32
    88b4:	d65f03c0 	ret

00000000000088b8 <mempool_alloc>:
mempool_alloc():
/home/hei/Desktop/optee-qemu/optee_os/lib/libutils/ext/mempool.c:162
    88b8:	a9401003 	ldp	x3, x4, [x0]
    88bc:	b7f80304 	tbnz	x4, #63, 891c <mempool_alloc+0x64>
/home/hei/Desktop/optee-qemu/optee_os/lib/libutils/ext/mempool.c:165
    88c0:	f9400806 	ldr	x6, [x0, #16]
/home/hei/Desktop/optee-qemu/optee_os/lib/libutils/ext/mempool.c:169
    88c4:	91001c82 	add	x2, x4, #0x7
/home/hei/Desktop/optee-qemu/optee_os/lib/libutils/ext/mempool.c:165
    88c8:	8b060085 	add	x5, x4, x6
/home/hei/Desktop/optee-qemu/optee_os/lib/libutils/ext/mempool.c:169
    88cc:	f8666886 	ldr	x6, [x4, x6]
    88d0:	8b060042 	add	x2, x2, x6
    88d4:	927df042 	and	x2, x2, #0xfffffffffffffff8
/home/hei/Desktop/optee-qemu/optee_os/lib/libutils/ext/mempool.c:170
    88d8:	eb02007f 	cmp	x3, x2
    88dc:	54000242 	b.cs	8924 <mempool_alloc+0x6c>  // b.hs, b.nlast
/home/hei/Desktop/optee-qemu/optee_os/lib/libutils/ext/mempool.c:155
    88e0:	a9bf7bfd 	stp	x29, x30, [sp, #-16]!
/home/hei/Desktop/optee-qemu/optee_os/lib/libutils/ext/mempool.c:197
    88e4:	f0000000 	adrp	x0, b000 <__func__.5086+0x2cb>
    88e8:	9115c000 	add	x0, x0, #0x570
/home/hei/Desktop/optee-qemu/optee_os/lib/libutils/ext/mempool.c:155
    88ec:	910003fd 	mov	x29, sp
/home/hei/Desktop/optee-qemu/optee_os/lib/libutils/ext/mempool.c:197
    88f0:	aa0103e5 	mov	x5, x1
    88f4:	52800023 	mov	w3, #0x1                   	// #1
    88f8:	52800022 	mov	w2, #0x1                   	// #1
    88fc:	528018a1 	mov	w1, #0xc5                  	// #197
    8900:	91004c00 	add	x0, x0, #0x13
    8904:	f0000004 	adrp	x4, b000 <__func__.5086+0x2cb>
    8908:	91174c84 	add	x4, x4, #0x5d3
    890c:	97ffdf41 	bl	610 <trace_printf>
/home/hei/Desktop/optee-qemu/optee_os/lib/libutils/ext/mempool.c:199
    8910:	d2800000 	mov	x0, #0x0                   	// #0
/home/hei/Desktop/optee-qemu/optee_os/lib/libutils/ext/mempool.c:200
    8914:	a8c17bfd 	ldp	x29, x30, [sp], #16
    8918:	d65f03c0 	ret
/home/hei/Desktop/optee-qemu/optee_os/lib/libutils/ext/mempool.c:158
    891c:	d2800005 	mov	x5, #0x0                   	// #0
/home/hei/Desktop/optee-qemu/optee_os/lib/libutils/ext/mempool.c:163
    8920:	d2800002 	mov	x2, #0x0                   	// #0
/home/hei/Desktop/optee-qemu/optee_os/lib/libutils/ext/mempool.c:175
    8924:	91007c21 	add	x1, x1, #0x1f
    8928:	927df021 	and	x1, x1, #0xfffffffffffffff8
/home/hei/Desktop/optee-qemu/optee_os/lib/libutils/ext/mempool.c:176
    892c:	8b010046 	add	x6, x2, x1
    8930:	eb0300df 	cmp	x6, x3
    8934:	54fffd68 	b.hi	88e0 <mempool_alloc+0x28>  // b.pmore
/home/hei/Desktop/optee-qemu/optee_os/lib/libutils/ext/mempool.c:179
    8938:	f9400806 	ldr	x6, [x0, #16]
    893c:	8b060043 	add	x3, x2, x6
/home/hei/Desktop/optee-qemu/optee_os/lib/libutils/ext/mempool.c:180
    8940:	f8266841 	str	x1, [x2, x6]
/home/hei/Desktop/optee-qemu/optee_os/lib/libutils/ext/mempool.c:181
    8944:	f9000464 	str	x4, [x3, #8]
/home/hei/Desktop/optee-qemu/optee_os/lib/libutils/ext/mempool.c:182
    8948:	b4000045 	cbz	x5, 8950 <mempool_alloc+0x98>
/home/hei/Desktop/optee-qemu/optee_os/lib/libutils/ext/mempool.c:183
    894c:	f90008a2 	str	x2, [x5, #16]
/home/hei/Desktop/optee-qemu/optee_os/lib/libutils/ext/mempool.c:184
    8950:	92800001 	mov	x1, #0xffffffffffffffff    	// #-1
    8954:	f9000861 	str	x1, [x3, #16]
/home/hei/Desktop/optee-qemu/optee_os/lib/libutils/ext/mempool.c:185
    8958:	f9000402 	str	x2, [x0, #8]
/home/hei/Desktop/optee-qemu/optee_os/lib/libutils/ext/mempool.c:194
    895c:	91006060 	add	x0, x3, #0x18
/home/hei/Desktop/optee-qemu/optee_os/lib/libutils/ext/mempool.c:200
    8960:	d65f03c0 	ret

0000000000008964 <mempool_calloc>:
mempool_calloc():
/home/hei/Desktop/optee-qemu/optee_os/lib/libutils/ext/mempool.c:203
    8964:	a9be7bfd 	stp	x29, x30, [sp, #-32]!
    8968:	910003fd 	mov	x29, sp
    896c:	a90153f3 	stp	x19, x20, [sp, #16]
/home/hei/Desktop/optee-qemu/optee_os/lib/libutils/ext/mempool.c:207
    8970:	9b027c34 	mul	x20, x1, x2
    8974:	9bc27c21 	umulh	x1, x1, x2
    8978:	b5000121 	cbnz	x1, 899c <mempool_calloc+0x38>
/home/hei/Desktop/optee-qemu/optee_os/lib/libutils/ext/mempool.c:210
    897c:	aa1403e1 	mov	x1, x20
    8980:	97ffffce 	bl	88b8 <mempool_alloc>
    8984:	aa0003f3 	mov	x19, x0
/home/hei/Desktop/optee-qemu/optee_os/lib/libutils/ext/mempool.c:211
    8988:	b50000e0 	cbnz	x0, 89a4 <mempool_calloc+0x40>
/home/hei/Desktop/optee-qemu/optee_os/lib/libutils/ext/mempool.c:215
    898c:	aa1303e0 	mov	x0, x19
    8990:	a94153f3 	ldp	x19, x20, [sp, #16]
    8994:	a8c27bfd 	ldp	x29, x30, [sp], #32
    8998:	d65f03c0 	ret
/home/hei/Desktop/optee-qemu/optee_os/lib/libutils/ext/mempool.c:208
    899c:	d2800013 	mov	x19, #0x0                   	// #0
    89a0:	17fffffb 	b	898c <mempool_calloc+0x28>
/home/hei/Desktop/optee-qemu/optee_os/lib/libutils/ext/mempool.c:212
    89a4:	aa1403e2 	mov	x2, x20
    89a8:	52800001 	mov	w1, #0x0                   	// #0
    89ac:	97ffffa2 	bl	8834 <memset>
    89b0:	17fffff7 	b	898c <mempool_calloc+0x28>

00000000000089b4 <mempool_free>:
mempool_free():
/home/hei/Desktop/optee-qemu/optee_os/lib/libutils/ext/mempool.c:224
    89b4:	b40001c1 	cbz	x1, 89ec <mempool_free+0x38>
/home/hei/Desktop/optee-qemu/optee_os/lib/libutils/ext/mempool.c:229
    89b8:	f85f0022 	ldur	x2, [x1, #-16]
    89bc:	b7f801a2 	tbnz	x2, #63, 89f0 <mempool_free+0x3c>
/home/hei/Desktop/optee-qemu/optee_os/lib/libutils/ext/mempool.c:232
    89c0:	f9400803 	ldr	x3, [x0, #16]
    89c4:	f85f8024 	ldur	x4, [x1, #-8]
    89c8:	8b020063 	add	x3, x3, x2
    89cc:	f9000864 	str	x4, [x3, #16]
    89d0:	aa0203e3 	mov	x3, x2
/home/hei/Desktop/optee-qemu/optee_os/lib/libutils/ext/mempool.c:236
    89d4:	f85f8024 	ldur	x4, [x1, #-8]
    89d8:	b7f80084 	tbnz	x4, #63, 89e8 <mempool_free+0x34>
/home/hei/Desktop/optee-qemu/optee_os/lib/libutils/ext/mempool.c:239
    89dc:	a9408403 	ldp	x3, x1, [x0, #8]
    89e0:	8b040021 	add	x1, x1, x4
    89e4:	f9000422 	str	x2, [x1, #8]
/home/hei/Desktop/optee-qemu/optee_os/lib/libutils/ext/mempool.c:243
    89e8:	f9000403 	str	x3, [x0, #8]
/home/hei/Desktop/optee-qemu/optee_os/lib/libutils/ext/mempool.c:245
    89ec:	d65f03c0 	ret
/home/hei/Desktop/optee-qemu/optee_os/lib/libutils/ext/mempool.c:222
    89f0:	92800003 	mov	x3, #0xffffffffffffffff    	// #-1
    89f4:	17fffff8 	b	89d4 <mempool_free+0x20>

00000000000089f8 <consttime_memcmp>:
consttime_memcmp():
/home/hei/Desktop/optee-qemu/optee_os/lib/libutils/ext/consttime_memcmp.c:36
    89f8:	d10043ff 	sub	sp, sp, #0x10
/home/hei/Desktop/optee-qemu/optee_os/lib/libutils/ext/consttime_memcmp.c:41
    89fc:	52802003 	mov	w3, #0x100                 	// #256
/home/hei/Desktop/optee-qemu/optee_os/lib/libutils/ext/consttime_memcmp.c:43
    8a00:	d2800005 	mov	x5, #0x0                   	// #0
/home/hei/Desktop/optee-qemu/optee_os/lib/libutils/ext/consttime_memcmp.c:39
    8a04:	52800006 	mov	w6, #0x0                   	// #0
/home/hei/Desktop/optee-qemu/optee_os/lib/libutils/ext/consttime_memcmp.c:41
    8a08:	b9000fe3 	str	w3, [sp, #12]
/home/hei/Desktop/optee-qemu/optee_os/lib/libutils/ext/consttime_memcmp.c:40
    8a0c:	52800003 	mov	w3, #0x0                   	// #0
/home/hei/Desktop/optee-qemu/optee_os/lib/libutils/ext/consttime_memcmp.c:43 (discriminator 1)
    8a10:	eb0200bf 	cmp	x5, x2
    8a14:	540000a1 	b.ne	8a28 <consttime_memcmp+0x30>  // b.any
/home/hei/Desktop/optee-qemu/optee_os/lib/libutils/ext/consttime_memcmp.c:50
    8a18:	53087c63 	lsr	w3, w3, #8
/home/hei/Desktop/optee-qemu/optee_os/lib/libutils/ext/consttime_memcmp.c:51
    8a1c:	4b462060 	sub	w0, w3, w6, lsr #8
    8a20:	910043ff 	add	sp, sp, #0x10
    8a24:	d65f03c0 	ret
/home/hei/Desktop/optee-qemu/optee_os/lib/libutils/ext/consttime_memcmp.c:45 (discriminator 2)
    8a28:	38656808 	ldrb	w8, [x0, x5]
    8a2c:	38656824 	ldrb	w4, [x1, x5]
    8a30:	910004a5 	add	x5, x5, #0x1
/home/hei/Desktop/optee-qemu/optee_os/lib/libutils/ext/consttime_memcmp.c:44 (discriminator 2)
    8a34:	b9400fe9 	ldr	w9, [sp, #12]
/home/hei/Desktop/optee-qemu/optee_os/lib/libutils/ext/consttime_memcmp.c:45 (discriminator 2)
    8a38:	4b040107 	sub	w7, w8, w4
/home/hei/Desktop/optee-qemu/optee_os/lib/libutils/ext/consttime_memcmp.c:47 (discriminator 2)
    8a3c:	4b080084 	sub	w4, w4, w8
/home/hei/Desktop/optee-qemu/optee_os/lib/libutils/ext/consttime_memcmp.c:44 (discriminator 2)
    8a40:	0a0900e7 	and	w7, w7, w9
    8a44:	2a0700c6 	orr	w6, w6, w7
/home/hei/Desktop/optee-qemu/optee_os/lib/libutils/ext/consttime_memcmp.c:46 (discriminator 2)
    8a48:	b9400fe7 	ldr	w7, [sp, #12]
    8a4c:	0a070084 	and	w4, w4, w7
/home/hei/Desktop/optee-qemu/optee_os/lib/libutils/ext/consttime_memcmp.c:48 (discriminator 2)
    8a50:	b9400fe7 	ldr	w7, [sp, #12]
/home/hei/Desktop/optee-qemu/optee_os/lib/libutils/ext/consttime_memcmp.c:46 (discriminator 2)
    8a54:	2a040063 	orr	w3, w3, w4
/home/hei/Desktop/optee-qemu/optee_os/lib/libutils/ext/consttime_memcmp.c:48 (discriminator 2)
    8a58:	2a0300c4 	orr	w4, w6, w3
    8a5c:	0a2400e4 	bic	w4, w7, w4
    8a60:	b9000fe4 	str	w4, [sp, #12]
    8a64:	17ffffeb 	b	8a10 <consttime_memcmp+0x18>

0000000000008a68 <_assert_log>:
_assert_log():
/home/hei/Desktop/optee-qemu/optee_os/lib/libutee/assert.c:17
    8a68:	d10083ff 	sub	sp, sp, #0x20
/home/hei/Desktop/optee-qemu/optee_os/lib/libutee/assert.c:18
    8a6c:	2a0203e7 	mov	w7, w2
    8a70:	aa0103e6 	mov	x6, x1
    8a74:	aa0003e5 	mov	x5, x0
    8a78:	52800022 	mov	w2, #0x1                   	// #1
    8a7c:	52800001 	mov	w1, #0x0                   	// #0
/home/hei/Desktop/optee-qemu/optee_os/lib/libutee/assert.c:17
    8a80:	a9017bfd 	stp	x29, x30, [sp, #16]
    8a84:	910043fd 	add	x29, sp, #0x10
/home/hei/Desktop/optee-qemu/optee_os/lib/libutee/assert.c:18
    8a88:	d2800000 	mov	x0, #0x0                   	// #0
    8a8c:	f0000004 	adrp	x4, b000 <__func__.5086+0x2cb>
    8a90:	f90003e3 	str	x3, [sp]
    8a94:	91182c84 	add	x4, x4, #0x60b
    8a98:	52800023 	mov	w3, #0x1                   	// #1
    8a9c:	97ffdedd 	bl	610 <trace_printf>
/home/hei/Desktop/optee-qemu/optee_os/lib/libutee/assert.c:20
    8aa0:	a9417bfd 	ldp	x29, x30, [sp, #16]
    8aa4:	910083ff 	add	sp, sp, #0x20
    8aa8:	d65f03c0 	ret

0000000000008aac <_assert_break>:
_assert_break():
/home/hei/Desktop/optee-qemu/optee_os/lib/libutee/assert.c:23
    8aac:	a9bf7bfd 	stp	x29, x30, [sp, #-16]!
/home/hei/Desktop/optee-qemu/optee_os/lib/libutee/assert.c:24
    8ab0:	d2bfffe0 	mov	x0, #0xffff0000            	// #4294901760
/home/hei/Desktop/optee-qemu/optee_os/lib/libutee/assert.c:23
    8ab4:	910003fd 	mov	x29, sp
/home/hei/Desktop/optee-qemu/optee_os/lib/libutee/assert.c:24
    8ab8:	97ffe2fb 	bl	16a4 <utee_panic>
/home/hei/Desktop/optee-qemu/optee_os/lib/libutee/assert.c:27 (discriminator 1)
    8abc:	14000000 	b	8abc <_assert_break+0x10>
