
a237ca48-2aa4-11ed-a261-0242ac120002.elf:     file format elf64-littleaarch64
a237ca48-2aa4-11ed-a261-0242ac120002.elf
architecture: aarch64, flags 0x00000150:
HAS_SYMS, DYNAMIC, D_PAGED
start address 0x00000000000004e4

Program Header:
    LOAD off    0x0000000000001000 vaddr 0x0000000000000000 paddr 0x0000000000000000 align 2**12
         filesz 0x000000000000bc90 memsz 0x000000000000bc90 flags r-x
    LOAD off    0x000000000000d000 vaddr 0x000000000000c000 paddr 0x000000000000c000 align 2**12
         filesz 0x000000000000048c memsz 0x000000000000b4f8 flags rw-
 DYNAMIC off    0x000000000000d000 vaddr 0x000000000000c000 paddr 0x000000000000c000 align 2**3
         filesz 0x0000000000000110 memsz 0x0000000000000110 flags rw-
   STACK off    0x0000000000000000 vaddr 0x0000000000000000 paddr 0x0000000000000000 align 2**4
         filesz 0x0000000000000000 memsz 0x0000000000000000 flags rw-

Dynamic Section:
  HASH                 0x000000000000ba50
  GNU_HASH             0x000000000000b9e0
  STRTAB               0x000000000000ba48
  SYMTAB               0x000000000000ba00
  STRSZ                0x0000000000000001
  SYMENT               0x0000000000000018
  DEBUG                0x0000000000000000
  RELA                 0x000000000000ba68
  RELASZ               0x0000000000000390
  RELAENT              0x0000000000000018
  FLAGS_1              0x0000000008000000
  RELACOUNT            0x0000000000000017
private flags = 0:

Sections:
Idx Name          Size      VMA               LMA               File off  Algn
  0 .ta_head      00000020  0000000000000000  0000000000000000  00001000  2**3
                  CONTENTS, ALLOC, LOAD, READONLY, DATA
  1 .text         00008cec  0000000000000020  0000000000000020  00001020  2**2
                  CONTENTS, ALLOC, LOAD, READONLY, CODE
  2 .eh_frame     00001b54  0000000000008d10  0000000000008d10  00009d10  2**3
                  CONTENTS, ALLOC, LOAD, READONLY, DATA
  3 .rodata       00001175  000000000000a868  000000000000a868  0000b868  2**3
                  CONTENTS, ALLOC, LOAD, READONLY, DATA
  4 .gnu.hash     0000001c  000000000000b9e0  000000000000b9e0  0000c9e0  2**3
                  CONTENTS, ALLOC, LOAD, READONLY, DATA
  5 .dynsym       00000048  000000000000ba00  000000000000ba00  0000ca00  2**3
                  CONTENTS, ALLOC, LOAD, READONLY, DATA
  6 .dynstr       00000001  000000000000ba48  000000000000ba48  0000ca48  2**0
                  CONTENTS, ALLOC, LOAD, READONLY, DATA
  7 .hash         00000018  000000000000ba50  000000000000ba50  0000ca50  2**3
                  CONTENTS, ALLOC, LOAD, READONLY, DATA
  8 .rela.dyn     00000228  000000000000ba68  000000000000ba68  0000ca68  2**3
                  CONTENTS, ALLOC, LOAD, READONLY, DATA
  9 .dynamic      00000110  000000000000c000  000000000000c000  0000d000  2**3
                  CONTENTS, ALLOC, LOAD, DATA
 10 .got          00000098  000000000000c110  000000000000c110  0000d110  2**3
                  CONTENTS, ALLOC, LOAD, DATA
 11 .rela.got     00000168  000000000000c1a8  000000000000c1a8  0000d1a8  2**3
                  CONTENTS, ALLOC, LOAD, READONLY, DATA
 12 .data         0000017c  000000000000c310  000000000000c310  0000d310  2**3
                  CONTENTS, ALLOC, LOAD, DATA
 13 .bss          0000b068  000000000000c490  000000000000c490  0000d48c  2**3
                  ALLOC
 14 .debug_info   00011de5  0000000000000000  0000000000000000  0000d48c  2**0
                  CONTENTS, READONLY, DEBUGGING
 15 .debug_abbrev 00002ece  0000000000000000  0000000000000000  0001f271  2**0
                  CONTENTS, READONLY, DEBUGGING
 16 .debug_loc    0001989b  0000000000000000  0000000000000000  0002213f  2**0
                  CONTENTS, READONLY, DEBUGGING
 17 .debug_aranges 00000830  0000000000000000  0000000000000000  0003b9e0  2**4
                  CONTENTS, READONLY, DEBUGGING
 18 .debug_ranges 000016a0  0000000000000000  0000000000000000  0003c210  2**4
                  CONTENTS, READONLY, DEBUGGING
 19 .debug_macro  0001153c  0000000000000000  0000000000000000  0003d8b0  2**0
                  CONTENTS, READONLY, DEBUGGING
 20 .debug_line   00009db7  0000000000000000  0000000000000000  0004edec  2**0
                  CONTENTS, READONLY, DEBUGGING
 21 .debug_str    000120cf  0000000000000000  0000000000000000  00058ba3  2**0
                  CONTENTS, READONLY, DEBUGGING
 22 .comment      00000055  0000000000000000  0000000000000000  0006ac72  2**0
                  CONTENTS, READONLY
SYMBOL TABLE:
0000000000000000 l    d  .ta_head	0000000000000000 .ta_head
0000000000000020 l    d  .text	0000000000000000 .text
0000000000008d10 l    d  .eh_frame	0000000000000000 .eh_frame
000000000000a868 l    d  .rodata	0000000000000000 .rodata
000000000000b9e0 l    d  .gnu.hash	0000000000000000 .gnu.hash
000000000000ba00 l    d  .dynsym	0000000000000000 .dynsym
000000000000ba48 l    d  .dynstr	0000000000000000 .dynstr
000000000000ba50 l    d  .hash	0000000000000000 .hash
000000000000ba68 l    d  .rela.dyn	0000000000000000 .rela.dyn
000000000000c000 l    d  .dynamic	0000000000000000 .dynamic
000000000000c110 l    d  .got	0000000000000000 .got
000000000000c1a8 l    d  .rela.got	0000000000000000 .rela.got
000000000000c310 l    d  .data	0000000000000000 .data
000000000000c490 l    d  .bss	0000000000000000 .bss
0000000000000000 l    d  .debug_info	0000000000000000 .debug_info
0000000000000000 l    d  .debug_abbrev	0000000000000000 .debug_abbrev
0000000000000000 l    d  .debug_loc	0000000000000000 .debug_loc
0000000000000000 l    d  .debug_aranges	0000000000000000 .debug_aranges
0000000000000000 l    d  .debug_ranges	0000000000000000 .debug_ranges
0000000000000000 l    d  .debug_macro	0000000000000000 .debug_macro
0000000000000000 l    d  .debug_line	0000000000000000 .debug_line
0000000000000000 l    d  .debug_str	0000000000000000 .debug_str
0000000000000000 l    d  .comment	0000000000000000 .comment
0000000000000000 l    df *ABS*	0000000000000000 user_ta_header.c
000000000000a870 l     O .rodata	0000000000000004 __compound_literal.5
000000000000a874 l     O .rodata	0000000000000004 __compound_literal.4
000000000000a878 l     O .rodata	0000000000000004 __compound_literal.3
000000000000a87c l     O .rodata	0000000000000001 __compound_literal.2
000000000000a87d l     O .rodata	0000000000000001 __compound_literal.1
000000000000a87e l     O .rodata	0000000000000001 __compound_literal.0
0000000000000000 l    df *ABS*	0000000000000000 overflow.c
000000000000ab98 l     O .rodata	0000000000000009 __func__.4162
000000000000aba1 l     O .rodata	0000000000000014 __func__.4128
000000000000abb5 l     O .rodata	0000000000000015 __func__.4133
000000000000abca l     O .rodata	0000000000000019 __func__.4140
000000000000abe3 l     O .rodata	000000000000001a __func__.4144
000000000000abfd l     O .rodata	000000000000000b __func__.4150
000000000000ac08 l     O .rodata	0000000000000010 __func__.4156
000000000000ac18 l     O .rodata	000000000000000e __func__.4168
0000000000000000 l    df *ABS*	0000000000000000 strdup.c
0000000000000000 l    df *ABS*	0000000000000000 memcpy.c
0000000000000000 l    df *ABS*	0000000000000000 strcpy.c
0000000000000000 l    df *ABS*	0000000000000000 strlen.c
0000000000000000 l    df *ABS*	0000000000000000 trace.c
0000000000000598 l     F .text	00000000000000c4 append
000000000000aedd l     O .rodata	0000000000000005 lvl_strs.3494
000000000000aee2 l     O .rodata	000000000000000a __func__.3556
0000000000000000 l    df *ABS*	0000000000000000 bget_malloc.c
0000000000000a54 l     F .text	0000000000000044 raw_malloc_return_hook.constprop.21
000000000000af23 l     O .rodata	0000000000000005 __func__.3641
000000000000af28 l     O .rodata	0000000000000006 __func__.3656
000000000000af2e l     O .rodata	0000000000000005 __func__.3674
000000000000af33 l     O .rodata	0000000000000006 __func__.3665
000000000000af39 l     O .rodata	0000000000000006 __func__.3683
000000000000af3f l     O .rodata	0000000000000007 __func__.3693
000000000000af46 l     O .rodata	0000000000000014 __func__.3857
000000000000af5a l     O .rodata	000000000000000e __func__.3808
000000000000af68 l     O .rodata	0000000000000013 __func__.3755
000000000000c3f0 l     O .data	0000000000000080 malloc_ctx
0000000000000000 l    df *ABS*	0000000000000000 memset.c
0000000000000000 l    df *ABS*	0000000000000000 snprintk.c
000000000000b235 l     O .rodata	0000000000000011 hexdigits
000000000000b246 l     O .rodata	0000000000000011 HEXDIGITS
0000000000000000 l    df *ABS*	0000000000000000 memchr.c
0000000000000000 l    df *ABS*	0000000000000000 trace_ext.c
0000000000000000 l    df *ABS*	0000000000000000 assert.c
0000000000000000 l    df *ABS*	0000000000000000 tee_api.c
00000000000025a8 l     F .text	00000000000000b8 update_out_param
0000000000002720 l     F .text	00000000000001d0 copy_param.constprop.1
000000000000c490 l     O .bss	0000000000000008 tee_api_instance_data
000000000000a89b l     O .rodata	000000000000000b __func__.4702
0000000000000000 l    df *ABS*	0000000000000000 tee_api_panic.c
0000000000000000 l    df *ABS*	0000000000000000 tee_system_pta.c
0000000000002ccc l     F .text	0000000000000088 invoke_system_pta
000000000000a8a8 l     O .rodata	0000000000000010 uuid.4139
000000000000a8b8 l     O .rodata	000000000000000a __func__.4159
000000000000c498 l     O .bss	0000000000000008 sess.4138
0000000000000000 l    df *ABS*	0000000000000000 utee_syscalls_a64.o
0000000000000000 l    df *ABS*	0000000000000000 user_ta_entry.c
0000000000003100 l     F .text	0000000000000028 ta_header_get_session
0000000000003128 l     F .text	0000000000000078 to_utee_params
00000000000031a0 l     F .text	0000000000000068 from_utee_params
0000000000003208 l     F .text	0000000000000094 ta_header_remove_session
000000000000329c l     F .text	0000000000000014 ta_header_save_params.part.0
00000000000174f1 l     O .bss	0000000000000001 init_done
000000000000c470 l     O .data	0000000000000010 ta_sessions
0000000000000000 l    df *ABS*	0000000000000000 tee_api_arith_mpi.c
00000000000034ac l     F .text	0000000000000030 api_panic
00000000000034dc l     F .text	0000000000000030 mpi_panic
000000000000350c l     F .text	0000000000000098 get_mpi
00000000000035a4 l     F .text	0000000000000064 copy_mpi_to_bigint
0000000000003608 l     F .text	0000000000000118 bigint_binary
0000000000003720 l     F .text	0000000000000020 mpi_is_odd
0000000000003740 l     F .text	0000000000000028 rng_read
0000000000003768 l     F .text	000000000000054c mpi_egcd
000000000000c4e8 l     O .bss	0000000000003000 data.4684
0000000000004050 l     F .text	0000000000000194 bigint_binary_mod
000000000000b2f1 l     O .rodata	0000000000000008 __func__.4718
000000000000b2f9 l     O .rodata	000000000000000e __func__.4815
000000000000b307 l     O .rodata	0000000000000009 __func__.4961
000000000000b310 l     O .rodata	0000000000000012 __func__.4685
000000000000b322 l     O .rodata	000000000000000f __func__.4724
000000000000b331 l     O .rodata	000000000000001f __func__.4742
000000000000b350 l     O .rodata	0000000000000019 __func__.4749
000000000000b369 l     O .rodata	0000000000000012 __func__.4827
000000000000b37b l     O .rodata	0000000000000015 __func__.4780
000000000000b390 l     O .rodata	000000000000000e __func__.4855
000000000000b39e l     O .rodata	000000000000000e __func__.4884
000000000000b3ac l     O .rodata	000000000000000e __func__.4892
000000000000b3ba l     O .rodata	0000000000000011 __func__.4921
000000000000b3cb l     O .rodata	0000000000000018 __func__.4938
000000000000b3e3 l     O .rodata	000000000000001d __func__.5018
000000000000b400 l     O .rodata	0000000000000019 __func__.5071
000000000000b419 l     O .rodata	0000000000000015 __func__.5086
0000000000000000 l    df *ABS*	0000000000000000 bignum.c
0000000000004df0 l     F .text	0000000000000064 mpi_get_digit
0000000000004e54 l     F .text	0000000000000060 mpi_sub_hlp
0000000000004eb4 l     F .text	00000000000004d4 mpi_mul_hlp
0000000000006d9c l     F .text	00000000000000d4 mpi_write_hlp
0000000000007044 l     F .text	0000000000000098 mpi_check_small_factors
0000000000007b58 l     F .text	0000000000000288 mpi_miller_rabin
000000000000a8d4 l     O .rodata	00000000000002a0 small_prime
000000000000ab74 l     O .rodata	0000000000000024 gcd_pairs
0000000000000000 l    df *ABS*	0000000000000000 platform_util.c
000000000000c480 l     O .data	0000000000000008 memset_func
0000000000000000 l    df *ABS*	0000000000000000 snprintf.c
0000000000000000 l    df *ABS*	0000000000000000 memmove.c
0000000000000000 l    df *ABS*	0000000000000000 mempool.c
000000000000b942 l     O .rodata	0000000000000013 __func__.3549
000000000000b955 l     O .rodata	000000000000000e __func__.3558
0000000000000000 l    df *ABS*	0000000000000000 consttime_memcmp.c
0000000000000000 l    df *ABS*	0000000000000000 
000000000000c000 l     O *ABS*	0000000000000000 _DYNAMIC
000000000000c128 l     O *ABS*	0000000000000000 _GLOBAL_OFFSET_TABLE_
0000000000002514 g     F .text	000000000000003c putchar
0000000000000564 g     F .text	0000000000000018 strcpy
0000000000004c38 g     F .text	0000000000000004 TEE_BigIntConvertToFMM
0000000000004794 g     F .text	000000000000000c TEE_BigIntSquareMod
00000000000041e4 g     F .text	000000000000016c TEE_BigIntShiftRight
0000000000003058 g     F .text	000000000000000c utee_storage_obj_create
000000000000542c g     F .text	00000000000000f8 mbedtls_mpi_grow
0000000000002e60 g     F .text	000000000000000c utee_return
0000000000002ca0 g     F .text	0000000000000008 TEE_Realloc
000000000000240c g     F .text	00000000000000c8 printf
0000000000002e6c g     F .text	000000000000000c utee_log
00000000000028f0 g     F .text	0000000000000104 TEE_InvokeTACommand
0000000000005398 g     F .text	0000000000000028 mbedtls_mpi_init_mempool
0000000000005ba0 g     F .text	00000000000000c4 mbedtls_mpi_write_binary
00000000000022e8 g     F .text	0000000000000054 vsnprintk
0000000000006334 g     F .text	0000000000000040 mbedtls_mpi_sub_int
0000000000008a98 g     F .text	000000000000005c memmove
00000000000089cc g     F .text	0000000000000078 snprintf
0000000000004008 g     F .text	0000000000000048 TEE_BigIntCmpS32
0000000000005524 g     F .text	0000000000000120 mbedtls_mpi_shrink
00000000000043dc g     F .text	000000000000000c TEE_BigIntAdd
0000000000002e90 g     F .text	000000000000000c utee_get_property_name_to_index
000000000000a880 g     O .rodata	0000000000000008 ta_heap_size
0000000000002f14 g     F .text	000000000000000c utee_cryp_state_alloc
000000000000301c g     F .text	000000000000000c utee_authenc_enc_final
00000000000064f8 g     F .text	00000000000001e4 mbedtls_mpi_read_string
00000000000043f4 g     F .text	00000000000000b0 TEE_BigIntNeg
0000000000000020 g       .text	0000000000000000 __text_start
0000000000005d64 g     F .text	00000000000000c8 mbedtls_mpi_shift_r
000000000000162c g     F .text	000000000000006c malloc_buffer_overlaps_heap
000000000000477c g     F .text	000000000000000c TEE_BigIntSubMod
00000000000082d0 g     F .text	000000000000030c mbedtls_mpi_gen_prime
0000000000005964 g     F .text	000000000000002c mbedtls_mpi_get_bit
0000000000005ae8 g     F .text	00000000000000b8 mbedtls_mpi_read_binary
0000000000000878 g     F .text	0000000000000070 trace_printf
0000000000007118 g     F .text	0000000000000134 mbedtls_mpi_montmul
0000000000000544 g     F .text	0000000000000020 memcpy
0000000000002f2c g     F .text	000000000000000c utee_cryp_state_free
0000000000004c3c g     F .text	000000000000009c TEE_BigIntConvertFromFMM
0000000000002cc4 g     F .text	0000000000000008 TEE_Panic
00000000000024d4 g     F .text	0000000000000040 puts
0000000000004cd8 g     F .text	0000000000000118 TEE_BigIntComputeFMM
00000000000011f0 g     F .text	0000000000000038 malloc_get_stats
0000000000002f74 g     F .text	000000000000000c utee_cipher_final
0000000000002c1c g     F .text	0000000000000028 TEE_GetREETime
000000000000c318 g     O .data	00000000000000d8 ta_props
00000000000001c0 g     F .text	0000000000000080 fibufnacci
0000000000001228 g     F .text	0000000000000050 malloc
0000000000002fb0 g     F .text	000000000000000c utee_cryp_obj_close
0000000000008a44 g     F .text	0000000000000054 vsnprintf
000000000000c488 g     O .data	0000000000000004 trace_level
000000000000f4f0 g     O .bss	0000000000000001 PRINTSECRET
0000000000003fa0 g     F .text	0000000000000068 TEE_BigIntCmp
000000000000a868 g     O .rodata	0000000000000008 ta_num_props
0000000000000fa0 g     F .text	00000000000000cc bgetr
0000000000000020 g     F .text	0000000000000078 backdoor
0000000000003010 g     F .text	000000000000000c utee_authenc_update_payload
0000000000008c58 g     F .text	0000000000000044 mempool_free
0000000000003e00 g     F .text	0000000000000094 TEE_BigIntConvertToOctetString
00000000000030f4 g     F .text	000000000000000c utee_cache_operation
0000000000005a70 g     F .text	000000000000005c mbedtls_mpi_bitlen
0000000000002ff8 g     F .text	000000000000000c utee_authenc_init
0000000000004350 g     F .text	000000000000004c TEE_BigIntGetBit
000000000000a888 g     O .rodata	0000000000000003 trace_ext_prefix
0000000000000c58 g     F .text	000000000000008c bgetz
0000000000002adc g     F .text	000000000000000c TEE_GetInstanceData
0000000000002b28 g     F .text	000000000000003c TEE_Wait
00000000000030c4 g     F .text	000000000000000c utee_storage_obj_write
0000000000006374 g     F .text	0000000000000150 mbedtls_mpi_mul_mpi
0000000000002cb4 g     F .text	0000000000000008 TEE_CacheFlush
0000000000000688 g     F .text	00000000000001f0 trace_vprintf
0000000000000108 g     F .text	0000000000000024 TA_DestroyEntryPoint
0000000000005388 g     F .text	0000000000000010 mbedtls_mpi_init
0000000000005a1c g     F .text	0000000000000054 mbedtls_mpi_lsb
0000000000002550 g     F .text	0000000000000044 _assert_log
0000000000004c30 g     F .text	0000000000000008 TEE_BigIntFMMContextSizeInU32
0000000000002dc8 g     F .text	000000000000008c tee_unmap
0000000000003cb4 g     F .text	0000000000000050 _TEE_MathAPI_Init
00000000000061e0 g     F .text	0000000000000088 mbedtls_mpi_add_mpi
00000000000030ac g     F .text	000000000000000c utee_storage_next_enum
000000000000f4f1 g     O .bss	0000000000008000 ta_heap
00000000000047a0 g     F .text	000000000000011c TEE_BigIntInvMod
000000000000019c g     F .text	0000000000000024 TA_CloseSessionEntryPoint
0000000000006268 g     F .text	000000000000008c mbedtls_mpi_sub_mpi
0000000000008c9c g     F .text	0000000000000070 consttime_memcmp
0000000000002e78 g     F .text	000000000000000c __utee_panic
0000000000002f20 g     F .text	000000000000000c utee_cryp_state_copy
0000000000000240 g     F .text	00000000000002a4 TA_InvokeCommandEntryPoint
0000000000001344 g     F .text	0000000000000018 free_wipe
0000000000008b5c g     F .text	00000000000000ac mempool_alloc
0000000000002fa4 g     F .text	000000000000000c utee_cryp_obj_alloc
0000000000002f08 g     F .text	000000000000000c utee_set_ta_time
0000000000002f98 g     F .text	000000000000000c utee_cryp_obj_get_attr
0000000000008c08 g     F .text	0000000000000050 mempool_calloc
0000000000001278 g     F .text	0000000000000064 calloc
0000000000002c44 g     F .text	000000000000005c TEE_Malloc
0000000000002ee4 g     F .text	000000000000000c utee_mask_cancellation
0000000000002fbc g     F .text	000000000000000c utee_cryp_obj_reset
000000000000270c g     F .text	0000000000000014 TEE_CheckMemoryAccessRights
00000000000058fc g     F .text	0000000000000068 mbedtls_mpi_lset
000000000000012c g     F .text	0000000000000070 TA_OpenSessionEntryPoint
00000000000030a0 g     F .text	000000000000000c utee_storage_start_enum
0000000000003070 g     F .text	000000000000000c utee_storage_obj_rename
00000000000174f8 g       .bss	0000000000000000 __ftrace_buf_end
000000000000c4a0 g     O .bss	0000000000000004 ta_param_types
0000000000006c08 g     F .text	0000000000000040 mbedtls_mpi_div_int
0000000000008218 g     F .text	00000000000000a8 mbedtls_mpi_is_prime_ext
0000000000004bc8 g     F .text	0000000000000050 TEE_BigIntIsProbablePrime
00000000000064c4 g     F .text	0000000000000034 mbedtls_mpi_mul_int
000000000000728c g     F .text	000000000000068c mbedtls_mpi_exp_mod
0000000000005758 g     F .text	00000000000000c0 mbedtls_mpi_safe_cond_assign
0000000000002e84 g     F .text	000000000000000c utee_get_property
0000000000003d04 g     F .text	0000000000000070 TEE_BigIntInit
0000000000002ae8 g     F .text	0000000000000008 TEE_MemMove
00000000000089b8 g     F .text	0000000000000014 mbedtls_platform_zeroize
0000000000003d74 g     F .text	000000000000008c TEE_BigIntConvertFromOctetString
0000000000005e2c g     F .text	000000000000009c mbedtls_mpi_cmp_abs
00000000000023b0 g     F .text	000000000000002c memchr
00000000000026b4 g     F .text	000000000000002c TEE_UnmaskCancellation
00000000000085dc g     F .text	00000000000003dc mbedtls_mpi_self_test
0000000000003064 g     F .text	000000000000000c utee_storage_obj_del
00000000000030dc g     F .text	000000000000000c utee_storage_obj_seek
0000000000005fa0 g     F .text	0000000000000040 mbedtls_mpi_cmp_int
0000000000002f44 g     F .text	000000000000000c utee_hash_update
000000000000470c g     F .text	0000000000000064 TEE_BigIntMod
0000000000006cfc g     F .text	00000000000000a0 mbedtls_mpi_mod_int
0000000000002ea8 g     F .text	000000000000000c utee_close_ta_session
0000000000004594 g     F .text	0000000000000178 TEE_BigIntDiv
00000000000174f8 g       .bss	0000000000000000 __ftrace_buf_start
0000000000005644 g     F .text	00000000000000b4 mbedtls_mpi_copy
00000000000011d8 g     F .text	0000000000000018 malloc_reset_stats
0000000000002f68 g     F .text	000000000000000c utee_cipher_update
00000000000012dc g     F .text	0000000000000050 realloc
00000000000056f8 g     F .text	0000000000000060 mbedtls_mpi_swap
0000000000008af4 g     F .text	0000000000000068 mempool_alloc_pool
0000000000003040 g     F .text	000000000000000c utee_asymm_verify
00000000000044a4 g     F .text	00000000000000e8 TEE_BigIntMul
0000000000005c64 g     F .text	0000000000000100 mbedtls_mpi_shift_l
0000000000005ec8 g     F .text	00000000000000d8 mbedtls_mpi_cmp_mpi
0000000000002af8 g     F .text	0000000000000008 TEE_MemFill
000000000000135c g     F .text	0000000000000150 malloc_add_pool
0000000000000678 g     F .text	0000000000000010 trace_get_level
0000000000005fe0 g     F .text	000000000000012c mbedtls_mpi_add_abs
0000000000002fec g     F .text	000000000000000c utee_cryp_random_number_generate
0000000000004c20 g     F .text	0000000000000010 TEE_BigIntFMMSizeInU32
0000000000004c18 g     F .text	0000000000000004 TEE_BigIntInitFMM
0000000000003034 g     F .text	000000000000000c utee_asymm_operate
00000000000032b0 g     F .text	00000000000001fc __utee_entry
0000000000008d0c g       .text	0000000000000000 __text_end
00000000000048bc g     F .text	00000000000000d4 TEE_BigIntRelativePrime
0000000000006c48 g     F .text	00000000000000b4 mbedtls_mpi_mod_mpi
000000000000106c g     F .text	00000000000000d4 bpool
0000000000000500 g     F .text	0000000000000044 strdup
0000000000002688 g     F .text	000000000000002c TEE_GetCancellationFlag
0000000000007918 g     F .text	00000000000001bc mbedtls_mpi_gcd
0000000000002bd8 g     F .text	0000000000000044 TEE_SetTAPersistentTime
0000000000001698 g     F .text	000000000000001c memset
0000000000002b64 g     F .text	0000000000000074 TEE_GetTAPersistentTime
00000000000008e8 g     F .text	000000000000016c dhex_dump
00000000000026e0 g     F .text	000000000000002c TEE_MaskCancellation
00000000000030b8 g     F .text	000000000000000c utee_storage_obj_read
0000000000002fc8 g     F .text	000000000000000c utee_cryp_obj_populate
000000000000065c g     F .text	000000000000001c trace_set_level
0000000000002f80 g     F .text	000000000000000c utee_cryp_obj_get_info
000000000000307c g     F .text	000000000000000c utee_storage_alloc_enum
0000000000003094 g     F .text	000000000000000c utee_storage_reset_enum
00000000000030d0 g     F .text	000000000000000c utee_storage_obj_trunc
0000000000003f18 g     F .text	0000000000000088 TEE_BigIntConvertToS32
00000000000043e8 g     F .text	000000000000000c TEE_BigIntSub
0000000000002ec0 g     F .text	000000000000000c utee_get_cancellation_flag
0000000000002f38 g     F .text	000000000000000c utee_hash_init
00000000000004f8 g     F .text	0000000000000008 tahead_get_trace_level
0000000000002d54 g     F .text	0000000000000074 tee_map_zi
000000000000724c g     F .text	0000000000000040 mbedtls_mpi_montred
0000000000003e94 g     F .text	0000000000000084 TEE_BigIntConvertFromS32
00000000000062f4 g     F .text	0000000000000040 mbedtls_mpi_add_int
0000000000002f8c g     F .text	000000000000000c utee_cryp_obj_restrict_usage
000000000000c310 g     O .data	0000000000000008 SECRET
00000000000014ac g     F .text	0000000000000180 malloc_buffer_is_within_alloced
0000000000002fd4 g     F .text	000000000000000c utee_cryp_obj_copy
0000000000004c1c g     F .text	0000000000000004 TEE_BigIntInitFMMContext
0000000000002fe0 g     F .text	000000000000000c utee_cryp_derive_key
0000000000003028 g     F .text	000000000000000c utee_authenc_dec_final
000000000000458c g     F .text	0000000000000008 TEE_BigIntSquare
0000000000000098 g     F .text	0000000000000070 TA_CreateEntryPoint
00000000000004e4 g     F .text	0000000000000014 __ta_entry
00000000000070dc g     F .text	000000000000003c mbedtls_mpi_montg_init
000000000000233c g     F .text	0000000000000074 snprintk
000000000000439c g     F .text	0000000000000040 TEE_BigIntGetBitCount
0000000000004788 g     F .text	000000000000000c TEE_BigIntMulMod
0000000000007de0 g     F .text	0000000000000438 mbedtls_mpi_inv_mod
000000000000c4a8 g     O .bss	0000000000000040 ta_params
00000000000066dc g     F .text	000000000000052c mbedtls_mpi_div_mpi
0000000000005acc g     F .text	000000000000001c mbedtls_mpi_size
0000000000000a98 g     F .text	00000000000001c0 bget
0000000000005990 g     F .text	000000000000008c mbedtls_mpi_set_bit
0000000000002ca8 g     F .text	0000000000000004 TEE_Free
00000000000082c0 g     F .text	0000000000000010 mbedtls_mpi_is_prime
0000000000002cbc g     F .text	0000000000000008 TEE_CacheInvalidate
0000000000002f5c g     F .text	000000000000000c utee_cipher_init
0000000000002594 g     F .text	0000000000000014 _assert_break
0000000000004770 g     F .text	000000000000000c TEE_BigIntAddMod
0000000000003088 g     F .text	000000000000000c utee_storage_free_enum
0000000000003004 g     F .text	000000000000000c utee_authenc_update_aad
0000000000002af0 g     F .text	0000000000000008 TEE_MemCompare
00000000000016b4 g     F .text	0000000000000c34 __vsnprintf
00000000000029f4 g     F .text	00000000000000dc TEE_OpenTASession
0000000000002e54 g     F .text	000000000000000c utee_panic
00000000000023dc g     F .text	0000000000000028 trace_ext_puts
0000000000002404 g     F .text	0000000000000008 trace_ext_get_thread_id
00000000000053c0 g     F .text	000000000000006c mbedtls_mpi_free
0000000000002cac g     F .text	0000000000000008 TEE_CacheClean
0000000000002e9c g     F .text	000000000000000c utee_open_ta_session
0000000000005818 g     F .text	00000000000000e4 mbedtls_mpi_safe_cond_swap
0000000000002f50 g     F .text	000000000000000c utee_hash_final
000000000000057c g     F .text	000000000000001c strlen
0000000000004990 g     F .text	0000000000000238 TEE_BigIntComputeExtendedGcd
000000000000304c g     F .text	000000000000000c utee_storage_obj_open
0000000000002eb4 g     F .text	000000000000000c utee_invoke_ta_command
0000000000002ef0 g     F .text	000000000000000c utee_wait
0000000000002b00 g     F .text	0000000000000028 TEE_GetSystemTime
0000000000000000 g     O .ta_head	0000000000000020 ta_head
0000000000000ce4 g     F .text	00000000000002bc brel
000000000000610c g     F .text	00000000000000d4 mbedtls_mpi_sub_abs
0000000000002efc g     F .text	000000000000000c utee_get_time
0000000000007ad4 g     F .text	0000000000000084 mbedtls_mpi_fill_random
0000000000002ad0 g     F .text	000000000000000c TEE_SetInstanceData
0000000000002ed8 g     F .text	000000000000000c utee_unmask_cancellation
0000000000002ecc g     F .text	000000000000000c utee_check_access_rights
0000000000006e70 g     F .text	00000000000001d4 mbedtls_mpi_write_string
00000000000030e8 g     F .text	000000000000000c utee_cryp_obj_generate_key
0000000000002660 g     F .text	0000000000000028 TEE_CloseTASession
000000000000132c g     F .text	0000000000000018 free
0000000000001140 g     F .text	0000000000000098 bstats
000000000000f4e8 g     O .bss	0000000000000008 mbedtls_mpi_mempool



Disassembly of section .text:

0000000000000020 <backdoor>:
backdoor():
/home/hei/Desktop/optee-qemu/optee_examples/overflow/ta/overflow.c:117
      20:	a9be7bfd 	stp	x29, x30, [sp, #-32]!
/home/hei/Desktop/optee-qemu/optee_examples/overflow/ta/overflow.c:118
      24:	52800023 	mov	w3, #0x1                   	// #1
      28:	52800062 	mov	w2, #0x3                   	// #3
/home/hei/Desktop/optee-qemu/optee_examples/overflow/ta/overflow.c:117
      2c:	910003fd 	mov	x29, sp
      30:	a90153f3 	stp	x19, x20, [sp, #16]
/home/hei/Desktop/optee-qemu/optee_examples/overflow/ta/overflow.c:118
      34:	d0000054 	adrp	x20, a000 <__text_end+0x12f4>
      38:	d0000053 	adrp	x19, a000 <__text_end+0x12f4>
      3c:	91309a94 	add	x20, x20, #0xc26
      40:	912e6273 	add	x19, x19, #0xb98
      44:	aa1403e4 	mov	x4, x20
      48:	aa1303e0 	mov	x0, x19
      4c:	52800ec1 	mov	w1, #0x76                  	// #118
      50:	9400020a 	bl	878 <trace_printf>
/home/hei/Desktop/optee-qemu/optee_examples/overflow/ta/overflow.c:119
      54:	aa1303e0 	mov	x0, x19
      58:	52800023 	mov	w3, #0x1                   	// #1
      5c:	52800062 	mov	w2, #0x3                   	// #3
      60:	52800ee1 	mov	w1, #0x77                  	// #119
      64:	d0000044 	adrp	x4, a000 <__text_end+0x12f4>
      68:	91317084 	add	x4, x4, #0xc5c
      6c:	94000203 	bl	878 <trace_printf>
/home/hei/Desktop/optee-qemu/optee_examples/overflow/ta/overflow.c:120
      70:	aa1403e4 	mov	x4, x20
      74:	aa1303e0 	mov	x0, x19
      78:	52800023 	mov	w3, #0x1                   	// #1
      7c:	52800062 	mov	w2, #0x3                   	// #3
      80:	52800f01 	mov	w1, #0x78                  	// #120
      84:	940001fd 	bl	878 <trace_printf>
/home/hei/Desktop/optee-qemu/optee_examples/overflow/ta/overflow.c:122
      88:	52800000 	mov	w0, #0x0                   	// #0
      8c:	a94153f3 	ldp	x19, x20, [sp, #16]
      90:	a8c27bfd 	ldp	x29, x30, [sp], #32
      94:	d65f03c0 	ret

0000000000000098 <TA_CreateEntryPoint>:
TA_CreateEntryPoint():
/home/hei/Desktop/optee-qemu/optee_examples/overflow/ta/overflow.c:15
      98:	a9bd7bfd 	stp	x29, x30, [sp, #-48]!
/home/hei/Desktop/optee-qemu/optee_examples/overflow/ta/overflow.c:16
      9c:	52800023 	mov	w3, #0x1                   	// #1
      a0:	52800062 	mov	w2, #0x3                   	// #3
/home/hei/Desktop/optee-qemu/optee_examples/overflow/ta/overflow.c:15
      a4:	910003fd 	mov	x29, sp
      a8:	f9000bf3 	str	x19, [sp, #16]
/home/hei/Desktop/optee-qemu/optee_examples/overflow/ta/overflow.c:16
      ac:	d0000053 	adrp	x19, a000 <__text_end+0x12f4>
      b0:	912e6273 	add	x19, x19, #0xb98
      b4:	52800201 	mov	w1, #0x10                  	// #16
      b8:	91002673 	add	x19, x19, #0x9
      bc:	d0000044 	adrp	x4, a000 <__text_end+0x12f4>
      c0:	aa1303e0 	mov	x0, x19
      c4:	9131c484 	add	x4, x4, #0xc71
      c8:	940001ec 	bl	878 <trace_printf>
/home/hei/Desktop/optee-qemu/optee_examples/overflow/ta/overflow.c:18
      cc:	d28c0e05 	mov	x5, #0x6070                	// #24688
      d0:	aa1303e0 	mov	x0, x19
      d4:	f2a80a05 	movk	x5, #0x4050, lsl #16
      d8:	52800023 	mov	w3, #0x1                   	// #1
      dc:	f2c40605 	movk	x5, #0x2030, lsl #32
      e0:	52800062 	mov	w2, #0x3                   	// #3
      e4:	f2e10205 	movk	x5, #0x810, lsl #48
      e8:	52800241 	mov	w1, #0x12                  	// #18
      ec:	d0000044 	adrp	x4, a000 <__text_end+0x12f4>
      f0:	91320484 	add	x4, x4, #0xc81
      f4:	940001e1 	bl	878 <trace_printf>
/home/hei/Desktop/optee-qemu/optee_examples/overflow/ta/overflow.c:20
      f8:	52800000 	mov	w0, #0x0                   	// #0
      fc:	f9400bf3 	ldr	x19, [sp, #16]
     100:	a8c37bfd 	ldp	x29, x30, [sp], #48
     104:	d65f03c0 	ret

0000000000000108 <TA_DestroyEntryPoint>:
TA_DestroyEntryPoint():
/home/hei/Desktop/optee-qemu/optee_examples/overflow/ta/overflow.c:25
     108:	d0000040 	adrp	x0, a000 <__text_end+0x12f4>
     10c:	912e6000 	add	x0, x0, #0xb98
     110:	d0000044 	adrp	x4, a000 <__text_end+0x12f4>
     114:	52800023 	mov	w3, #0x1                   	// #1
     118:	9131c484 	add	x4, x4, #0xc71
     11c:	52800062 	mov	w2, #0x3                   	// #3
     120:	52800321 	mov	w1, #0x19                  	// #25
     124:	91007400 	add	x0, x0, #0x1d
     128:	140001d4 	b	878 <trace_printf>

000000000000012c <TA_OpenSessionEntryPoint>:
TA_OpenSessionEntryPoint():
/home/hei/Desktop/optee-qemu/optee_examples/overflow/ta/overflow.c:31
     12c:	a9be7bfd 	stp	x29, x30, [sp, #-32]!
/home/hei/Desktop/optee-qemu/optee_examples/overflow/ta/overflow.c:37
     130:	d0000044 	adrp	x4, a000 <__text_end+0x12f4>
     134:	52800023 	mov	w3, #0x1                   	// #1
/home/hei/Desktop/optee-qemu/optee_examples/overflow/ta/overflow.c:31
     138:	910003fd 	mov	x29, sp
     13c:	a90153f3 	stp	x19, x20, [sp, #16]
/home/hei/Desktop/optee-qemu/optee_examples/overflow/ta/overflow.c:37
     140:	d0000053 	adrp	x19, a000 <__text_end+0x12f4>
     144:	912e6273 	add	x19, x19, #0xb98
     148:	9100ca73 	add	x19, x19, #0x32
/home/hei/Desktop/optee-qemu/optee_examples/overflow/ta/overflow.c:31
     14c:	2a0003f4 	mov	w20, w0
/home/hei/Desktop/optee-qemu/optee_examples/overflow/ta/overflow.c:37
     150:	9131c484 	add	x4, x4, #0xc71
     154:	52800062 	mov	w2, #0x3                   	// #3
     158:	528004a1 	mov	w1, #0x25                  	// #37
     15c:	aa1303e0 	mov	x0, x19
     160:	940001c6 	bl	878 <trace_printf>
/home/hei/Desktop/optee-qemu/optee_examples/overflow/ta/overflow.c:39
     164:	35000194 	cbnz	w20, 194 <TA_OpenSessionEntryPoint+0x68>
/home/hei/Desktop/optee-qemu/optee_examples/overflow/ta/overflow.c:45
     168:	d0000044 	adrp	x4, a000 <__text_end+0x12f4>
     16c:	52800023 	mov	w3, #0x1                   	// #1
     170:	91324c84 	add	x4, x4, #0xc93
     174:	52800042 	mov	w2, #0x2                   	// #2
     178:	528005a1 	mov	w1, #0x2d                  	// #45
     17c:	aa1303e0 	mov	x0, x19
     180:	940001be 	bl	878 <trace_printf>
/home/hei/Desktop/optee-qemu/optee_examples/overflow/ta/overflow.c:48
     184:	2a1403e0 	mov	w0, w20
     188:	a94153f3 	ldp	x19, x20, [sp, #16]
     18c:	a8c27bfd 	ldp	x29, x30, [sp], #32
     190:	d65f03c0 	ret
/home/hei/Desktop/optee-qemu/optee_examples/overflow/ta/overflow.c:40
     194:	129fff34 	mov	w20, #0xffff0006            	// #-65530
     198:	17fffffb 	b	184 <TA_OpenSessionEntryPoint+0x58>

000000000000019c <TA_CloseSessionEntryPoint>:
TA_CloseSessionEntryPoint():
/home/hei/Desktop/optee-qemu/optee_examples/overflow/ta/overflow.c:53
     19c:	d0000040 	adrp	x0, a000 <__text_end+0x12f4>
     1a0:	912e6000 	add	x0, x0, #0xb98
     1a4:	d0000044 	adrp	x4, a000 <__text_end+0x12f4>
     1a8:	52800023 	mov	w3, #0x1                   	// #1
     1ac:	91328484 	add	x4, x4, #0xca1
     1b0:	52800042 	mov	w2, #0x2                   	// #2
     1b4:	528006a1 	mov	w1, #0x35                  	// #53
     1b8:	91012c00 	add	x0, x0, #0x4b
     1bc:	140001af 	b	878 <trace_printf>

00000000000001c0 <fibufnacci>:
fibufnacci():
/home/hei/Desktop/optee-qemu/optee_examples/overflow/ta/overflow.c:58
     1c0:	a9b67bfd 	stp	x29, x30, [sp, #-160]!
/home/hei/Desktop/optee-qemu/optee_examples/overflow/ta/overflow.c:60
     1c4:	aa0103e2 	mov	x2, x1
     1c8:	aa0003e1 	mov	x1, x0
/home/hei/Desktop/optee-qemu/optee_examples/overflow/ta/overflow.c:58
     1cc:	910003fd 	mov	x29, sp
     1d0:	a90153f3 	stp	x19, x20, [sp, #16]
/home/hei/Desktop/optee-qemu/optee_examples/overflow/ta/overflow.c:60
     1d4:	910083f3 	add	x19, sp, #0x20
/home/hei/Desktop/optee-qemu/optee_examples/overflow/ta/overflow.c:61
     1d8:	d0000054 	adrp	x20, a000 <__text_end+0x12f4>
     1dc:	912e6294 	add	x20, x20, #0xb98
/home/hei/Desktop/optee-qemu/optee_examples/overflow/ta/overflow.c:60
     1e0:	aa1303e0 	mov	x0, x19
/home/hei/Desktop/optee-qemu/optee_examples/overflow/ta/overflow.c:61
     1e4:	91019694 	add	x20, x20, #0x65
/home/hei/Desktop/optee-qemu/optee_examples/overflow/ta/overflow.c:60
     1e8:	940000d7 	bl	544 <memcpy>
/home/hei/Desktop/optee-qemu/optee_examples/overflow/ta/overflow.c:61
     1ec:	aa1303e5 	mov	x5, x19
     1f0:	aa1403e0 	mov	x0, x20
     1f4:	52800023 	mov	w3, #0x1                   	// #1
     1f8:	52800062 	mov	w2, #0x3                   	// #3
     1fc:	528007a1 	mov	w1, #0x3d                  	// #61
     200:	d0000044 	adrp	x4, a000 <__text_end+0x12f4>
     204:	9132ac84 	add	x4, x4, #0xcab
     208:	9400019c 	bl	878 <trace_printf>
/home/hei/Desktop/optee-qemu/optee_examples/overflow/ta/overflow.c:62
     20c:	aa1303e5 	mov	x5, x19
     210:	d0000044 	adrp	x4, a000 <__text_end+0x12f4>
     214:	9132f884 	add	x4, x4, #0xcbe
     218:	52800023 	mov	w3, #0x1                   	// #1
     21c:	52800062 	mov	w2, #0x3                   	// #3
     220:	528007c1 	mov	w1, #0x3e                  	// #62
     224:	aa1403e0 	mov	x0, x20
     228:	94000194 	bl	878 <trace_printf>
/home/hei/Desktop/optee-qemu/optee_examples/overflow/ta/overflow.c:63
     22c:	aa1303e0 	mov	x0, x19
     230:	940000b4 	bl	500 <strdup>
/home/hei/Desktop/optee-qemu/optee_examples/overflow/ta/overflow.c:64
     234:	a94153f3 	ldp	x19, x20, [sp, #16]
     238:	a8ca7bfd 	ldp	x29, x30, [sp], #160
     23c:	d65f03c0 	ret

0000000000000240 <TA_InvokeCommandEntryPoint>:
TA_InvokeCommandEntryPoint():
/home/hei/Desktop/optee-qemu/optee_examples/overflow/ta/overflow.c:158
     240:	a9bb7bfd 	stp	x29, x30, [sp, #-80]!
     244:	910003fd 	mov	x29, sp
     248:	a90153f3 	stp	x19, x20, [sp, #16]
     24c:	2a0103f3 	mov	w19, w1
     250:	a9025bf5 	stp	x21, x22, [sp, #32]
     254:	aa0303f6 	mov	x22, x3
     258:	a90363f7 	stp	x23, x24, [sp, #48]
     25c:	f90023f9 	str	x25, [sp, #64]
     260:	2a0203f9 	mov	w25, w2
/home/hei/Desktop/optee-qemu/optee_examples/overflow/ta/overflow.c:161
     264:	340000a1 	cbz	w1, 278 <TA_InvokeCommandEntryPoint+0x38>
     268:	7100043f 	cmp	w1, #0x1
     26c:	54000c20 	b.eq	3f0 <TA_InvokeCommandEntryPoint+0x1b0>  // b.none
call_fibufnacci():
/home/hei/Desktop/optee-qemu/optee_examples/overflow/ta/overflow.c:80
     270:	129fff33 	mov	w19, #0xffff0006            	// #-65530
     274:	1400002b 	b	320 <TA_InvokeCommandEntryPoint+0xe0>
/home/hei/Desktop/optee-qemu/optee_examples/overflow/ta/overflow.c:76
     278:	d0000057 	adrp	x23, a000 <__text_end+0x12f4>
     27c:	912e62f4 	add	x20, x23, #0xb98
     280:	9101c294 	add	x20, x20, #0x70
     284:	d0000058 	adrp	x24, a000 <__text_end+0x12f4>
     288:	aa1403e0 	mov	x0, x20
     28c:	91309b04 	add	x4, x24, #0xc26
     290:	52800023 	mov	w3, #0x1                   	// #1
     294:	52800062 	mov	w2, #0x3                   	// #3
     298:	52800981 	mov	w1, #0x4c                  	// #76
     29c:	94000177 	bl	878 <trace_printf>
/home/hei/Desktop/optee-qemu/optee_examples/overflow/ta/overflow.c:78
     2a0:	5282a6e0 	mov	w0, #0x1537                	// #5431
     2a4:	6b00033f 	cmp	w25, w0
     2a8:	54fffe41 	b.ne	270 <TA_InvokeCommandEntryPoint+0x30>  // b.any
/home/hei/Desktop/optee-qemu/optee_examples/overflow/ta/overflow.c:82
     2ac:	52800023 	mov	w3, #0x1                   	// #1
     2b0:	52800062 	mov	w2, #0x3                   	// #3
     2b4:	52800a41 	mov	w1, #0x52                  	// #82
     2b8:	aa1403e0 	mov	x0, x20
     2bc:	d0000044 	adrp	x4, a000 <__text_end+0x12f4>
     2c0:	91334084 	add	x4, x4, #0xcd0
     2c4:	9400016d 	bl	878 <trace_printf>
/home/hei/Desktop/optee-qemu/optee_examples/overflow/ta/overflow.c:85
     2c8:	b9402ad9 	ldr	w25, [x22, #40]
reg_pair_to_64():
/home/hei/Desktop/optee-qemu/optee_examples/overflow/ta/overflow.c:11
     2cc:	294202d5 	ldp	w21, w0, [x22, #16]
call_fibufnacci():
/home/hei/Desktop/optee-qemu/optee_examples/overflow/ta/overflow.c:86
     2d0:	aa1903e5 	mov	x5, x25
     2d4:	d0000044 	adrp	x4, a000 <__text_end+0x12f4>
     2d8:	52800023 	mov	w3, #0x1                   	// #1
     2dc:	91338884 	add	x4, x4, #0xce2
     2e0:	52800062 	mov	w2, #0x3                   	// #3
reg_pair_to_64():
/home/hei/Desktop/optee-qemu/optee_examples/overflow/ta/overflow.c:11
     2e4:	aa158015 	orr	x21, x0, x21, lsl #32
call_fibufnacci():
/home/hei/Desktop/optee-qemu/optee_examples/overflow/ta/overflow.c:86
     2e8:	52800ac1 	mov	w1, #0x56                  	// #86
     2ec:	aa1403e0 	mov	x0, x20
     2f0:	94000162 	bl	878 <trace_printf>
/home/hei/Desktop/optee-qemu/optee_examples/overflow/ta/overflow.c:88
     2f4:	b9400ac5 	ldr	w5, [x22, #8]
     2f8:	eb2542bf 	cmp	x21, w5, uxtw
     2fc:	54000209 	b.ls	33c <TA_InvokeCommandEntryPoint+0xfc>  // b.plast
/home/hei/Desktop/optee-qemu/optee_examples/overflow/ta/overflow.c:90
     300:	d0000044 	adrp	x4, a000 <__text_end+0x12f4>
     304:	52800023 	mov	w3, #0x1                   	// #1
     308:	9133ac84 	add	x4, x4, #0xceb
     30c:	52800062 	mov	w2, #0x3                   	// #3
     310:	52800b41 	mov	w1, #0x5a                  	// #90
     314:	aa1403e0 	mov	x0, x20
     318:	94000158 	bl	878 <trace_printf>
/home/hei/Desktop/optee-qemu/optee_examples/overflow/ta/overflow.c:103
     31c:	129ffdf3 	mov	w19, #0xffff0010            	// #-65520
TA_InvokeCommandEntryPoint():
/home/hei/Desktop/optee-qemu/optee_examples/overflow/ta/overflow.c:169
     320:	2a1303e0 	mov	w0, w19
     324:	a94153f3 	ldp	x19, x20, [sp, #16]
     328:	a9425bf5 	ldp	x21, x22, [sp, #32]
     32c:	a94363f7 	ldp	x23, x24, [sp, #48]
     330:	f94023f9 	ldr	x25, [sp, #64]
     334:	a8c57bfd 	ldp	x29, x30, [sp], #80
     338:	d65f03c0 	ret
call_fibufnacci():
/home/hei/Desktop/optee-qemu/optee_examples/overflow/ta/overflow.c:94
     33c:	f94012c0 	ldr	x0, [x22, #32]
     340:	aa1903e1 	mov	x1, x25
     344:	97ffff9f 	bl	1c0 <fibufnacci>
     348:	aa0003f5 	mov	x21, x0
/home/hei/Desktop/optee-qemu/optee_examples/overflow/ta/overflow.c:99
     34c:	9400008c 	bl	57c <strlen>
     350:	91000400 	add	x0, x0, #0x1
     354:	b9400ac1 	ldr	w1, [x22, #8]
     358:	eb01001f 	cmp	x0, x1
     35c:	54000169 	b.ls	388 <TA_InvokeCommandEntryPoint+0x148>  // b.plast
/home/hei/Desktop/optee-qemu/optee_examples/overflow/ta/overflow.c:101
     360:	d0000044 	adrp	x4, a000 <__text_end+0x12f4>
     364:	91345c84 	add	x4, x4, #0xd17
     368:	52800023 	mov	w3, #0x1                   	// #1
     36c:	52800062 	mov	w2, #0x3                   	// #3
     370:	52800ca1 	mov	w1, #0x65                  	// #101
     374:	aa1403e0 	mov	x0, x20
     378:	94000140 	bl	878 <trace_printf>
/home/hei/Desktop/optee-qemu/optee_examples/overflow/ta/overflow.c:102
     37c:	aa1503e0 	mov	x0, x21
     380:	94000a4a 	bl	2ca8 <TEE_Free>
     384:	17ffffe6 	b	31c <TA_InvokeCommandEntryPoint+0xdc>
/home/hei/Desktop/optee-qemu/optee_examples/overflow/ta/overflow.c:105
     388:	f94002c0 	ldr	x0, [x22]
     38c:	aa1503e1 	mov	x1, x21
     390:	94000075 	bl	564 <strcpy>
/home/hei/Desktop/optee-qemu/optee_examples/overflow/ta/overflow.c:106
     394:	aa1503e0 	mov	x0, x21
/home/hei/Desktop/optee-qemu/optee_examples/overflow/ta/overflow.c:107
     398:	90000075 	adrp	x21, c000 <_DYNAMIC>
/home/hei/Desktop/optee-qemu/optee_examples/overflow/ta/overflow.c:106
     39c:	94000a43 	bl	2ca8 <TEE_Free>
/home/hei/Desktop/optee-qemu/optee_examples/overflow/ta/overflow.c:107
     3a0:	f940a2a0 	ldr	x0, [x21, #320]
     3a4:	39400000 	ldrb	w0, [x0]
     3a8:	34000140 	cbz	w0, 3d0 <TA_InvokeCommandEntryPoint+0x190>
/home/hei/Desktop/optee-qemu/optee_examples/overflow/ta/overflow.c:109
     3ac:	f940c6b5 	ldr	x21, [x21, #392]
     3b0:	d0000044 	adrp	x4, a000 <__text_end+0x12f4>
     3b4:	52800023 	mov	w3, #0x1                   	// #1
     3b8:	91333484 	add	x4, x4, #0xccd
     3bc:	52800062 	mov	w2, #0x3                   	// #3
     3c0:	52800da1 	mov	w1, #0x6d                  	// #109
     3c4:	f94002a5 	ldr	x5, [x21]
     3c8:	aa1403e0 	mov	x0, x20
     3cc:	9400012b 	bl	878 <trace_printf>
/home/hei/Desktop/optee-qemu/optee_examples/overflow/ta/overflow.c:111
     3d0:	912e62e0 	add	x0, x23, #0xb98
     3d4:	91309b04 	add	x4, x24, #0xc26
     3d8:	52800023 	mov	w3, #0x1                   	// #1
     3dc:	52800062 	mov	w2, #0x3                   	// #3
     3e0:	52800de1 	mov	w1, #0x6f                  	// #111
     3e4:	9101c000 	add	x0, x0, #0x70
     3e8:	94000124 	bl	878 <trace_printf>
/home/hei/Desktop/optee-qemu/optee_examples/overflow/ta/overflow.c:112
     3ec:	17ffffcd 	b	320 <TA_InvokeCommandEntryPoint+0xe0>
show_backdoor():
/home/hei/Desktop/optee-qemu/optee_examples/overflow/ta/overflow.c:135
     3f0:	d0000054 	adrp	x20, a000 <__text_end+0x12f4>
     3f4:	912e6295 	add	x21, x20, #0xb98
     3f8:	910202b5 	add	x21, x21, #0x80
     3fc:	2a0103e3 	mov	w3, w1
     400:	52800062 	mov	w2, #0x3                   	// #3
     404:	528010e1 	mov	w1, #0x87                  	// #135
     408:	aa1503e0 	mov	x0, x21
     40c:	d0000044 	adrp	x4, a000 <__text_end+0x12f4>
     410:	91309884 	add	x4, x4, #0xc26
     414:	94000119 	bl	878 <trace_printf>
/home/hei/Desktop/optee-qemu/optee_examples/overflow/ta/overflow.c:136
     418:	d0000044 	adrp	x4, a000 <__text_end+0x12f4>
     41c:	2a1303e3 	mov	w3, w19
     420:	9134d484 	add	x4, x4, #0xd35
     424:	52800062 	mov	w2, #0x3                   	// #3
     428:	52801101 	mov	w1, #0x88                  	// #136
     42c:	aa1503e0 	mov	x0, x21
     430:	94000112 	bl	878 <trace_printf>
/home/hei/Desktop/optee-qemu/optee_examples/overflow/ta/overflow.c:138
     434:	71000f3f 	cmp	w25, #0x3
     438:	54000100 	b.eq	458 <TA_InvokeCommandEntryPoint+0x218>  // b.none
/home/hei/Desktop/optee-qemu/optee_examples/overflow/ta/overflow.c:140
     43c:	d0000044 	adrp	x4, a000 <__text_end+0x12f4>
     440:	2a1303e3 	mov	w3, w19
     444:	91356884 	add	x4, x4, #0xd5a
     448:	52800062 	mov	w2, #0x3                   	// #3
     44c:	52801181 	mov	w1, #0x8c                  	// #140
     450:	aa1503e0 	mov	x0, x21
     454:	94000109 	bl	878 <trace_printf>
/home/hei/Desktop/optee-qemu/optee_examples/overflow/ta/overflow.c:142
     458:	90000075 	adrp	x21, c000 <_DYNAMIC>
     45c:	912e6294 	add	x20, x20, #0xb98
     460:	91020294 	add	x20, x20, #0x80
     464:	52800023 	mov	w3, #0x1                   	// #1
     468:	f940a6b7 	ldr	x23, [x21, #328]
     46c:	52800062 	mov	w2, #0x3                   	// #3
     470:	528011c1 	mov	w1, #0x8e                  	// #142
     474:	aa1403e0 	mov	x0, x20
     478:	aa1703e5 	mov	x5, x23
     47c:	d0000044 	adrp	x4, a000 <__text_end+0x12f4>
     480:	91359484 	add	x4, x4, #0xd65
     484:	940000fd 	bl	878 <trace_printf>
/home/hei/Desktop/optee-qemu/optee_examples/overflow/ta/overflow.c:144
     488:	b90002d7 	str	w23, [x22]
/home/hei/Desktop/optee-qemu/optee_examples/overflow/ta/overflow.c:145
     48c:	aa1403e0 	mov	x0, x20
     490:	d0000044 	adrp	x4, a000 <__text_end+0x12f4>
     494:	52800023 	mov	w3, #0x1                   	// #1
     498:	f94002c5 	ldr	x5, [x22]
     49c:	9135dc84 	add	x4, x4, #0xd77
     4a0:	52800062 	mov	w2, #0x3                   	// #3
     4a4:	52801221 	mov	w1, #0x91                  	// #145
     4a8:	940000f4 	bl	878 <trace_printf>
/home/hei/Desktop/optee-qemu/optee_examples/overflow/ta/overflow.c:146
     4ac:	f940a2a0 	ldr	x0, [x21, #320]
     4b0:	39400000 	ldrb	w0, [x0]
     4b4:	34000140 	cbz	w0, 4dc <TA_InvokeCommandEntryPoint+0x29c>
/home/hei/Desktop/optee-qemu/optee_examples/overflow/ta/overflow.c:148
     4b8:	f940c6b5 	ldr	x21, [x21, #392]
     4bc:	d0000044 	adrp	x4, a000 <__text_end+0x12f4>
     4c0:	52800023 	mov	w3, #0x1                   	// #1
     4c4:	91333484 	add	x4, x4, #0xccd
     4c8:	52800062 	mov	w2, #0x3                   	// #3
     4cc:	52801281 	mov	w1, #0x94                  	// #148
     4d0:	f94002a5 	ldr	x5, [x21]
     4d4:	aa1403e0 	mov	x0, x20
     4d8:	940000e8 	bl	878 <trace_printf>
TA_InvokeCommandEntryPoint():
/home/hei/Desktop/optee-qemu/optee_examples/overflow/ta/overflow.c:165
     4dc:	52800013 	mov	w19, #0x0                   	// #0
     4e0:	17ffff90 	b	320 <TA_InvokeCommandEntryPoint+0xe0>

00000000000004e4 <__ta_entry>:
__ta_entry():
/home/hei/Desktop/optee-qemu/optee_os/out/arm/export-ta_arm64/src/user_ta_header.c:47
     4e4:	a9bf7bfd 	stp	x29, x30, [sp, #-16]!
     4e8:	910003fd 	mov	x29, sp
/home/hei/Desktop/optee-qemu/optee_os/out/arm/export-ta_arm64/src/user_ta_header.c:48
     4ec:	94000b71 	bl	32b0 <__utee_entry>
/home/hei/Desktop/optee-qemu/optee_os/out/arm/export-ta_arm64/src/user_ta_header.c:59
     4f0:	2a0003e0 	mov	w0, w0
     4f4:	94000a5b 	bl	2e60 <utee_return>

00000000000004f8 <tahead_get_trace_level>:
tahead_get_trace_level():
/home/hei/Desktop/optee-qemu/optee_os/out/arm/export-ta_arm64/src/user_ta_header.c:149
     4f8:	52800080 	mov	w0, #0x4                   	// #4
     4fc:	d65f03c0 	ret

0000000000000500 <strdup>:
strdup():
/home/hei/Desktop/optee-qemu/optee_os/lib/libutils/isoc/strdup.c:9
     500:	a9bd7bfd 	stp	x29, x30, [sp, #-48]!
     504:	910003fd 	mov	x29, sp
     508:	a90153f3 	stp	x19, x20, [sp, #16]
     50c:	f90017e0 	str	x0, [sp, #40]
/home/hei/Desktop/optee-qemu/optee_os/lib/libutils/isoc/strdup.c:10
     510:	9400001b 	bl	57c <strlen>
     514:	91000414 	add	x20, x0, #0x1
/home/hei/Desktop/optee-qemu/optee_os/lib/libutils/isoc/strdup.c:11
     518:	aa1403e0 	mov	x0, x20
     51c:	94000343 	bl	1228 <malloc>
     520:	aa0003f3 	mov	x19, x0
/home/hei/Desktop/optee-qemu/optee_os/lib/libutils/isoc/strdup.c:13
     524:	b4000080 	cbz	x0, 534 <strdup+0x34>
/home/hei/Desktop/optee-qemu/optee_os/lib/libutils/isoc/strdup.c:14
     528:	f94017e1 	ldr	x1, [sp, #40]
     52c:	aa1403e2 	mov	x2, x20
     530:	94000005 	bl	544 <memcpy>
/home/hei/Desktop/optee-qemu/optee_os/lib/libutils/isoc/strdup.c:16
     534:	aa1303e0 	mov	x0, x19
     538:	a94153f3 	ldp	x19, x20, [sp, #16]
     53c:	a8c37bfd 	ldp	x29, x30, [sp], #48
     540:	d65f03c0 	ret

0000000000000544 <memcpy>:
memcpy():
/home/hei/Desktop/optee-qemu/optee_os/lib/libutils/isoc/newlib/memcpy.c:94
     544:	d2800003 	mov	x3, #0x0                   	// #0
     548:	eb03005f 	cmp	x2, x3
     54c:	54000041 	b.ne	554 <memcpy+0x10>  // b.any
/home/hei/Desktop/optee-qemu/optee_os/lib/libutils/isoc/newlib/memcpy.c:135
     550:	d65f03c0 	ret
/home/hei/Desktop/optee-qemu/optee_os/lib/libutils/isoc/newlib/memcpy.c:95
     554:	38636824 	ldrb	w4, [x1, x3]
     558:	38236804 	strb	w4, [x0, x3]
     55c:	91000463 	add	x3, x3, #0x1
     560:	17fffffa 	b	548 <memcpy+0x4>

0000000000000564 <strcpy>:
strcpy():
/home/hei/Desktop/optee-qemu/optee_os/lib/libutils/isoc/newlib/strcpy.c:101
     564:	d2800002 	mov	x2, #0x0                   	// #0
/home/hei/Desktop/optee-qemu/optee_os/lib/libutils/isoc/newlib/strcpy.c:101 (discriminator 1)
     568:	38626823 	ldrb	w3, [x1, x2]
     56c:	38226803 	strb	w3, [x0, x2]
     570:	91000442 	add	x2, x2, #0x1
     574:	35ffffa3 	cbnz	w3, 568 <strcpy+0x4>
/home/hei/Desktop/optee-qemu/optee_os/lib/libutils/isoc/newlib/strcpy.c:132
     578:	d65f03c0 	ret

000000000000057c <strlen>:
strlen():
/home/hei/Desktop/optee-qemu/optee_os/lib/libutils/isoc/newlib/strlen.c:117
     57c:	aa0003e1 	mov	x1, x0
     580:	39400022 	ldrb	w2, [x1]
     584:	35000062 	cbnz	w2, 590 <strlen+0x14>
/home/hei/Desktop/optee-qemu/optee_os/lib/libutils/isoc/newlib/strlen.c:120
     588:	cb000020 	sub	x0, x1, x0
     58c:	d65f03c0 	ret
/home/hei/Desktop/optee-qemu/optee_os/lib/libutils/isoc/newlib/strlen.c:118
     590:	91000421 	add	x1, x1, #0x1
     594:	17fffffb 	b	580 <strlen+0x4>

0000000000000598 <append>:
append():
/home/hei/Desktop/optee-qemu/optee_os/lib/libutils/ext/trace.c:204
     598:	a9af7bfd 	stp	x29, x30, [sp, #-272]!
     59c:	910003fd 	mov	x29, sp
     5a0:	3d801be0 	str	q0, [sp, #96]
     5a4:	3d801fe1 	str	q1, [sp, #112]
     5a8:	3d8023e2 	str	q2, [sp, #128]
     5ac:	3d8027e3 	str	q3, [sp, #144]
     5b0:	3d802be4 	str	q4, [sp, #160]
     5b4:	3d802fe5 	str	q5, [sp, #176]
     5b8:	3d8033e6 	str	q6, [sp, #192]
     5bc:	3d8037e7 	str	q7, [sp, #208]
     5c0:	a90e0fe2 	stp	x2, x3, [sp, #224]
     5c4:	a90f17e4 	stp	x4, x5, [sp, #240]
     5c8:	a9101fe6 	stp	x6, x7, [sp, #256]
     5cc:	a90153f3 	stp	x19, x20, [sp, #16]
     5d0:	aa0003f3 	mov	x19, x0
/home/hei/Desktop/optee-qemu/optee_os/lib/libutils/ext/trace.c:209
     5d4:	f9408000 	ldr	x0, [x0, #256]
     5d8:	b5000040 	cbnz	x0, 5e0 <append+0x48>
/home/hei/Desktop/optee-qemu/optee_os/lib/libutils/ext/trace.c:210
     5dc:	f9008273 	str	x19, [x19, #256]
/home/hei/Desktop/optee-qemu/optee_os/lib/libutils/ext/trace.c:212
     5e0:	910443e2 	add	x2, sp, #0x110
     5e4:	a9040be2 	stp	x2, x2, [sp, #64]
     5e8:	910383e2 	add	x2, sp, #0xe0
     5ec:	f9002be2 	str	x2, [sp, #80]
     5f0:	128005e2 	mov	w2, #0xffffffd0            	// #-48
/home/hei/Desktop/optee-qemu/optee_os/lib/libutils/ext/trace.c:211
     5f4:	f9408260 	ldr	x0, [x19, #256]
/home/hei/Desktop/optee-qemu/optee_os/lib/libutils/ext/trace.c:212
     5f8:	b9005be2 	str	w2, [sp, #88]
     5fc:	12800fe2 	mov	w2, #0xffffff80            	// #-128
     600:	b9005fe2 	str	w2, [sp, #92]
/home/hei/Desktop/optee-qemu/optee_os/lib/libutils/ext/trace.c:213
     604:	a9440fe2 	ldp	x2, x3, [sp, #64]
/home/hei/Desktop/optee-qemu/optee_os/lib/libutils/ext/trace.c:211
     608:	4b000274 	sub	w20, w19, w0
/home/hei/Desktop/optee-qemu/optee_os/lib/libutils/ext/trace.c:213
     60c:	a9020fe2 	stp	x2, x3, [sp, #32]
/home/hei/Desktop/optee-qemu/optee_os/lib/libutils/ext/trace.c:211
     610:	11040294 	add	w20, w20, #0x100
/home/hei/Desktop/optee-qemu/optee_os/lib/libutils/ext/trace.c:213
     614:	a9450fe2 	ldp	x2, x3, [sp, #80]
     618:	a9030fe2 	stp	x2, x3, [sp, #48]
     61c:	aa0103e2 	mov	x2, x1
     620:	910083e3 	add	x3, sp, #0x20
     624:	93407e81 	sxtw	x1, w20
     628:	94000730 	bl	22e8 <vsnprintk>
/home/hei/Desktop/optee-qemu/optee_os/lib/libutils/ext/trace.c:215
     62c:	37f80140 	tbnz	w0, #31, 654 <append+0xbc>
/home/hei/Desktop/optee-qemu/optee_os/lib/libutils/ext/trace.c:219
     630:	6b00029f 	cmp	w20, w0
     634:	5400010d 	b.le	654 <append+0xbc>
/home/hei/Desktop/optee-qemu/optee_os/lib/libutils/ext/trace.c:223
     638:	f9408261 	ldr	x1, [x19, #256]
     63c:	8b20c020 	add	x0, x1, w0, sxtw
     640:	f9008260 	str	x0, [x19, #256]
/home/hei/Desktop/optee-qemu/optee_os/lib/libutils/ext/trace.c:224
     644:	52800020 	mov	w0, #0x1                   	// #1
/home/hei/Desktop/optee-qemu/optee_os/lib/libutils/ext/trace.c:225
     648:	a94153f3 	ldp	x19, x20, [sp, #16]
     64c:	a8d17bfd 	ldp	x29, x30, [sp], #272
     650:	d65f03c0 	ret
/home/hei/Desktop/optee-qemu/optee_os/lib/libutils/ext/trace.c:217
     654:	52800000 	mov	w0, #0x0                   	// #0
     658:	17fffffc 	b	648 <append+0xb0>

000000000000065c <trace_set_level>:
trace_set_level():
/home/hei/Desktop/optee-qemu/optee_os/lib/libutils/ext/trace.c:29
     65c:	7100141f 	cmp	w0, #0x5
     660:	52800081 	mov	w1, #0x4                   	// #4
     664:	1a813000 	csel	w0, w0, w1, cc  // cc = lo, ul, last
     668:	90000061 	adrp	x1, c000 <_DYNAMIC>
     66c:	f9409c21 	ldr	x1, [x1, #312]
     670:	b9000020 	str	w0, [x1]
/home/hei/Desktop/optee-qemu/optee_os/lib/libutils/ext/trace.c:30
     674:	d65f03c0 	ret

0000000000000678 <trace_get_level>:
trace_get_level():
/home/hei/Desktop/optee-qemu/optee_os/lib/libutils/ext/trace.c:34
     678:	90000060 	adrp	x0, c000 <_DYNAMIC>
/home/hei/Desktop/optee-qemu/optee_os/lib/libutils/ext/trace.c:35
     67c:	f9409c00 	ldr	x0, [x0, #312]
     680:	b9400000 	ldr	w0, [x0]
     684:	d65f03c0 	ret

0000000000000688 <trace_vprintf>:
trace_vprintf():
/home/hei/Desktop/optee-qemu/optee_os/lib/libutils/ext/trace.c:106
     688:	a9a87bfd 	stp	x29, x30, [sp, #-384]!
     68c:	910003fd 	mov	x29, sp
     690:	a90153f3 	stp	x19, x20, [sp, #16]
     694:	a9025bf5 	stp	x21, x22, [sp, #32]
     698:	a90363f7 	stp	x23, x24, [sp, #48]
/home/hei/Desktop/optee-qemu/optee_os/lib/libutils/ext/trace.c:111
     69c:	72001c77 	ands	w23, w3, #0xff
/home/hei/Desktop/optee-qemu/optee_os/lib/libutils/ext/trace.c:106
     6a0:	a9046bf9 	stp	x25, x26, [sp, #64]
     6a4:	f9002bfb 	str	x27, [sp, #80]
/home/hei/Desktop/optee-qemu/optee_os/lib/libutils/ext/trace.c:111
     6a8:	54000c00 	b.eq	828 <trace_vprintf+0x1a0>  // b.none
/home/hei/Desktop/optee-qemu/optee_os/lib/libutils/ext/trace.c:111 (discriminator 1)
     6ac:	90000063 	adrp	x3, c000 <_DYNAMIC>
     6b0:	f9409c63 	ldr	x3, [x3, #312]
     6b4:	b9400063 	ldr	w3, [x3]
     6b8:	6b02007f 	cmp	w3, w2
     6bc:	54000a8b 	b.lt	80c <trace_vprintf+0x184>  // b.tstop
trace_level_to_string():
/home/hei/Desktop/optee-qemu/optee_os/lib/libutils/ext/trace.c:52
     6c0:	7100105f 	cmp	w2, #0x4
/home/hei/Desktop/optee-qemu/optee_os/lib/libutils/ext/trace.c:55
     6c4:	d0000043 	adrp	x3, a000 <__text_end+0x12f4>
/home/hei/Desktop/optee-qemu/optee_os/lib/libutils/ext/trace.c:52
     6c8:	1a9f9046 	csel	w6, w2, wzr, ls  // ls = plast
/home/hei/Desktop/optee-qemu/optee_os/lib/libutils/ext/trace.c:55
     6cc:	913b7463 	add	x3, x3, #0xedd
     6d0:	3866c863 	ldrb	w3, [x3, w6, sxtw]
trace_vprintf():
/home/hei/Desktop/optee-qemu/optee_os/lib/libutils/ext/trace.c:115
     6d4:	910203f4 	add	x20, sp, #0x80
     6d8:	2a0203f8 	mov	w24, w2
     6dc:	2a0103fb 	mov	w27, w1
     6e0:	aa0003f6 	mov	x22, x0
     6e4:	d0000042 	adrp	x2, a000 <__text_end+0x12f4>
     6e8:	aa0503fa 	mov	x26, x5
     6ec:	aa0403f9 	mov	x25, x4
     6f0:	913bb042 	add	x2, x2, #0xeec
     6f4:	d2802001 	mov	x1, #0x100                 	// #256
     6f8:	aa1403e0 	mov	x0, x20
     6fc:	94000710 	bl	233c <snprintk>
/home/hei/Desktop/optee-qemu/optee_os/lib/libutils/ext/trace.c:117
     700:	37f80860 	tbnz	w0, #31, 80c <trace_vprintf+0x184>
/home/hei/Desktop/optee-qemu/optee_os/lib/libutils/ext/trace.c:122
     704:	90000063 	adrp	x3, c000 <_DYNAMIC>
/home/hei/Desktop/optee-qemu/optee_os/lib/libutils/ext/trace.c:119
     708:	93407c15 	sxtw	x21, w0
/home/hei/Desktop/optee-qemu/optee_os/lib/libutils/ext/trace.c:122
     70c:	d2802013 	mov	x19, #0x100                 	// #256
     710:	d0000042 	adrp	x2, a000 <__text_end+0x12f4>
     714:	f940a863 	ldr	x3, [x3, #336]
     718:	913bc042 	add	x2, x2, #0xef0
     71c:	cb150261 	sub	x1, x19, x21
     720:	8b150280 	add	x0, x20, x21
     724:	94000706 	bl	233c <snprintk>
/home/hei/Desktop/optee-qemu/optee_os/lib/libutils/ext/trace.c:124
     728:	37f80720 	tbnz	w0, #31, 80c <trace_vprintf+0x184>
/home/hei/Desktop/optee-qemu/optee_os/lib/libutils/ext/trace.c:126
     72c:	8b20c2b5 	add	x21, x21, w0, sxtw
/home/hei/Desktop/optee-qemu/optee_os/lib/libutils/ext/trace.c:128
     730:	34000937 	cbz	w23, 854 <trace_vprintf+0x1cc>
/home/hei/Desktop/optee-qemu/optee_os/lib/libutils/ext/trace.c:128 (discriminator 1)
     734:	52800342 	mov	w2, #0x1a                  	// #26
     738:	1ad82442 	lsr	w2, w2, w24
     73c:	360008c2 	tbz	w2, #0, 854 <trace_vprintf+0x1cc>
/home/hei/Desktop/optee-qemu/optee_os/lib/libutils/ext/trace.c:130
     740:	8b150297 	add	x23, x20, x21
     744:	cb150273 	sub	x19, x19, x21
print_thread_id():
/home/hei/Desktop/optee-qemu/optee_os/lib/libutils/ext/trace.c:65
     748:	9400072f 	bl	2404 <trace_ext_get_thread_id>
/home/hei/Desktop/optee-qemu/optee_os/lib/libutils/ext/trace.c:67
     74c:	37f80720 	tbnz	w0, #31, 830 <trace_vprintf+0x1a8>
/home/hei/Desktop/optee-qemu/optee_os/lib/libutils/ext/trace.c:68
     750:	2a0003e4 	mov	w4, w0
     754:	d0000042 	adrp	x2, a000 <__text_end+0x12f4>
     758:	52800023 	mov	w3, #0x1                   	// #1
     75c:	913bd042 	add	x2, x2, #0xef4
     760:	aa1303e1 	mov	x1, x19
     764:	aa1703e0 	mov	x0, x23
     768:	940006f5 	bl	233c <snprintk>
trace_vprintf():
/home/hei/Desktop/optee-qemu/optee_os/lib/libutils/ext/trace.c:137
     76c:	37f80500 	tbnz	w0, #31, 80c <trace_vprintf+0x184>
/home/hei/Desktop/optee-qemu/optee_os/lib/libutils/ext/trace.c:139
     770:	8b20c2b3 	add	x19, x21, w0, sxtw
/home/hei/Desktop/optee-qemu/optee_os/lib/libutils/ext/trace.c:141
     774:	b4000176 	cbz	x22, 7a0 <trace_vprintf+0x118>
/home/hei/Desktop/optee-qemu/optee_os/lib/libutils/ext/trace.c:142
     778:	d0000042 	adrp	x2, a000 <__text_end+0x12f4>
     77c:	d2802001 	mov	x1, #0x100                 	// #256
     780:	2a1b03e4 	mov	w4, w27
     784:	aa1603e3 	mov	x3, x22
     788:	913bfc42 	add	x2, x2, #0xeff
     78c:	cb130021 	sub	x1, x1, x19
     790:	8b130280 	add	x0, x20, x19
     794:	940006ea 	bl	233c <snprintk>
/home/hei/Desktop/optee-qemu/optee_os/lib/libutils/ext/trace.c:144
     798:	37f803a0 	tbnz	w0, #31, 80c <trace_vprintf+0x184>
/home/hei/Desktop/optee-qemu/optee_os/lib/libutils/ext/trace.c:146
     79c:	8b20c273 	add	x19, x19, w0, sxtw
/home/hei/Desktop/optee-qemu/optee_os/lib/libutils/ext/trace.c:156
     7a0:	910183e3 	add	x3, sp, #0x60
     7a4:	d2800402 	mov	x2, #0x20                  	// #32
     7a8:	aa1a03e1 	mov	x1, x26
     7ac:	aa0303e0 	mov	x0, x3
     7b0:	97ffff65 	bl	544 <memcpy>
     7b4:	aa0003e3 	mov	x3, x0
     7b8:	aa1903e2 	mov	x2, x25
     7bc:	d2802001 	mov	x1, #0x100                 	// #256
     7c0:	8b130280 	add	x0, x20, x19
     7c4:	cb130021 	sub	x1, x1, x19
     7c8:	940006c8 	bl	22e8 <vsnprintk>
/home/hei/Desktop/optee-qemu/optee_os/lib/libutils/ext/trace.c:157
     7cc:	7100001f 	cmp	w0, #0x0
     7d0:	5400004d 	b.le	7d8 <trace_vprintf+0x150>
/home/hei/Desktop/optee-qemu/optee_os/lib/libutils/ext/trace.c:158
     7d4:	8b20c273 	add	x19, x19, w0, sxtw
/home/hei/Desktop/optee-qemu/optee_os/lib/libutils/ext/trace.c:160
     7d8:	f103fa7f 	cmp	x19, #0xfe
     7dc:	d2801fc0 	mov	x0, #0xfe                  	// #254
     7e0:	9a809273 	csel	x19, x19, x0, ls  // ls = plast
/home/hei/Desktop/optee-qemu/optee_os/lib/libutils/ext/trace.c:163
     7e4:	52800140 	mov	w0, #0xa                   	// #10
     7e8:	38336a80 	strb	w0, [x20, x19]
/home/hei/Desktop/optee-qemu/optee_os/lib/libutils/ext/trace.c:164
     7ec:	b4000093 	cbz	x19, 7fc <trace_vprintf+0x174>
/home/hei/Desktop/optee-qemu/optee_os/lib/libutils/ext/trace.c:164 (discriminator 1)
     7f0:	38736a80 	ldrb	w0, [x20, x19]
     7f4:	7100281f 	cmp	w0, #0xa
     7f8:	540003c0 	b.eq	870 <trace_vprintf+0x1e8>  // b.none
/home/hei/Desktop/optee-qemu/optee_os/lib/libutils/ext/trace.c:167
     7fc:	91020be0 	add	x0, sp, #0x82
     800:	3833681f 	strb	wzr, [x0, x19]
/home/hei/Desktop/optee-qemu/optee_os/lib/libutils/ext/trace.c:169
     804:	aa1403e0 	mov	x0, x20
     808:	940006f5 	bl	23dc <trace_ext_puts>
/home/hei/Desktop/optee-qemu/optee_os/lib/libutils/ext/trace.c:170
     80c:	a94153f3 	ldp	x19, x20, [sp, #16]
     810:	a9425bf5 	ldp	x21, x22, [sp, #32]
     814:	a94363f7 	ldp	x23, x24, [sp, #48]
     818:	a9446bf9 	ldp	x25, x26, [sp, #64]
     81c:	f9402bfb 	ldr	x27, [sp, #80]
     820:	a8d87bfd 	ldp	x29, x30, [sp], #384
     824:	d65f03c0 	ret
trace_level_to_string():
/home/hei/Desktop/optee-qemu/optee_os/lib/libutils/ext/trace.c:50
     828:	528009a3 	mov	w3, #0x4d                  	// #77
     82c:	17ffffaa 	b	6d4 <trace_vprintf+0x4c>
print_thread_id():
/home/hei/Desktop/optee-qemu/optee_os/lib/libutils/ext/trace.c:70
     830:	d0000044 	adrp	x4, a000 <__text_end+0x12f4>
     834:	52800023 	mov	w3, #0x1                   	// #1
     838:	91338484 	add	x4, x4, #0xce1
     83c:	d0000042 	adrp	x2, a000 <__text_end+0x12f4>
     840:	aa1303e1 	mov	x1, x19
     844:	913be842 	add	x2, x2, #0xefa
     848:	aa1703e0 	mov	x0, x23
     84c:	940006bc 	bl	233c <snprintk>
     850:	17ffffc7 	b	76c <trace_vprintf+0xe4>
trace_vprintf():
/home/hei/Desktop/optee-qemu/optee_os/lib/libutils/ext/trace.c:150
     854:	f103fabf 	cmp	x21, #0xfe
     858:	54fffda8 	b.hi	80c <trace_vprintf+0x184>  // b.pmore
/home/hei/Desktop/optee-qemu/optee_os/lib/libutils/ext/trace.c:152
     85c:	910006b3 	add	x19, x21, #0x1
     860:	52800400 	mov	w0, #0x20                  	// #32
     864:	38356a80 	strb	w0, [x20, x21]
/home/hei/Desktop/optee-qemu/optee_os/lib/libutils/ext/trace.c:153
     868:	38336a9f 	strb	wzr, [x20, x19]
     86c:	17ffffcd 	b	7a0 <trace_vprintf+0x118>
/home/hei/Desktop/optee-qemu/optee_os/lib/libutils/ext/trace.c:165
     870:	d1000673 	sub	x19, x19, #0x1
     874:	17ffffde 	b	7ec <trace_vprintf+0x164>

0000000000000878 <trace_printf>:
trace_printf():
/home/hei/Desktop/optee-qemu/optee_os/lib/libutils/ext/trace.c:97
     878:	a9b17bfd 	stp	x29, x30, [sp, #-240]!
     87c:	910003fd 	mov	x29, sp
     880:	a90d9be5 	stp	x5, x6, [sp, #216]
/home/hei/Desktop/optee-qemu/optee_os/lib/libutils/ext/trace.c:100
     884:	9103c3e5 	add	x5, sp, #0xf0
     888:	a90317e5 	stp	x5, x5, [sp, #48]
     88c:	910343e5 	add	x5, sp, #0xd0
     890:	f90023e5 	str	x5, [sp, #64]
     894:	128002e5 	mov	w5, #0xffffffe8            	// #-24
     898:	b9004be5 	str	w5, [sp, #72]
     89c:	12800fe5 	mov	w5, #0xffffff80            	// #-128
     8a0:	b9004fe5 	str	w5, [sp, #76]
/home/hei/Desktop/optee-qemu/optee_os/lib/libutils/ext/trace.c:101
     8a4:	910043e5 	add	x5, sp, #0x10
/home/hei/Desktop/optee-qemu/optee_os/lib/libutils/ext/trace.c:97
     8a8:	f90077e7 	str	x7, [sp, #232]
/home/hei/Desktop/optee-qemu/optee_os/lib/libutils/ext/trace.c:101
     8ac:	a9431fe6 	ldp	x6, x7, [sp, #48]
     8b0:	a9011fe6 	stp	x6, x7, [sp, #16]
     8b4:	a9441fe6 	ldp	x6, x7, [sp, #64]
     8b8:	a9021fe6 	stp	x6, x7, [sp, #32]
/home/hei/Desktop/optee-qemu/optee_os/lib/libutils/ext/trace.c:97
     8bc:	3d8017e0 	str	q0, [sp, #80]
     8c0:	3d801be1 	str	q1, [sp, #96]
     8c4:	3d801fe2 	str	q2, [sp, #112]
     8c8:	3d8023e3 	str	q3, [sp, #128]
     8cc:	3d8027e4 	str	q4, [sp, #144]
     8d0:	3d802be5 	str	q5, [sp, #160]
     8d4:	3d802fe6 	str	q6, [sp, #176]
     8d8:	3d8033e7 	str	q7, [sp, #192]
/home/hei/Desktop/optee-qemu/optee_os/lib/libutils/ext/trace.c:101
     8dc:	97ffff6b 	bl	688 <trace_vprintf>
/home/hei/Desktop/optee-qemu/optee_os/lib/libutils/ext/trace.c:103
     8e0:	a8cf7bfd 	ldp	x29, x30, [sp], #240
     8e4:	d65f03c0 	ret

00000000000008e8 <dhex_dump>:
dhex_dump():
/home/hei/Desktop/optee-qemu/optee_os/lib/libutils/ext/trace.c:235
     8e8:	90000065 	adrp	x5, c000 <_DYNAMIC>
     8ec:	f9409ca5 	ldr	x5, [x5, #312]
     8f0:	b94000a5 	ldr	w5, [x5]
     8f4:	6b0200bf 	cmp	w5, w2
     8f8:	54000acb 	b.lt	a50 <dhex_dump+0x168>  // b.tstop
/home/hei/Desktop/optee-qemu/optee_os/lib/libutils/ext/trace.c:229
     8fc:	a9a97bfd 	stp	x29, x30, [sp, #-368]!
     900:	910003fd 	mov	x29, sp
     904:	a90153f3 	stp	x19, x20, [sp, #16]
     908:	2a0203f4 	mov	w20, w2
/home/hei/Desktop/optee-qemu/optee_os/lib/libutils/ext/trace.c:237
     90c:	d2800013 	mov	x19, #0x0                   	// #0
/home/hei/Desktop/optee-qemu/optee_os/lib/libutils/ext/trace.c:229
     910:	a9025bf5 	stp	x21, x22, [sp, #32]
     914:	2a0103f6 	mov	w22, w1
     918:	aa0003f5 	mov	x21, x0
     91c:	a90363f7 	stp	x23, x24, [sp, #48]
     920:	aa0303f8 	mov	x24, x3
     924:	9101a3f7 	add	x23, sp, #0x68
     928:	a9046bf9 	stp	x25, x26, [sp, #64]
/home/hei/Desktop/optee-qemu/optee_os/lib/libutils/ext/trace.c:239
     92c:	d000005a 	adrp	x26, a000 <__text_end+0x12f4>
     930:	2a0403f9 	mov	w25, w4
     934:	913c335a 	add	x26, x26, #0xf0c
/home/hei/Desktop/optee-qemu/optee_os/lib/libutils/ext/trace.c:229
     938:	a90573fb 	stp	x27, x28, [sp, #80]
/home/hei/Desktop/optee-qemu/optee_os/lib/libutils/ext/trace.c:244
     93c:	d000005b 	adrp	x27, a000 <__text_end+0x12f4>
     940:	913c1b7b 	add	x27, x27, #0xf06
/home/hei/Desktop/optee-qemu/optee_os/lib/libutils/ext/trace.c:236
     944:	f900b7ff 	str	xzr, [sp, #360]
/home/hei/Desktop/optee-qemu/optee_os/lib/libutils/ext/trace.c:237
     948:	2a1303fc 	mov	w28, w19
/home/hei/Desktop/optee-qemu/optee_os/lib/libutils/ext/trace.c:237 (discriminator 1)
     94c:	6b13033f 	cmp	w25, w19
     950:	5400024c 	b.gt	998 <dhex_dump+0xb0>
/home/hei/Desktop/optee-qemu/optee_os/lib/libutils/ext/trace.c:257
     954:	f940b7e0 	ldr	x0, [sp, #360]
     958:	b4000120 	cbz	x0, 97c <dhex_dump+0x94>
/home/hei/Desktop/optee-qemu/optee_os/lib/libutils/ext/trace.c:259
     95c:	d0000044 	adrp	x4, a000 <__text_end+0x12f4>
     960:	9101a3e5 	add	x5, sp, #0x68
     964:	91333484 	add	x4, x4, #0xccd
     968:	52800023 	mov	w3, #0x1                   	// #1
     96c:	2a1403e2 	mov	w2, w20
     970:	2a1603e1 	mov	w1, w22
     974:	aa1503e0 	mov	x0, x21
     978:	97ffffc0 	bl	878 <trace_printf>
/home/hei/Desktop/optee-qemu/optee_os/lib/libutils/ext/trace.c:267
     97c:	a94153f3 	ldp	x19, x20, [sp, #16]
     980:	a9425bf5 	ldp	x21, x22, [sp, #32]
     984:	a94363f7 	ldp	x23, x24, [sp, #48]
     988:	a9446bf9 	ldp	x25, x26, [sp, #64]
     98c:	a94573fb 	ldp	x27, x28, [sp, #80]
     990:	a8d77bfd 	ldp	x29, x30, [sp], #368
     994:	d65f03c0 	ret
/home/hei/Desktop/optee-qemu/optee_os/lib/libutils/ext/trace.c:238
     998:	f2400e7f 	tst	x19, #0xf
     99c:	54000200 	b.eq	9dc <dhex_dump+0xf4>  // b.none
/home/hei/Desktop/optee-qemu/optee_os/lib/libutils/ext/trace.c:244
     9a0:	38736b02 	ldrb	w2, [x24, x19]
     9a4:	aa1b03e1 	mov	x1, x27
     9a8:	aa1703e0 	mov	x0, x23
     9ac:	97fffefb 	bl	598 <append>
/home/hei/Desktop/optee-qemu/optee_os/lib/libutils/ext/trace.c:245
     9b0:	35000240 	cbnz	w0, 9f8 <dhex_dump+0x110>
/home/hei/Desktop/optee-qemu/optee_os/lib/libutils/ext/trace.c:266
     9b4:	d0000040 	adrp	x0, a000 <__text_end+0x12f4>
     9b8:	913b7400 	add	x0, x0, #0xedd
     9bc:	d0000044 	adrp	x4, a000 <__text_end+0x12f4>
     9c0:	52800023 	mov	w3, #0x1                   	// #1
     9c4:	913c5084 	add	x4, x4, #0xf14
     9c8:	52800062 	mov	w2, #0x3                   	// #3
     9cc:	52802141 	mov	w1, #0x10a                 	// #266
     9d0:	91001400 	add	x0, x0, #0x5
     9d4:	97ffffa9 	bl	878 <trace_printf>
     9d8:	17ffffe9 	b	97c <dhex_dump+0x94>
/home/hei/Desktop/optee-qemu/optee_os/lib/libutils/ext/trace.c:239
     9dc:	8b130303 	add	x3, x24, x19
     9e0:	52800202 	mov	w2, #0x10                  	// #16
     9e4:	aa1a03e1 	mov	x1, x26
     9e8:	aa1703e0 	mov	x0, x23
     9ec:	97fffeeb 	bl	598 <append>
/home/hei/Desktop/optee-qemu/optee_os/lib/libutils/ext/trace.c:241
     9f0:	35fffd80 	cbnz	w0, 9a0 <dhex_dump+0xb8>
     9f4:	17fffff0 	b	9b4 <dhex_dump+0xcc>
/home/hei/Desktop/optee-qemu/optee_os/lib/libutils/ext/trace.c:247
     9f8:	12000f80 	and	w0, w28, #0xf
     9fc:	71001c1f 	cmp	w0, #0x7
     a00:	54000101 	b.ne	a20 <dhex_dump+0x138>  // b.any
/home/hei/Desktop/optee-qemu/optee_os/lib/libutils/ext/trace.c:248
     a04:	d0000041 	adrp	x1, a000 <__text_end+0x12f4>
     a08:	aa1703e0 	mov	x0, x23
     a0c:	913c4821 	add	x1, x1, #0xf12
     a10:	97fffee2 	bl	598 <append>
/home/hei/Desktop/optee-qemu/optee_os/lib/libutils/ext/trace.c:249
     a14:	34fffd00 	cbz	w0, 9b4 <dhex_dump+0xcc>
     a18:	91000673 	add	x19, x19, #0x1
     a1c:	17ffffcb 	b	948 <dhex_dump+0x60>
/home/hei/Desktop/optee-qemu/optee_os/lib/libutils/ext/trace.c:251
     a20:	71003c1f 	cmp	w0, #0xf
     a24:	54ffffa1 	b.ne	a18 <dhex_dump+0x130>  // b.any
/home/hei/Desktop/optee-qemu/optee_os/lib/libutils/ext/trace.c:252
     a28:	aa1703e5 	mov	x5, x23
     a2c:	d0000044 	adrp	x4, a000 <__text_end+0x12f4>
     a30:	52800023 	mov	w3, #0x1                   	// #1
     a34:	91333484 	add	x4, x4, #0xccd
     a38:	2a1403e2 	mov	w2, w20
     a3c:	2a1603e1 	mov	w1, w22
     a40:	aa1503e0 	mov	x0, x21
     a44:	97ffff8d 	bl	878 <trace_printf>
/home/hei/Desktop/optee-qemu/optee_os/lib/libutils/ext/trace.c:254
     a48:	f900b7ff 	str	xzr, [sp, #360]
     a4c:	17fffff3 	b	a18 <dhex_dump+0x130>
     a50:	d65f03c0 	ret

0000000000000a54 <raw_malloc_return_hook.constprop.21>:
raw_malloc_return_hook():
/home/hei/Desktop/optee-qemu/optee_os/lib/libutils/isoc/bget_malloc.c:210
     a54:	90000062 	adrp	x2, c000 <_DYNAMIC>
     a58:	910fc044 	add	x4, x2, #0x3f0
     a5c:	f9401083 	ldr	x3, [x4, #32]
     a60:	b9406c85 	ldr	w5, [x4, #108]
     a64:	eb05007f 	cmp	x3, x5
     a68:	5400004d 	b.le	a70 <raw_malloc_return_hook.constprop.21+0x1c>
/home/hei/Desktop/optee-qemu/optee_os/lib/libutils/isoc/bget_malloc.c:211
     a6c:	b9006c83 	str	w3, [x4, #108]
/home/hei/Desktop/optee-qemu/optee_os/lib/libutils/isoc/bget_malloc.c:213
     a70:	b5000120 	cbnz	x0, a94 <raw_malloc_return_hook.constprop.21+0x40>
/home/hei/Desktop/optee-qemu/optee_os/lib/libutils/isoc/bget_malloc.c:214
     a74:	910fc040 	add	x0, x2, #0x3f0
     a78:	b9407402 	ldr	w2, [x0, #116]
     a7c:	11000442 	add	w2, w2, #0x1
     a80:	b9007402 	str	w2, [x0, #116]
/home/hei/Desktop/optee-qemu/optee_os/lib/libutils/isoc/bget_malloc.c:216
     a84:	b9407802 	ldr	w2, [x0, #120]
     a88:	eb01005f 	cmp	x2, x1
     a8c:	54000042 	b.cs	a94 <raw_malloc_return_hook.constprop.21+0x40>  // b.hs, b.nlast
/home/hei/Desktop/optee-qemu/optee_os/lib/libutils/isoc/bget_malloc.c:218
     a90:	290f0c01 	stp	w1, w3, [x0, #120]
/home/hei/Desktop/optee-qemu/optee_os/lib/libutils/isoc/bget_malloc.c:222
     a94:	d65f03c0 	ret

0000000000000a98 <bget>:
bget():
/home/hei/Desktop/optee-qemu/optee_os/lib/libutils/isoc/bget.c:583
     a98:	a9bf7bfd 	stp	x29, x30, [sp, #-16]!
/home/hei/Desktop/optee-qemu/optee_os/lib/libutils/isoc/bget.c:594
     a9c:	f100001f 	cmp	x0, #0x0
/home/hei/Desktop/optee-qemu/optee_os/lib/libutils/isoc/bget.c:583
     aa0:	910003fd 	mov	x29, sp
/home/hei/Desktop/optee-qemu/optee_os/lib/libutils/isoc/bget.c:594
     aa4:	5400014c 	b.gt	acc <bget+0x34>
/home/hei/Desktop/optee-qemu/optee_os/lib/libutils/isoc/bget.c:594 (discriminator 1)
     aa8:	d0000043 	adrp	x3, a000 <__text_end+0x12f4>
     aac:	d0000041 	adrp	x1, a000 <__text_end+0x12f4>
     ab0:	f0000040 	adrp	x0, b000 <__func__.3755+0x98>
     ab4:	913c8c63 	add	x3, x3, #0xf23
     ab8:	913dec21 	add	x1, x1, #0xf7b
     abc:	9107a000 	add	x0, x0, #0x1e8
     ac0:	52804a42 	mov	w2, #0x252                 	// #594
/home/hei/Desktop/optee-qemu/optee_os/lib/libutils/isoc/bget.c:658 (discriminator 1)
     ac4:	940006a3 	bl	2550 <_assert_log>
     ac8:	940006b3 	bl	2594 <_assert_break>
/home/hei/Desktop/optee-qemu/optee_os/lib/libutils/isoc/bget.c:601
     acc:	f100401f 	cmp	x0, #0x10
     ad0:	d2800202 	mov	x2, #0x10                  	// #16
     ad4:	9a82a000 	csel	x0, x0, x2, ge  // ge = tcont
     ad8:	b1003c02 	adds	x2, x0, #0xf
     adc:	54000144 	b.mi	b04 <bget+0x6c>  // b.first
     ae0:	eb00005f 	cmp	x2, x0
     ae4:	54000103 	b.cc	b04 <bget+0x6c>  // b.lo, b.ul, b.last
/home/hei/Desktop/optee-qemu/optee_os/lib/libutils/isoc/bget.c:604
     ae8:	927cec40 	and	x0, x2, #0xfffffffffffffff0
/home/hei/Desktop/optee-qemu/optee_os/lib/libutils/isoc/bget.c:609
     aec:	91004003 	add	x3, x0, #0x10
     af0:	eb00007f 	cmp	x3, x0
     af4:	5400008b 	b.lt	b04 <bget+0x6c>  // b.tstop
/home/hei/Desktop/optee-qemu/optee_os/lib/libutils/isoc/bget.c:619
     af8:	f9400820 	ldr	x0, [x1, #16]
/home/hei/Desktop/optee-qemu/optee_os/lib/libutils/isoc/bget.c:641
     afc:	eb00003f 	cmp	x1, x0
     b00:	54000061 	b.ne	b0c <bget+0x74>  // b.any
/home/hei/Desktop/optee-qemu/optee_os/lib/libutils/isoc/bget.c:602
     b04:	d2800000 	mov	x0, #0x0                   	// #0
     b08:	1400001e 	b	b80 <bget+0xe8>
/home/hei/Desktop/optee-qemu/optee_os/lib/libutils/isoc/bget.c:642
     b0c:	f9400402 	ldr	x2, [x0, #8]
     b10:	eb02007f 	cmp	x3, x2
     b14:	540009ec 	b.gt	c50 <bget+0x1b8>
/home/hei/Desktop/optee-qemu/optee_os/lib/libutils/isoc/bget.c:653
     b18:	cb030044 	sub	x4, x2, x3
     b1c:	f100809f 	cmp	x4, #0x20
     b20:	5400034d 	b.le	b88 <bget+0xf0>
/home/hei/Desktop/optee-qemu/optee_os/lib/libutils/isoc/bget.c:656
     b24:	8b040005 	add	x5, x0, x4
/home/hei/Desktop/optee-qemu/optee_os/lib/libutils/isoc/bget.c:658
     b28:	f86368a6 	ldr	x6, [x5, x3]
     b2c:	eb06005f 	cmp	x2, x6
     b30:	54000120 	b.eq	b54 <bget+0xbc>  // b.none
/home/hei/Desktop/optee-qemu/optee_os/lib/libutils/isoc/bget.c:658 (discriminator 1)
     b34:	d0000043 	adrp	x3, a000 <__text_end+0x12f4>
     b38:	d0000041 	adrp	x1, a000 <__text_end+0x12f4>
     b3c:	d0000040 	adrp	x0, a000 <__text_end+0x12f4>
     b40:	913c8c63 	add	x3, x3, #0xf23
     b44:	52805242 	mov	w2, #0x292                 	// #658
     b48:	913dec21 	add	x1, x1, #0xf7b
     b4c:	913e5000 	add	x0, x0, #0xf94
     b50:	17ffffdd 	b	ac4 <bget+0x2c>
/home/hei/Desktop/optee-qemu/optee_os/lib/libutils/isoc/bget.c:660
     b54:	f9000404 	str	x4, [x0, #8]
/home/hei/Desktop/optee-qemu/optee_os/lib/libutils/isoc/bget.c:662
     b58:	f8246804 	str	x4, [x0, x4]
/home/hei/Desktop/optee-qemu/optee_os/lib/libutils/isoc/bget.c:664
     b5c:	cb0303e0 	neg	x0, x3
     b60:	f90004a0 	str	x0, [x5, #8]
/home/hei/Desktop/optee-qemu/optee_os/lib/libutils/isoc/bget.c:669
     b64:	f9401020 	ldr	x0, [x1, #32]
/home/hei/Desktop/optee-qemu/optee_os/lib/libutils/isoc/bget.c:666
     b68:	f82368bf 	str	xzr, [x5, x3]
/home/hei/Desktop/optee-qemu/optee_os/lib/libutils/isoc/bget.c:669
     b6c:	8b030003 	add	x3, x0, x3
/home/hei/Desktop/optee-qemu/optee_os/lib/libutils/isoc/bget.c:670
     b70:	f9401420 	ldr	x0, [x1, #40]
     b74:	91000400 	add	x0, x0, #0x1
     b78:	a9020023 	stp	x3, x0, [x1, #32]
/home/hei/Desktop/optee-qemu/optee_os/lib/libutils/isoc/bget.c:672
     b7c:	910040a0 	add	x0, x5, #0x10
/home/hei/Desktop/optee-qemu/optee_os/lib/libutils/isoc/bget.c:770
     b80:	a8c17bfd 	ldp	x29, x30, [sp], #16
     b84:	d65f03c0 	ret
/home/hei/Desktop/optee-qemu/optee_os/lib/libutils/isoc/bget.c:679
     b88:	f8626803 	ldr	x3, [x0, x2]
/home/hei/Desktop/optee-qemu/optee_os/lib/libutils/isoc/bget.c:678
     b8c:	8b020005 	add	x5, x0, x2
/home/hei/Desktop/optee-qemu/optee_os/lib/libutils/isoc/bget.c:679
     b90:	eb03005f 	cmp	x2, x3
     b94:	54000120 	b.eq	bb8 <bget+0x120>  // b.none
/home/hei/Desktop/optee-qemu/optee_os/lib/libutils/isoc/bget.c:679 (discriminator 1)
     b98:	d0000043 	adrp	x3, a000 <__text_end+0x12f4>
     b9c:	d0000041 	adrp	x1, a000 <__text_end+0x12f4>
     ba0:	d0000040 	adrp	x0, a000 <__text_end+0x12f4>
     ba4:	913c8c63 	add	x3, x3, #0xf23
     ba8:	528054e2 	mov	w2, #0x2a7                 	// #679
     bac:	913dec21 	add	x1, x1, #0xf7b
     bb0:	913ec000 	add	x0, x0, #0xfb0
     bb4:	17ffffc4 	b	ac4 <bget+0x2c>
/home/hei/Desktop/optee-qemu/optee_os/lib/libutils/isoc/bget.c:684
     bb8:	f9400c03 	ldr	x3, [x0, #24]
     bbc:	f9400864 	ldr	x4, [x3, #16]
     bc0:	eb00009f 	cmp	x4, x0
     bc4:	54000120 	b.eq	be8 <bget+0x150>  // b.none
/home/hei/Desktop/optee-qemu/optee_os/lib/libutils/isoc/bget.c:684 (discriminator 1)
     bc8:	d0000043 	adrp	x3, a000 <__text_end+0x12f4>
     bcc:	d0000041 	adrp	x1, a000 <__text_end+0x12f4>
     bd0:	d0000040 	adrp	x0, a000 <__text_end+0x12f4>
     bd4:	913c8c63 	add	x3, x3, #0xf23
     bd8:	52805582 	mov	w2, #0x2ac                 	// #684
     bdc:	913dec21 	add	x1, x1, #0xf7b
     be0:	913f3000 	add	x0, x0, #0xfcc
     be4:	17ffffb8 	b	ac4 <bget+0x2c>
/home/hei/Desktop/optee-qemu/optee_os/lib/libutils/isoc/bget.c:685
     be8:	f9400804 	ldr	x4, [x0, #16]
     bec:	f9400c86 	ldr	x6, [x4, #24]
     bf0:	eb0000df 	cmp	x6, x0
     bf4:	54000120 	b.eq	c18 <bget+0x180>  // b.none
/home/hei/Desktop/optee-qemu/optee_os/lib/libutils/isoc/bget.c:685 (discriminator 1)
     bf8:	d0000043 	adrp	x3, a000 <__text_end+0x12f4>
     bfc:	d0000041 	adrp	x1, a000 <__text_end+0x12f4>
     c00:	d0000040 	adrp	x0, a000 <__text_end+0x12f4>
     c04:	913c8c63 	add	x3, x3, #0xf23
     c08:	528055a2 	mov	w2, #0x2ad                 	// #685
     c0c:	913dec21 	add	x1, x1, #0xf7b
     c10:	913f9c00 	add	x0, x0, #0xfe7
     c14:	17ffffac 	b	ac4 <bget+0x2c>
/home/hei/Desktop/optee-qemu/optee_os/lib/libutils/isoc/bget.c:686
     c18:	f9000864 	str	x4, [x3, #16]
/home/hei/Desktop/optee-qemu/optee_os/lib/libutils/isoc/bget.c:701
     c1c:	91004000 	add	x0, x0, #0x10
/home/hei/Desktop/optee-qemu/optee_os/lib/libutils/isoc/bget.c:687
     c20:	f9400004 	ldr	x4, [x0]
     c24:	f9000c83 	str	x3, [x4, #24]
/home/hei/Desktop/optee-qemu/optee_os/lib/libutils/isoc/bget.c:690
     c28:	f9401023 	ldr	x3, [x1, #32]
     c2c:	8b020063 	add	x3, x3, x2
     c30:	f9001023 	str	x3, [x1, #32]
/home/hei/Desktop/optee-qemu/optee_os/lib/libutils/isoc/bget.c:691
     c34:	f9401423 	ldr	x3, [x1, #40]
/home/hei/Desktop/optee-qemu/optee_os/lib/libutils/isoc/bget.c:694
     c38:	cb0203e2 	neg	x2, x2
/home/hei/Desktop/optee-qemu/optee_os/lib/libutils/isoc/bget.c:691
     c3c:	91000463 	add	x3, x3, #0x1
     c40:	f9001423 	str	x3, [x1, #40]
/home/hei/Desktop/optee-qemu/optee_os/lib/libutils/isoc/bget.c:694
     c44:	f81f8002 	stur	x2, [x0, #-8]
/home/hei/Desktop/optee-qemu/optee_os/lib/libutils/isoc/bget.c:698
     c48:	f90000bf 	str	xzr, [x5]
/home/hei/Desktop/optee-qemu/optee_os/lib/libutils/isoc/bget.c:703
     c4c:	17ffffcd 	b	b80 <bget+0xe8>
/home/hei/Desktop/optee-qemu/optee_os/lib/libutils/isoc/bget.c:706
     c50:	f9400800 	ldr	x0, [x0, #16]
     c54:	17ffffaa 	b	afc <bget+0x64>

0000000000000c58 <bgetz>:
bgetz():
/home/hei/Desktop/optee-qemu/optee_os/lib/libutils/isoc/bget.c:779
     c58:	a9be7bfd 	stp	x29, x30, [sp, #-32]!
     c5c:	910003fd 	mov	x29, sp
     c60:	f9000bf3 	str	x19, [sp, #16]
     c64:	aa0003f3 	mov	x19, x0
/home/hei/Desktop/optee-qemu/optee_os/lib/libutils/isoc/bget.c:780
     c68:	97ffff8c 	bl	a98 <bget>
     c6c:	aa0003e3 	mov	x3, x0
/home/hei/Desktop/optee-qemu/optee_os/lib/libutils/isoc/bget.c:782
     c70:	b4000320 	cbz	x0, cd4 <bgetz+0x7c>
/home/hei/Desktop/optee-qemu/optee_os/lib/libutils/isoc/bget.c:787
     c74:	f85f8000 	ldur	x0, [x0, #-8]
/home/hei/Desktop/optee-qemu/optee_os/lib/libutils/isoc/bget.c:788
     c78:	b50001e0 	cbnz	x0, cb4 <bgetz+0x5c>
/home/hei/Desktop/optee-qemu/optee_os/lib/libutils/isoc/bget.c:792
     c7c:	f85e8062 	ldur	x2, [x3, #-24]
     c80:	d1006042 	sub	x2, x2, #0x18
/home/hei/Desktop/optee-qemu/optee_os/lib/libutils/isoc/bget.c:796
     c84:	eb13005f 	cmp	x2, x19
     c88:	540001ca 	b.ge	cc0 <bgetz+0x68>  // b.tcont
     c8c:	d0000043 	adrp	x3, a000 <__text_end+0x12f4>
     c90:	913c8c63 	add	x3, x3, #0xf23
     c94:	91001463 	add	x3, x3, #0x5
     c98:	d0000041 	adrp	x1, a000 <__text_end+0x12f4>
     c9c:	f0000040 	adrp	x0, b000 <__func__.3755+0x98>
     ca0:	913dec21 	add	x1, x1, #0xf7b
     ca4:	91000800 	add	x0, x0, #0x2
     ca8:	52806382 	mov	w2, #0x31c                 	// #796
     cac:	94000629 	bl	2550 <_assert_log>
     cb0:	94000639 	bl	2594 <_assert_break>
/home/hei/Desktop/optee-qemu/optee_os/lib/libutils/isoc/bget.c:794
     cb4:	928001e2 	mov	x2, #0xfffffffffffffff0    	// #-16
     cb8:	cb000042 	sub	x2, x2, x0
     cbc:	17fffff2 	b	c84 <bgetz+0x2c>
memset_unchecked():
/home/hei/Desktop/optee-qemu/optee_os/lib/libutils/isoc/bget_malloc.c:130
     cc0:	aa0303e0 	mov	x0, x3
     cc4:	93407c42 	sxtw	x2, w2
     cc8:	52800001 	mov	w1, #0x0                   	// #0
     ccc:	94000273 	bl	1698 <memset>
     cd0:	aa0003e3 	mov	x3, x0
bgetz():
/home/hei/Desktop/optee-qemu/optee_os/lib/libutils/isoc/bget.c:800
     cd4:	aa0303e0 	mov	x0, x3
     cd8:	f9400bf3 	ldr	x19, [sp, #16]
     cdc:	a8c27bfd 	ldp	x29, x30, [sp], #32
     ce0:	d65f03c0 	ret

0000000000000ce4 <brel>:
brel():
/home/hei/Desktop/optee-qemu/optee_os/lib/libutils/isoc/bget.c:852
     ce4:	a9be7bfd 	stp	x29, x30, [sp, #-32]!
     ce8:	910003fd 	mov	x29, sp
/home/hei/Desktop/optee-qemu/optee_os/lib/libutils/isoc/bget.c:858
     cec:	f9401823 	ldr	x3, [x1, #48]
/home/hei/Desktop/optee-qemu/optee_os/lib/libutils/isoc/bget.c:852
     cf0:	a90153f3 	stp	x19, x20, [sp, #16]
/home/hei/Desktop/optee-qemu/optee_os/lib/libutils/isoc/bget.c:858
     cf4:	91000463 	add	x3, x3, #0x1
     cf8:	f9001823 	str	x3, [x1, #48]
/home/hei/Desktop/optee-qemu/optee_os/lib/libutils/isoc/bget.c:860
     cfc:	b5000160 	cbnz	x0, d28 <brel+0x44>
/home/hei/Desktop/optee-qemu/optee_os/lib/libutils/isoc/bget.c:860 (discriminator 1)
     d00:	d0000043 	adrp	x3, a000 <__text_end+0x12f4>
     d04:	913c8c63 	add	x3, x3, #0xf23
     d08:	d0000041 	adrp	x1, a000 <__text_end+0x12f4>
     d0c:	f0000040 	adrp	x0, b000 <__func__.3755+0x98>
     d10:	91002c63 	add	x3, x3, #0xb
     d14:	913dec21 	add	x1, x1, #0xf7b
     d18:	91004000 	add	x0, x0, #0x10
     d1c:	52806b82 	mov	w2, #0x35c                 	// #860
/home/hei/Desktop/optee-qemu/optee_os/lib/libutils/isoc/bget.c:895 (discriminator 1)
     d20:	9400060c 	bl	2550 <_assert_log>
     d24:	9400061c 	bl	2594 <_assert_break>
/home/hei/Desktop/optee-qemu/optee_os/lib/libutils/isoc/bget.c:892
     d28:	f85f8003 	ldur	x3, [x0, #-8]
/home/hei/Desktop/optee-qemu/optee_os/lib/libutils/isoc/bget.c:895
     d2c:	b7f80143 	tbnz	x3, #63, d54 <brel+0x70>
/home/hei/Desktop/optee-qemu/optee_os/lib/libutils/isoc/bget.c:895 (discriminator 1)
     d30:	d0000043 	adrp	x3, a000 <__text_end+0x12f4>
     d34:	913c8c63 	add	x3, x3, #0xf23
     d38:	d0000041 	adrp	x1, a000 <__text_end+0x12f4>
     d3c:	f0000040 	adrp	x0, b000 <__func__.3755+0x98>
     d40:	91002c63 	add	x3, x3, #0xb
     d44:	52806fe2 	mov	w2, #0x37f                 	// #895
     d48:	913dec21 	add	x1, x1, #0xf7b
     d4c:	91007000 	add	x0, x0, #0x1c
     d50:	17fffff4 	b	d20 <brel+0x3c>
     d54:	d1004013 	sub	x19, x0, #0x10
/home/hei/Desktop/optee-qemu/optee_os/lib/libutils/isoc/bget.c:901
     d58:	cb030264 	sub	x4, x19, x3
     d5c:	f9400084 	ldr	x4, [x4]
     d60:	b4000144 	cbz	x4, d88 <brel+0xa4>
/home/hei/Desktop/optee-qemu/optee_os/lib/libutils/isoc/bget.c:901 (discriminator 1)
     d64:	d0000043 	adrp	x3, a000 <__text_end+0x12f4>
     d68:	913c8c63 	add	x3, x3, #0xf23
     d6c:	d0000041 	adrp	x1, a000 <__text_end+0x12f4>
     d70:	f0000040 	adrp	x0, b000 <__func__.3755+0x98>
     d74:	91002c63 	add	x3, x3, #0xb
     d78:	528070a2 	mov	w2, #0x385                 	// #901
     d7c:	913dec21 	add	x1, x1, #0xf7b
     d80:	9100b000 	add	x0, x0, #0x2c
     d84:	17ffffe7 	b	d20 <brel+0x3c>
/home/hei/Desktop/optee-qemu/optee_os/lib/libutils/isoc/bget.c:904
     d88:	f9401024 	ldr	x4, [x1, #32]
     d8c:	8b040064 	add	x4, x3, x4
     d90:	f9001024 	str	x4, [x1, #32]
/home/hei/Desktop/optee-qemu/optee_os/lib/libutils/isoc/bget.c:905
     d94:	b6f80144 	tbz	x4, #63, dbc <brel+0xd8>
/home/hei/Desktop/optee-qemu/optee_os/lib/libutils/isoc/bget.c:905 (discriminator 1)
     d98:	d0000043 	adrp	x3, a000 <__text_end+0x12f4>
     d9c:	913c8c63 	add	x3, x3, #0xf23
     da0:	d0000041 	adrp	x1, a000 <__text_end+0x12f4>
     da4:	f0000040 	adrp	x0, b000 <__func__.3755+0x98>
     da8:	91002c63 	add	x3, x3, #0xb
     dac:	52807122 	mov	w2, #0x389                 	// #905
     db0:	913dec21 	add	x1, x1, #0xf7b
     db4:	91016000 	add	x0, x0, #0x58
     db8:	17ffffda 	b	d20 <brel+0x3c>
/home/hei/Desktop/optee-qemu/optee_os/lib/libutils/isoc/bget.c:910
     dbc:	f85f0004 	ldur	x4, [x0, #-16]
     dc0:	b4000424 	cbz	x4, e44 <brel+0x160>
/home/hei/Desktop/optee-qemu/optee_os/lib/libutils/isoc/bget.c:921
     dc4:	cb040273 	sub	x19, x19, x4
     dc8:	f9400660 	ldr	x0, [x19, #8]
     dcc:	eb00009f 	cmp	x4, x0
     dd0:	54000140 	b.eq	df8 <brel+0x114>  // b.none
/home/hei/Desktop/optee-qemu/optee_os/lib/libutils/isoc/bget.c:921 (discriminator 1)
     dd4:	d0000043 	adrp	x3, a000 <__text_end+0x12f4>
     dd8:	913c8c63 	add	x3, x3, #0xf23
     ddc:	d0000041 	adrp	x1, a000 <__text_end+0x12f4>
     de0:	f0000040 	adrp	x0, b000 <__func__.3755+0x98>
     de4:	91002c63 	add	x3, x3, #0xb
     de8:	52807322 	mov	w2, #0x399                 	// #921
     dec:	913dec21 	add	x1, x1, #0xf7b
     df0:	9101bc00 	add	x0, x0, #0x6f
     df4:	17ffffcb 	b	d20 <brel+0x3c>
/home/hei/Desktop/optee-qemu/optee_os/lib/libutils/isoc/bget.c:923
     df8:	cb030083 	sub	x3, x4, x3
     dfc:	f9000663 	str	x3, [x19, #8]
/home/hei/Desktop/optee-qemu/optee_os/lib/libutils/isoc/bget.c:943
     e00:	f9400660 	ldr	x0, [x19, #8]
     e04:	8b000274 	add	x20, x19, x0
/home/hei/Desktop/optee-qemu/optee_os/lib/libutils/isoc/bget.c:944
     e08:	f9400681 	ldr	x1, [x20, #8]
     e0c:	f100003f 	cmp	x1, #0x0
     e10:	540009ad 	b.le	f44 <brel+0x260>
/home/hei/Desktop/optee-qemu/optee_os/lib/libutils/isoc/bget.c:949
     e14:	f8616a83 	ldr	x3, [x20, x1]
     e18:	eb03003f 	cmp	x1, x3
     e1c:	54000560 	b.eq	ec8 <brel+0x1e4>  // b.none
/home/hei/Desktop/optee-qemu/optee_os/lib/libutils/isoc/bget.c:949 (discriminator 1)
     e20:	d0000043 	adrp	x3, a000 <__text_end+0x12f4>
     e24:	913c8c63 	add	x3, x3, #0xf23
     e28:	d0000041 	adrp	x1, a000 <__text_end+0x12f4>
     e2c:	f0000040 	adrp	x0, b000 <__func__.3755+0x98>
     e30:	91002c63 	add	x3, x3, #0xb
     e34:	528076a2 	mov	w2, #0x3b5                 	// #949
     e38:	913dec21 	add	x1, x1, #0xf7b
     e3c:	91047800 	add	x0, x0, #0x11e
     e40:	17ffffb8 	b	d20 <brel+0x3c>
/home/hei/Desktop/optee-qemu/optee_os/lib/libutils/isoc/bget.c:929
     e44:	f9400c25 	ldr	x5, [x1, #24]
     e48:	f94008a4 	ldr	x4, [x5, #16]
     e4c:	eb01009f 	cmp	x4, x1
     e50:	54000140 	b.eq	e78 <brel+0x194>  // b.none
/home/hei/Desktop/optee-qemu/optee_os/lib/libutils/isoc/bget.c:929 (discriminator 1)
     e54:	d0000043 	adrp	x3, a000 <__text_end+0x12f4>
     e58:	913c8c63 	add	x3, x3, #0xf23
     e5c:	d0000041 	adrp	x1, a000 <__text_end+0x12f4>
     e60:	f0000040 	adrp	x0, b000 <__func__.3755+0x98>
     e64:	91002c63 	add	x3, x3, #0xb
     e68:	52807422 	mov	w2, #0x3a1                 	// #929
     e6c:	913dec21 	add	x1, x1, #0xf7b
     e70:	9102a000 	add	x0, x0, #0xa8
     e74:	17ffffab 	b	d20 <brel+0x3c>
/home/hei/Desktop/optee-qemu/optee_os/lib/libutils/isoc/bget.c:930
     e78:	f9400881 	ldr	x1, [x4, #16]
     e7c:	f9400c21 	ldr	x1, [x1, #24]
     e80:	eb01009f 	cmp	x4, x1
     e84:	54000140 	b.eq	eac <brel+0x1c8>  // b.none
/home/hei/Desktop/optee-qemu/optee_os/lib/libutils/isoc/bget.c:930 (discriminator 1)
     e88:	d0000043 	adrp	x3, a000 <__text_end+0x12f4>
     e8c:	913c8c63 	add	x3, x3, #0xf23
     e90:	d0000041 	adrp	x1, a000 <__text_end+0x12f4>
     e94:	f0000040 	adrp	x0, b000 <__func__.3755+0x98>
     e98:	91002c63 	add	x3, x3, #0xb
     e9c:	52807442 	mov	w2, #0x3a2                 	// #930
     ea0:	913dec21 	add	x1, x1, #0xf7b
     ea4:	91038c00 	add	x0, x0, #0xe3
     ea8:	17ffff9e 	b	d20 <brel+0x3c>
/home/hei/Desktop/optee-qemu/optee_os/lib/libutils/isoc/bget.c:932
     eac:	a9011664 	stp	x4, x5, [x19, #16]
/home/hei/Desktop/optee-qemu/optee_os/lib/libutils/isoc/bget.c:896
     eb0:	cb0303e3 	neg	x3, x3
/home/hei/Desktop/optee-qemu/optee_os/lib/libutils/isoc/bget.c:933
     eb4:	f9000c93 	str	x19, [x4, #24]
/home/hei/Desktop/optee-qemu/optee_os/lib/libutils/isoc/bget.c:934
     eb8:	f9400e61 	ldr	x1, [x19, #24]
     ebc:	f9000833 	str	x19, [x1, #16]
/home/hei/Desktop/optee-qemu/optee_os/lib/libutils/isoc/bget.c:935
     ec0:	f81f8003 	stur	x3, [x0, #-8]
     ec4:	17ffffcf 	b	e00 <brel+0x11c>
/home/hei/Desktop/optee-qemu/optee_os/lib/libutils/isoc/bget.c:950
     ec8:	f9400e84 	ldr	x4, [x20, #24]
     ecc:	f9400885 	ldr	x5, [x4, #16]
     ed0:	eb1400bf 	cmp	x5, x20
     ed4:	54000140 	b.eq	efc <brel+0x218>  // b.none
/home/hei/Desktop/optee-qemu/optee_os/lib/libutils/isoc/bget.c:950 (discriminator 1)
     ed8:	d0000043 	adrp	x3, a000 <__text_end+0x12f4>
     edc:	913c8c63 	add	x3, x3, #0xf23
     ee0:	d0000041 	adrp	x1, a000 <__text_end+0x12f4>
     ee4:	f0000040 	adrp	x0, b000 <__func__.3755+0x98>
     ee8:	91002c63 	add	x3, x3, #0xb
     eec:	528076c2 	mov	w2, #0x3b6                 	// #950
     ef0:	913dec21 	add	x1, x1, #0xf7b
     ef4:	91055c00 	add	x0, x0, #0x157
     ef8:	17ffff8a 	b	d20 <brel+0x3c>
/home/hei/Desktop/optee-qemu/optee_os/lib/libutils/isoc/bget.c:951
     efc:	f94008a3 	ldr	x3, [x5, #16]
     f00:	f9400c66 	ldr	x6, [x3, #24]
     f04:	eb0500df 	cmp	x6, x5
     f08:	54000140 	b.eq	f30 <brel+0x24c>  // b.none
/home/hei/Desktop/optee-qemu/optee_os/lib/libutils/isoc/bget.c:951 (discriminator 1)
     f0c:	d0000043 	adrp	x3, a000 <__text_end+0x12f4>
     f10:	913c8c63 	add	x3, x3, #0xf23
     f14:	d0000041 	adrp	x1, a000 <__text_end+0x12f4>
     f18:	f0000040 	adrp	x0, b000 <__func__.3755+0x98>
     f1c:	91002c63 	add	x3, x3, #0xb
     f20:	528076e2 	mov	w2, #0x3b7                 	// #951
     f24:	913dec21 	add	x1, x1, #0xf7b
     f28:	9105d000 	add	x0, x0, #0x174
     f2c:	17ffff7d 	b	d20 <brel+0x3c>
/home/hei/Desktop/optee-qemu/optee_os/lib/libutils/isoc/bget.c:952
     f30:	f9000883 	str	x3, [x4, #16]
/home/hei/Desktop/optee-qemu/optee_os/lib/libutils/isoc/bget.c:954
     f34:	8b010014 	add	x20, x0, x1
/home/hei/Desktop/optee-qemu/optee_os/lib/libutils/isoc/bget.c:953
     f38:	f9000c64 	str	x4, [x3, #24]
/home/hei/Desktop/optee-qemu/optee_os/lib/libutils/isoc/bget.c:954
     f3c:	f9000674 	str	x20, [x19, #8]
/home/hei/Desktop/optee-qemu/optee_os/lib/libutils/isoc/bget.c:963
     f40:	8b140274 	add	x20, x19, x20
/home/hei/Desktop/optee-qemu/optee_os/lib/libutils/isoc/bget.c:965
     f44:	340000e2 	cbz	w2, f60 <brel+0x27c>
/home/hei/Desktop/optee-qemu/optee_os/lib/libutils/isoc/bget.c:967
     f48:	f9400662 	ldr	x2, [x19, #8]
memset_unchecked():
/home/hei/Desktop/optee-qemu/optee_os/lib/libutils/isoc/bget_malloc.c:130
     f4c:	52800aa1 	mov	w1, #0x55                  	// #85
     f50:	91008260 	add	x0, x19, #0x20
brel():
/home/hei/Desktop/optee-qemu/optee_os/lib/libutils/isoc/bget.c:967
     f54:	51008042 	sub	w2, w2, #0x20
memset_unchecked():
/home/hei/Desktop/optee-qemu/optee_os/lib/libutils/isoc/bget_malloc.c:130
     f58:	93407c42 	sxtw	x2, w2
     f5c:	940001cf 	bl	1698 <memset>
brel():
/home/hei/Desktop/optee-qemu/optee_os/lib/libutils/isoc/bget.c:969
     f60:	f9400680 	ldr	x0, [x20, #8]
     f64:	b7f80140 	tbnz	x0, #63, f8c <brel+0x2a8>
/home/hei/Desktop/optee-qemu/optee_os/lib/libutils/isoc/bget.c:969 (discriminator 1)
     f68:	d0000043 	adrp	x3, a000 <__text_end+0x12f4>
     f6c:	913c8c63 	add	x3, x3, #0xf23
     f70:	d0000041 	adrp	x1, a000 <__text_end+0x12f4>
     f74:	f0000040 	adrp	x0, b000 <__func__.3755+0x98>
     f78:	91002c63 	add	x3, x3, #0xb
     f7c:	52807922 	mov	w2, #0x3c9                 	// #969
     f80:	913dec21 	add	x1, x1, #0xf7b
     f84:	91064400 	add	x0, x0, #0x191
     f88:	17ffff66 	b	d20 <brel+0x3c>
/home/hei/Desktop/optee-qemu/optee_os/lib/libutils/isoc/bget.c:974
     f8c:	f9400660 	ldr	x0, [x19, #8]
     f90:	f9000280 	str	x0, [x20]
/home/hei/Desktop/optee-qemu/optee_os/lib/libutils/isoc/bget.c:1002
     f94:	a94153f3 	ldp	x19, x20, [sp, #16]
     f98:	a8c27bfd 	ldp	x29, x30, [sp], #32
     f9c:	d65f03c0 	ret

0000000000000fa0 <bgetr>:
bgetr():
/home/hei/Desktop/optee-qemu/optee_os/lib/libutils/isoc/bget.c:811
     fa0:	a9bc7bfd 	stp	x29, x30, [sp, #-64]!
     fa4:	910003fd 	mov	x29, sp
     fa8:	a90153f3 	stp	x19, x20, [sp, #16]
     fac:	aa0103f4 	mov	x20, x1
/home/hei/Desktop/optee-qemu/optee_os/lib/libutils/isoc/bget.c:816
     fb0:	aa0203e1 	mov	x1, x2
/home/hei/Desktop/optee-qemu/optee_os/lib/libutils/isoc/bget.c:811
     fb4:	a9025bf5 	stp	x21, x22, [sp, #32]
     fb8:	aa0003f5 	mov	x21, x0
/home/hei/Desktop/optee-qemu/optee_os/lib/libutils/isoc/bget.c:816
     fbc:	aa1403e0 	mov	x0, x20
/home/hei/Desktop/optee-qemu/optee_os/lib/libutils/isoc/bget.c:811
     fc0:	f9001bf7 	str	x23, [sp, #48]
     fc4:	aa0203f7 	mov	x23, x2
/home/hei/Desktop/optee-qemu/optee_os/lib/libutils/isoc/bget.c:816
     fc8:	97fffeb4 	bl	a98 <bget>
     fcc:	aa0003f6 	mov	x22, x0
     fd0:	b4000420 	cbz	x0, 1054 <bgetr+0xb4>
/home/hei/Desktop/optee-qemu/optee_os/lib/libutils/isoc/bget.c:819
     fd4:	b4000415 	cbz	x21, 1054 <bgetr+0xb4>
/home/hei/Desktop/optee-qemu/optee_os/lib/libutils/isoc/bget.c:833
     fd8:	f85f82a1 	ldur	x1, [x21, #-8]
     fdc:	928001f3 	mov	x19, #0xfffffffffffffff0    	// #-16
     fe0:	cb010273 	sub	x19, x19, x1
/home/hei/Desktop/optee-qemu/optee_os/lib/libutils/isoc/bget.c:834
     fe4:	f100027f 	cmp	x19, #0x0
     fe8:	5400016c 	b.gt	1014 <bgetr+0x74>
     fec:	d0000043 	adrp	x3, a000 <__text_end+0x12f4>
     ff0:	913c8c63 	add	x3, x3, #0xf23
     ff4:	91004063 	add	x3, x3, #0x10
     ff8:	d0000041 	adrp	x1, a000 <__text_end+0x12f4>
     ffc:	f0000040 	adrp	x0, b000 <__func__.3755+0x98>
    1000:	913dec21 	add	x1, x1, #0xf7b
    1004:	91068800 	add	x0, x0, #0x1a2
    1008:	52806842 	mov	w2, #0x342                 	// #834
    100c:	94000551 	bl	2550 <_assert_log>
    1010:	94000561 	bl	2594 <_assert_break>
/home/hei/Desktop/optee-qemu/optee_os/lib/libutils/isoc/bget.c:835
    1014:	eb13029f 	cmp	x20, x19
    1018:	93407e81 	sxtw	x1, w20
    101c:	93407e62 	sxtw	x2, w19
    1020:	9a81a042 	csel	x2, x2, x1, ge  // ge = tcont
    1024:	aa1503e1 	mov	x1, x21
    1028:	97fffd47 	bl	544 <memcpy>
/home/hei/Desktop/optee-qemu/optee_os/lib/libutils/isoc/bget.c:839
    102c:	eb13029f 	cmp	x20, x19
    1030:	540000ad 	b.le	1044 <bgetr+0xa4>
/home/hei/Desktop/optee-qemu/optee_os/lib/libutils/isoc/bget.c:840
    1034:	cb130282 	sub	x2, x20, x19
    1038:	52800001 	mov	w1, #0x0                   	// #0
    103c:	8b1302c0 	add	x0, x22, x19
    1040:	94000196 	bl	1698 <memset>
/home/hei/Desktop/optee-qemu/optee_os/lib/libutils/isoc/bget.c:842
    1044:	52800002 	mov	w2, #0x0                   	// #0
    1048:	aa1703e1 	mov	x1, x23
    104c:	aa1503e0 	mov	x0, x21
    1050:	97ffff25 	bl	ce4 <brel>
/home/hei/Desktop/optee-qemu/optee_os/lib/libutils/isoc/bget.c:844
    1054:	aa1603e0 	mov	x0, x22
    1058:	a94153f3 	ldp	x19, x20, [sp, #16]
    105c:	a9425bf5 	ldp	x21, x22, [sp, #32]
    1060:	f9401bf7 	ldr	x23, [sp, #48]
    1064:	a8c47bfd 	ldp	x29, x30, [sp], #64
    1068:	d65f03c0 	ret

000000000000106c <bpool>:
bpool():
/home/hei/Desktop/optee-qemu/optee_os/lib/libutils/isoc/bget.c:1028
    106c:	a9bf7bfd 	stp	x29, x30, [sp, #-16]!
/home/hei/Desktop/optee-qemu/optee_os/lib/libutils/isoc/bget.c:1033
    1070:	927cec21 	and	x1, x1, #0xfffffffffffffff0
/home/hei/Desktop/optee-qemu/optee_os/lib/libutils/isoc/bget.c:1052
    1074:	f1004021 	subs	x1, x1, #0x10
/home/hei/Desktop/optee-qemu/optee_os/lib/libutils/isoc/bget.c:1028
    1078:	910003fd 	mov	x29, sp
/home/hei/Desktop/optee-qemu/optee_os/lib/libutils/isoc/bget.c:1052
    107c:	54000165 	b.pl	10a8 <bpool+0x3c>  // b.nfrst
/home/hei/Desktop/optee-qemu/optee_os/lib/libutils/isoc/bget.c:1052 (discriminator 1)
    1080:	b0000043 	adrp	x3, a000 <__text_end+0x12f4>
    1084:	913c8c63 	add	x3, x3, #0xf23
    1088:	b0000041 	adrp	x1, a000 <__text_end+0x12f4>
    108c:	d0000040 	adrp	x0, b000 <__func__.3755+0x98>
    1090:	91005863 	add	x3, x3, #0x16
    1094:	913dec21 	add	x1, x1, #0xf7b
    1098:	9106b000 	add	x0, x0, #0x1ac
    109c:	52808382 	mov	w2, #0x41c                 	// #1052
/home/hei/Desktop/optee-qemu/optee_os/lib/libutils/isoc/bget.c:1062 (discriminator 1)
    10a0:	9400052c 	bl	2550 <_assert_log>
    10a4:	9400053c 	bl	2594 <_assert_break>
/home/hei/Desktop/optee-qemu/optee_os/lib/libutils/isoc/bget.c:1062
    10a8:	f9400c44 	ldr	x4, [x2, #24]
    10ac:	f9400883 	ldr	x3, [x4, #16]
/home/hei/Desktop/optee-qemu/optee_os/lib/libutils/isoc/bget.c:1058
    10b0:	f900001f 	str	xzr, [x0]
/home/hei/Desktop/optee-qemu/optee_os/lib/libutils/isoc/bget.c:1062
    10b4:	eb02007f 	cmp	x3, x2
    10b8:	54000140 	b.eq	10e0 <bpool+0x74>  // b.none
/home/hei/Desktop/optee-qemu/optee_os/lib/libutils/isoc/bget.c:1062 (discriminator 1)
    10bc:	b0000043 	adrp	x3, a000 <__text_end+0x12f4>
    10c0:	913c8c63 	add	x3, x3, #0xf23
    10c4:	b0000041 	adrp	x1, a000 <__text_end+0x12f4>
    10c8:	d0000040 	adrp	x0, b000 <__func__.3755+0x98>
    10cc:	91005863 	add	x3, x3, #0x16
    10d0:	528084c2 	mov	w2, #0x426                 	// #1062
    10d4:	913dec21 	add	x1, x1, #0xf7b
    10d8:	9102a000 	add	x0, x0, #0xa8
    10dc:	17fffff1 	b	10a0 <bpool+0x34>
/home/hei/Desktop/optee-qemu/optee_os/lib/libutils/isoc/bget.c:1063
    10e0:	f9400862 	ldr	x2, [x3, #16]
    10e4:	f9400c42 	ldr	x2, [x2, #24]
    10e8:	eb02007f 	cmp	x3, x2
    10ec:	54000140 	b.eq	1114 <bpool+0xa8>  // b.none
    10f0:	b0000043 	adrp	x3, a000 <__text_end+0x12f4>
    10f4:	913c8c63 	add	x3, x3, #0xf23
    10f8:	b0000041 	adrp	x1, a000 <__text_end+0x12f4>
    10fc:	d0000040 	adrp	x0, b000 <__func__.3755+0x98>
    1100:	91005863 	add	x3, x3, #0x16
    1104:	528084e2 	mov	w2, #0x427                 	// #1063
    1108:	913dec21 	add	x1, x1, #0xf7b
    110c:	91038c00 	add	x0, x0, #0xe3
    1110:	17ffffe4 	b	10a0 <bpool+0x34>
/home/hei/Desktop/optee-qemu/optee_os/lib/libutils/isoc/bget.c:1065
    1114:	a9011003 	stp	x3, x4, [x0, #16]
/home/hei/Desktop/optee-qemu/optee_os/lib/libutils/isoc/bget.c:1066
    1118:	f9000c60 	str	x0, [x3, #24]
/home/hei/Desktop/optee-qemu/optee_os/lib/libutils/isoc/bget.c:1067
    111c:	f9400c02 	ldr	x2, [x0, #24]
    1120:	f9000840 	str	x0, [x2, #16]
/home/hei/Desktop/optee-qemu/optee_os/lib/libutils/isoc/bget.c:1083
    1124:	8b010002 	add	x2, x0, x1
/home/hei/Desktop/optee-qemu/optee_os/lib/libutils/isoc/bget.c:1078
    1128:	f9000401 	str	x1, [x0, #8]
/home/hei/Desktop/optee-qemu/optee_os/lib/libutils/isoc/bget.c:1084
    112c:	f8216801 	str	x1, [x0, x1]
/home/hei/Desktop/optee-qemu/optee_os/lib/libutils/isoc/bget.c:1087
    1130:	d2f00000 	mov	x0, #0x8000000000000000    	// #-9223372036854775808
    1134:	f9000440 	str	x0, [x2, #8]
/home/hei/Desktop/optee-qemu/optee_os/lib/libutils/isoc/bget.c:1088
    1138:	a8c17bfd 	ldp	x29, x30, [sp], #16
    113c:	d65f03c0 	ret

0000000000001140 <bstats>:
bstats():
/home/hei/Desktop/optee-qemu/optee_os/lib/libutils/isoc/bget.c:1101
    1140:	f94014a7 	ldr	x7, [x5, #40]
/home/hei/Desktop/optee-qemu/optee_os/lib/libutils/isoc/bget.c:1099
    1144:	f94008a6 	ldr	x6, [x5, #16]
/home/hei/Desktop/optee-qemu/optee_os/lib/libutils/isoc/bget.c:1101
    1148:	f9000067 	str	x7, [x3]
/home/hei/Desktop/optee-qemu/optee_os/lib/libutils/isoc/bget.c:1102
    114c:	f94018a3 	ldr	x3, [x5, #48]
    1150:	f9000083 	str	x3, [x4]
/home/hei/Desktop/optee-qemu/optee_os/lib/libutils/isoc/bget.c:1103
    1154:	f94010a3 	ldr	x3, [x5, #32]
    1158:	f9000003 	str	x3, [x0]
/home/hei/Desktop/optee-qemu/optee_os/lib/libutils/isoc/bget.c:1104
    115c:	f900003f 	str	xzr, [x1]
/home/hei/Desktop/optee-qemu/optee_os/lib/libutils/isoc/bget.c:1105
    1160:	92800000 	mov	x0, #0xffffffffffffffff    	// #-1
    1164:	f9000040 	str	x0, [x2]
/home/hei/Desktop/optee-qemu/optee_os/lib/libutils/isoc/bget.c:1106
    1168:	eb0600bf 	cmp	x5, x6
    116c:	54000041 	b.ne	1174 <bstats+0x34>  // b.any
    1170:	d65f03c0 	ret
/home/hei/Desktop/optee-qemu/optee_os/lib/libutils/isoc/bget.c:1107
    1174:	f94004c3 	ldr	x3, [x6, #8]
    1178:	f100007f 	cmp	x3, #0x0
    117c:	540001ac 	b.gt	11b0 <bstats+0x70>
/home/hei/Desktop/optee-qemu/optee_os/lib/libutils/isoc/bget.c:1107 (discriminator 1)
    1180:	b0000043 	adrp	x3, a000 <__text_end+0x12f4>
    1184:	913c8c63 	add	x3, x3, #0xf23
    1188:	91007063 	add	x3, x3, #0x1c
    118c:	b0000041 	adrp	x1, a000 <__text_end+0x12f4>
    1190:	d0000040 	adrp	x0, b000 <__func__.3755+0x98>
    1194:	913dec21 	add	x1, x1, #0xf7b
    1198:	91078400 	add	x0, x0, #0x1e1
/home/hei/Desktop/optee-qemu/optee_os/lib/libutils/isoc/bget.c:1098 (discriminator 1)
    119c:	a9bf7bfd 	stp	x29, x30, [sp, #-16]!
/home/hei/Desktop/optee-qemu/optee_os/lib/libutils/isoc/bget.c:1107 (discriminator 1)
    11a0:	52808a62 	mov	w2, #0x453                 	// #1107
/home/hei/Desktop/optee-qemu/optee_os/lib/libutils/isoc/bget.c:1098 (discriminator 1)
    11a4:	910003fd 	mov	x29, sp
/home/hei/Desktop/optee-qemu/optee_os/lib/libutils/isoc/bget.c:1107 (discriminator 1)
    11a8:	940004ea 	bl	2550 <_assert_log>
    11ac:	940004fa 	bl	2594 <_assert_break>
/home/hei/Desktop/optee-qemu/optee_os/lib/libutils/isoc/bget.c:1108
    11b0:	f9400020 	ldr	x0, [x1]
    11b4:	8b030000 	add	x0, x0, x3
    11b8:	f9000020 	str	x0, [x1]
/home/hei/Desktop/optee-qemu/optee_os/lib/libutils/isoc/bget.c:1109
    11bc:	f9400043 	ldr	x3, [x2]
    11c0:	f94004c0 	ldr	x0, [x6, #8]
    11c4:	eb03001f 	cmp	x0, x3
    11c8:	5400004d 	b.le	11d0 <bstats+0x90>
/home/hei/Desktop/optee-qemu/optee_os/lib/libutils/isoc/bget.c:1110
    11cc:	f9000040 	str	x0, [x2]
/home/hei/Desktop/optee-qemu/optee_os/lib/libutils/isoc/bget.c:1112
    11d0:	f94008c6 	ldr	x6, [x6, #16]
    11d4:	17ffffe5 	b	1168 <bstats+0x28>

00000000000011d8 <malloc_reset_stats>:
gen_malloc_reset_stats():
/home/hei/Desktop/optee-qemu/optee_os/lib/libutils/isoc/bget_malloc.c:228
    11d8:	f0000040 	adrp	x0, c000 <_DYNAMIC>
    11dc:	910fc000 	add	x0, x0, #0x3f0
    11e0:	b9006c1f 	str	wzr, [x0, #108]
/home/hei/Desktop/optee-qemu/optee_os/lib/libutils/isoc/bget_malloc.c:229
    11e4:	b900741f 	str	wzr, [x0, #116]
/home/hei/Desktop/optee-qemu/optee_os/lib/libutils/isoc/bget_malloc.c:230
    11e8:	f9003c1f 	str	xzr, [x0, #120]
malloc_reset_stats():
/home/hei/Desktop/optee-qemu/optee_os/lib/libutils/isoc/bget_malloc.c:238
    11ec:	d65f03c0 	ret

00000000000011f0 <malloc_get_stats>:
malloc_get_stats():
/home/hei/Desktop/optee-qemu/optee_os/lib/libutils/isoc/bget_malloc.c:251
    11f0:	a9be7bfd 	stp	x29, x30, [sp, #-32]!
memcpy_unchecked():
/home/hei/Desktop/optee-qemu/optee_os/lib/libutils/isoc/bget_malloc.c:136
    11f4:	d2800702 	mov	x2, #0x38                  	// #56
malloc_get_stats():
/home/hei/Desktop/optee-qemu/optee_os/lib/libutils/isoc/bget_malloc.c:251
    11f8:	910003fd 	mov	x29, sp
    11fc:	f9000bf3 	str	x19, [sp, #16]
memcpy_unchecked():
/home/hei/Desktop/optee-qemu/optee_os/lib/libutils/isoc/bget_malloc.c:136
    1200:	f0000053 	adrp	x19, c000 <_DYNAMIC>
    1204:	910fc273 	add	x19, x19, #0x3f0
    1208:	91012261 	add	x1, x19, #0x48
    120c:	97fffcce 	bl	544 <memcpy>
    1210:	aa0003e3 	mov	x3, x0
gen_malloc_get_stats():
/home/hei/Desktop/optee-qemu/optee_os/lib/libutils/isoc/bget_malloc.c:246
    1214:	f9401260 	ldr	x0, [x19, #32]
malloc_get_stats():
/home/hei/Desktop/optee-qemu/optee_os/lib/libutils/isoc/bget_malloc.c:253
    1218:	f9400bf3 	ldr	x19, [sp, #16]
gen_malloc_get_stats():
/home/hei/Desktop/optee-qemu/optee_os/lib/libutils/isoc/bget_malloc.c:246
    121c:	b9002060 	str	w0, [x3, #32]
malloc_get_stats():
/home/hei/Desktop/optee-qemu/optee_os/lib/libutils/isoc/bget_malloc.c:253
    1220:	a8c27bfd 	ldp	x29, x30, [sp], #32
    1224:	d65f03c0 	ret

0000000000001228 <malloc>:
malloc():
/home/hei/Desktop/optee-qemu/optee_os/lib/libutils/isoc/bget_malloc.c:668
    1228:	a9be7bfd 	stp	x29, x30, [sp, #-32]!
    122c:	910003fd 	mov	x29, sp
    1230:	f9000bf3 	str	x19, [sp, #16]
    1234:	aa0003f3 	mov	x19, x0
raw_malloc():
/home/hei/Desktop/optee-qemu/optee_os/lib/libutils/isoc/bget_malloc.c:364
    1238:	b7f801c0 	tbnz	x0, #63, 1270 <malloc+0x48>
/home/hei/Desktop/optee-qemu/optee_os/lib/libutils/isoc/bget_malloc.c:371
    123c:	f100001f 	cmp	x0, #0x0
/home/hei/Desktop/optee-qemu/optee_os/lib/libutils/isoc/bget_malloc.c:373
    1240:	f0000041 	adrp	x1, c000 <_DYNAMIC>
    1244:	9a9f1400 	csinc	x0, x0, xzr, ne  // ne = any
    1248:	910fc021 	add	x1, x1, #0x3f0
    124c:	97fffe13 	bl	a98 <bget>
    1250:	aa0003e6 	mov	x6, x0
/home/hei/Desktop/optee-qemu/optee_os/lib/libutils/isoc/bget_malloc.c:375
    1254:	aa1303e1 	mov	x1, x19
    1258:	aa0603e0 	mov	x0, x6
    125c:	97fffdfe 	bl	a54 <raw_malloc_return_hook.constprop.21>
malloc():
/home/hei/Desktop/optee-qemu/optee_os/lib/libutils/isoc/bget_malloc.c:675
    1260:	aa0603e0 	mov	x0, x6
    1264:	f9400bf3 	ldr	x19, [sp, #16]
    1268:	a8c27bfd 	ldp	x29, x30, [sp], #32
    126c:	d65f03c0 	ret
raw_malloc():
/home/hei/Desktop/optee-qemu/optee_os/lib/libutils/isoc/bget_malloc.c:351
    1270:	d2800006 	mov	x6, #0x0                   	// #0
    1274:	17fffff8 	b	1254 <malloc+0x2c>

0000000000001278 <calloc>:
calloc():
/home/hei/Desktop/optee-qemu/optee_os/lib/libutils/isoc/bget_malloc.c:686
    1278:	a9be7bfd 	stp	x29, x30, [sp, #-32]!
    127c:	910003fd 	mov	x29, sp
    1280:	f9000bf3 	str	x19, [sp, #16]
raw_calloc():
/home/hei/Desktop/optee-qemu/optee_os/lib/libutils/isoc/bget_malloc.c:397
    1284:	9b017c13 	mul	x19, x0, x1
    1288:	9bc17c00 	umulh	x0, x0, x1
    128c:	f100001f 	cmp	x0, #0x0
    1290:	d2800020 	mov	x0, #0x1                   	// #1
    1294:	9a9f07e1 	cset	x1, ne  // ne = any
    1298:	f100027f 	cmp	x19, #0x0
    129c:	9a80a021 	csel	x1, x1, x0, ge  // ge = tcont
    12a0:	b50001a1 	cbnz	x1, 12d4 <calloc+0x5c>
/home/hei/Desktop/optee-qemu/optee_os/lib/libutils/isoc/bget_malloc.c:408
    12a4:	f0000041 	adrp	x1, c000 <_DYNAMIC>
    12a8:	9a801260 	csel	x0, x19, x0, ne  // ne = any
    12ac:	910fc021 	add	x1, x1, #0x3f0
    12b0:	97fffe6a 	bl	c58 <bgetz>
    12b4:	aa0003e6 	mov	x6, x0
/home/hei/Desktop/optee-qemu/optee_os/lib/libutils/isoc/bget_malloc.c:410
    12b8:	aa1303e1 	mov	x1, x19
    12bc:	aa0603e0 	mov	x0, x6
    12c0:	97fffde5 	bl	a54 <raw_malloc_return_hook.constprop.21>
calloc():
/home/hei/Desktop/optee-qemu/optee_os/lib/libutils/isoc/bget_malloc.c:693
    12c4:	aa0603e0 	mov	x0, x6
    12c8:	f9400bf3 	ldr	x19, [sp, #16]
    12cc:	a8c27bfd 	ldp	x29, x30, [sp], #32
    12d0:	d65f03c0 	ret
raw_calloc():
/home/hei/Desktop/optee-qemu/optee_os/lib/libutils/isoc/bget_malloc.c:391
    12d4:	d2800006 	mov	x6, #0x0                   	// #0
    12d8:	17fffff8 	b	12b8 <calloc+0x40>

00000000000012dc <realloc>:
realloc():
/home/hei/Desktop/optee-qemu/optee_os/lib/libutils/isoc/bget_malloc.c:702
    12dc:	a9be7bfd 	stp	x29, x30, [sp, #-32]!
    12e0:	910003fd 	mov	x29, sp
    12e4:	f9000bf3 	str	x19, [sp, #16]
    12e8:	aa0103f3 	mov	x19, x1
raw_realloc():
/home/hei/Desktop/optee-qemu/optee_os/lib/libutils/isoc/bget_malloc.c:422
    12ec:	b7f801c1 	tbnz	x1, #63, 1324 <realloc+0x48>
/home/hei/Desktop/optee-qemu/optee_os/lib/libutils/isoc/bget_malloc.c:431
    12f0:	f100003f 	cmp	x1, #0x0
/home/hei/Desktop/optee-qemu/optee_os/lib/libutils/isoc/bget_malloc.c:433
    12f4:	f0000042 	adrp	x2, c000 <_DYNAMIC>
    12f8:	9a9f1421 	csinc	x1, x1, xzr, ne  // ne = any
    12fc:	910fc042 	add	x2, x2, #0x3f0
    1300:	97ffff28 	bl	fa0 <bgetr>
    1304:	aa0003e6 	mov	x6, x0
/home/hei/Desktop/optee-qemu/optee_os/lib/libutils/isoc/bget_malloc.c:435
    1308:	aa1303e1 	mov	x1, x19
    130c:	aa0603e0 	mov	x0, x6
    1310:	97fffdd1 	bl	a54 <raw_malloc_return_hook.constprop.21>
realloc():
/home/hei/Desktop/optee-qemu/optee_os/lib/libutils/isoc/bget_malloc.c:709
    1314:	aa0603e0 	mov	x0, x6
    1318:	f9400bf3 	ldr	x19, [sp, #16]
    131c:	a8c27bfd 	ldp	x29, x30, [sp], #32
    1320:	d65f03c0 	ret
raw_realloc():
/home/hei/Desktop/optee-qemu/optee_os/lib/libutils/isoc/bget_malloc.c:418
    1324:	d2800006 	mov	x6, #0x0                   	// #0
    1328:	17fffff8 	b	1308 <realloc+0x2c>

000000000000132c <free>:
raw_free():
/home/hei/Desktop/optee-qemu/optee_os/lib/libutils/isoc/bget_malloc.c:384
    132c:	b40000a0 	cbz	x0, 1340 <free+0x14>
/home/hei/Desktop/optee-qemu/optee_os/lib/libutils/isoc/bget_malloc.c:385
    1330:	52800002 	mov	w2, #0x0                   	// #0
    1334:	f0000041 	adrp	x1, c000 <_DYNAMIC>
    1338:	910fc021 	add	x1, x1, #0x3f0
    133c:	17fffe6a 	b	ce4 <brel>
free():
/home/hei/Desktop/optee-qemu/optee_os/lib/libutils/isoc/bget_malloc.c:722
    1340:	d65f03c0 	ret

0000000000001344 <free_wipe>:
raw_free():
/home/hei/Desktop/optee-qemu/optee_os/lib/libutils/isoc/bget_malloc.c:384
    1344:	b40000a0 	cbz	x0, 1358 <free_wipe+0x14>
/home/hei/Desktop/optee-qemu/optee_os/lib/libutils/isoc/bget_malloc.c:385
    1348:	52800022 	mov	w2, #0x1                   	// #1
    134c:	f0000041 	adrp	x1, c000 <_DYNAMIC>
    1350:	910fc021 	add	x1, x1, #0x3f0
    1354:	17fffe64 	b	ce4 <brel>
free_wipe():
/home/hei/Desktop/optee-qemu/optee_os/lib/libutils/isoc/bget_malloc.c:727
    1358:	d65f03c0 	ret

000000000000135c <malloc_add_pool>:
malloc_add_pool():
/home/hei/Desktop/optee-qemu/optee_os/lib/libutils/isoc/bget_malloc.c:835
    135c:	a9bc7bfd 	stp	x29, x30, [sp, #-64]!
    1360:	910003fd 	mov	x29, sp
    1364:	a90153f3 	stp	x19, x20, [sp, #16]
gen_malloc_add_pool():
/home/hei/Desktop/optee-qemu/optee_os/lib/libutils/isoc/bget_malloc.c:735
    1368:	8b010014 	add	x20, x0, x1
/home/hei/Desktop/optee-qemu/optee_os/lib/libutils/isoc/bget_malloc.c:741
    136c:	91003c00 	add	x0, x0, #0xf
malloc_add_pool():
/home/hei/Desktop/optee-qemu/optee_os/lib/libutils/isoc/bget_malloc.c:835
    1370:	a9025bf5 	stp	x21, x22, [sp, #32]
gen_malloc_add_pool():
/home/hei/Desktop/optee-qemu/optee_os/lib/libutils/isoc/bget_malloc.c:742
    1374:	927cee94 	and	x20, x20, #0xfffffffffffffff0
/home/hei/Desktop/optee-qemu/optee_os/lib/libutils/isoc/bget_malloc.c:741
    1378:	927cec16 	and	x22, x0, #0xfffffffffffffff0
malloc_add_pool():
/home/hei/Desktop/optee-qemu/optee_os/lib/libutils/isoc/bget_malloc.c:835
    137c:	a90363f7 	stp	x23, x24, [sp, #48]
gen_malloc_add_pool():
/home/hei/Desktop/optee-qemu/optee_os/lib/libutils/isoc/bget_malloc.c:743
    1380:	eb1402df 	cmp	x22, x20
    1384:	54000163 	b.cc	13b0 <malloc_add_pool+0x54>  // b.lo, b.ul, b.last
    1388:	b0000043 	adrp	x3, a000 <__text_end+0x12f4>
    138c:	913c8c63 	add	x3, x3, #0xf23
    1390:	d0000041 	adrp	x1, b000 <__func__.3755+0x98>
    1394:	d0000040 	adrp	x0, b000 <__func__.3755+0x98>
    1398:	91008c63 	add	x3, x3, #0x23
    139c:	9107c421 	add	x1, x1, #0x1f1
    13a0:	91084400 	add	x0, x0, #0x211
    13a4:	52805ce2 	mov	w2, #0x2e7                 	// #743
/home/hei/Desktop/optee-qemu/optee_os/lib/libutils/isoc/bget_malloc.c:756
    13a8:	9400046a 	bl	2550 <_assert_log>
    13ac:	9400047a 	bl	2594 <_assert_break>
/home/hei/Desktop/optee-qemu/optee_os/lib/libutils/isoc/bget_malloc.c:745
    13b0:	cb160294 	sub	x20, x20, x22
    13b4:	f100be9f 	cmp	x20, #0x2f
    13b8:	540001c8 	b.hi	13f0 <malloc_add_pool+0x94>  // b.pmore
malloc_add_pool():
/home/hei/Desktop/optee-qemu/optee_os/lib/libutils/isoc/bget_malloc.c:837
    13bc:	a94153f3 	ldp	x19, x20, [sp, #16]
gen_malloc_add_pool():
/home/hei/Desktop/optee-qemu/optee_os/lib/libutils/isoc/bget_malloc.c:746
    13c0:	b0000040 	adrp	x0, a000 <__text_end+0x12f4>
malloc_add_pool():
/home/hei/Desktop/optee-qemu/optee_os/lib/libutils/isoc/bget_malloc.c:837
    13c4:	a9425bf5 	ldp	x21, x22, [sp, #32]
gen_malloc_add_pool():
/home/hei/Desktop/optee-qemu/optee_os/lib/libutils/isoc/bget_malloc.c:746
    13c8:	913c8c00 	add	x0, x0, #0xf23
malloc_add_pool():
/home/hei/Desktop/optee-qemu/optee_os/lib/libutils/isoc/bget_malloc.c:837
    13cc:	a94363f7 	ldp	x23, x24, [sp, #48]
gen_malloc_add_pool():
/home/hei/Desktop/optee-qemu/optee_os/lib/libutils/isoc/bget_malloc.c:746
    13d0:	d0000044 	adrp	x4, b000 <__func__.3755+0x98>
malloc_add_pool():
/home/hei/Desktop/optee-qemu/optee_os/lib/libutils/isoc/bget_malloc.c:837
    13d4:	a8c47bfd 	ldp	x29, x30, [sp], #64
gen_malloc_add_pool():
/home/hei/Desktop/optee-qemu/optee_os/lib/libutils/isoc/bget_malloc.c:746
    13d8:	91087484 	add	x4, x4, #0x21d
    13dc:	52800023 	mov	w3, #0x1                   	// #1
    13e0:	52800062 	mov	w2, #0x3                   	// #3
    13e4:	52805d41 	mov	w1, #0x2ea                 	// #746
    13e8:	91008c00 	add	x0, x0, #0x23
    13ec:	17fffd23 	b	878 <trace_printf>
/home/hei/Desktop/optee-qemu/optee_os/lib/libutils/isoc/bget_malloc.c:753
    13f0:	f0000053 	adrp	x19, c000 <_DYNAMIC>
    13f4:	910fc278 	add	x24, x19, #0x3f0
    13f8:	aa1803e2 	mov	x2, x24
    13fc:	aa1403e1 	mov	x1, x20
    1400:	aa1603e0 	mov	x0, x22
    1404:	97ffff1a 	bl	106c <bpool>
/home/hei/Desktop/optee-qemu/optee_os/lib/libutils/isoc/bget_malloc.c:754
    1408:	f9402317 	ldr	x23, [x24, #64]
    140c:	910006f7 	add	x23, x23, #0x1
/home/hei/Desktop/optee-qemu/optee_os/lib/libutils/isoc/bget_malloc.c:755
    1410:	d37ceef5 	lsl	x21, x23, #4
raw_realloc():
/home/hei/Desktop/optee-qemu/optee_os/lib/libutils/isoc/bget_malloc.c:422
    1414:	b7f80295 	tbnz	x21, #63, 1464 <malloc_add_pool+0x108>
/home/hei/Desktop/optee-qemu/optee_os/lib/libutils/isoc/bget_malloc.c:433
    1418:	f9401f00 	ldr	x0, [x24, #56]
/home/hei/Desktop/optee-qemu/optee_os/lib/libutils/isoc/bget_malloc.c:431
    141c:	f10002bf 	cmp	x21, #0x0
/home/hei/Desktop/optee-qemu/optee_os/lib/libutils/isoc/bget_malloc.c:433
    1420:	aa1803e2 	mov	x2, x24
    1424:	9a9f16a1 	csinc	x1, x21, xzr, ne  // ne = any
    1428:	97fffede 	bl	fa0 <bgetr>
    142c:	aa0003e6 	mov	x6, x0
/home/hei/Desktop/optee-qemu/optee_os/lib/libutils/isoc/bget_malloc.c:435
    1430:	aa1503e1 	mov	x1, x21
    1434:	aa0603e0 	mov	x0, x6
    1438:	97fffd87 	bl	a54 <raw_malloc_return_hook.constprop.21>
gen_malloc_add_pool():
/home/hei/Desktop/optee-qemu/optee_os/lib/libutils/isoc/bget_malloc.c:756
    143c:	b5000186 	cbnz	x6, 146c <malloc_add_pool+0x110>
    1440:	b0000043 	adrp	x3, a000 <__text_end+0x12f4>
    1444:	913c8c63 	add	x3, x3, #0xf23
    1448:	d0000041 	adrp	x1, b000 <__func__.3755+0x98>
    144c:	b0000040 	adrp	x0, a000 <__text_end+0x12f4>
    1450:	91008c63 	add	x3, x3, #0x23
    1454:	52805e82 	mov	w2, #0x2f4                 	// #756
    1458:	9107c421 	add	x1, x1, #0x1f1
    145c:	91324400 	add	x0, x0, #0xc91
    1460:	17ffffd2 	b	13a8 <malloc_add_pool+0x4c>
raw_realloc():
/home/hei/Desktop/optee-qemu/optee_os/lib/libutils/isoc/bget_malloc.c:418
    1464:	d2800006 	mov	x6, #0x0                   	// #0
    1468:	17fffff2 	b	1430 <malloc_add_pool+0xd4>
gen_malloc_add_pool():
/home/hei/Desktop/optee-qemu/optee_os/lib/libutils/isoc/bget_malloc.c:757
    146c:	910fc260 	add	x0, x19, #0x3f0
/home/hei/Desktop/optee-qemu/optee_os/lib/libutils/isoc/bget_malloc.c:758
    1470:	f9402001 	ldr	x1, [x0, #64]
/home/hei/Desktop/optee-qemu/optee_os/lib/libutils/isoc/bget_malloc.c:757
    1474:	f9001c06 	str	x6, [x0, #56]
/home/hei/Desktop/optee-qemu/optee_os/lib/libutils/isoc/bget_malloc.c:758
    1478:	d37cec21 	lsl	x1, x1, #4
    147c:	8b0100c2 	add	x2, x6, x1
    1480:	f82168d6 	str	x22, [x6, x1]
/home/hei/Desktop/optee-qemu/optee_os/lib/libutils/isoc/bget_malloc.c:761
    1484:	b9407001 	ldr	w1, [x0, #112]
malloc_add_pool():
/home/hei/Desktop/optee-qemu/optee_os/lib/libutils/isoc/bget_malloc.c:837
    1488:	a9425bf5 	ldp	x21, x22, [sp, #32]
gen_malloc_add_pool():
/home/hei/Desktop/optee-qemu/optee_os/lib/libutils/isoc/bget_malloc.c:759
    148c:	f9000454 	str	x20, [x2, #8]
/home/hei/Desktop/optee-qemu/optee_os/lib/libutils/isoc/bget_malloc.c:761
    1490:	0b140034 	add	w20, w1, w20
/home/hei/Desktop/optee-qemu/optee_os/lib/libutils/isoc/bget_malloc.c:763
    1494:	f9002017 	str	x23, [x0, #64]
/home/hei/Desktop/optee-qemu/optee_os/lib/libutils/isoc/bget_malloc.c:761
    1498:	b9007014 	str	w20, [x0, #112]
malloc_add_pool():
/home/hei/Desktop/optee-qemu/optee_os/lib/libutils/isoc/bget_malloc.c:837
    149c:	a94153f3 	ldp	x19, x20, [sp, #16]
    14a0:	a94363f7 	ldp	x23, x24, [sp, #48]
    14a4:	a8c47bfd 	ldp	x29, x30, [sp], #64
    14a8:	d65f03c0 	ret

00000000000014ac <malloc_buffer_is_within_alloced>:
gen_malloc_buffer_is_within_alloced():
/home/hei/Desktop/optee-qemu/optee_os/lib/libutils/isoc/bget_malloc.c:773
    14ac:	8b010001 	add	x1, x0, x1
/home/hei/Desktop/optee-qemu/optee_os/lib/libutils/isoc/bget_malloc.c:780
    14b0:	eb01001f 	cmp	x0, x1
    14b4:	54000b88 	b.hi	1624 <malloc_buffer_is_within_alloced+0x178>  // b.pmore
    14b8:	aa0003e4 	mov	x4, x0
/home/hei/Desktop/optee-qemu/optee_os/lib/libutils/isoc/bget_malloc.c:783
    14bc:	f0000040 	adrp	x0, c000 <_DYNAMIC>
    14c0:	910fc000 	add	x0, x0, #0x3f0
bpool_foreach_iterator_init():
/home/hei/Desktop/optee-qemu/optee_os/lib/libutils/isoc/bget_malloc.c:288
    14c4:	d2800005 	mov	x5, #0x0                   	// #0
bpool_foreach_pool():
/home/hei/Desktop/optee-qemu/optee_os/lib/libutils/isoc/bget_malloc.c:298
    14c8:	d2f0000a 	mov	x10, #0x8000000000000000    	// #-9223372036854775808
    14cc:	928001eb 	mov	x11, #0xfffffffffffffff0    	// #-16
bpool_foreach():
/home/hei/Desktop/optee-qemu/optee_os/lib/libutils/isoc/bget_malloc.c:335
    14d0:	a943a406 	ldp	x6, x9, [x0, #56]
bpool_foreach_iterator_init():
/home/hei/Desktop/optee-qemu/optee_os/lib/libutils/isoc/bget_malloc.c:289
    14d4:	f94000c3 	ldr	x3, [x6]
/home/hei/Desktop/optee-qemu/optee_os/lib/libutils/isoc/bget_malloc.c:288
    14d8:	aa0303e0 	mov	x0, x3
bpool_foreach_pool():
/home/hei/Desktop/optee-qemu/optee_os/lib/libutils/isoc/bget_malloc.c:296
    14dc:	f9400462 	ldr	x2, [x3, #8]
/home/hei/Desktop/optee-qemu/optee_os/lib/libutils/isoc/bget_malloc.c:298
    14e0:	eb0a005f 	cmp	x2, x10
    14e4:	540009a0 	b.eq	1618 <malloc_buffer_is_within_alloced+0x16c>  // b.none
malloc_buffer_is_within_alloced():
/home/hei/Desktop/optee-qemu/optee_os/lib/libutils/isoc/bget_malloc.c:840
    14e8:	a9bf7bfd 	stp	x29, x30, [sp, #-16]!
    14ec:	910003fd 	mov	x29, sp
    14f0:	1400000d 	b	1524 <malloc_buffer_is_within_alloced+0x78>
bpool_foreach_pool():
/home/hei/Desktop/optee-qemu/optee_os/lib/libutils/isoc/bget_malloc.c:315
    14f4:	91004000 	add	x0, x0, #0x10
gen_malloc_buffer_is_within_alloced():
/home/hei/Desktop/optee-qemu/optee_os/lib/libutils/isoc/bget_malloc.c:789
    14f8:	8b020002 	add	x2, x0, x2
/home/hei/Desktop/optee-qemu/optee_os/lib/libutils/isoc/bget_malloc.c:791
    14fc:	eb02003f 	cmp	x1, x2
    1500:	1a9f87e2 	cset	w2, ls  // ls = plast
    1504:	eb00009f 	cmp	x4, x0
    1508:	1a9f37e0 	cset	w0, cs  // cs = hs, nlast
    150c:	6a000040 	ands	w0, w2, w0
    1510:	540007a1 	b.ne	1604 <malloc_buffer_is_within_alloced+0x158>  // b.any
bpool_foreach_pool():
/home/hei/Desktop/optee-qemu/optee_os/lib/libutils/isoc/bget_malloc.c:296
    1514:	f9400462 	ldr	x2, [x3, #8]
bpool_foreach_iterator_init():
/home/hei/Desktop/optee-qemu/optee_os/lib/libutils/isoc/bget_malloc.c:288
    1518:	aa0303e0 	mov	x0, x3
bpool_foreach_pool():
/home/hei/Desktop/optee-qemu/optee_os/lib/libutils/isoc/bget_malloc.c:298
    151c:	eb0a005f 	cmp	x2, x10
    1520:	540006a0 	b.eq	15f4 <malloc_buffer_is_within_alloced+0x148>  // b.none
/home/hei/Desktop/optee-qemu/optee_os/lib/libutils/isoc/bget_malloc.c:301
    1524:	b6f80242 	tbz	x2, #63, 156c <malloc_buffer_is_within_alloced+0xc0>
/home/hei/Desktop/optee-qemu/optee_os/lib/libutils/isoc/bget_malloc.c:303
    1528:	cb0203e8 	neg	x8, x2
/home/hei/Desktop/optee-qemu/optee_os/lib/libutils/isoc/bget_malloc.c:305
    152c:	52800007 	mov	w7, #0x0                   	// #0
/home/hei/Desktop/optee-qemu/optee_os/lib/libutils/isoc/bget_malloc.c:318
    1530:	8b080063 	add	x3, x3, x8
bpool_foreach():
/home/hei/Desktop/optee-qemu/optee_os/lib/libutils/isoc/bget_malloc.c:330
    1534:	35ffff07 	cbnz	w7, 1514 <malloc_buffer_is_within_alloced+0x68>
bget_buf_size():
/home/hei/Desktop/optee-qemu/optee_os/lib/libutils/isoc/bget_malloc.c:457
    1538:	cb020162 	sub	x2, x11, x2
/home/hei/Desktop/optee-qemu/optee_os/lib/libutils/isoc/bget_malloc.c:458
    153c:	f100005f 	cmp	x2, #0x0
    1540:	54fffdac 	b.gt	14f4 <malloc_buffer_is_within_alloced+0x48>
    1544:	b0000043 	adrp	x3, a000 <__text_end+0x12f4>
    1548:	913c8c63 	add	x3, x3, #0xf23
    154c:	9100dc63 	add	x3, x3, #0x37
    1550:	d0000041 	adrp	x1, b000 <__func__.3755+0x98>
    1554:	d0000040 	adrp	x0, b000 <__func__.3755+0x98>
    1558:	9107c421 	add	x1, x1, #0x1f1
    155c:	91068800 	add	x0, x0, #0x1a2
    1560:	52803942 	mov	w2, #0x1ca                 	// #458
    1564:	940003fb 	bl	2550 <_assert_log>
    1568:	9400040b 	bl	2594 <_assert_break>
bpool_foreach_pool():
/home/hei/Desktop/optee-qemu/optee_os/lib/libutils/isoc/bget_malloc.c:311
    156c:	f9400c67 	ldr	x7, [x3, #24]
    1570:	f94008e7 	ldr	x7, [x7, #16]
    1574:	eb0300ff 	cmp	x7, x3
    1578:	54000160 	b.eq	15a4 <malloc_buffer_is_within_alloced+0xf8>  // b.none
    157c:	b0000043 	adrp	x3, a000 <__text_end+0x12f4>
    1580:	913c8c63 	add	x3, x3, #0xf23
    1584:	91011463 	add	x3, x3, #0x45
    1588:	d0000041 	adrp	x1, b000 <__func__.3755+0x98>
    158c:	b0000040 	adrp	x0, a000 <__text_end+0x12f4>
    1590:	9107c421 	add	x1, x1, #0x1f1
    1594:	913f3000 	add	x0, x0, #0xfcc
    1598:	528026e2 	mov	w2, #0x137                 	// #311
    159c:	940003ed 	bl	2550 <_assert_log>
    15a0:	940003fd 	bl	2594 <_assert_break>
/home/hei/Desktop/optee-qemu/optee_os/lib/libutils/isoc/bget_malloc.c:312
    15a4:	f9400867 	ldr	x7, [x3, #16]
    15a8:	f9400ce7 	ldr	x7, [x7, #24]
    15ac:	eb0300ff 	cmp	x7, x3
    15b0:	54000160 	b.eq	15dc <malloc_buffer_is_within_alloced+0x130>  // b.none
    15b4:	b0000043 	adrp	x3, a000 <__text_end+0x12f4>
    15b8:	913c8c63 	add	x3, x3, #0xf23
    15bc:	91011463 	add	x3, x3, #0x45
    15c0:	d0000041 	adrp	x1, b000 <__func__.3755+0x98>
    15c4:	b0000040 	adrp	x0, a000 <__text_end+0x12f4>
    15c8:	9107c421 	add	x1, x1, #0x1f1
    15cc:	913f9c00 	add	x0, x0, #0xfe7
    15d0:	52802702 	mov	w2, #0x138                 	// #312
    15d4:	940003df 	bl	2550 <_assert_log>
    15d8:	940003ef 	bl	2594 <_assert_break>
    15dc:	aa0203e8 	mov	x8, x2
/home/hei/Desktop/optee-qemu/optee_os/lib/libutils/isoc/bget_malloc.c:308
    15e0:	52800027 	mov	w7, #0x1                   	// #1
    15e4:	17ffffd3 	b	1530 <malloc_buffer_is_within_alloced+0x84>
bpool_foreach():
/home/hei/Desktop/optee-qemu/optee_os/lib/libutils/isoc/bget_malloc.c:339
    15e8:	d37ceca0 	lsl	x0, x5, #4
    15ec:	f86068c3 	ldr	x3, [x6, x0]
    15f0:	17ffffc9 	b	1514 <malloc_buffer_is_within_alloced+0x68>
/home/hei/Desktop/optee-qemu/optee_os/lib/libutils/isoc/bget_malloc.c:335
    15f4:	910004a5 	add	x5, x5, #0x1
    15f8:	eb0900bf 	cmp	x5, x9
    15fc:	54ffff63 	b.cc	15e8 <malloc_buffer_is_within_alloced+0x13c>  // b.lo, b.ul, b.last
gen_malloc_buffer_is_within_alloced():
/home/hei/Desktop/optee-qemu/optee_os/lib/libutils/isoc/bget_malloc.c:774
    1600:	52800000 	mov	w0, #0x0                   	// #0
malloc_buffer_is_within_alloced():
/home/hei/Desktop/optee-qemu/optee_os/lib/libutils/isoc/bget_malloc.c:842
    1604:	a8c17bfd 	ldp	x29, x30, [sp], #16
    1608:	d65f03c0 	ret
bpool_foreach():
/home/hei/Desktop/optee-qemu/optee_os/lib/libutils/isoc/bget_malloc.c:339
    160c:	d37ceca0 	lsl	x0, x5, #4
    1610:	f86068c3 	ldr	x3, [x6, x0]
    1614:	17ffffb1 	b	14d8 <malloc_buffer_is_within_alloced+0x2c>
/home/hei/Desktop/optee-qemu/optee_os/lib/libutils/isoc/bget_malloc.c:335
    1618:	910004a5 	add	x5, x5, #0x1
    161c:	eb0900bf 	cmp	x5, x9
    1620:	54ffff63 	b.cc	160c <malloc_buffer_is_within_alloced+0x160>  // b.lo, b.ul, b.last
gen_malloc_buffer_is_within_alloced():
/home/hei/Desktop/optee-qemu/optee_os/lib/libutils/isoc/bget_malloc.c:774
    1624:	52800000 	mov	w0, #0x0                   	// #0
malloc_buffer_is_within_alloced():
/home/hei/Desktop/optee-qemu/optee_os/lib/libutils/isoc/bget_malloc.c:842
    1628:	d65f03c0 	ret

000000000000162c <malloc_buffer_overlaps_heap>:
gen_malloc_buffer_overlaps_heap():
/home/hei/Desktop/optee-qemu/optee_os/lib/libutils/isoc/bget_malloc.c:814
    162c:	f0000042 	adrp	x2, c000 <_DYNAMIC>
    1630:	910fc042 	add	x2, x2, #0x3f0
/home/hei/Desktop/optee-qemu/optee_os/lib/libutils/isoc/bget_malloc.c:807
    1634:	8b010001 	add	x1, x0, x1
/home/hei/Desktop/optee-qemu/optee_os/lib/libutils/isoc/bget_malloc.c:814
    1638:	d2800005 	mov	x5, #0x0                   	// #0
    163c:	a9439c43 	ldp	x3, x7, [x2, #56]
    1640:	eb0700bf 	cmp	x5, x7
    1644:	54000081 	b.ne	1654 <malloc_buffer_overlaps_heap+0x28>  // b.any
/home/hei/Desktop/optee-qemu/optee_os/lib/libutils/isoc/bget_malloc.c:809
    1648:	52800002 	mov	w2, #0x0                   	// #0
malloc_buffer_overlaps_heap():
/home/hei/Desktop/optee-qemu/optee_os/lib/libutils/isoc/bget_malloc.c:847
    164c:	2a0203e0 	mov	w0, w2
    1650:	d65f03c0 	ret
gen_malloc_buffer_overlaps_heap():
/home/hei/Desktop/optee-qemu/optee_os/lib/libutils/isoc/bget_malloc.c:816
    1654:	a9401066 	ldp	x6, x4, [x3]
/home/hei/Desktop/optee-qemu/optee_os/lib/libutils/isoc/bget_malloc.c:818
    1658:	eb01001f 	cmp	x0, x1
    165c:	1a9f97e2 	cset	w2, hi  // hi = pmore
/home/hei/Desktop/optee-qemu/optee_os/lib/libutils/isoc/bget_malloc.c:816
    1660:	8b0400c4 	add	x4, x6, x4
/home/hei/Desktop/optee-qemu/optee_os/lib/libutils/isoc/bget_malloc.c:818
    1664:	eb0400df 	cmp	x6, x4
    1668:	1a9f97e8 	cset	w8, hi  // hi = pmore
    166c:	2a080042 	orr	w2, w2, w8
    1670:	35fffee2 	cbnz	w2, 164c <malloc_buffer_overlaps_heap+0x20>
/home/hei/Desktop/optee-qemu/optee_os/lib/libutils/isoc/bget_malloc.c:823
    1674:	eb06003f 	cmp	x1, x6
    1678:	91004063 	add	x3, x3, #0x10
    167c:	1a9f97e2 	cset	w2, hi  // hi = pmore
    1680:	eb04001f 	cmp	x0, x4
    1684:	1a9f27e4 	cset	w4, cc  // cc = lo, ul, last
    1688:	2a040042 	orr	w2, w2, w4
    168c:	35fffe02 	cbnz	w2, 164c <malloc_buffer_overlaps_heap+0x20>
/home/hei/Desktop/optee-qemu/optee_os/lib/libutils/isoc/bget_malloc.c:814
    1690:	910004a5 	add	x5, x5, #0x1
    1694:	17ffffeb 	b	1640 <malloc_buffer_overlaps_heap+0x14>

0000000000001698 <memset>:
memset():
/home/hei/Desktop/optee-qemu/optee_os/lib/libutils/isoc/newlib/memset.c:125
    1698:	d2800003 	mov	x3, #0x0                   	// #0
    169c:	eb03005f 	cmp	x2, x3
    16a0:	54000041 	b.ne	16a8 <memset+0x10>  // b.any
/home/hei/Desktop/optee-qemu/optee_os/lib/libutils/isoc/newlib/memset.c:129
    16a4:	d65f03c0 	ret
/home/hei/Desktop/optee-qemu/optee_os/lib/libutils/isoc/newlib/memset.c:126
    16a8:	38236801 	strb	w1, [x0, x3]
    16ac:	91000463 	add	x3, x3, #0x1
    16b0:	17fffffb 	b	169c <memset+0x4>

00000000000016b4 <__vsnprintf>:
__vsnprintf():
/home/hei/Desktop/optee-qemu/optee_os/lib/libutils/ext/snprintk.c:137
    16b4:	d10403ff 	sub	sp, sp, #0x100
    16b8:	aa0203e9 	mov	x9, x2
kprintf():
/home/hei/Desktop/optee-qemu/optee_os/lib/libutils/ext/snprintk.c:537
    16bc:	910363ed 	add	x13, sp, #0xd8
__vsnprintf():
/home/hei/Desktop/optee-qemu/optee_os/lib/libutils/ext/snprintk.c:137
    16c0:	a9037bfd 	stp	x29, x30, [sp, #48]
    16c4:	9100c3fd 	add	x29, sp, #0x30
    16c8:	a90987e0 	stp	x0, x1, [sp, #152]
    16cc:	12001c80 	and	w0, w4, #0xff
    16d0:	a90453f3 	stp	x19, x20, [sp, #64]
    16d4:	b9401874 	ldr	w20, [x3, #24]
    16d8:	a90873fb 	stp	x27, x28, [sp, #128]
    16dc:	b900afe0 	str	w0, [sp, #172]
    16e0:	a9407073 	ldp	x19, x28, [x3]
    16e4:	a9076bf9 	stp	x25, x26, [sp, #112]
kprintf():
/home/hei/Desktop/optee-qemu/optee_os/lib/libutils/ext/snprintk.c:267
    16e8:	5280001a 	mov	w26, #0x0                   	// #0
__vsnprintf():
/home/hei/Desktop/optee-qemu/optee_os/lib/libutils/ext/snprintk.c:141
    16ec:	f9404fe0 	ldr	x0, [sp, #152]
/home/hei/Desktop/optee-qemu/optee_os/lib/libutils/ext/snprintk.c:137
    16f0:	a9055bf5 	stp	x21, x22, [sp, #80]
kprintf():
/home/hei/Desktop/optee-qemu/optee_os/lib/libutils/ext/snprintk.c:269
    16f4:	d2800016 	mov	x22, #0x0                   	// #0
__vsnprintf():
/home/hei/Desktop/optee-qemu/optee_os/lib/libutils/ext/snprintk.c:141
    16f8:	8b010019 	add	x25, x0, x1
    16fc:	aa0003fb 	mov	x27, x0
/home/hei/Desktop/optee-qemu/optee_os/lib/libutils/ext/snprintk.c:137
    1700:	a90663f7 	stp	x23, x24, [sp, #96]
kprintf():
/home/hei/Desktop/optee-qemu/optee_os/lib/libutils/ext/snprintk.c:275
    1704:	39400120 	ldrb	w0, [x9]
    1708:	7100941f 	cmp	w0, #0x25
    170c:	7a401804 	ccmp	w0, #0x0, #0x4, ne  // ne = any
    1710:	540003c1 	b.ne	1788 <__vsnprintf+0xd4>  // b.any
/home/hei/Desktop/optee-qemu/optee_os/lib/libutils/ext/snprintk.c:279
    1714:	34005be0 	cbz	w0, 2290 <__vsnprintf+0xbdc>
/home/hei/Desktop/optee-qemu/optee_os/lib/libutils/ext/snprintk.c:287
    1718:	12800003 	mov	w3, #0xffffffff            	// #-1
/home/hei/Desktop/optee-qemu/optee_os/lib/libutils/ext/snprintk.c:282
    171c:	91000529 	add	x9, x9, #0x1
    1720:	2a1403e1 	mov	w1, w20
    1724:	aa1303e0 	mov	x0, x19
/home/hei/Desktop/optee-qemu/optee_os/lib/libutils/ext/snprintk.c:324
    1728:	2a0303e6 	mov	w6, w3
/home/hei/Desktop/optee-qemu/optee_os/lib/libutils/ext/snprintk.c:288
    172c:	52800002 	mov	w2, #0x0                   	// #0
/home/hei/Desktop/optee-qemu/optee_os/lib/libutils/ext/snprintk.c:286
    1730:	52800017 	mov	w23, #0x0                   	// #0
/home/hei/Desktop/optee-qemu/optee_os/lib/libutils/ext/snprintk.c:284
    1734:	52800015 	mov	w21, #0x0                   	// #0
/home/hei/Desktop/optee-qemu/optee_os/lib/libutils/ext/snprintk.c:299
    1738:	52800407 	mov	w7, #0x20                  	// #32
/home/hei/Desktop/optee-qemu/optee_os/lib/libutils/ext/snprintk.c:290
    173c:	38401538 	ldrb	w24, [x9], #1
/home/hei/Desktop/optee-qemu/optee_os/lib/libutils/ext/snprintk.c:291
    1740:	71018f1f 	cmp	w24, #0x63
    1744:	540019e0 	b.eq	1a80 <__vsnprintf+0x3cc>  // b.none
    1748:	540007ec 	b.gt	1844 <__vsnprintf+0x190>
    174c:	7100c31f 	cmp	w24, #0x30
    1750:	540017c0 	b.eq	1a48 <__vsnprintf+0x394>  // b.none
    1754:	5400038c 	b.gt	17c4 <__vsnprintf+0x110>
    1758:	7100ab1f 	cmp	w24, #0x2a
    175c:	54001100 	b.eq	197c <__vsnprintf+0x2c8>  // b.none
    1760:	5400022c 	b.gt	17a4 <__vsnprintf+0xf0>
    1764:	7100831f 	cmp	w24, #0x20
    1768:	54001000 	b.eq	1968 <__vsnprintf+0x2b4>  // b.none
    176c:	71008f1f 	cmp	w24, #0x23
    1770:	54001020 	b.eq	1974 <__vsnprintf+0x2c0>  // b.none
/home/hei/Desktop/optee-qemu/optee_os/lib/libutils/ext/snprintk.c:541
    1774:	340058f8 	cbz	w24, 2290 <__vsnprintf+0xbdc>
/home/hei/Desktop/optee-qemu/optee_os/lib/libutils/ext/snprintk.c:545
    1778:	2a0103f4 	mov	w20, w1
    177c:	aa0003f3 	mov	x19, x0
    1780:	390363f8 	strb	w24, [sp, #216]
/home/hei/Desktop/optee-qemu/optee_os/lib/libutils/ext/snprintk.c:548
    1784:	140000c5 	b	1a98 <__vsnprintf+0x3e4>
/home/hei/Desktop/optee-qemu/optee_os/lib/libutils/ext/snprintk.c:276
    1788:	1100075a 	add	w26, w26, #0x1
/home/hei/Desktop/optee-qemu/optee_os/lib/libutils/ext/snprintk.c:277
    178c:	b400009b 	cbz	x27, 179c <__vsnprintf+0xe8>
    1790:	eb1b033f 	cmp	x25, x27
    1794:	54000049 	b.ls	179c <__vsnprintf+0xe8>  // b.plast
    1798:	38001760 	strb	w0, [x27], #1
/home/hei/Desktop/optee-qemu/optee_os/lib/libutils/ext/snprintk.c:275
    179c:	91000529 	add	x9, x9, #0x1
    17a0:	17ffffd9 	b	1704 <__vsnprintf+0x50>
/home/hei/Desktop/optee-qemu/optee_os/lib/libutils/ext/snprintk.c:291
    17a4:	7100b71f 	cmp	w24, #0x2d
    17a8:	54000f80 	b.eq	1998 <__vsnprintf+0x2e4>  // b.none
    17ac:	7100bb1f 	cmp	w24, #0x2e
    17b0:	540010e0 	b.eq	19cc <__vsnprintf+0x318>  // b.none
    17b4:	7100af1f 	cmp	w24, #0x2b
    17b8:	54fffde1 	b.ne	1774 <__vsnprintf+0xc0>  // b.any
/home/hei/Desktop/optee-qemu/optee_os/lib/libutils/ext/snprintk.c:319
    17bc:	2a1803e2 	mov	w2, w24
    17c0:	17ffffdf 	b	173c <__vsnprintf+0x88>
/home/hei/Desktop/optee-qemu/optee_os/lib/libutils/ext/snprintk.c:291
    17c4:	7101131f 	cmp	w24, #0x44
    17c8:	54001840 	b.eq	1ad0 <__vsnprintf+0x41c>  // b.none
    17cc:	5400018c 	b.gt	17fc <__vsnprintf+0x148>
    17d0:	7100e71f 	cmp	w24, #0x39
    17d4:	54fffd0c 	b.gt	1774 <__vsnprintf+0xc0>
/home/hei/Desktop/optee-qemu/optee_os/lib/libutils/ext/snprintk.c:344
    17d8:	52800017 	mov	w23, #0x0                   	// #0
/home/hei/Desktop/optee-qemu/optee_os/lib/libutils/ext/snprintk.c:346
    17dc:	5100c308 	sub	w8, w24, #0x30
    17e0:	52800144 	mov	w4, #0xa                   	// #10
/home/hei/Desktop/optee-qemu/optee_os/lib/libutils/ext/snprintk.c:347
    17e4:	38401538 	ldrb	w24, [x9], #1
/home/hei/Desktop/optee-qemu/optee_os/lib/libutils/ext/snprintk.c:346
    17e8:	1b0422f7 	madd	w23, w23, w4, w8
/home/hei/Desktop/optee-qemu/optee_os/lib/libutils/ext/snprintk.c:348
    17ec:	5100c304 	sub	w4, w24, #0x30
    17f0:	7100249f 	cmp	w4, #0x9
    17f4:	54ffff49 	b.ls	17dc <__vsnprintf+0x128>  // b.plast
    17f8:	17ffffd2 	b	1740 <__vsnprintf+0x8c>
/home/hei/Desktop/optee-qemu/optee_os/lib/libutils/ext/snprintk.c:291
    17fc:	7101571f 	cmp	w24, #0x55
    1800:	54003e20 	b.eq	1fc4 <__vsnprintf+0x910>  // b.none
    1804:	7101631f 	cmp	w24, #0x58
    1808:	540043a0 	b.eq	207c <__vsnprintf+0x9c8>  // b.none
    180c:	71013f1f 	cmp	w24, #0x4f
    1810:	54fffb21 	b.ne	1774 <__vsnprintf+0xc0>  // b.any
/home/hei/Desktop/optee-qemu/optee_os/lib/libutils/ext/snprintk.c:408
    1814:	321c02b5 	orr	w21, w21, #0x10
/home/hei/Desktop/optee-qemu/optee_os/lib/libutils/ext/snprintk.c:411
    1818:	36382675 	tbz	w21, #7, 1ce4 <__vsnprintf+0x630>
    181c:	37f827a1 	tbnz	w1, #31, 1d10 <__vsnprintf+0x65c>
    1820:	91003c13 	add	x19, x0, #0xf
    1824:	2a0103f4 	mov	w20, w1
    1828:	927df273 	and	x19, x19, #0xfffffffffffffff8
    182c:	f9400000 	ldr	x0, [x0]
/home/hei/Desktop/optee-qemu/optee_os/lib/libutils/ext/snprintk.c:488
    1830:	52800002 	mov	w2, #0x0                   	// #0
    1834:	3100047f 	cmn	w3, #0x1
    1838:	540016e0 	b.eq	1b14 <__vsnprintf+0x460>  // b.none
    183c:	52800001 	mov	w1, #0x0                   	// #0
    1840:	1400024e 	b	2178 <__vsnprintf+0xac4>
/home/hei/Desktop/optee-qemu/optee_os/lib/libutils/ext/snprintk.c:291
    1844:	7101bf1f 	cmp	w24, #0x6f
    1848:	54fffe80 	b.eq	1818 <__vsnprintf+0x164>  // b.none
    184c:	5400024c 	b.gt	1894 <__vsnprintf+0x1e0>
    1850:	7101a71f 	cmp	w24, #0x69
    1854:	54001400 	b.eq	1ad4 <__vsnprintf+0x420>  // b.none
    1858:	540000ec 	b.gt	1874 <__vsnprintf+0x1c0>
    185c:	7101931f 	cmp	w24, #0x64
    1860:	540013a0 	b.eq	1ad4 <__vsnprintf+0x420>  // b.none
    1864:	7101a31f 	cmp	w24, #0x68
    1868:	54fff861 	b.ne	1774 <__vsnprintf+0xc0>  // b.any
/home/hei/Desktop/optee-qemu/optee_os/lib/libutils/ext/snprintk.c:352
    186c:	321a02b5 	orr	w21, w21, #0x40
/home/hei/Desktop/optee-qemu/optee_os/lib/libutils/ext/snprintk.c:353
    1870:	17ffffb3 	b	173c <__vsnprintf+0x88>
/home/hei/Desktop/optee-qemu/optee_os/lib/libutils/ext/snprintk.c:291
    1874:	7101b31f 	cmp	w24, #0x6c
    1878:	54000ec0 	b.eq	1a50 <__vsnprintf+0x39c>  // b.none
    187c:	7101bb1f 	cmp	w24, #0x6e
    1880:	54001c40 	b.eq	1c08 <__vsnprintf+0x554>  // b.none
    1884:	7101ab1f 	cmp	w24, #0x6a
    1888:	54fff761 	b.ne	1774 <__vsnprintf+0xc0>  // b.any
/home/hei/Desktop/optee-qemu/optee_os/lib/libutils/ext/snprintk.c:355
    188c:	321902b5 	orr	w21, w21, #0x80
/home/hei/Desktop/optee-qemu/optee_os/lib/libutils/ext/snprintk.c:356
    1890:	17ffffab 	b	173c <__vsnprintf+0x88>
/home/hei/Desktop/optee-qemu/optee_os/lib/libutils/ext/snprintk.c:291
    1894:	7101d31f 	cmp	w24, #0x74
    1898:	54000ec0 	b.eq	1a70 <__vsnprintf+0x3bc>  // b.none
    189c:	5400042c 	b.gt	1920 <__vsnprintf+0x26c>
    18a0:	7101c71f 	cmp	w24, #0x71
    18a4:	54000de0 	b.eq	1a60 <__vsnprintf+0x3ac>  // b.none
    18a8:	5400276b 	b.lt	1d94 <__vsnprintf+0x6e0>  // b.tstop
    18ac:	7101cf1f 	cmp	w24, #0x73
    18b0:	54fff621 	b.ne	1774 <__vsnprintf+0xc0>  // b.any
/home/hei/Desktop/optee-qemu/optee_os/lib/libutils/ext/snprintk.c:442
    18b4:	37f83621 	tbnz	w1, #31, 1f78 <__vsnprintf+0x8c4>
    18b8:	91003c13 	add	x19, x0, #0xf
    18bc:	2a0103f4 	mov	w20, w1
    18c0:	927df273 	and	x19, x19, #0xfffffffffffffff8
    18c4:	f9400004 	ldr	x4, [x0]
    18c8:	b5000064 	cbnz	x4, 18d4 <__vsnprintf+0x220>
/home/hei/Desktop/optee-qemu/optee_os/lib/libutils/ext/snprintk.c:444
    18cc:	d0000044 	adrp	x4, b000 <__func__.3755+0x98>
    18d0:	91095c84 	add	x4, x4, #0x257
/home/hei/Desktop/optee-qemu/optee_os/lib/libutils/ext/snprintk.c:445
    18d4:	3100047f 	cmn	w3, #0x1
    18d8:	54003620 	b.eq	1f9c <__vsnprintf+0x8e8>  // b.none
/home/hei/Desktop/optee-qemu/optee_os/lib/libutils/ext/snprintk.c:451
    18dc:	93407c62 	sxtw	x2, w3
    18e0:	aa0403e0 	mov	x0, x4
    18e4:	52800001 	mov	w1, #0x0                   	// #0
    18e8:	f9005be4 	str	x4, [sp, #176]
    18ec:	b900bbe3 	str	w3, [sp, #184]
    18f0:	a90c37e9 	stp	x9, x13, [sp, #192]
    18f4:	940002af 	bl	23b0 <memchr>
/home/hei/Desktop/optee-qemu/optee_os/lib/libutils/ext/snprintk.c:453
    18f8:	b940bbe3 	ldr	w3, [sp, #184]
    18fc:	f9405be4 	ldr	x4, [sp, #176]
    1900:	a94c37e9 	ldp	x9, x13, [sp, #192]
    1904:	b4000080 	cbz	x0, 1914 <__vsnprintf+0x260>
/home/hei/Desktop/optee-qemu/optee_os/lib/libutils/ext/snprintk.c:454
    1908:	cb040000 	sub	x0, x0, x4
    190c:	6b00007f 	cmp	w3, w0
    1910:	1a80d063 	csel	w3, w3, w0, le
/home/hei/Desktop/optee-qemu/optee_os/lib/libutils/ext/snprintk.c:285
    1914:	52800001 	mov	w1, #0x0                   	// #0
/home/hei/Desktop/optee-qemu/optee_os/lib/libutils/ext/snprintk.c:461
    1918:	52800002 	mov	w2, #0x0                   	// #0
    191c:	14000148 	b	1e3c <__vsnprintf+0x788>
/home/hei/Desktop/optee-qemu/optee_os/lib/libutils/ext/snprintk.c:291
    1920:	7101e31f 	cmp	w24, #0x78
    1924:	54003ca0 	b.eq	20b8 <__vsnprintf+0xa04>  // b.none
    1928:	7101eb1f 	cmp	w24, #0x7a
    192c:	54000a60 	b.eq	1a78 <__vsnprintf+0x3c4>  // b.none
    1930:	7101d71f 	cmp	w24, #0x75
    1934:	54fff201 	b.ne	1774 <__vsnprintf+0xc0>  // b.any
/home/hei/Desktop/optee-qemu/optee_os/lib/libutils/ext/snprintk.c:467
    1938:	363834b5 	tbz	w21, #7, 1fcc <__vsnprintf+0x918>
    193c:	37f835e1 	tbnz	w1, #31, 1ff8 <__vsnprintf+0x944>
    1940:	91003c13 	add	x19, x0, #0xf
    1944:	2a0103f4 	mov	w20, w1
    1948:	927df273 	and	x19, x19, #0xfffffffffffffff8
    194c:	f9400000 	ldr	x0, [x0]
/home/hei/Desktop/optee-qemu/optee_os/lib/libutils/ext/snprintk.c:482
    1950:	52800002 	mov	w2, #0x0                   	// #0
/home/hei/Desktop/optee-qemu/optee_os/lib/libutils/ext/snprintk.c:488
    1954:	3100047f 	cmn	w3, #0x1
    1958:	540041e1 	b.ne	2194 <__vsnprintf+0xae0>  // b.any
/home/hei/Desktop/optee-qemu/optee_os/lib/libutils/ext/snprintk.c:508
    195c:	910095a1 	add	x1, x13, #0x25
/home/hei/Desktop/optee-qemu/optee_os/lib/libutils/ext/snprintk.c:517
    1960:	d2800145 	mov	x5, #0xa                   	// #10
    1964:	14000216 	b	21bc <__vsnprintf+0xb08>
/home/hei/Desktop/optee-qemu/optee_os/lib/libutils/ext/snprintk.c:299
    1968:	7100005f 	cmp	w2, #0x0
    196c:	1a871042 	csel	w2, w2, w7, ne  // ne = any
    1970:	17ffff73 	b	173c <__vsnprintf+0x88>
/home/hei/Desktop/optee-qemu/optee_os/lib/libutils/ext/snprintk.c:302
    1974:	320002b5 	orr	w21, w21, #0x1
/home/hei/Desktop/optee-qemu/optee_os/lib/libutils/ext/snprintk.c:303
    1978:	17ffff71 	b	173c <__vsnprintf+0x88>
/home/hei/Desktop/optee-qemu/optee_os/lib/libutils/ext/snprintk.c:311
    197c:	37f80121 	tbnz	w1, #31, 19a0 <__vsnprintf+0x2ec>
    1980:	91002c05 	add	x5, x0, #0xb
    1984:	aa0003e4 	mov	x4, x0
    1988:	927df0a0 	and	x0, x5, #0xfffffffffffffff8
    198c:	b9400097 	ldr	w23, [x4]
    1990:	36ffed77 	tbz	w23, #31, 173c <__vsnprintf+0x88>
/home/hei/Desktop/optee-qemu/optee_os/lib/libutils/ext/snprintk.c:313
    1994:	4b1703f7 	neg	w23, w23
/home/hei/Desktop/optee-qemu/optee_os/lib/libutils/ext/snprintk.c:316
    1998:	321e02b5 	orr	w21, w21, #0x4
/home/hei/Desktop/optee-qemu/optee_os/lib/libutils/ext/snprintk.c:317
    199c:	17ffff68 	b	173c <__vsnprintf+0x88>
/home/hei/Desktop/optee-qemu/optee_os/lib/libutils/ext/snprintk.c:311
    19a0:	11002025 	add	w5, w1, #0x8
    19a4:	710000bf 	cmp	w5, #0x0
    19a8:	540000cd 	b.le	19c0 <__vsnprintf+0x30c>
    19ac:	91002c08 	add	x8, x0, #0xb
    19b0:	aa0003e4 	mov	x4, x0
    19b4:	2a0503e1 	mov	w1, w5
    19b8:	927df100 	and	x0, x8, #0xfffffffffffffff8
    19bc:	17fffff4 	b	198c <__vsnprintf+0x2d8>
    19c0:	8b21c384 	add	x4, x28, w1, sxtw
    19c4:	2a0503e1 	mov	w1, w5
    19c8:	17fffff1 	b	198c <__vsnprintf+0x2d8>
/home/hei/Desktop/optee-qemu/optee_os/lib/libutils/ext/snprintk.c:322
    19cc:	38401538 	ldrb	w24, [x9], #1
    19d0:	7100ab1f 	cmp	w24, #0x2a
    19d4:	54000361 	b.ne	1a40 <__vsnprintf+0x38c>  // b.any
/home/hei/Desktop/optee-qemu/optee_os/lib/libutils/ext/snprintk.c:323
    19d8:	37f80141 	tbnz	w1, #31, 1a00 <__vsnprintf+0x34c>
    19dc:	91002c04 	add	x4, x0, #0xb
    19e0:	2a0103e5 	mov	w5, w1
    19e4:	927df084 	and	x4, x4, #0xfffffffffffffff8
/home/hei/Desktop/optee-qemu/optee_os/lib/libutils/ext/snprintk.c:324
    19e8:	b9400003 	ldr	w3, [x0]
    19ec:	2a0503e1 	mov	w1, w5
    19f0:	aa0403e0 	mov	x0, x4
    19f4:	7100007f 	cmp	w3, #0x0
    19f8:	1a86a063 	csel	w3, w3, w6, ge  // ge = tcont
/home/hei/Desktop/optee-qemu/optee_os/lib/libutils/ext/snprintk.c:325
    19fc:	17ffff50 	b	173c <__vsnprintf+0x88>
/home/hei/Desktop/optee-qemu/optee_os/lib/libutils/ext/snprintk.c:323
    1a00:	11002025 	add	w5, w1, #0x8
    1a04:	710000bf 	cmp	w5, #0x0
    1a08:	5400008d 	b.le	1a18 <__vsnprintf+0x364>
    1a0c:	91002c04 	add	x4, x0, #0xb
    1a10:	927df084 	and	x4, x4, #0xfffffffffffffff8
    1a14:	17fffff5 	b	19e8 <__vsnprintf+0x334>
    1a18:	aa0003e4 	mov	x4, x0
    1a1c:	8b21c380 	add	x0, x28, w1, sxtw
    1a20:	17fffff2 	b	19e8 <__vsnprintf+0x334>
/home/hei/Desktop/optee-qemu/optee_os/lib/libutils/ext/snprintk.c:329
    1a24:	52800145 	mov	w5, #0xa                   	// #10
/home/hei/Desktop/optee-qemu/optee_os/lib/libutils/ext/snprintk.c:330
    1a28:	38401538 	ldrb	w24, [x9], #1
/home/hei/Desktop/optee-qemu/optee_os/lib/libutils/ext/snprintk.c:329
    1a2c:	1b051063 	madd	w3, w3, w5, w4
/home/hei/Desktop/optee-qemu/optee_os/lib/libutils/ext/snprintk.c:328
    1a30:	5100c304 	sub	w4, w24, #0x30
    1a34:	7100249f 	cmp	w4, #0x9
    1a38:	54ffff69 	b.ls	1a24 <__vsnprintf+0x370>  // b.plast
    1a3c:	17ffff41 	b	1740 <__vsnprintf+0x8c>
/home/hei/Desktop/optee-qemu/optee_os/lib/libutils/ext/snprintk.c:327
    1a40:	52800003 	mov	w3, #0x0                   	// #0
    1a44:	17fffffb 	b	1a30 <__vsnprintf+0x37c>
/home/hei/Desktop/optee-qemu/optee_os/lib/libutils/ext/snprintk.c:340
    1a48:	321602b5 	orr	w21, w21, #0x400
/home/hei/Desktop/optee-qemu/optee_os/lib/libutils/ext/snprintk.c:341
    1a4c:	17ffff3c 	b	173c <__vsnprintf+0x88>
/home/hei/Desktop/optee-qemu/optee_os/lib/libutils/ext/snprintk.c:358
    1a50:	39400124 	ldrb	w4, [x9]
    1a54:	7101b09f 	cmp	w4, #0x6c
    1a58:	54000081 	b.ne	1a68 <__vsnprintf+0x3b4>  // b.any
    1a5c:	91000529 	add	x9, x9, #0x1
/home/hei/Desktop/optee-qemu/optee_os/lib/libutils/ext/snprintk.c:366
    1a60:	321b02b5 	orr	w21, w21, #0x20
/home/hei/Desktop/optee-qemu/optee_os/lib/libutils/ext/snprintk.c:367
    1a64:	17ffff36 	b	173c <__vsnprintf+0x88>
/home/hei/Desktop/optee-qemu/optee_os/lib/libutils/ext/snprintk.c:362
    1a68:	321c02b5 	orr	w21, w21, #0x10
    1a6c:	17ffff34 	b	173c <__vsnprintf+0x88>
/home/hei/Desktop/optee-qemu/optee_os/lib/libutils/ext/snprintk.c:369
    1a70:	321802b5 	orr	w21, w21, #0x100
/home/hei/Desktop/optee-qemu/optee_os/lib/libutils/ext/snprintk.c:370
    1a74:	17ffff32 	b	173c <__vsnprintf+0x88>
/home/hei/Desktop/optee-qemu/optee_os/lib/libutils/ext/snprintk.c:372
    1a78:	321702b5 	orr	w21, w21, #0x200
/home/hei/Desktop/optee-qemu/optee_os/lib/libutils/ext/snprintk.c:373
    1a7c:	17ffff30 	b	173c <__vsnprintf+0x88>
/home/hei/Desktop/optee-qemu/optee_os/lib/libutils/ext/snprintk.c:375
    1a80:	37f80161 	tbnz	w1, #31, 1aac <__vsnprintf+0x3f8>
    1a84:	91002c13 	add	x19, x0, #0xb
    1a88:	2a0103f4 	mov	w20, w1
    1a8c:	927df273 	and	x19, x19, #0xfffffffffffffff8
    1a90:	b9400000 	ldr	w0, [x0]
    1a94:	390363e0 	strb	w0, [sp, #216]
/home/hei/Desktop/optee-qemu/optee_os/lib/libutils/ext/snprintk.c:546
    1a98:	52800023 	mov	w3, #0x1                   	// #1
/home/hei/Desktop/optee-qemu/optee_os/lib/libutils/ext/snprintk.c:285
    1a9c:	52800001 	mov	w1, #0x0                   	// #0
/home/hei/Desktop/optee-qemu/optee_os/lib/libutils/ext/snprintk.c:547
    1aa0:	52800002 	mov	w2, #0x0                   	// #0
/home/hei/Desktop/optee-qemu/optee_os/lib/libutils/ext/snprintk.c:544
    1aa4:	910363e4 	add	x4, sp, #0xd8
    1aa8:	140000e5 	b	1e3c <__vsnprintf+0x788>
/home/hei/Desktop/optee-qemu/optee_os/lib/libutils/ext/snprintk.c:375
    1aac:	11002034 	add	w20, w1, #0x8
    1ab0:	7100029f 	cmp	w20, #0x0
    1ab4:	5400008d 	b.le	1ac4 <__vsnprintf+0x410>
    1ab8:	91002c13 	add	x19, x0, #0xb
    1abc:	927df273 	and	x19, x19, #0xfffffffffffffff8
    1ac0:	17fffff4 	b	1a90 <__vsnprintf+0x3dc>
    1ac4:	aa0003f3 	mov	x19, x0
    1ac8:	8b21c380 	add	x0, x28, w1, sxtw
    1acc:	17fffff1 	b	1a90 <__vsnprintf+0x3dc>
/home/hei/Desktop/optee-qemu/optee_os/lib/libutils/ext/snprintk.c:380
    1ad0:	321c02b5 	orr	w21, w21, #0x10
/home/hei/Desktop/optee-qemu/optee_os/lib/libutils/ext/snprintk.c:384
    1ad4:	36380435 	tbz	w21, #7, 1b58 <__vsnprintf+0x4a4>
    1ad8:	37f80561 	tbnz	w1, #31, 1b84 <__vsnprintf+0x4d0>
    1adc:	91003c13 	add	x19, x0, #0xf
    1ae0:	2a0103f4 	mov	w20, w1
    1ae4:	927df273 	and	x19, x19, #0xfffffffffffffff8
    1ae8:	f9400000 	ldr	x0, [x0]
/home/hei/Desktop/optee-qemu/optee_os/lib/libutils/ext/snprintk.c:385
    1aec:	b6fff340 	tbz	x0, #63, 1954 <__vsnprintf+0x2a0>
/home/hei/Desktop/optee-qemu/optee_os/lib/libutils/ext/snprintk.c:386
    1af0:	cb0003e0 	neg	x0, x0
/home/hei/Desktop/optee-qemu/optee_os/lib/libutils/ext/snprintk.c:389
    1af4:	52800021 	mov	w1, #0x1                   	// #1
/home/hei/Desktop/optee-qemu/optee_os/lib/libutils/ext/snprintk.c:387
    1af8:	528005a2 	mov	w2, #0x2d                  	// #45
/home/hei/Desktop/optee-qemu/optee_os/lib/libutils/ext/snprintk.c:488
    1afc:	3100047f 	cmn	w3, #0x1
    1b00:	540033c1 	b.ne	2178 <__vsnprintf+0xac4>  // b.any
/home/hei/Desktop/optee-qemu/optee_os/lib/libutils/ext/snprintk.c:503
    1b04:	7100043f 	cmp	w1, #0x1
    1b08:	54fff2a0 	b.eq	195c <__vsnprintf+0x2a8>  // b.none
    1b0c:	7100083f 	cmp	w1, #0x2
    1b10:	54002140 	b.eq	1f38 <__vsnprintf+0x884>  // b.none
/home/hei/Desktop/optee-qemu/optee_os/lib/libutils/ext/snprintk.c:488
    1b14:	910095a1 	add	x1, x13, #0x25
/home/hei/Desktop/optee-qemu/optee_os/lib/libutils/ext/snprintk.c:506
    1b18:	12000805 	and	w5, w0, #0x7
    1b1c:	d1000424 	sub	x4, x1, #0x1
    1b20:	1100c0a5 	add	w5, w5, #0x30
    1b24:	381ff025 	sturb	w5, [x1, #-1]
/home/hei/Desktop/optee-qemu/optee_os/lib/libutils/ext/snprintk.c:507
    1b28:	d343fc00 	lsr	x0, x0, #3
/home/hei/Desktop/optee-qemu/optee_os/lib/libutils/ext/snprintk.c:508
    1b2c:	b5003380 	cbnz	x0, 219c <__vsnprintf+0xae8>
/home/hei/Desktop/optee-qemu/optee_os/lib/libutils/ext/snprintk.c:510
    1b30:	360000d5 	tbz	w21, #0, 1b48 <__vsnprintf+0x494>
    1b34:	7100c0bf 	cmp	w5, #0x30
    1b38:	54000080 	b.eq	1b48 <__vsnprintf+0x494>  // b.none
/home/hei/Desktop/optee-qemu/optee_os/lib/libutils/ext/snprintk.c:511
    1b3c:	52800600 	mov	w0, #0x30                  	// #48
    1b40:	381ff080 	sturb	w0, [x4, #-1]
    1b44:	d1000824 	sub	x4, x1, #0x2
/home/hei/Desktop/optee-qemu/optee_os/lib/libutils/ext/snprintk.c:537
    1b48:	910095a0 	add	x0, x13, #0x25
    1b4c:	2a0303e1 	mov	w1, w3
    1b50:	4b040003 	sub	w3, w0, w4
    1b54:	140000ba 	b	1e3c <__vsnprintf+0x788>
/home/hei/Desktop/optee-qemu/optee_os/lib/libutils/ext/snprintk.c:384
    1b58:	3747fc15 	tbnz	w21, #8, 1ad8 <__vsnprintf+0x424>
    1b5c:	374ffbf5 	tbnz	w21, #9, 1ad8 <__vsnprintf+0x424>
    1b60:	372ffbd5 	tbnz	w21, #5, 1ad8 <__vsnprintf+0x424>
    1b64:	3727fbb5 	tbnz	w21, #4, 1ad8 <__vsnprintf+0x424>
    1b68:	36300335 	tbz	w21, #6, 1bcc <__vsnprintf+0x518>
    1b6c:	37f801e1 	tbnz	w1, #31, 1ba8 <__vsnprintf+0x4f4>
    1b70:	91002c13 	add	x19, x0, #0xb
    1b74:	2a0103f4 	mov	w20, w1
    1b78:	927df273 	and	x19, x19, #0xfffffffffffffff8
    1b7c:	79800000 	ldrsh	x0, [x0]
    1b80:	17ffffdb 	b	1aec <__vsnprintf+0x438>
    1b84:	11002034 	add	w20, w1, #0x8
    1b88:	7100029f 	cmp	w20, #0x0
    1b8c:	5400008d 	b.le	1b9c <__vsnprintf+0x4e8>
    1b90:	91003c13 	add	x19, x0, #0xf
    1b94:	927df273 	and	x19, x19, #0xfffffffffffffff8
    1b98:	17ffffd4 	b	1ae8 <__vsnprintf+0x434>
    1b9c:	aa0003f3 	mov	x19, x0
    1ba0:	8b21c380 	add	x0, x28, w1, sxtw
    1ba4:	17ffffd1 	b	1ae8 <__vsnprintf+0x434>
    1ba8:	11002034 	add	w20, w1, #0x8
    1bac:	7100029f 	cmp	w20, #0x0
    1bb0:	5400008d 	b.le	1bc0 <__vsnprintf+0x50c>
    1bb4:	91002c13 	add	x19, x0, #0xb
    1bb8:	927df273 	and	x19, x19, #0xfffffffffffffff8
    1bbc:	17fffff0 	b	1b7c <__vsnprintf+0x4c8>
    1bc0:	aa0003f3 	mov	x19, x0
    1bc4:	8b21c380 	add	x0, x28, w1, sxtw
    1bc8:	17ffffed 	b	1b7c <__vsnprintf+0x4c8>
    1bcc:	37f800c1 	tbnz	w1, #31, 1be4 <__vsnprintf+0x530>
    1bd0:	91002c13 	add	x19, x0, #0xb
    1bd4:	2a0103f4 	mov	w20, w1
    1bd8:	927df273 	and	x19, x19, #0xfffffffffffffff8
    1bdc:	b9800000 	ldrsw	x0, [x0]
    1be0:	17ffffc3 	b	1aec <__vsnprintf+0x438>
    1be4:	11002034 	add	w20, w1, #0x8
    1be8:	7100029f 	cmp	w20, #0x0
    1bec:	5400008d 	b.le	1bfc <__vsnprintf+0x548>
    1bf0:	91002c13 	add	x19, x0, #0xb
    1bf4:	927df273 	and	x19, x19, #0xfffffffffffffff8
    1bf8:	17fffff9 	b	1bdc <__vsnprintf+0x528>
    1bfc:	aa0003f3 	mov	x19, x0
    1c00:	8b21c380 	add	x0, x28, w1, sxtw
    1c04:	17fffff6 	b	1bdc <__vsnprintf+0x528>
/home/hei/Desktop/optee-qemu/optee_os/lib/libutils/ext/snprintk.c:392
    1c08:	36380135 	tbz	w21, #7, 1c2c <__vsnprintf+0x578>
/home/hei/Desktop/optee-qemu/optee_os/lib/libutils/ext/snprintk.c:401
    1c0c:	37f80281 	tbnz	w1, #31, 1c5c <__vsnprintf+0x5a8>
    1c10:	91003c13 	add	x19, x0, #0xf
    1c14:	2a0103f4 	mov	w20, w1
    1c18:	927df273 	and	x19, x19, #0xfffffffffffffff8
    1c1c:	f9400000 	ldr	x0, [x0]
    1c20:	93407f41 	sxtw	x1, w26
    1c24:	f9000001 	str	x1, [x0]
    1c28:	17fffeb7 	b	1704 <__vsnprintf+0x50>
/home/hei/Desktop/optee-qemu/optee_os/lib/libutils/ext/snprintk.c:394
    1c2c:	3747ff15 	tbnz	w21, #8, 1c0c <__vsnprintf+0x558>
/home/hei/Desktop/optee-qemu/optee_os/lib/libutils/ext/snprintk.c:396
    1c30:	374ffef5 	tbnz	w21, #9, 1c0c <__vsnprintf+0x558>
/home/hei/Desktop/optee-qemu/optee_os/lib/libutils/ext/snprintk.c:398
    1c34:	372ffed5 	tbnz	w21, #5, 1c0c <__vsnprintf+0x558>
/home/hei/Desktop/optee-qemu/optee_os/lib/libutils/ext/snprintk.c:400
    1c38:	3727feb5 	tbnz	w21, #4, 1c0c <__vsnprintf+0x558>
/home/hei/Desktop/optee-qemu/optee_os/lib/libutils/ext/snprintk.c:402
    1c3c:	36300355 	tbz	w21, #6, 1ca4 <__vsnprintf+0x5f0>
/home/hei/Desktop/optee-qemu/optee_os/lib/libutils/ext/snprintk.c:403
    1c40:	37f80201 	tbnz	w1, #31, 1c80 <__vsnprintf+0x5cc>
    1c44:	91003c13 	add	x19, x0, #0xf
    1c48:	2a0103f4 	mov	w20, w1
    1c4c:	927df273 	and	x19, x19, #0xfffffffffffffff8
    1c50:	f9400000 	ldr	x0, [x0]
    1c54:	7900001a 	strh	w26, [x0]
    1c58:	17fffeab 	b	1704 <__vsnprintf+0x50>
/home/hei/Desktop/optee-qemu/optee_os/lib/libutils/ext/snprintk.c:401
    1c5c:	11002034 	add	w20, w1, #0x8
    1c60:	7100029f 	cmp	w20, #0x0
    1c64:	5400008d 	b.le	1c74 <__vsnprintf+0x5c0>
    1c68:	91003c13 	add	x19, x0, #0xf
    1c6c:	927df273 	and	x19, x19, #0xfffffffffffffff8
    1c70:	17ffffeb 	b	1c1c <__vsnprintf+0x568>
    1c74:	aa0003f3 	mov	x19, x0
    1c78:	8b21c380 	add	x0, x28, w1, sxtw
    1c7c:	17ffffe8 	b	1c1c <__vsnprintf+0x568>
/home/hei/Desktop/optee-qemu/optee_os/lib/libutils/ext/snprintk.c:403
    1c80:	11002034 	add	w20, w1, #0x8
    1c84:	7100029f 	cmp	w20, #0x0
    1c88:	5400008d 	b.le	1c98 <__vsnprintf+0x5e4>
    1c8c:	91003c13 	add	x19, x0, #0xf
    1c90:	927df273 	and	x19, x19, #0xfffffffffffffff8
    1c94:	17ffffef 	b	1c50 <__vsnprintf+0x59c>
    1c98:	aa0003f3 	mov	x19, x0
    1c9c:	8b21c380 	add	x0, x28, w1, sxtw
    1ca0:	17ffffec 	b	1c50 <__vsnprintf+0x59c>
/home/hei/Desktop/optee-qemu/optee_os/lib/libutils/ext/snprintk.c:405
    1ca4:	37f800e1 	tbnz	w1, #31, 1cc0 <__vsnprintf+0x60c>
    1ca8:	91003c13 	add	x19, x0, #0xf
    1cac:	2a0103f4 	mov	w20, w1
    1cb0:	927df273 	and	x19, x19, #0xfffffffffffffff8
    1cb4:	f9400000 	ldr	x0, [x0]
    1cb8:	b900001a 	str	w26, [x0]
    1cbc:	17fffe92 	b	1704 <__vsnprintf+0x50>
    1cc0:	11002034 	add	w20, w1, #0x8
    1cc4:	7100029f 	cmp	w20, #0x0
    1cc8:	5400008d 	b.le	1cd8 <__vsnprintf+0x624>
    1ccc:	91003c13 	add	x19, x0, #0xf
    1cd0:	927df273 	and	x19, x19, #0xfffffffffffffff8
    1cd4:	17fffff8 	b	1cb4 <__vsnprintf+0x600>
    1cd8:	aa0003f3 	mov	x19, x0
    1cdc:	8b21c380 	add	x0, x28, w1, sxtw
    1ce0:	17fffff5 	b	1cb4 <__vsnprintf+0x600>
/home/hei/Desktop/optee-qemu/optee_os/lib/libutils/ext/snprintk.c:411
    1ce4:	3747d9d5 	tbnz	w21, #8, 181c <__vsnprintf+0x168>
    1ce8:	374fd9b5 	tbnz	w21, #9, 181c <__vsnprintf+0x168>
    1cec:	372fd995 	tbnz	w21, #5, 181c <__vsnprintf+0x168>
    1cf0:	3727d975 	tbnz	w21, #4, 181c <__vsnprintf+0x168>
    1cf4:	36300335 	tbz	w21, #6, 1d58 <__vsnprintf+0x6a4>
    1cf8:	37f801e1 	tbnz	w1, #31, 1d34 <__vsnprintf+0x680>
    1cfc:	91002c13 	add	x19, x0, #0xb
    1d00:	2a0103f4 	mov	w20, w1
    1d04:	927df273 	and	x19, x19, #0xfffffffffffffff8
    1d08:	79400000 	ldrh	w0, [x0]
    1d0c:	17fffec9 	b	1830 <__vsnprintf+0x17c>
    1d10:	11002034 	add	w20, w1, #0x8
    1d14:	7100029f 	cmp	w20, #0x0
    1d18:	5400008d 	b.le	1d28 <__vsnprintf+0x674>
    1d1c:	91003c13 	add	x19, x0, #0xf
    1d20:	927df273 	and	x19, x19, #0xfffffffffffffff8
    1d24:	17fffec2 	b	182c <__vsnprintf+0x178>
    1d28:	aa0003f3 	mov	x19, x0
    1d2c:	8b21c380 	add	x0, x28, w1, sxtw
    1d30:	17fffebf 	b	182c <__vsnprintf+0x178>
    1d34:	11002034 	add	w20, w1, #0x8
    1d38:	7100029f 	cmp	w20, #0x0
    1d3c:	5400008d 	b.le	1d4c <__vsnprintf+0x698>
    1d40:	91002c13 	add	x19, x0, #0xb
    1d44:	927df273 	and	x19, x19, #0xfffffffffffffff8
    1d48:	17fffff0 	b	1d08 <__vsnprintf+0x654>
    1d4c:	aa0003f3 	mov	x19, x0
    1d50:	8b21c380 	add	x0, x28, w1, sxtw
    1d54:	17ffffed 	b	1d08 <__vsnprintf+0x654>
    1d58:	37f800c1 	tbnz	w1, #31, 1d70 <__vsnprintf+0x6bc>
    1d5c:	91002c13 	add	x19, x0, #0xb
    1d60:	2a0103f4 	mov	w20, w1
    1d64:	927df273 	and	x19, x19, #0xfffffffffffffff8
    1d68:	b9400000 	ldr	w0, [x0]
    1d6c:	17fffeb1 	b	1830 <__vsnprintf+0x17c>
    1d70:	11002034 	add	w20, w1, #0x8
    1d74:	7100029f 	cmp	w20, #0x0
    1d78:	5400008d 	b.le	1d88 <__vsnprintf+0x6d4>
    1d7c:	91002c13 	add	x19, x0, #0xb
    1d80:	927df273 	and	x19, x19, #0xfffffffffffffff8
    1d84:	17fffff9 	b	1d68 <__vsnprintf+0x6b4>
    1d88:	aa0003f3 	mov	x19, x0
    1d8c:	8b21c380 	add	x0, x28, w1, sxtw
    1d90:	17fffff6 	b	1d68 <__vsnprintf+0x6b4>
/home/hei/Desktop/optee-qemu/optee_os/lib/libutils/ext/snprintk.c:415
    1d94:	b940afe2 	ldr	w2, [sp, #172]
    1d98:	34000b82 	cbz	w2, 1f08 <__vsnprintf+0x854>
    1d9c:	39400122 	ldrb	w2, [x9]
    1da0:	7101545f 	cmp	w2, #0x55
    1da4:	54000b21 	b.ne	1f08 <__vsnprintf+0x854>  // b.any
    1da8:	39400522 	ldrb	w2, [x9, #1]
    1dac:	7101b05f 	cmp	w2, #0x6c
    1db0:	54000ac1 	b.ne	1f08 <__vsnprintf+0x854>  // b.any
/home/hei/Desktop/optee-qemu/optee_os/lib/libutils/ext/snprintk.c:420
    1db4:	91000929 	add	x9, x9, #0x2
/home/hei/Desktop/optee-qemu/optee_os/lib/libutils/ext/snprintk.c:421
    1db8:	37f80961 	tbnz	w1, #31, 1ee4 <__vsnprintf+0x830>
    1dbc:	91003c13 	add	x19, x0, #0xf
    1dc0:	2a0103f4 	mov	w20, w1
    1dc4:	927df273 	and	x19, x19, #0xfffffffffffffff8
    1dc8:	f9400000 	ldr	x0, [x0]
uuid2str():
/home/hei/Desktop/optee-qemu/optee_os/lib/libutils/ext/snprintk.c:223
    1dcc:	d0000042 	adrp	x2, b000 <__func__.3755+0x98>
    1dd0:	91097842 	add	x2, x2, #0x25e
    1dd4:	a90b27ed 	stp	x13, x9, [sp, #176]
    1dd8:	39403c01 	ldrb	w1, [x0, #15]
    1ddc:	79400804 	ldrh	w4, [x0, #4]
    1de0:	39402407 	ldrb	w7, [x0, #9]
    1de4:	39402006 	ldrb	w6, [x0, #8]
    1de8:	79400c05 	ldrh	w5, [x0, #6]
    1dec:	b9002be1 	str	w1, [sp, #40]
    1df0:	39403801 	ldrb	w1, [x0, #14]
    1df4:	b90023e1 	str	w1, [sp, #32]
    1df8:	39403401 	ldrb	w1, [x0, #13]
    1dfc:	b9001be1 	str	w1, [sp, #24]
    1e00:	39403001 	ldrb	w1, [x0, #12]
    1e04:	b90013e1 	str	w1, [sp, #16]
    1e08:	39402c01 	ldrb	w1, [x0, #11]
    1e0c:	b9000be1 	str	w1, [sp, #8]
    1e10:	39402801 	ldrb	w1, [x0, #10]
    1e14:	b90003e1 	str	w1, [sp]
    1e18:	d28004a1 	mov	x1, #0x25                  	// #37
    1e1c:	b9400003 	ldr	w3, [x0]
    1e20:	aa0d03e0 	mov	x0, x13
    1e24:	94000146 	bl	233c <snprintk>
    1e28:	2a0003e3 	mov	w3, w0
kprintf():
/home/hei/Desktop/optee-qemu/optee_os/lib/libutils/ext/snprintk.c:425
    1e2c:	a94b27ed 	ldp	x13, x9, [sp, #176]
/home/hei/Desktop/optee-qemu/optee_os/lib/libutils/ext/snprintk.c:285
    1e30:	52800001 	mov	w1, #0x0                   	// #0
/home/hei/Desktop/optee-qemu/optee_os/lib/libutils/ext/snprintk.c:424
    1e34:	52800002 	mov	w2, #0x0                   	// #0
/home/hei/Desktop/optee-qemu/optee_os/lib/libutils/ext/snprintk.c:423
    1e38:	aa0d03e4 	mov	x4, x13
/home/hei/Desktop/optee-qemu/optee_os/lib/libutils/ext/snprintk.c:565
    1e3c:	6b03003f 	cmp	w1, w3
    1e40:	1a83a020 	csel	w0, w1, w3, ge  // ge = tcont
/home/hei/Desktop/optee-qemu/optee_os/lib/libutils/ext/snprintk.c:566
    1e44:	34001c82 	cbz	w2, 21d4 <__vsnprintf+0xb20>
/home/hei/Desktop/optee-qemu/optee_os/lib/libutils/ext/snprintk.c:567
    1e48:	11000400 	add	w0, w0, #0x1
/home/hei/Desktop/optee-qemu/optee_os/lib/libutils/ext/snprintk.c:572
    1e4c:	6b17001f 	cmp	w0, w23
    1e50:	1a97a005 	csel	w5, w0, w23, ge  // ge = tcont
    1e54:	0b05035a 	add	w26, w26, w5
/home/hei/Desktop/optee-qemu/optee_os/lib/libutils/ext/snprintk.c:575
    1e58:	52808085 	mov	w5, #0x404                 	// #1028
    1e5c:	6a0502a5 	ands	w5, w21, w5
    1e60:	540000a1 	b.ne	1e74 <__vsnprintf+0x7c0>  // b.any
/home/hei/Desktop/optee-qemu/optee_os/lib/libutils/ext/snprintk.c:576
    1e64:	4b0002e6 	sub	w6, w23, w0
/home/hei/Desktop/optee-qemu/optee_os/lib/libutils/ext/snprintk.c:578
    1e68:	52800407 	mov	w7, #0x20                  	// #32
/home/hei/Desktop/optee-qemu/optee_os/lib/libutils/ext/snprintk.c:577
    1e6c:	710000df 	cmp	w6, #0x0
    1e70:	54001b8c 	b.gt	21e0 <__vsnprintf+0xb2c>
/home/hei/Desktop/optee-qemu/optee_os/lib/libutils/ext/snprintk.c:582
    1e74:	34001ca2 	cbz	w2, 2208 <__vsnprintf+0xb54>
/home/hei/Desktop/optee-qemu/optee_os/lib/libutils/ext/snprintk.c:583
    1e78:	b5001c1b 	cbnz	x27, 21f8 <__vsnprintf+0xb44>
/home/hei/Desktop/optee-qemu/optee_os/lib/libutils/ext/snprintk.c:586
    1e7c:	d280001b 	mov	x27, #0x0                   	// #0
/home/hei/Desktop/optee-qemu/optee_os/lib/libutils/ext/snprintk.c:590
    1e80:	711000bf 	cmp	w5, #0x400
    1e84:	540000a1 	b.ne	1e98 <__vsnprintf+0x7e4>  // b.any
/home/hei/Desktop/optee-qemu/optee_os/lib/libutils/ext/snprintk.c:591
    1e88:	4b0002e2 	sub	w2, w23, w0
/home/hei/Desktop/optee-qemu/optee_os/lib/libutils/ext/snprintk.c:593
    1e8c:	52800605 	mov	w5, #0x30                  	// #48
/home/hei/Desktop/optee-qemu/optee_os/lib/libutils/ext/snprintk.c:592
    1e90:	7100005f 	cmp	w2, #0x0
    1e94:	54001d8c 	b.gt	2244 <__vsnprintf+0xb90>
/home/hei/Desktop/optee-qemu/optee_os/lib/libutils/ext/snprintk.c:597
    1e98:	4b030021 	sub	w1, w1, w3
/home/hei/Desktop/optee-qemu/optee_os/lib/libutils/ext/snprintk.c:599
    1e9c:	52800602 	mov	w2, #0x30                  	// #48
/home/hei/Desktop/optee-qemu/optee_os/lib/libutils/ext/snprintk.c:598
    1ea0:	7100003f 	cmp	w1, #0x0
    1ea4:	54001dcc 	b.gt	225c <__vsnprintf+0xba8>
    1ea8:	2a0303e3 	mov	w3, w3
    1eac:	d2800001 	mov	x1, #0x0                   	// #0
/home/hei/Desktop/optee-qemu/optee_os/lib/libutils/ext/snprintk.c:602
    1eb0:	eb01007f 	cmp	x3, x1
    1eb4:	54001e01 	b.ne	2274 <__vsnprintf+0xbc0>  // b.any
/home/hei/Desktop/optee-qemu/optee_os/lib/libutils/ext/snprintk.c:605
    1eb8:	3617c275 	tbz	w21, #2, 1704 <__vsnprintf+0x50>
/home/hei/Desktop/optee-qemu/optee_os/lib/libutils/ext/snprintk.c:606
    1ebc:	4b0002eb 	sub	w11, w23, w0
/home/hei/Desktop/optee-qemu/optee_os/lib/libutils/ext/snprintk.c:608
    1ec0:	52800400 	mov	w0, #0x20                  	// #32
/home/hei/Desktop/optee-qemu/optee_os/lib/libutils/ext/snprintk.c:607
    1ec4:	7100017f 	cmp	w11, #0x0
    1ec8:	54ffc1ed 	b.le	1704 <__vsnprintf+0x50>
/home/hei/Desktop/optee-qemu/optee_os/lib/libutils/ext/snprintk.c:608
    1ecc:	b400009b 	cbz	x27, 1edc <__vsnprintf+0x828>
    1ed0:	eb1b033f 	cmp	x25, x27
    1ed4:	54000049 	b.ls	1edc <__vsnprintf+0x828>  // b.plast
    1ed8:	38001760 	strb	w0, [x27], #1
    1edc:	5100056b 	sub	w11, w11, #0x1
    1ee0:	17fffff9 	b	1ec4 <__vsnprintf+0x810>
/home/hei/Desktop/optee-qemu/optee_os/lib/libutils/ext/snprintk.c:421
    1ee4:	11002034 	add	w20, w1, #0x8
    1ee8:	7100029f 	cmp	w20, #0x0
    1eec:	5400008d 	b.le	1efc <__vsnprintf+0x848>
    1ef0:	91003c13 	add	x19, x0, #0xf
    1ef4:	927df273 	and	x19, x19, #0xfffffffffffffff8
    1ef8:	17ffffb4 	b	1dc8 <__vsnprintf+0x714>
    1efc:	aa0003f3 	mov	x19, x0
    1f00:	8b21c380 	add	x0, x28, w1, sxtw
    1f04:	17ffffb1 	b	1dc8 <__vsnprintf+0x714>
/home/hei/Desktop/optee-qemu/optee_os/lib/libutils/ext/snprintk.c:435
    1f08:	37f80261 	tbnz	w1, #31, 1f54 <__vsnprintf+0x8a0>
    1f0c:	91003c13 	add	x19, x0, #0xf
    1f10:	2a0103f4 	mov	w20, w1
    1f14:	927df273 	and	x19, x19, #0xfffffffffffffff8
    1f18:	f9400000 	ldr	x0, [x0]
/home/hei/Desktop/optee-qemu/optee_os/lib/libutils/ext/snprintk.c:437
    1f1c:	d0000056 	adrp	x22, b000 <__func__.3755+0x98>
/home/hei/Desktop/optee-qemu/optee_os/lib/libutils/ext/snprintk.c:438
    1f20:	321f02b5 	orr	w21, w21, #0x2
/home/hei/Desktop/optee-qemu/optee_os/lib/libutils/ext/snprintk.c:437
    1f24:	9108d6d6 	add	x22, x22, #0x235
/home/hei/Desktop/optee-qemu/optee_os/lib/libutils/ext/snprintk.c:439
    1f28:	52800f18 	mov	w24, #0x78                  	// #120
/home/hei/Desktop/optee-qemu/optee_os/lib/libutils/ext/snprintk.c:488
    1f2c:	52800002 	mov	w2, #0x0                   	// #0
    1f30:	3100047f 	cmn	w3, #0x1
    1f34:	54001201 	b.ne	2174 <__vsnprintf+0xac0>  // b.any
    1f38:	910095a4 	add	x4, x13, #0x25
/home/hei/Desktop/optee-qemu/optee_os/lib/libutils/ext/snprintk.c:525
    1f3c:	92400c01 	and	x1, x0, #0xf
/home/hei/Desktop/optee-qemu/optee_os/lib/libutils/ext/snprintk.c:526
    1f40:	d344fc00 	lsr	x0, x0, #4
/home/hei/Desktop/optee-qemu/optee_os/lib/libutils/ext/snprintk.c:525
    1f44:	38616ac1 	ldrb	w1, [x22, x1]
    1f48:	381ffc81 	strb	w1, [x4, #-1]!
/home/hei/Desktop/optee-qemu/optee_os/lib/libutils/ext/snprintk.c:527
    1f4c:	b5ffff80 	cbnz	x0, 1f3c <__vsnprintf+0x888>
    1f50:	17fffefe 	b	1b48 <__vsnprintf+0x494>
/home/hei/Desktop/optee-qemu/optee_os/lib/libutils/ext/snprintk.c:435
    1f54:	11002034 	add	w20, w1, #0x8
    1f58:	7100029f 	cmp	w20, #0x0
    1f5c:	5400008d 	b.le	1f6c <__vsnprintf+0x8b8>
    1f60:	91003c13 	add	x19, x0, #0xf
    1f64:	927df273 	and	x19, x19, #0xfffffffffffffff8
    1f68:	17ffffec 	b	1f18 <__vsnprintf+0x864>
    1f6c:	aa0003f3 	mov	x19, x0
    1f70:	8b21c380 	add	x0, x28, w1, sxtw
    1f74:	17ffffe9 	b	1f18 <__vsnprintf+0x864>
/home/hei/Desktop/optee-qemu/optee_os/lib/libutils/ext/snprintk.c:442
    1f78:	11002034 	add	w20, w1, #0x8
    1f7c:	7100029f 	cmp	w20, #0x0
    1f80:	5400008d 	b.le	1f90 <__vsnprintf+0x8dc>
    1f84:	91003c13 	add	x19, x0, #0xf
    1f88:	927df273 	and	x19, x19, #0xfffffffffffffff8
    1f8c:	17fffe4e 	b	18c4 <__vsnprintf+0x210>
    1f90:	aa0003f3 	mov	x19, x0
    1f94:	8b21c380 	add	x0, x28, w1, sxtw
    1f98:	17fffe4b 	b	18c4 <__vsnprintf+0x210>
/home/hei/Desktop/optee-qemu/optee_os/lib/libutils/ext/snprintk.c:460
    1f9c:	aa0403e0 	mov	x0, x4
    1fa0:	a90b27e4 	stp	x4, x9, [sp, #176]
    1fa4:	f90063ed 	str	x13, [sp, #192]
    1fa8:	97fff975 	bl	57c <strlen>
/home/hei/Desktop/optee-qemu/optee_os/lib/libutils/ext/snprintk.c:285
    1fac:	52800001 	mov	w1, #0x0                   	// #0
/home/hei/Desktop/optee-qemu/optee_os/lib/libutils/ext/snprintk.c:460
    1fb0:	2a0003e3 	mov	w3, w0
/home/hei/Desktop/optee-qemu/optee_os/lib/libutils/ext/snprintk.c:461
    1fb4:	52800002 	mov	w2, #0x0                   	// #0
    1fb8:	a94b27e4 	ldp	x4, x9, [sp, #176]
    1fbc:	f94063ed 	ldr	x13, [sp, #192]
    1fc0:	17ffff9f 	b	1e3c <__vsnprintf+0x788>
/home/hei/Desktop/optee-qemu/optee_os/lib/libutils/ext/snprintk.c:464
    1fc4:	321c02b5 	orr	w21, w21, #0x10
    1fc8:	17fffe5c 	b	1938 <__vsnprintf+0x284>
/home/hei/Desktop/optee-qemu/optee_os/lib/libutils/ext/snprintk.c:467
    1fcc:	3747cb95 	tbnz	w21, #8, 193c <__vsnprintf+0x288>
    1fd0:	374fcb75 	tbnz	w21, #9, 193c <__vsnprintf+0x288>
    1fd4:	372fcb55 	tbnz	w21, #5, 193c <__vsnprintf+0x288>
    1fd8:	3727cb35 	tbnz	w21, #4, 193c <__vsnprintf+0x288>
    1fdc:	36300335 	tbz	w21, #6, 2040 <__vsnprintf+0x98c>
    1fe0:	37f801e1 	tbnz	w1, #31, 201c <__vsnprintf+0x968>
    1fe4:	91002c13 	add	x19, x0, #0xb
    1fe8:	2a0103f4 	mov	w20, w1
    1fec:	927df273 	and	x19, x19, #0xfffffffffffffff8
    1ff0:	79400000 	ldrh	w0, [x0]
    1ff4:	17fffe57 	b	1950 <__vsnprintf+0x29c>
    1ff8:	11002034 	add	w20, w1, #0x8
    1ffc:	7100029f 	cmp	w20, #0x0
    2000:	5400008d 	b.le	2010 <__vsnprintf+0x95c>
    2004:	91003c13 	add	x19, x0, #0xf
    2008:	927df273 	and	x19, x19, #0xfffffffffffffff8
    200c:	17fffe50 	b	194c <__vsnprintf+0x298>
    2010:	aa0003f3 	mov	x19, x0
    2014:	8b21c380 	add	x0, x28, w1, sxtw
    2018:	17fffe4d 	b	194c <__vsnprintf+0x298>
    201c:	11002034 	add	w20, w1, #0x8
    2020:	7100029f 	cmp	w20, #0x0
    2024:	5400008d 	b.le	2034 <__vsnprintf+0x980>
    2028:	91002c13 	add	x19, x0, #0xb
    202c:	927df273 	and	x19, x19, #0xfffffffffffffff8
    2030:	17fffff0 	b	1ff0 <__vsnprintf+0x93c>
    2034:	aa0003f3 	mov	x19, x0
    2038:	8b21c380 	add	x0, x28, w1, sxtw
    203c:	17ffffed 	b	1ff0 <__vsnprintf+0x93c>
    2040:	37f800c1 	tbnz	w1, #31, 2058 <__vsnprintf+0x9a4>
    2044:	91002c13 	add	x19, x0, #0xb
    2048:	2a0103f4 	mov	w20, w1
    204c:	927df273 	and	x19, x19, #0xfffffffffffffff8
    2050:	b9400000 	ldr	w0, [x0]
    2054:	17fffe3f 	b	1950 <__vsnprintf+0x29c>
    2058:	11002034 	add	w20, w1, #0x8
    205c:	7100029f 	cmp	w20, #0x0
    2060:	5400008d 	b.le	2070 <__vsnprintf+0x9bc>
    2064:	91002c13 	add	x19, x0, #0xb
    2068:	927df273 	and	x19, x19, #0xfffffffffffffff8
    206c:	17fffff9 	b	2050 <__vsnprintf+0x99c>
    2070:	aa0003f3 	mov	x19, x0
    2074:	8b21c380 	add	x0, x28, w1, sxtw
    2078:	17fffff6 	b	2050 <__vsnprintf+0x99c>
/home/hei/Desktop/optee-qemu/optee_os/lib/libutils/ext/snprintk.c:471
    207c:	b0000056 	adrp	x22, b000 <__func__.3755+0x98>
    2080:	9108d6d6 	add	x22, x22, #0x235
    2084:	910046d6 	add	x22, x22, #0x11
/home/hei/Desktop/optee-qemu/optee_os/lib/libutils/ext/snprintk.c:475
    2088:	363801f5 	tbz	w21, #7, 20c4 <__vsnprintf+0xa10>
    208c:	37f80321 	tbnz	w1, #31, 20f0 <__vsnprintf+0xa3c>
    2090:	91003c13 	add	x19, x0, #0xf
    2094:	2a0103f4 	mov	w20, w1
    2098:	927df273 	and	x19, x19, #0xfffffffffffffff8
    209c:	f9400000 	ldr	x0, [x0]
/home/hei/Desktop/optee-qemu/optee_os/lib/libutils/ext/snprintk.c:478
    20a0:	3607f475 	tbz	w21, #0, 1f2c <__vsnprintf+0x878>
    20a4:	b4fff440 	cbz	x0, 1f2c <__vsnprintf+0x878>
/home/hei/Desktop/optee-qemu/optee_os/lib/libutils/ext/snprintk.c:479
    20a8:	321f02b5 	orr	w21, w21, #0x2
/home/hei/Desktop/optee-qemu/optee_os/lib/libutils/ext/snprintk.c:476
    20ac:	52800041 	mov	w1, #0x2                   	// #2
/home/hei/Desktop/optee-qemu/optee_os/lib/libutils/ext/snprintk.c:482
    20b0:	52800002 	mov	w2, #0x0                   	// #0
    20b4:	17fffe92 	b	1afc <__vsnprintf+0x448>
/home/hei/Desktop/optee-qemu/optee_os/lib/libutils/ext/snprintk.c:474
    20b8:	b0000056 	adrp	x22, b000 <__func__.3755+0x98>
    20bc:	9108d6d6 	add	x22, x22, #0x235
    20c0:	17fffff2 	b	2088 <__vsnprintf+0x9d4>
/home/hei/Desktop/optee-qemu/optee_os/lib/libutils/ext/snprintk.c:475
    20c4:	3747fe55 	tbnz	w21, #8, 208c <__vsnprintf+0x9d8>
    20c8:	374ffe35 	tbnz	w21, #9, 208c <__vsnprintf+0x9d8>
    20cc:	372ffe15 	tbnz	w21, #5, 208c <__vsnprintf+0x9d8>
    20d0:	3727fdf5 	tbnz	w21, #4, 208c <__vsnprintf+0x9d8>
    20d4:	36300335 	tbz	w21, #6, 2138 <__vsnprintf+0xa84>
    20d8:	37f801e1 	tbnz	w1, #31, 2114 <__vsnprintf+0xa60>
    20dc:	91002c13 	add	x19, x0, #0xb
    20e0:	2a0103f4 	mov	w20, w1
    20e4:	927df273 	and	x19, x19, #0xfffffffffffffff8
    20e8:	79400000 	ldrh	w0, [x0]
    20ec:	17ffffed 	b	20a0 <__vsnprintf+0x9ec>
    20f0:	11002034 	add	w20, w1, #0x8
    20f4:	7100029f 	cmp	w20, #0x0
    20f8:	5400008d 	b.le	2108 <__vsnprintf+0xa54>
    20fc:	91003c13 	add	x19, x0, #0xf
    2100:	927df273 	and	x19, x19, #0xfffffffffffffff8
    2104:	17ffffe6 	b	209c <__vsnprintf+0x9e8>
    2108:	aa0003f3 	mov	x19, x0
    210c:	8b21c380 	add	x0, x28, w1, sxtw
    2110:	17ffffe3 	b	209c <__vsnprintf+0x9e8>
    2114:	11002034 	add	w20, w1, #0x8
    2118:	7100029f 	cmp	w20, #0x0
    211c:	5400008d 	b.le	212c <__vsnprintf+0xa78>
    2120:	91002c13 	add	x19, x0, #0xb
    2124:	927df273 	and	x19, x19, #0xfffffffffffffff8
    2128:	17fffff0 	b	20e8 <__vsnprintf+0xa34>
    212c:	aa0003f3 	mov	x19, x0
    2130:	8b21c380 	add	x0, x28, w1, sxtw
    2134:	17ffffed 	b	20e8 <__vsnprintf+0xa34>
    2138:	37f800c1 	tbnz	w1, #31, 2150 <__vsnprintf+0xa9c>
    213c:	91002c13 	add	x19, x0, #0xb
    2140:	2a0103f4 	mov	w20, w1
    2144:	927df273 	and	x19, x19, #0xfffffffffffffff8
    2148:	b9400000 	ldr	w0, [x0]
    214c:	17ffffd5 	b	20a0 <__vsnprintf+0x9ec>
    2150:	11002034 	add	w20, w1, #0x8
    2154:	7100029f 	cmp	w20, #0x0
    2158:	5400008d 	b.le	2168 <__vsnprintf+0xab4>
    215c:	91002c13 	add	x19, x0, #0xb
    2160:	927df273 	and	x19, x19, #0xfffffffffffffff8
    2164:	17fffff9 	b	2148 <__vsnprintf+0xa94>
    2168:	aa0003f3 	mov	x19, x0
    216c:	8b21c380 	add	x0, x28, w1, sxtw
    2170:	17fffff6 	b	2148 <__vsnprintf+0xa94>
/home/hei/Desktop/optee-qemu/optee_os/lib/libutils/ext/snprintk.c:488
    2174:	52800041 	mov	w1, #0x2                   	// #2
/home/hei/Desktop/optee-qemu/optee_os/lib/libutils/ext/snprintk.c:497
    2178:	f100001f 	cmp	x0, #0x0
/home/hei/Desktop/optee-qemu/optee_os/lib/libutils/ext/snprintk.c:489
    217c:	12157ab5 	and	w21, w21, #0xfffffbff
/home/hei/Desktop/optee-qemu/optee_os/lib/libutils/ext/snprintk.c:497
    2180:	7a400860 	ccmp	w3, #0x0, #0x0, eq  // eq = none
    2184:	54ffcc01 	b.ne	1b04 <__vsnprintf+0x450>  // b.any
    2188:	52800003 	mov	w3, #0x0                   	// #0
/home/hei/Desktop/optee-qemu/optee_os/lib/libutils/ext/snprintk.c:496
    218c:	910095a4 	add	x4, x13, #0x25
    2190:	17fffe6e 	b	1b48 <__vsnprintf+0x494>
/home/hei/Desktop/optee-qemu/optee_os/lib/libutils/ext/snprintk.c:488
    2194:	52800021 	mov	w1, #0x1                   	// #1
    2198:	17fffff8 	b	2178 <__vsnprintf+0xac4>
/home/hei/Desktop/optee-qemu/optee_os/lib/libutils/ext/snprintk.c:508
    219c:	aa0403e1 	mov	x1, x4
    21a0:	17fffe5e 	b	1b18 <__vsnprintf+0x464>
/home/hei/Desktop/optee-qemu/optee_os/lib/libutils/ext/snprintk.c:517
    21a4:	9ac50806 	udiv	x6, x0, x5
    21a8:	9b0580c0 	msub	x0, x6, x5, x0
    21ac:	1100c000 	add	w0, w0, #0x30
    21b0:	381ff020 	sturb	w0, [x1, #-1]
/home/hei/Desktop/optee-qemu/optee_os/lib/libutils/ext/snprintk.c:518
    21b4:	aa0603e0 	mov	x0, x6
    21b8:	aa0403e1 	mov	x1, x4
    21bc:	d1000424 	sub	x4, x1, #0x1
/home/hei/Desktop/optee-qemu/optee_os/lib/libutils/ext/snprintk.c:516
    21c0:	f100241f 	cmp	x0, #0x9
    21c4:	54ffff08 	b.hi	21a4 <__vsnprintf+0xaf0>  // b.pmore
/home/hei/Desktop/optee-qemu/optee_os/lib/libutils/ext/snprintk.c:520
    21c8:	1100c000 	add	w0, w0, #0x30
    21cc:	381ff020 	sturb	w0, [x1, #-1]
/home/hei/Desktop/optee-qemu/optee_os/lib/libutils/ext/snprintk.c:521
    21d0:	17fffe5e 	b	1b48 <__vsnprintf+0x494>
/home/hei/Desktop/optee-qemu/optee_os/lib/libutils/ext/snprintk.c:568
    21d4:	360fe3d5 	tbz	w21, #1, 1e4c <__vsnprintf+0x798>
/home/hei/Desktop/optee-qemu/optee_os/lib/libutils/ext/snprintk.c:569
    21d8:	11000800 	add	w0, w0, #0x2
    21dc:	17ffff1c 	b	1e4c <__vsnprintf+0x798>
/home/hei/Desktop/optee-qemu/optee_os/lib/libutils/ext/snprintk.c:578
    21e0:	b400009b 	cbz	x27, 21f0 <__vsnprintf+0xb3c>
    21e4:	eb1b033f 	cmp	x25, x27
    21e8:	54000049 	b.ls	21f0 <__vsnprintf+0xb3c>  // b.plast
    21ec:	38001767 	strb	w7, [x27], #1
    21f0:	510004c6 	sub	w6, w6, #0x1
    21f4:	17ffff1e 	b	1e6c <__vsnprintf+0x7b8>
/home/hei/Desktop/optee-qemu/optee_os/lib/libutils/ext/snprintk.c:583
    21f8:	eb1b033f 	cmp	x25, x27
    21fc:	54ffe429 	b.ls	1e80 <__vsnprintf+0x7cc>  // b.plast
    2200:	38001762 	strb	w2, [x27], #1
    2204:	17ffff1f 	b	1e80 <__vsnprintf+0x7cc>
/home/hei/Desktop/optee-qemu/optee_os/lib/libutils/ext/snprintk.c:584
    2208:	360fe3d5 	tbz	w21, #1, 1e80 <__vsnprintf+0x7cc>
/home/hei/Desktop/optee-qemu/optee_os/lib/libutils/ext/snprintk.c:585
    220c:	b4ffe39b 	cbz	x27, 1e7c <__vsnprintf+0x7c8>
    2210:	eb1b033f 	cmp	x25, x27
    2214:	54ffe369 	b.ls	1e80 <__vsnprintf+0x7cc>  // b.plast
    2218:	aa1b03e2 	mov	x2, x27
    221c:	52800606 	mov	w6, #0x30                  	// #48
    2220:	38001446 	strb	w6, [x2], #1
/home/hei/Desktop/optee-qemu/optee_os/lib/libutils/ext/snprintk.c:586
    2224:	b4ffe2c2 	cbz	x2, 1e7c <__vsnprintf+0x7c8>
    2228:	eb02033f 	cmp	x25, x2
    222c:	54000089 	b.ls	223c <__vsnprintf+0xb88>  // b.plast
    2230:	91000b7b 	add	x27, x27, #0x2
    2234:	381ff378 	sturb	w24, [x27, #-1]
    2238:	17ffff12 	b	1e80 <__vsnprintf+0x7cc>
    223c:	aa0203fb 	mov	x27, x2
    2240:	17ffff10 	b	1e80 <__vsnprintf+0x7cc>
/home/hei/Desktop/optee-qemu/optee_os/lib/libutils/ext/snprintk.c:593
    2244:	b400009b 	cbz	x27, 2254 <__vsnprintf+0xba0>
    2248:	eb1b033f 	cmp	x25, x27
    224c:	54000049 	b.ls	2254 <__vsnprintf+0xba0>  // b.plast
    2250:	38001765 	strb	w5, [x27], #1
    2254:	51000442 	sub	w2, w2, #0x1
    2258:	17ffff0e 	b	1e90 <__vsnprintf+0x7dc>
/home/hei/Desktop/optee-qemu/optee_os/lib/libutils/ext/snprintk.c:599
    225c:	b400009b 	cbz	x27, 226c <__vsnprintf+0xbb8>
    2260:	eb1b033f 	cmp	x25, x27
    2264:	54000049 	b.ls	226c <__vsnprintf+0xbb8>  // b.plast
    2268:	38001762 	strb	w2, [x27], #1
    226c:	51000421 	sub	w1, w1, #0x1
    2270:	17ffff0c 	b	1ea0 <__vsnprintf+0x7ec>
/home/hei/Desktop/optee-qemu/optee_os/lib/libutils/ext/snprintk.c:603
    2274:	b40000bb 	cbz	x27, 2288 <__vsnprintf+0xbd4>
    2278:	eb1b033f 	cmp	x25, x27
    227c:	54000069 	b.ls	2288 <__vsnprintf+0xbd4>  // b.plast
    2280:	38616882 	ldrb	w2, [x4, x1]
    2284:	38001762 	strb	w2, [x27], #1
    2288:	91000421 	add	x1, x1, #0x1
    228c:	17ffff09 	b	1eb0 <__vsnprintf+0x7fc>
__vsnprintf():
/home/hei/Desktop/optee-qemu/optee_os/lib/libutils/ext/snprintk.c:143
    2290:	f9404fe0 	ldr	x0, [sp, #152]
    2294:	f100001f 	cmp	x0, #0x0
    2298:	f94053e0 	ldr	x0, [sp, #160]
    229c:	fa401804 	ccmp	x0, #0x0, #0x4, ne  // ne = any
    22a0:	540000c0 	b.eq	22b8 <__vsnprintf+0xc04>  // b.none
/home/hei/Desktop/optee-qemu/optee_os/lib/libutils/ext/snprintk.c:145
    22a4:	f94053e1 	ldr	x1, [sp, #160]
    22a8:	93407f40 	sxtw	x0, w26
    22ac:	eb01001f 	cmp	x0, x1
    22b0:	54000163 	b.cc	22dc <__vsnprintf+0xc28>  // b.lo, b.ul, b.last
/home/hei/Desktop/optee-qemu/optee_os/lib/libutils/ext/snprintk.c:146
    22b4:	381ff33f 	sturb	wzr, [x25, #-1]
/home/hei/Desktop/optee-qemu/optee_os/lib/libutils/ext/snprintk.c:151
    22b8:	2a1a03e0 	mov	w0, w26
    22bc:	a9437bfd 	ldp	x29, x30, [sp, #48]
    22c0:	a94453f3 	ldp	x19, x20, [sp, #64]
    22c4:	a9455bf5 	ldp	x21, x22, [sp, #80]
    22c8:	a94663f7 	ldp	x23, x24, [sp, #96]
    22cc:	a9476bf9 	ldp	x25, x26, [sp, #112]
    22d0:	a94873fb 	ldp	x27, x28, [sp, #128]
    22d4:	910403ff 	add	sp, sp, #0x100
    22d8:	d65f03c0 	ret
/home/hei/Desktop/optee-qemu/optee_os/lib/libutils/ext/snprintk.c:148
    22dc:	f9404fe1 	ldr	x1, [sp, #152]
    22e0:	3820683f 	strb	wzr, [x1, x0]
/home/hei/Desktop/optee-qemu/optee_os/lib/libutils/ext/snprintk.c:150
    22e4:	17fffff5 	b	22b8 <__vsnprintf+0xc04>

00000000000022e8 <vsnprintk>:
vsnprintk():
/home/hei/Desktop/optee-qemu/optee_os/lib/libutils/ext/snprintk.c:129
    22e8:	a9bb7bfd 	stp	x29, x30, [sp, #-80]!
    22ec:	910003fd 	mov	x29, sp
    22f0:	a90153f3 	stp	x19, x20, [sp, #16]
    22f4:	aa0003f3 	mov	x19, x0
    22f8:	aa0103f4 	mov	x20, x1
/home/hei/Desktop/optee-qemu/optee_os/lib/libutils/ext/snprintk.c:130
    22fc:	9100c3e0 	add	x0, sp, #0x30
    2300:	aa0303e1 	mov	x1, x3
/home/hei/Desktop/optee-qemu/optee_os/lib/libutils/ext/snprintk.c:129
    2304:	f90013f5 	str	x21, [sp, #32]
    2308:	aa0203f5 	mov	x21, x2
/home/hei/Desktop/optee-qemu/optee_os/lib/libutils/ext/snprintk.c:130
    230c:	d2800402 	mov	x2, #0x20                  	// #32
    2310:	97fff88d 	bl	544 <memcpy>
    2314:	aa1503e2 	mov	x2, x21
    2318:	aa0003e3 	mov	x3, x0
    231c:	aa1403e1 	mov	x1, x20
    2320:	52800024 	mov	w4, #0x1                   	// #1
    2324:	aa1303e0 	mov	x0, x19
    2328:	97fffce3 	bl	16b4 <__vsnprintf>
/home/hei/Desktop/optee-qemu/optee_os/lib/libutils/ext/snprintk.c:131
    232c:	a94153f3 	ldp	x19, x20, [sp, #16]
    2330:	f94013f5 	ldr	x21, [sp, #32]
    2334:	a8c57bfd 	ldp	x29, x30, [sp], #80
    2338:	d65f03c0 	ret

000000000000233c <snprintk>:
snprintk():
/home/hei/Desktop/optee-qemu/optee_os/lib/libutils/ext/snprintk.c:112
    233c:	a9b07bfd 	stp	x29, x30, [sp, #-256]!
    2340:	910003fd 	mov	x29, sp
    2344:	a90d93e3 	stp	x3, x4, [sp, #216]
/home/hei/Desktop/optee-qemu/optee_os/lib/libutils/ext/snprintk.c:116
    2348:	910403e3 	add	x3, sp, #0x100
    234c:	a9030fe3 	stp	x3, x3, [sp, #48]
    2350:	910343e3 	add	x3, sp, #0xd0
    2354:	f90023e3 	str	x3, [sp, #64]
    2358:	128004e3 	mov	w3, #0xffffffd8            	// #-40
    235c:	b9004be3 	str	w3, [sp, #72]
    2360:	12800fe3 	mov	w3, #0xffffff80            	// #-128
    2364:	b9004fe3 	str	w3, [sp, #76]
/home/hei/Desktop/optee-qemu/optee_os/lib/libutils/ext/snprintk.c:117
    2368:	910043e3 	add	x3, sp, #0x10
/home/hei/Desktop/optee-qemu/optee_os/lib/libutils/ext/snprintk.c:112
    236c:	a90e9be5 	stp	x5, x6, [sp, #232]
/home/hei/Desktop/optee-qemu/optee_os/lib/libutils/ext/snprintk.c:117
    2370:	a94317e4 	ldp	x4, x5, [sp, #48]
    2374:	a90117e4 	stp	x4, x5, [sp, #16]
    2378:	a94417e4 	ldp	x4, x5, [sp, #64]
    237c:	a90217e4 	stp	x4, x5, [sp, #32]
/home/hei/Desktop/optee-qemu/optee_os/lib/libutils/ext/snprintk.c:112
    2380:	3d8017e0 	str	q0, [sp, #80]
    2384:	3d801be1 	str	q1, [sp, #96]
    2388:	3d801fe2 	str	q2, [sp, #112]
    238c:	3d8023e3 	str	q3, [sp, #128]
    2390:	3d8027e4 	str	q4, [sp, #144]
    2394:	3d802be5 	str	q5, [sp, #160]
    2398:	3d802fe6 	str	q6, [sp, #176]
    239c:	3d8033e7 	str	q7, [sp, #192]
    23a0:	f9007fe7 	str	x7, [sp, #248]
/home/hei/Desktop/optee-qemu/optee_os/lib/libutils/ext/snprintk.c:117
    23a4:	97ffffd1 	bl	22e8 <vsnprintk>
/home/hei/Desktop/optee-qemu/optee_os/lib/libutils/ext/snprintk.c:121
    23a8:	a8d07bfd 	ldp	x29, x30, [sp], #256
    23ac:	d65f03c0 	ret

00000000000023b0 <memchr>:
memchr():
/home/hei/Desktop/optee-qemu/optee_os/lib/libutils/isoc/newlib/memchr.c:109
    23b0:	12001c21 	and	w1, w1, #0xff
/home/hei/Desktop/optee-qemu/optee_os/lib/libutils/isoc/newlib/memchr.c:153
    23b4:	8b020002 	add	x2, x0, x2
    23b8:	eb02001f 	cmp	x0, x2
    23bc:	54000061 	b.ne	23c8 <memchr+0x18>  // b.any
/home/hei/Desktop/optee-qemu/optee_os/lib/libutils/isoc/newlib/memchr.c:159
    23c0:	d2800000 	mov	x0, #0x0                   	// #0
/home/hei/Desktop/optee-qemu/optee_os/lib/libutils/isoc/newlib/memchr.c:160
    23c4:	d65f03c0 	ret
/home/hei/Desktop/optee-qemu/optee_os/lib/libutils/isoc/newlib/memchr.c:154
    23c8:	39400003 	ldrb	w3, [x0]
    23cc:	6b01007f 	cmp	w3, w1
    23d0:	54ffffa0 	b.eq	23c4 <memchr+0x14>  // b.none
/home/hei/Desktop/optee-qemu/optee_os/lib/libutils/isoc/newlib/memchr.c:156
    23d4:	91000400 	add	x0, x0, #0x1
    23d8:	17fffff8 	b	23b8 <memchr+0x8>

00000000000023dc <trace_ext_puts>:
trace_ext_puts():
/home/hei/Desktop/optee-qemu/optee_os/lib/libutee/trace_ext.c:17
    23dc:	a9be7bfd 	stp	x29, x30, [sp, #-32]!
    23e0:	910003fd 	mov	x29, sp
    23e4:	f9000bf3 	str	x19, [sp, #16]
    23e8:	aa0003f3 	mov	x19, x0
/home/hei/Desktop/optee-qemu/optee_os/lib/libutee/trace_ext.c:18
    23ec:	97fff864 	bl	57c <strlen>
    23f0:	aa0003e1 	mov	x1, x0
    23f4:	aa1303e0 	mov	x0, x19
/home/hei/Desktop/optee-qemu/optee_os/lib/libutee/trace_ext.c:19
    23f8:	f9400bf3 	ldr	x19, [sp, #16]
    23fc:	a8c27bfd 	ldp	x29, x30, [sp], #32
/home/hei/Desktop/optee-qemu/optee_os/lib/libutee/trace_ext.c:18
    2400:	1400029b 	b	2e6c <utee_log>

0000000000002404 <trace_ext_get_thread_id>:
trace_ext_get_thread_id():
/home/hei/Desktop/optee-qemu/optee_os/lib/libutee/trace_ext.c:24
    2404:	12800000 	mov	w0, #0xffffffff            	// #-1
    2408:	d65f03c0 	ret

000000000000240c <printf>:
printf():
/home/hei/Desktop/optee-qemu/optee_os/lib/libutee/trace_ext.c:32
    240c:	d10883ff 	sub	sp, sp, #0x220
    2410:	a9007bfd 	stp	x29, x30, [sp]
    2414:	910003fd 	mov	x29, sp
    2418:	a90153f3 	stp	x19, x20, [sp, #16]
    241c:	aa0003f3 	mov	x19, x0
    2420:	3d805be0 	str	q0, [sp, #352]
    2424:	3d805fe1 	str	q1, [sp, #368]
    2428:	3d8063e2 	str	q2, [sp, #384]
    242c:	3d8067e3 	str	q3, [sp, #400]
    2430:	3d806be4 	str	q4, [sp, #416]
    2434:	3d806fe5 	str	q5, [sp, #432]
    2438:	3d8073e6 	str	q6, [sp, #448]
    243c:	3d8077e7 	str	q7, [sp, #464]
    2440:	a91e8be1 	stp	x1, x2, [sp, #488]
    2444:	a91f93e3 	stp	x3, x4, [sp, #504]
    2448:	f90107e5 	str	x5, [sp, #520]
    244c:	f9010be6 	str	x6, [sp, #528]
    2450:	f9010fe7 	str	x7, [sp, #536]
/home/hei/Desktop/optee-qemu/optee_os/lib/libutee/trace_ext.c:37
    2454:	97fff889 	bl	678 <trace_get_level>
    2458:	7100001f 	cmp	w0, #0x0
    245c:	5400038d 	b.le	24cc <printf+0xc0>
/home/hei/Desktop/optee-qemu/optee_os/lib/libutee/trace_ext.c:40
    2460:	910883e0 	add	x0, sp, #0x220
    2464:	a90403e0 	stp	x0, x0, [sp, #64]
    2468:	910783e0 	add	x0, sp, #0x1e0
    246c:	f9002be0 	str	x0, [sp, #80]
    2470:	128006e0 	mov	w0, #0xffffffc8            	// #-56
    2474:	b9005be0 	str	w0, [sp, #88]
    2478:	12800fe0 	mov	w0, #0xffffff80            	// #-128
    247c:	b9005fe0 	str	w0, [sp, #92]
/home/hei/Desktop/optee-qemu/optee_os/lib/libutee/trace_ext.c:41
    2480:	910183f4 	add	x20, sp, #0x60
    2484:	a94407e0 	ldp	x0, x1, [sp, #64]
    2488:	a90207e0 	stp	x0, x1, [sp, #32]
    248c:	aa1303e2 	mov	x2, x19
    2490:	a94507e0 	ldp	x0, x1, [sp, #80]
    2494:	910083e3 	add	x3, sp, #0x20
    2498:	a90307e0 	stp	x0, x1, [sp, #48]
    249c:	aa1403e0 	mov	x0, x20
    24a0:	d2802001 	mov	x1, #0x100                 	// #256
    24a4:	94001968 	bl	8a44 <vsnprintf>
    24a8:	2a0003f3 	mov	w19, w0
/home/hei/Desktop/optee-qemu/optee_os/lib/libutee/trace_ext.c:44
    24ac:	37f80060 	tbnz	w0, #31, 24b8 <printf+0xac>
/home/hei/Desktop/optee-qemu/optee_os/lib/libutee/trace_ext.c:47
    24b0:	aa1403e0 	mov	x0, x20
    24b4:	97ffffca 	bl	23dc <trace_ext_puts>
/home/hei/Desktop/optee-qemu/optee_os/lib/libutee/trace_ext.c:50
    24b8:	2a1303e0 	mov	w0, w19
    24bc:	a9407bfd 	ldp	x29, x30, [sp]
    24c0:	a94153f3 	ldp	x19, x20, [sp, #16]
    24c4:	910883ff 	add	sp, sp, #0x220
    24c8:	d65f03c0 	ret
/home/hei/Desktop/optee-qemu/optee_os/lib/libutee/trace_ext.c:38
    24cc:	52800013 	mov	w19, #0x0                   	// #0
    24d0:	17fffffa 	b	24b8 <printf+0xac>

00000000000024d4 <puts>:
puts():
/home/hei/Desktop/optee-qemu/optee_os/lib/libutee/trace_ext.c:53
    24d4:	a9be7bfd 	stp	x29, x30, [sp, #-32]!
    24d8:	910003fd 	mov	x29, sp
    24dc:	f9000bf3 	str	x19, [sp, #16]
    24e0:	aa0003f3 	mov	x19, x0
/home/hei/Desktop/optee-qemu/optee_os/lib/libutee/trace_ext.c:54
    24e4:	97fff865 	bl	678 <trace_get_level>
    24e8:	7100001f 	cmp	w0, #0x0
    24ec:	540000cd 	b.le	2504 <puts+0x30>
/home/hei/Desktop/optee-qemu/optee_os/lib/libutee/trace_ext.c:55
    24f0:	aa1303e0 	mov	x0, x19
    24f4:	97ffffba 	bl	23dc <trace_ext_puts>
/home/hei/Desktop/optee-qemu/optee_os/lib/libutee/trace_ext.c:56
    24f8:	90000040 	adrp	x0, a000 <__text_end+0x12f4>
    24fc:	91338000 	add	x0, x0, #0xce0
    2500:	97ffffb7 	bl	23dc <trace_ext_puts>
/home/hei/Desktop/optee-qemu/optee_os/lib/libutee/trace_ext.c:59
    2504:	52800020 	mov	w0, #0x1                   	// #1
    2508:	f9400bf3 	ldr	x19, [sp, #16]
    250c:	a8c27bfd 	ldp	x29, x30, [sp], #32
    2510:	d65f03c0 	ret

0000000000002514 <putchar>:
putchar():
/home/hei/Desktop/optee-qemu/optee_os/lib/libutee/trace_ext.c:62
    2514:	a9bd7bfd 	stp	x29, x30, [sp, #-48]!
    2518:	910003fd 	mov	x29, sp
    251c:	f9000bf3 	str	x19, [sp, #16]
    2520:	2a0003f3 	mov	w19, w0
/home/hei/Desktop/optee-qemu/optee_os/lib/libutee/trace_ext.c:63
    2524:	3900a3e0 	strb	w0, [sp, #40]
    2528:	3900a7ff 	strb	wzr, [sp, #41]
/home/hei/Desktop/optee-qemu/optee_os/lib/libutee/trace_ext.c:65
    252c:	97fff853 	bl	678 <trace_get_level>
    2530:	7100001f 	cmp	w0, #0x0
    2534:	5400006d 	b.le	2540 <putchar+0x2c>
/home/hei/Desktop/optee-qemu/optee_os/lib/libutee/trace_ext.c:66
    2538:	9100a3e0 	add	x0, sp, #0x28
    253c:	97ffffa8 	bl	23dc <trace_ext_puts>
/home/hei/Desktop/optee-qemu/optee_os/lib/libutee/trace_ext.c:73
    2540:	12001e60 	and	w0, w19, #0xff
    2544:	f9400bf3 	ldr	x19, [sp, #16]
    2548:	a8c37bfd 	ldp	x29, x30, [sp], #48
    254c:	d65f03c0 	ret

0000000000002550 <_assert_log>:
_assert_log():
/home/hei/Desktop/optee-qemu/optee_os/lib/libutee/assert.c:17
    2550:	d10083ff 	sub	sp, sp, #0x20
/home/hei/Desktop/optee-qemu/optee_os/lib/libutee/assert.c:18
    2554:	2a0203e7 	mov	w7, w2
    2558:	aa0103e6 	mov	x6, x1
    255c:	aa0003e5 	mov	x5, x0
    2560:	52800022 	mov	w2, #0x1                   	// #1
    2564:	52800001 	mov	w1, #0x0                   	// #0
/home/hei/Desktop/optee-qemu/optee_os/lib/libutee/assert.c:17
    2568:	a9017bfd 	stp	x29, x30, [sp, #16]
    256c:	910043fd 	add	x29, sp, #0x10
/home/hei/Desktop/optee-qemu/optee_os/lib/libutee/assert.c:18
    2570:	d2800000 	mov	x0, #0x0                   	// #0
    2574:	b0000044 	adrp	x4, b000 <__func__.3755+0x98>
    2578:	f90003e3 	str	x3, [sp]
    257c:	910a3c84 	add	x4, x4, #0x28f
    2580:	52800023 	mov	w3, #0x1                   	// #1
    2584:	97fff8bd 	bl	878 <trace_printf>
/home/hei/Desktop/optee-qemu/optee_os/lib/libutee/assert.c:20
    2588:	a9417bfd 	ldp	x29, x30, [sp, #16]
    258c:	910083ff 	add	sp, sp, #0x20
    2590:	d65f03c0 	ret

0000000000002594 <_assert_break>:
_assert_break():
/home/hei/Desktop/optee-qemu/optee_os/lib/libutee/assert.c:23
    2594:	a9bf7bfd 	stp	x29, x30, [sp, #-16]!
/home/hei/Desktop/optee-qemu/optee_os/lib/libutee/assert.c:24
    2598:	d2bfffe0 	mov	x0, #0xffff0000            	// #4294901760
/home/hei/Desktop/optee-qemu/optee_os/lib/libutee/assert.c:23
    259c:	910003fd 	mov	x29, sp
/home/hei/Desktop/optee-qemu/optee_os/lib/libutee/assert.c:24
    25a0:	9400022d 	bl	2e54 <utee_panic>
/home/hei/Desktop/optee-qemu/optee_os/lib/libutee/assert.c:27 (discriminator 1)
    25a4:	14000000 	b	25a4 <_assert_break+0x10>

00000000000025a8 <update_out_param>:
update_out_param():
/home/hei/Desktop/optee-qemu/optee_os/lib/libutee/tee_api.c:115
    25a8:	a9bb7bfd 	stp	x29, x30, [sp, #-80]!
    25ac:	910003fd 	mov	x29, sp
    25b0:	a90153f3 	stp	x19, x20, [sp, #16]
/home/hei/Desktop/optee-qemu/optee_os/lib/libutee/tee_api.c:117
    25b4:	aa0203f4 	mov	x20, x2
    25b8:	aa0003f3 	mov	x19, x0
/home/hei/Desktop/optee-qemu/optee_os/lib/libutee/tee_api.c:115
    25bc:	a90363f7 	stp	x23, x24, [sp, #48]
/home/hei/Desktop/optee-qemu/optee_os/lib/libutee/tee_api.c:123
    25c0:	90000058 	adrp	x24, a000 <__text_end+0x12f4>
    25c4:	91223318 	add	x24, x24, #0x88c
/home/hei/Desktop/optee-qemu/optee_os/lib/libutee/tee_api.c:117
    25c8:	f8408697 	ldr	x23, [x20], #8
/home/hei/Desktop/optee-qemu/optee_os/lib/libutee/tee_api.c:115
    25cc:	f90023f9 	str	x25, [sp, #64]
    25d0:	aa0103f9 	mov	x25, x1
    25d4:	a9025bf5 	stp	x21, x22, [sp, #32]
/home/hei/Desktop/optee-qemu/optee_os/lib/libutee/tee_api.c:119
    25d8:	d2800015 	mov	x21, #0x0                   	// #0
/home/hei/Desktop/optee-qemu/optee_os/lib/libutee/tee_api.c:123
    25dc:	531e76a0 	lsl	w0, w21, #2
/home/hei/Desktop/optee-qemu/optee_os/lib/libutee/tee_api.c:121
    25e0:	f9400696 	ldr	x22, [x20, #8]
/home/hei/Desktop/optee-qemu/optee_os/lib/libutee/tee_api.c:123
    25e4:	1ac026e0 	lsr	w0, w23, w0
    25e8:	12000c00 	and	w0, w0, #0xf
    25ec:	51000800 	sub	w0, w0, #0x2
    25f0:	7100141f 	cmp	w0, #0x5
    25f4:	540000e8 	b.hi	2610 <update_out_param+0x68>  // b.pmore
    25f8:	38604b00 	ldrb	w0, [x24, w0, uxtw]
    25fc:	10000061 	adr	x1, 2608 <update_out_param+0x60>
    2600:	8b208820 	add	x0, x1, w0, sxtb #2
    2604:	d61f0000 	br	x0
/home/hei/Desktop/optee-qemu/optee_os/lib/libutee/tee_api.c:126
    2608:	f9400280 	ldr	x0, [x20]
/home/hei/Desktop/optee-qemu/optee_os/lib/libutee/tee_api.c:127
    260c:	29005a60 	stp	w0, w22, [x19]
/home/hei/Desktop/optee-qemu/optee_os/lib/libutee/tee_api.c:119 (discriminator 2)
    2610:	910006b5 	add	x21, x21, #0x1
    2614:	91004294 	add	x20, x20, #0x10
    2618:	91004273 	add	x19, x19, #0x10
    261c:	f10012bf 	cmp	x21, #0x4
    2620:	54fffde1 	b.ne	25dc <update_out_param+0x34>  // b.any
/home/hei/Desktop/optee-qemu/optee_os/lib/libutee/tee_api.c:140
    2624:	a94153f3 	ldp	x19, x20, [sp, #16]
    2628:	a9425bf5 	ldp	x21, x22, [sp, #32]
    262c:	a94363f7 	ldp	x23, x24, [sp, #48]
    2630:	f94023f9 	ldr	x25, [sp, #64]
    2634:	a8c57bfd 	ldp	x29, x30, [sp], #80
    2638:	d65f03c0 	ret
/home/hei/Desktop/optee-qemu/optee_os/lib/libutee/tee_api.c:131
    263c:	f8757b21 	ldr	x1, [x25, x21, lsl #3]
    2640:	b40000c1 	cbz	x1, 2658 <update_out_param+0xb0>
/home/hei/Desktop/optee-qemu/optee_os/lib/libutee/tee_api.c:133
    2644:	b9400a62 	ldr	w2, [x19, #8]
/home/hei/Desktop/optee-qemu/optee_os/lib/libutee/tee_api.c:132
    2648:	f9400260 	ldr	x0, [x19]
/home/hei/Desktop/optee-qemu/optee_os/lib/libutee/tee_api.c:133
    264c:	eb16005f 	cmp	x2, x22
/home/hei/Desktop/optee-qemu/optee_os/lib/libutee/tee_api.c:132
    2650:	9a969042 	csel	x2, x2, x22, ls  // ls = plast
    2654:	97fff7bc 	bl	544 <memcpy>
/home/hei/Desktop/optee-qemu/optee_os/lib/libutee/tee_api.c:134
    2658:	b9000a76 	str	w22, [x19, #8]
/home/hei/Desktop/optee-qemu/optee_os/lib/libutee/tee_api.c:135
    265c:	17ffffed 	b	2610 <update_out_param+0x68>

0000000000002660 <TEE_CloseTASession>:
TEE_CloseTASession():
/home/hei/Desktop/optee-qemu/optee_os/lib/libutee/tee_api.c:184
    2660:	b4000120 	cbz	x0, 2684 <TEE_CloseTASession+0x24>
/home/hei/Desktop/optee-qemu/optee_os/lib/libutee/tee_api.c:183
    2664:	a9bf7bfd 	stp	x29, x30, [sp, #-16]!
    2668:	910003fd 	mov	x29, sp
/home/hei/Desktop/optee-qemu/optee_os/lib/libutee/tee_api.c:185
    266c:	9400020f 	bl	2ea8 <utee_close_ta_session>
/home/hei/Desktop/optee-qemu/optee_os/lib/libutee/tee_api.c:187
    2670:	34000060 	cbz	w0, 267c <TEE_CloseTASession+0x1c>
/home/hei/Desktop/optee-qemu/optee_os/lib/libutee/tee_api.c:190
    2674:	a8c17bfd 	ldp	x29, x30, [sp], #16
/home/hei/Desktop/optee-qemu/optee_os/lib/libutee/tee_api.c:188
    2678:	14000193 	b	2cc4 <TEE_Panic>
/home/hei/Desktop/optee-qemu/optee_os/lib/libutee/tee_api.c:190
    267c:	a8c17bfd 	ldp	x29, x30, [sp], #16
    2680:	d65f03c0 	ret
    2684:	d65f03c0 	ret

0000000000002688 <TEE_GetCancellationFlag>:
TEE_GetCancellationFlag():
/home/hei/Desktop/optee-qemu/optee_os/lib/libutee/tee_api.c:237
    2688:	a9be7bfd 	stp	x29, x30, [sp, #-32]!
    268c:	910003fd 	mov	x29, sp
/home/hei/Desktop/optee-qemu/optee_os/lib/libutee/tee_api.c:239
    2690:	910073e0 	add	x0, sp, #0x1c
    2694:	9400020b 	bl	2ec0 <utee_get_cancellation_flag>
/home/hei/Desktop/optee-qemu/optee_os/lib/libutee/tee_api.c:241
    2698:	34000040 	cbz	w0, 26a0 <TEE_GetCancellationFlag+0x18>
/home/hei/Desktop/optee-qemu/optee_os/lib/libutee/tee_api.c:242
    269c:	b9001fff 	str	wzr, [sp, #28]
/home/hei/Desktop/optee-qemu/optee_os/lib/libutee/tee_api.c:243
    26a0:	b9401fe0 	ldr	w0, [sp, #28]
/home/hei/Desktop/optee-qemu/optee_os/lib/libutee/tee_api.c:244
    26a4:	a8c27bfd 	ldp	x29, x30, [sp], #32
/home/hei/Desktop/optee-qemu/optee_os/lib/libutee/tee_api.c:243
    26a8:	7100001f 	cmp	w0, #0x0
/home/hei/Desktop/optee-qemu/optee_os/lib/libutee/tee_api.c:244
    26ac:	1a9f07e0 	cset	w0, ne  // ne = any
    26b0:	d65f03c0 	ret

00000000000026b4 <TEE_UnmaskCancellation>:
TEE_UnmaskCancellation():
/home/hei/Desktop/optee-qemu/optee_os/lib/libutee/tee_api.c:247
    26b4:	a9be7bfd 	stp	x29, x30, [sp, #-32]!
    26b8:	910003fd 	mov	x29, sp
/home/hei/Desktop/optee-qemu/optee_os/lib/libutee/tee_api.c:249
    26bc:	910073e0 	add	x0, sp, #0x1c
    26c0:	94000206 	bl	2ed8 <utee_unmask_cancellation>
/home/hei/Desktop/optee-qemu/optee_os/lib/libutee/tee_api.c:251
    26c4:	34000040 	cbz	w0, 26cc <TEE_UnmaskCancellation+0x18>
/home/hei/Desktop/optee-qemu/optee_os/lib/libutee/tee_api.c:252
    26c8:	9400017f 	bl	2cc4 <TEE_Panic>
/home/hei/Desktop/optee-qemu/optee_os/lib/libutee/tee_api.c:253
    26cc:	b9401fe0 	ldr	w0, [sp, #28]
/home/hei/Desktop/optee-qemu/optee_os/lib/libutee/tee_api.c:254
    26d0:	a8c27bfd 	ldp	x29, x30, [sp], #32
/home/hei/Desktop/optee-qemu/optee_os/lib/libutee/tee_api.c:253
    26d4:	7100001f 	cmp	w0, #0x0
/home/hei/Desktop/optee-qemu/optee_os/lib/libutee/tee_api.c:254
    26d8:	1a9f07e0 	cset	w0, ne  // ne = any
    26dc:	d65f03c0 	ret

00000000000026e0 <TEE_MaskCancellation>:
TEE_MaskCancellation():
/home/hei/Desktop/optee-qemu/optee_os/lib/libutee/tee_api.c:257
    26e0:	a9be7bfd 	stp	x29, x30, [sp, #-32]!
    26e4:	910003fd 	mov	x29, sp
/home/hei/Desktop/optee-qemu/optee_os/lib/libutee/tee_api.c:259
    26e8:	910073e0 	add	x0, sp, #0x1c
    26ec:	940001fe 	bl	2ee4 <utee_mask_cancellation>
/home/hei/Desktop/optee-qemu/optee_os/lib/libutee/tee_api.c:261
    26f0:	34000040 	cbz	w0, 26f8 <TEE_MaskCancellation+0x18>
/home/hei/Desktop/optee-qemu/optee_os/lib/libutee/tee_api.c:262
    26f4:	94000174 	bl	2cc4 <TEE_Panic>
/home/hei/Desktop/optee-qemu/optee_os/lib/libutee/tee_api.c:263
    26f8:	b9401fe0 	ldr	w0, [sp, #28]
/home/hei/Desktop/optee-qemu/optee_os/lib/libutee/tee_api.c:264
    26fc:	a8c27bfd 	ldp	x29, x30, [sp], #32
/home/hei/Desktop/optee-qemu/optee_os/lib/libutee/tee_api.c:263
    2700:	7100001f 	cmp	w0, #0x0
/home/hei/Desktop/optee-qemu/optee_os/lib/libutee/tee_api.c:264
    2704:	1a9f07e0 	cset	w0, ne  // ne = any
    2708:	d65f03c0 	ret

000000000000270c <TEE_CheckMemoryAccessRights>:
TEE_CheckMemoryAccessRights():
/home/hei/Desktop/optee-qemu/optee_os/lib/libutee/tee_api.c:273
    270c:	34000062 	cbz	w2, 2718 <TEE_CheckMemoryAccessRights+0xc>
/home/hei/Desktop/optee-qemu/optee_os/lib/libutee/tee_api.c:277
    2710:	2a0203e2 	mov	w2, w2
    2714:	140001ee 	b	2ecc <utee_check_access_rights>
/home/hei/Desktop/optee-qemu/optee_os/lib/libutee/tee_api.c:289
    2718:	52800000 	mov	w0, #0x0                   	// #0
    271c:	d65f03c0 	ret

0000000000002720 <copy_param.constprop.1>:
copy_param():
/home/hei/Desktop/optee-qemu/optee_os/lib/libutee/tee_api.c:19
    2720:	a9b87bfd 	stp	x29, x30, [sp, #-128]!
    2724:	910003fd 	mov	x29, sp
    2728:	a9046bf9 	stp	x25, x26, [sp, #64]
    272c:	aa0303f9 	mov	x25, x3
/home/hei/Desktop/optee-qemu/optee_os/lib/libutee/tee_api.c:60
    2730:	9101e3e3 	add	x3, sp, #0x78
/home/hei/Desktop/optee-qemu/optee_os/lib/libutee/tee_api.c:19
    2734:	a90363f7 	stp	x23, x24, [sp, #48]
    2738:	aa0403f8 	mov	x24, x4
    273c:	aa0503f7 	mov	x23, x5
    2740:	a90153f3 	stp	x19, x20, [sp, #16]
    2744:	aa0003f3 	mov	x19, x0
    2748:	aa0203f4 	mov	x20, x2
    274c:	a9025bf5 	stp	x21, x22, [sp, #32]
    2750:	2a0103f6 	mov	w22, w1
/home/hei/Desktop/optee-qemu/optee_os/lib/libutee/tee_api.c:41
    2754:	d2800015 	mov	x21, #0x0                   	// #0
/home/hei/Desktop/optee-qemu/optee_os/lib/libutee/tee_api.c:19
    2758:	a90573fb 	stp	x27, x28, [sp, #80]
/home/hei/Desktop/optee-qemu/optee_os/lib/libutee/tee_api.c:48
    275c:	9100205c 	add	x28, x2, #0x8
/home/hei/Desktop/optee-qemu/optee_os/lib/libutee/tee_api.c:26
    2760:	d280001b 	mov	x27, #0x0                   	// #0
/home/hei/Desktop/optee-qemu/optee_os/lib/libutee/tee_api.c:39
    2764:	f900033f 	str	xzr, [x25]
/home/hei/Desktop/optee-qemu/optee_os/lib/libutee/tee_api.c:60
    2768:	52800024 	mov	w4, #0x1                   	// #1
/home/hei/Desktop/optee-qemu/optee_os/lib/libutee/tee_api.c:40
    276c:	f900031f 	str	xzr, [x24]
/home/hei/Desktop/optee-qemu/optee_os/lib/libutee/tee_api.c:28
    2770:	b9007bff 	str	wzr, [sp, #120]
/home/hei/Desktop/optee-qemu/optee_os/lib/libutee/tee_api.c:43
    2774:	531e76a0 	lsl	w0, w21, #2
/home/hei/Desktop/optee-qemu/optee_os/lib/libutee/tee_api.c:42
    2778:	f8357aff 	str	xzr, [x23, x21, lsl #3]
/home/hei/Desktop/optee-qemu/optee_os/lib/libutee/tee_api.c:43
    277c:	1ac026c0 	lsr	w0, w22, w0
    2780:	12000c00 	and	w0, w0, #0xf
    2784:	51001400 	sub	w0, w0, #0x5
    2788:	7100081f 	cmp	w0, #0x2
    278c:	54000268 	b.hi	27d8 <copy_param.constprop.1+0xb8>  // b.pmore
/home/hei/Desktop/optee-qemu/optee_os/lib/libutee/tee_api.c:47
    2790:	d37ceea0 	lsl	x0, x21, #4
/home/hei/Desktop/optee-qemu/optee_os/lib/libutee/tee_api.c:48
    2794:	b8606b82 	ldr	w2, [x28, x0]
/home/hei/Desktop/optee-qemu/optee_os/lib/libutee/tee_api.c:47
    2798:	f8606a81 	ldr	x1, [x20, x0]
/home/hei/Desktop/optee-qemu/optee_os/lib/libutee/tee_api.c:48
    279c:	2a0203fa 	mov	w26, w2
/home/hei/Desktop/optee-qemu/optee_os/lib/libutee/tee_api.c:58
    27a0:	f100003f 	cmp	x1, #0x0
    27a4:	fa401b44 	ccmp	x26, #0x0, #0x4, ne  // ne = any
    27a8:	54000180 	b.eq	27d8 <copy_param.constprop.1+0xb8>  // b.none
/home/hei/Desktop/optee-qemu/optee_os/lib/libutee/tee_api.c:59
    27ac:	52800020 	mov	w0, #0x1                   	// #1
    27b0:	f90033e3 	str	x3, [sp, #96]
    27b4:	b9006fe4 	str	w4, [sp, #108]
    27b8:	97ffffd5 	bl	270c <TEE_CheckMemoryAccessRights>
/home/hei/Desktop/optee-qemu/optee_os/lib/libutee/tee_api.c:58
    27bc:	b9406fe4 	ldr	w4, [sp, #108]
    27c0:	f94033e3 	ldr	x3, [sp, #96]
    27c4:	350000a0 	cbnz	w0, 27d8 <copy_param.constprop.1+0xb8>
/home/hei/Desktop/optee-qemu/optee_os/lib/libutee/tee_api.c:61
    27c8:	91003f5a 	add	x26, x26, #0xf
/home/hei/Desktop/optee-qemu/optee_os/lib/libutee/tee_api.c:60
    27cc:	38236aa4 	strb	w4, [x21, x3]
/home/hei/Desktop/optee-qemu/optee_os/lib/libutee/tee_api.c:61
    27d0:	927cef5a 	and	x26, x26, #0xfffffffffffffff0
    27d4:	8b1a037b 	add	x27, x27, x26
/home/hei/Desktop/optee-qemu/optee_os/lib/libutee/tee_api.c:41
    27d8:	910006b5 	add	x21, x21, #0x1
    27dc:	f10012bf 	cmp	x21, #0x4
    27e0:	54fffca1 	b.ne	2774 <copy_param.constprop.1+0x54>  // b.any
/home/hei/Desktop/optee-qemu/optee_os/lib/libutee/tee_api.c:69
    27e4:	b400031b 	cbz	x27, 2844 <copy_param.constprop.1+0x124>
/home/hei/Desktop/optee-qemu/optee_os/lib/libutee/tee_api.c:70
    27e8:	2a1503e1 	mov	w1, w21
    27ec:	aa1b03e0 	mov	x0, x27
    27f0:	94000159 	bl	2d54 <tee_map_zi>
    27f4:	aa0003e3 	mov	x3, x0
/home/hei/Desktop/optee-qemu/optee_os/lib/libutee/tee_api.c:71
    27f8:	b4000780 	cbz	x0, 28e8 <copy_param.constprop.1+0x1c8>
/home/hei/Desktop/optee-qemu/optee_os/lib/libutee/tee_api.c:73
    27fc:	f9000320 	str	x0, [x25]
/home/hei/Desktop/optee-qemu/optee_os/lib/libutee/tee_api.c:74
    2800:	f900031b 	str	x27, [x24]
/home/hei/Desktop/optee-qemu/optee_os/lib/libutee/tee_api.c:79
    2804:	90000059 	adrp	x25, a000 <__text_end+0x12f4>
/home/hei/Desktop/optee-qemu/optee_os/lib/libutee/tee_api.c:89
    2808:	9101e3fb 	add	x27, sp, #0x78
/home/hei/Desktop/optee-qemu/optee_os/lib/libutee/tee_api.c:79
    280c:	91225339 	add	x25, x25, #0x894
/home/hei/Desktop/optee-qemu/optee_os/lib/libutee/tee_api.c:77
    2810:	2a1603e0 	mov	w0, w22
/home/hei/Desktop/optee-qemu/optee_os/lib/libutee/tee_api.c:78
    2814:	d2800015 	mov	x21, #0x0                   	// #0
/home/hei/Desktop/optee-qemu/optee_os/lib/libutee/tee_api.c:77
    2818:	f8008660 	str	x0, [x19], #8
/home/hei/Desktop/optee-qemu/optee_os/lib/libutee/tee_api.c:79
    281c:	531e76a0 	lsl	w0, w21, #2
    2820:	1ac026c0 	lsr	w0, w22, w0
    2824:	12000c00 	and	w0, w0, #0xf
    2828:	51000401 	sub	w1, w0, #0x1
    282c:	7100183f 	cmp	w1, #0x6
    2830:	54000588 	b.hi	28e0 <copy_param.constprop.1+0x1c0>  // b.pmore
    2834:	38614b21 	ldrb	w1, [x25, w1, uxtw]
    2838:	10000062 	adr	x2, 2844 <copy_param.constprop.1+0x124>
    283c:	8b218841 	add	x1, x2, w1, sxtb #2
    2840:	d61f0020 	br	x1
/home/hei/Desktop/optee-qemu/optee_os/lib/libutee/tee_api.c:25
    2844:	d2800003 	mov	x3, #0x0                   	// #0
    2848:	17ffffef 	b	2804 <copy_param.constprop.1+0xe4>
/home/hei/Desktop/optee-qemu/optee_os/lib/libutee/tee_api.c:82
    284c:	b9400280 	ldr	w0, [x20]
    2850:	f9000260 	str	x0, [x19]
/home/hei/Desktop/optee-qemu/optee_os/lib/libutee/tee_api.c:83
    2854:	b9400680 	ldr	w0, [x20, #4]
    2858:	f9000660 	str	x0, [x19, #8]
/home/hei/Desktop/optee-qemu/optee_os/lib/libutee/tee_api.c:78
    285c:	910006b5 	add	x21, x21, #0x1
    2860:	91004294 	add	x20, x20, #0x10
    2864:	91004273 	add	x19, x19, #0x10
    2868:	f10012bf 	cmp	x21, #0x4
    286c:	54fffd81 	b.ne	281c <copy_param.constprop.1+0xfc>  // b.any
/home/hei/Desktop/optee-qemu/optee_os/lib/libutee/tee_api.c:109
    2870:	52800000 	mov	w0, #0x0                   	// #0
/home/hei/Desktop/optee-qemu/optee_os/lib/libutee/tee_api.c:110
    2874:	a94153f3 	ldp	x19, x20, [sp, #16]
    2878:	a9425bf5 	ldp	x21, x22, [sp, #32]
    287c:	a94363f7 	ldp	x23, x24, [sp, #48]
    2880:	a9446bf9 	ldp	x25, x26, [sp, #64]
    2884:	a94573fb 	ldp	x27, x28, [sp, #80]
    2888:	a8c87bfd 	ldp	x29, x30, [sp], #128
    288c:	d65f03c0 	ret
/home/hei/Desktop/optee-qemu/optee_os/lib/libutee/tee_api.c:89
    2890:	387b6aa1 	ldrb	w1, [x21, x27]
/home/hei/Desktop/optee-qemu/optee_os/lib/libutee/tee_api.c:88
    2894:	b9400a9a 	ldr	w26, [x20, #8]
/home/hei/Desktop/optee-qemu/optee_os/lib/libutee/tee_api.c:89
    2898:	340001e1 	cbz	w1, 28d4 <copy_param.constprop.1+0x1b4>
/home/hei/Desktop/optee-qemu/optee_os/lib/libutee/tee_api.c:92
    289c:	91003f58 	add	x24, x26, #0xf
/home/hei/Desktop/optee-qemu/optee_os/lib/libutee/tee_api.c:91
    28a0:	f8357ae3 	str	x3, [x23, x21, lsl #3]
/home/hei/Desktop/optee-qemu/optee_os/lib/libutee/tee_api.c:92
    28a4:	927cef18 	and	x24, x24, #0xfffffffffffffff0
/home/hei/Desktop/optee-qemu/optee_os/lib/libutee/tee_api.c:93
    28a8:	7100181f 	cmp	w0, #0x6
/home/hei/Desktop/optee-qemu/optee_os/lib/libutee/tee_api.c:92
    28ac:	8b180078 	add	x24, x3, x24
/home/hei/Desktop/optee-qemu/optee_os/lib/libutee/tee_api.c:93
    28b0:	540000c0 	b.eq	28c8 <copy_param.constprop.1+0x1a8>  // b.none
/home/hei/Desktop/optee-qemu/optee_os/lib/libutee/tee_api.c:95
    28b4:	f9400281 	ldr	x1, [x20]
    28b8:	aa0303e0 	mov	x0, x3
    28bc:	aa1a03e2 	mov	x2, x26
    28c0:	97fff721 	bl	544 <memcpy>
    28c4:	aa0003e3 	mov	x3, x0
/home/hei/Desktop/optee-qemu/optee_os/lib/libutee/tee_api.c:100
    28c8:	a9006a63 	stp	x3, x26, [x19]
    28cc:	aa1803e3 	mov	x3, x24
    28d0:	17ffffe3 	b	285c <copy_param.constprop.1+0x13c>
/home/hei/Desktop/optee-qemu/optee_os/lib/libutee/tee_api.c:97
    28d4:	aa0303f8 	mov	x24, x3
    28d8:	f9400283 	ldr	x3, [x20]
    28dc:	17fffffb 	b	28c8 <copy_param.constprop.1+0x1a8>
/home/hei/Desktop/optee-qemu/optee_os/lib/libutee/tee_api.c:104
    28e0:	a9007e7f 	stp	xzr, xzr, [x19]
/home/hei/Desktop/optee-qemu/optee_os/lib/libutee/tee_api.c:105
    28e4:	17ffffde 	b	285c <copy_param.constprop.1+0x13c>
/home/hei/Desktop/optee-qemu/optee_os/lib/libutee/tee_api.c:72
    28e8:	129ffe60 	mov	w0, #0xffff000c            	// #-65524
    28ec:	17ffffe2 	b	2874 <copy_param.constprop.1+0x154>

00000000000028f0 <TEE_InvokeTACommand>:
TEE_InvokeTACommand():
/home/hei/Desktop/optee-qemu/optee_os/lib/libutee/tee_api.c:197
    28f0:	a9b37bfd 	stp	x29, x30, [sp, #-208]!
    28f4:	910003fd 	mov	x29, sp
    28f8:	a90153f3 	stp	x19, x20, [sp, #16]
/home/hei/Desktop/optee-qemu/optee_os/lib/libutee/tee_api.c:205
    28fc:	910223f4 	add	x20, sp, #0x88
/home/hei/Desktop/optee-qemu/optee_os/lib/libutee/tee_api.c:197
    2900:	a9025bf5 	stp	x21, x22, [sp, #32]
    2904:	aa0403f6 	mov	x22, x4
    2908:	aa0503f5 	mov	x21, x5
    290c:	a90363f7 	stp	x23, x24, [sp, #48]
    2910:	aa0003f8 	mov	x24, x0
/home/hei/Desktop/optee-qemu/optee_os/lib/libutee/tee_api.c:205
    2914:	9101a3f7 	add	x23, sp, #0x68
/home/hei/Desktop/optee-qemu/optee_os/lib/libutee/tee_api.c:199
    2918:	52800060 	mov	w0, #0x3                   	// #3
/home/hei/Desktop/optee-qemu/optee_os/lib/libutee/tee_api.c:205
    291c:	aa1703e5 	mov	x5, x23
    2920:	910183e4 	add	x4, sp, #0x60
/home/hei/Desktop/optee-qemu/optee_os/lib/libutee/tee_api.c:197
    2924:	a9046bf9 	stp	x25, x26, [sp, #64]
    2928:	2a0103f9 	mov	w25, w1
    292c:	2a0203fa 	mov	w26, w2
    2930:	2a0303e1 	mov	w1, w3
/home/hei/Desktop/optee-qemu/optee_os/lib/libutee/tee_api.c:205
    2934:	aa1603e2 	mov	x2, x22
    2938:	910163e3 	add	x3, sp, #0x58
/home/hei/Desktop/optee-qemu/optee_os/lib/libutee/tee_api.c:199
    293c:	b90057e0 	str	w0, [sp, #84]
/home/hei/Desktop/optee-qemu/optee_os/lib/libutee/tee_api.c:205
    2940:	aa1403e0 	mov	x0, x20
/home/hei/Desktop/optee-qemu/optee_os/lib/libutee/tee_api.c:202
    2944:	a905ffff 	stp	xzr, xzr, [sp, #88]
/home/hei/Desktop/optee-qemu/optee_os/lib/libutee/tee_api.c:203
    2948:	a906ffff 	stp	xzr, xzr, [sp, #104]
    294c:	a907ffff 	stp	xzr, xzr, [sp, #120]
/home/hei/Desktop/optee-qemu/optee_os/lib/libutee/tee_api.c:205
    2950:	97ffff74 	bl	2720 <copy_param.constprop.1>
    2954:	2a0003f3 	mov	w19, w0
/home/hei/Desktop/optee-qemu/optee_os/lib/libutee/tee_api.c:206
    2958:	35000240 	cbnz	w0, 29a0 <TEE_InvokeTACommand+0xb0>
/home/hei/Desktop/optee-qemu/optee_os/lib/libutee/tee_api.c:208
    295c:	910153e4 	add	x4, sp, #0x54
    2960:	aa1403e3 	mov	x3, x20
    2964:	2a1a03e2 	mov	w2, w26
    2968:	2a1903e1 	mov	w1, w25
    296c:	aa1803e0 	mov	x0, x24
    2970:	94000151 	bl	2eb4 <utee_invoke_ta_command>
/home/hei/Desktop/optee-qemu/optee_os/lib/libutee/tee_api.c:211
    2974:	aa1403e2 	mov	x2, x20
/home/hei/Desktop/optee-qemu/optee_os/lib/libutee/tee_api.c:208
    2978:	2a0003f3 	mov	w19, w0
/home/hei/Desktop/optee-qemu/optee_os/lib/libutee/tee_api.c:211
    297c:	aa1703e1 	mov	x1, x23
    2980:	aa1603e0 	mov	x0, x22
    2984:	97ffff09 	bl	25a8 <update_out_param>
/home/hei/Desktop/optee-qemu/optee_os/lib/libutee/tee_api.c:212
    2988:	f9402fe0 	ldr	x0, [sp, #88]
    298c:	b40000a0 	cbz	x0, 29a0 <TEE_InvokeTACommand+0xb0>
/home/hei/Desktop/optee-qemu/optee_os/lib/libutee/tee_api.c:213
    2990:	f94033e1 	ldr	x1, [sp, #96]
    2994:	9400010d 	bl	2dc8 <tee_unmap>
/home/hei/Desktop/optee-qemu/optee_os/lib/libutee/tee_api.c:215
    2998:	34000040 	cbz	w0, 29a0 <TEE_InvokeTACommand+0xb0>
/home/hei/Desktop/optee-qemu/optee_os/lib/libutee/tee_api.c:216
    299c:	940000ca 	bl	2cc4 <TEE_Panic>
/home/hei/Desktop/optee-qemu/optee_os/lib/libutee/tee_api.c:220
    29a0:	b94057e0 	ldr	w0, [sp, #84]
    29a4:	b4000055 	cbz	x21, 29ac <TEE_InvokeTACommand+0xbc>
/home/hei/Desktop/optee-qemu/optee_os/lib/libutee/tee_api.c:221
    29a8:	b90002a0 	str	w0, [x21]
/home/hei/Desktop/optee-qemu/optee_os/lib/libutee/tee_api.c:223
    29ac:	7100101f 	cmp	w0, #0x4
    29b0:	54000140 	b.eq	29d8 <TEE_InvokeTACommand+0xe8>  // b.none
/home/hei/Desktop/optee-qemu/optee_os/lib/libutee/tee_api.c:226
    29b4:	7100027f 	cmp	w19, #0x0
    29b8:	129ffe60 	mov	w0, #0xffff000c            	// #-65524
    29bc:	7a401264 	ccmp	w19, w0, #0x4, ne  // ne = any
    29c0:	540000c0 	b.eq	29d8 <TEE_InvokeTACommand+0xe8>  // b.none
/home/hei/Desktop/optee-qemu/optee_os/lib/libutee/tee_api.c:227
    29c4:	1299fb60 	mov	w0, #0xffff3024            	// #-53212
    29c8:	6b00027f 	cmp	w19, w0
    29cc:	54000060 	b.eq	29d8 <TEE_InvokeTACommand+0xe8>  // b.none
/home/hei/Desktop/optee-qemu/optee_os/lib/libutee/tee_api.c:229
    29d0:	2a1303e0 	mov	w0, w19
    29d4:	940000bc 	bl	2cc4 <TEE_Panic>
/home/hei/Desktop/optee-qemu/optee_os/lib/libutee/tee_api.c:232
    29d8:	2a1303e0 	mov	w0, w19
    29dc:	a94153f3 	ldp	x19, x20, [sp, #16]
    29e0:	a9425bf5 	ldp	x21, x22, [sp, #32]
    29e4:	a94363f7 	ldp	x23, x24, [sp, #48]
    29e8:	a9446bf9 	ldp	x25, x26, [sp, #64]
    29ec:	a8cd7bfd 	ldp	x29, x30, [sp], #208
    29f0:	d65f03c0 	ret

00000000000029f4 <TEE_OpenTASession>:
TEE_OpenTASession():
/home/hei/Desktop/optee-qemu/optee_os/lib/libutee/tee_api.c:148
    29f4:	a9b37bfd 	stp	x29, x30, [sp, #-208]!
    29f8:	910003fd 	mov	x29, sp
    29fc:	a90153f3 	stp	x19, x20, [sp, #16]
/home/hei/Desktop/optee-qemu/optee_os/lib/libutee/tee_api.c:156
    2a00:	910223f4 	add	x20, sp, #0x88
/home/hei/Desktop/optee-qemu/optee_os/lib/libutee/tee_api.c:148
    2a04:	a9025bf5 	stp	x21, x22, [sp, #32]
    2a08:	aa0303f5 	mov	x21, x3
/home/hei/Desktop/optee-qemu/optee_os/lib/libutee/tee_api.c:156
    2a0c:	9101a3f6 	add	x22, sp, #0x68
    2a10:	910163e3 	add	x3, sp, #0x58
/home/hei/Desktop/optee-qemu/optee_os/lib/libutee/tee_api.c:148
    2a14:	a90363f7 	stp	x23, x24, [sp, #48]
    2a18:	aa0003f8 	mov	x24, x0
    2a1c:	aa0403f7 	mov	x23, x4
/home/hei/Desktop/optee-qemu/optee_os/lib/libutee/tee_api.c:156
    2a20:	aa1403e0 	mov	x0, x20
    2a24:	910183e4 	add	x4, sp, #0x60
/home/hei/Desktop/optee-qemu/optee_os/lib/libutee/tee_api.c:148
    2a28:	a9046bf9 	stp	x25, x26, [sp, #64]
    2a2c:	2a0103f9 	mov	w25, w1
    2a30:	aa0503fa 	mov	x26, x5
    2a34:	2a0203e1 	mov	w1, w2
/home/hei/Desktop/optee-qemu/optee_os/lib/libutee/tee_api.c:156
    2a38:	aa1603e5 	mov	x5, x22
    2a3c:	aa1503e2 	mov	x2, x21
/home/hei/Desktop/optee-qemu/optee_os/lib/libutee/tee_api.c:151
    2a40:	b90057ff 	str	wzr, [sp, #84]
/home/hei/Desktop/optee-qemu/optee_os/lib/libutee/tee_api.c:153
    2a44:	a905ffff 	stp	xzr, xzr, [sp, #88]
/home/hei/Desktop/optee-qemu/optee_os/lib/libutee/tee_api.c:154
    2a48:	a906ffff 	stp	xzr, xzr, [sp, #104]
    2a4c:	a907ffff 	stp	xzr, xzr, [sp, #120]
/home/hei/Desktop/optee-qemu/optee_os/lib/libutee/tee_api.c:156
    2a50:	97ffff34 	bl	2720 <copy_param.constprop.1>
/home/hei/Desktop/optee-qemu/optee_os/lib/libutee/tee_api.c:157
    2a54:	350003a0 	cbnz	w0, 2ac8 <TEE_OpenTASession+0xd4>
/home/hei/Desktop/optee-qemu/optee_os/lib/libutee/tee_api.c:159
    2a58:	aa1a03e4 	mov	x4, x26
    2a5c:	910153e3 	add	x3, sp, #0x54
    2a60:	aa1403e2 	mov	x2, x20
    2a64:	2a1903e1 	mov	w1, w25
    2a68:	aa1803e0 	mov	x0, x24
    2a6c:	9400010c 	bl	2e9c <utee_open_ta_session>
/home/hei/Desktop/optee-qemu/optee_os/lib/libutee/tee_api.c:161
    2a70:	aa1403e2 	mov	x2, x20
/home/hei/Desktop/optee-qemu/optee_os/lib/libutee/tee_api.c:159
    2a74:	2a0003f3 	mov	w19, w0
/home/hei/Desktop/optee-qemu/optee_os/lib/libutee/tee_api.c:161
    2a78:	aa1603e1 	mov	x1, x22
    2a7c:	aa1503e0 	mov	x0, x21
    2a80:	97fffeca 	bl	25a8 <update_out_param>
/home/hei/Desktop/optee-qemu/optee_os/lib/libutee/tee_api.c:162
    2a84:	f9402fe0 	ldr	x0, [sp, #88]
    2a88:	b40000a0 	cbz	x0, 2a9c <TEE_OpenTASession+0xa8>
/home/hei/Desktop/optee-qemu/optee_os/lib/libutee/tee_api.c:163
    2a8c:	f94033e1 	ldr	x1, [sp, #96]
    2a90:	940000ce 	bl	2dc8 <tee_unmap>
/home/hei/Desktop/optee-qemu/optee_os/lib/libutee/tee_api.c:165
    2a94:	34000040 	cbz	w0, 2a9c <TEE_OpenTASession+0xa8>
/home/hei/Desktop/optee-qemu/optee_os/lib/libutee/tee_api.c:166
    2a98:	9400008b 	bl	2cc4 <TEE_Panic>
/home/hei/Desktop/optee-qemu/optee_os/lib/libutee/tee_api.c:175
    2a9c:	34000053 	cbz	w19, 2aa4 <TEE_OpenTASession+0xb0>
/home/hei/Desktop/optee-qemu/optee_os/lib/libutee/tee_api.c:176
    2aa0:	b90057ff 	str	wzr, [sp, #84]
/home/hei/Desktop/optee-qemu/optee_os/lib/libutee/tee_api.c:178
    2aa4:	b94057e0 	ldr	w0, [sp, #84]
/home/hei/Desktop/optee-qemu/optee_os/lib/libutee/tee_api.c:180
    2aa8:	a9425bf5 	ldp	x21, x22, [sp, #32]
    2aac:	a9446bf9 	ldp	x25, x26, [sp, #64]
/home/hei/Desktop/optee-qemu/optee_os/lib/libutee/tee_api.c:178
    2ab0:	f90002e0 	str	x0, [x23]
/home/hei/Desktop/optee-qemu/optee_os/lib/libutee/tee_api.c:180
    2ab4:	2a1303e0 	mov	w0, w19
    2ab8:	a94153f3 	ldp	x19, x20, [sp, #16]
    2abc:	a94363f7 	ldp	x23, x24, [sp, #48]
    2ac0:	a8cd7bfd 	ldp	x29, x30, [sp], #208
    2ac4:	d65f03c0 	ret
    2ac8:	2a0003f3 	mov	w19, w0
    2acc:	17fffff5 	b	2aa0 <TEE_OpenTASession+0xac>

0000000000002ad0 <TEE_SetInstanceData>:
TEE_SetInstanceData():
/home/hei/Desktop/optee-qemu/optee_os/lib/libutee/tee_api.c:293
    2ad0:	d0000041 	adrp	x1, c000 <_DYNAMIC>
    2ad4:	f9024820 	str	x0, [x1, #1168]
/home/hei/Desktop/optee-qemu/optee_os/lib/libutee/tee_api.c:294
    2ad8:	d65f03c0 	ret

0000000000002adc <TEE_GetInstanceData>:
TEE_GetInstanceData():
/home/hei/Desktop/optee-qemu/optee_os/lib/libutee/tee_api.c:299
    2adc:	d0000040 	adrp	x0, c000 <_DYNAMIC>
    2ae0:	f9424800 	ldr	x0, [x0, #1168]
    2ae4:	d65f03c0 	ret

0000000000002ae8 <TEE_MemMove>:
TEE_MemMove():
/home/hei/Desktop/optee-qemu/optee_os/lib/libutee/tee_api.c:303
    2ae8:	2a0203e2 	mov	w2, w2
    2aec:	140017eb 	b	8a98 <memmove>

0000000000002af0 <TEE_MemCompare>:
TEE_MemCompare():
/home/hei/Desktop/optee-qemu/optee_os/lib/libutee/tee_api.c:308
    2af0:	2a0203e2 	mov	w2, w2
    2af4:	1400186a 	b	8c9c <consttime_memcmp>

0000000000002af8 <TEE_MemFill>:
TEE_MemFill():
/home/hei/Desktop/optee-qemu/optee_os/lib/libutee/tee_api.c:313
    2af8:	2a0203e2 	mov	w2, w2
    2afc:	17fffae7 	b	1698 <memset>

0000000000002b00 <TEE_GetSystemTime>:
TEE_GetSystemTime():
/home/hei/Desktop/optee-qemu/optee_os/lib/libutee/tee_api.c:319
    2b00:	a9bf7bfd 	stp	x29, x30, [sp, #-16]!
/home/hei/Desktop/optee-qemu/optee_os/lib/libutee/tee_api.c:320
    2b04:	aa0003e1 	mov	x1, x0
    2b08:	d2800000 	mov	x0, #0x0                   	// #0
/home/hei/Desktop/optee-qemu/optee_os/lib/libutee/tee_api.c:319
    2b0c:	910003fd 	mov	x29, sp
/home/hei/Desktop/optee-qemu/optee_os/lib/libutee/tee_api.c:320
    2b10:	940000fb 	bl	2efc <utee_get_time>
/home/hei/Desktop/optee-qemu/optee_os/lib/libutee/tee_api.c:322
    2b14:	34000060 	cbz	w0, 2b20 <TEE_GetSystemTime+0x20>
/home/hei/Desktop/optee-qemu/optee_os/lib/libutee/tee_api.c:324
    2b18:	a8c17bfd 	ldp	x29, x30, [sp], #16
/home/hei/Desktop/optee-qemu/optee_os/lib/libutee/tee_api.c:323
    2b1c:	1400006a 	b	2cc4 <TEE_Panic>
/home/hei/Desktop/optee-qemu/optee_os/lib/libutee/tee_api.c:324
    2b20:	a8c17bfd 	ldp	x29, x30, [sp], #16
    2b24:	d65f03c0 	ret

0000000000002b28 <TEE_Wait>:
TEE_Wait():
/home/hei/Desktop/optee-qemu/optee_os/lib/libutee/tee_api.c:327
    2b28:	a9be7bfd 	stp	x29, x30, [sp, #-32]!
/home/hei/Desktop/optee-qemu/optee_os/lib/libutee/tee_api.c:328
    2b2c:	2a0003e0 	mov	w0, w0
/home/hei/Desktop/optee-qemu/optee_os/lib/libutee/tee_api.c:327
    2b30:	910003fd 	mov	x29, sp
    2b34:	f9000bf3 	str	x19, [sp, #16]
/home/hei/Desktop/optee-qemu/optee_os/lib/libutee/tee_api.c:328
    2b38:	940000ee 	bl	2ef0 <utee_wait>
/home/hei/Desktop/optee-qemu/optee_os/lib/libutee/tee_api.c:330
    2b3c:	7100001f 	cmp	w0, #0x0
    2b40:	129fffa1 	mov	w1, #0xffff0002            	// #-65534
/home/hei/Desktop/optee-qemu/optee_os/lib/libutee/tee_api.c:328
    2b44:	2a0003f3 	mov	w19, w0
/home/hei/Desktop/optee-qemu/optee_os/lib/libutee/tee_api.c:330
    2b48:	7a411004 	ccmp	w0, w1, #0x4, ne  // ne = any
    2b4c:	54000040 	b.eq	2b54 <TEE_Wait+0x2c>  // b.none
/home/hei/Desktop/optee-qemu/optee_os/lib/libutee/tee_api.c:331
    2b50:	9400005d 	bl	2cc4 <TEE_Panic>
/home/hei/Desktop/optee-qemu/optee_os/lib/libutee/tee_api.c:334
    2b54:	2a1303e0 	mov	w0, w19
    2b58:	f9400bf3 	ldr	x19, [sp, #16]
    2b5c:	a8c27bfd 	ldp	x29, x30, [sp], #32
    2b60:	d65f03c0 	ret

0000000000002b64 <TEE_GetTAPersistentTime>:
TEE_GetTAPersistentTime():
/home/hei/Desktop/optee-qemu/optee_os/lib/libutee/tee_api.c:337
    2b64:	a9be7bfd 	stp	x29, x30, [sp, #-32]!
/home/hei/Desktop/optee-qemu/optee_os/lib/libutee/tee_api.c:340
    2b68:	aa0003e1 	mov	x1, x0
/home/hei/Desktop/optee-qemu/optee_os/lib/libutee/tee_api.c:337
    2b6c:	910003fd 	mov	x29, sp
    2b70:	a90153f3 	stp	x19, x20, [sp, #16]
    2b74:	aa0003f4 	mov	x20, x0
/home/hei/Desktop/optee-qemu/optee_os/lib/libutee/tee_api.c:340
    2b78:	d2800020 	mov	x0, #0x1                   	// #1
    2b7c:	940000e0 	bl	2efc <utee_get_time>
/home/hei/Desktop/optee-qemu/optee_os/lib/libutee/tee_api.c:342
    2b80:	7100001f 	cmp	w0, #0x0
/home/hei/Desktop/optee-qemu/optee_os/lib/libutee/tee_api.c:340
    2b84:	2a0003f3 	mov	w19, w0
/home/hei/Desktop/optee-qemu/optee_os/lib/libutee/tee_api.c:342
    2b88:	1a9f07e2 	cset	w2, ne  // ne = any
    2b8c:	1299fe00 	mov	w0, #0xffff300f            	// #-53233
    2b90:	6b00027f 	cmp	w19, w0
    2b94:	1a9f1041 	csel	w1, w2, wzr, ne  // ne = any
    2b98:	34000041 	cbz	w1, 2ba0 <TEE_GetTAPersistentTime+0x3c>
/home/hei/Desktop/optee-qemu/optee_os/lib/libutee/tee_api.c:344
    2b9c:	29007e9f 	stp	wzr, wzr, [x20]
/home/hei/Desktop/optee-qemu/optee_os/lib/libutee/tee_api.c:348
    2ba0:	11402e60 	add	w0, w19, #0xb, lsl #12
/home/hei/Desktop/optee-qemu/optee_os/lib/libutee/tee_api.c:347
    2ba4:	7100005f 	cmp	w2, #0x0
    2ba8:	7a411800 	ccmp	w0, #0x1, #0x0, ne  // ne = any
    2bac:	540000e9 	b.ls	2bc8 <TEE_GetTAPersistentTime+0x64>  // b.plast
/home/hei/Desktop/optee-qemu/optee_os/lib/libutee/tee_api.c:349
    2bb0:	340000c1 	cbz	w1, 2bc8 <TEE_GetTAPersistentTime+0x64>
/home/hei/Desktop/optee-qemu/optee_os/lib/libutee/tee_api.c:350
    2bb4:	129ffe60 	mov	w0, #0xffff000c            	// #-65524
    2bb8:	6b00027f 	cmp	w19, w0
    2bbc:	54000060 	b.eq	2bc8 <TEE_GetTAPersistentTime+0x64>  // b.none
/home/hei/Desktop/optee-qemu/optee_os/lib/libutee/tee_api.c:352
    2bc0:	2a1303e0 	mov	w0, w19
    2bc4:	94000040 	bl	2cc4 <TEE_Panic>
/home/hei/Desktop/optee-qemu/optee_os/lib/libutee/tee_api.c:355
    2bc8:	2a1303e0 	mov	w0, w19
    2bcc:	a94153f3 	ldp	x19, x20, [sp, #16]
    2bd0:	a8c27bfd 	ldp	x29, x30, [sp], #32
    2bd4:	d65f03c0 	ret

0000000000002bd8 <TEE_SetTAPersistentTime>:
TEE_SetTAPersistentTime():
/home/hei/Desktop/optee-qemu/optee_os/lib/libutee/tee_api.c:358
    2bd8:	a9be7bfd 	stp	x29, x30, [sp, #-32]!
    2bdc:	910003fd 	mov	x29, sp
    2be0:	f9000bf3 	str	x19, [sp, #16]
/home/hei/Desktop/optee-qemu/optee_os/lib/libutee/tee_api.c:361
    2be4:	940000c9 	bl	2f08 <utee_set_ta_time>
/home/hei/Desktop/optee-qemu/optee_os/lib/libutee/tee_api.c:363
    2be8:	7100001f 	cmp	w0, #0x0
    2bec:	129ffe61 	mov	w1, #0xffff000c            	// #-65524
/home/hei/Desktop/optee-qemu/optee_os/lib/libutee/tee_api.c:361
    2bf0:	2a0003f3 	mov	w19, w0
/home/hei/Desktop/optee-qemu/optee_os/lib/libutee/tee_api.c:363
    2bf4:	7a411004 	ccmp	w0, w1, #0x4, ne  // ne = any
    2bf8:	540000a0 	b.eq	2c0c <TEE_SetTAPersistentTime+0x34>  // b.none
/home/hei/Desktop/optee-qemu/optee_os/lib/libutee/tee_api.c:364
    2bfc:	1299f7c1 	mov	w1, #0xffff3041            	// #-53183
    2c00:	6b01001f 	cmp	w0, w1
    2c04:	54000040 	b.eq	2c0c <TEE_SetTAPersistentTime+0x34>  // b.none
/home/hei/Desktop/optee-qemu/optee_os/lib/libutee/tee_api.c:366
    2c08:	9400002f 	bl	2cc4 <TEE_Panic>
/home/hei/Desktop/optee-qemu/optee_os/lib/libutee/tee_api.c:369
    2c0c:	2a1303e0 	mov	w0, w19
    2c10:	f9400bf3 	ldr	x19, [sp, #16]
    2c14:	a8c27bfd 	ldp	x29, x30, [sp], #32
    2c18:	d65f03c0 	ret

0000000000002c1c <TEE_GetREETime>:
TEE_GetREETime():
/home/hei/Desktop/optee-qemu/optee_os/lib/libutee/tee_api.c:372
    2c1c:	a9bf7bfd 	stp	x29, x30, [sp, #-16]!
/home/hei/Desktop/optee-qemu/optee_os/lib/libutee/tee_api.c:373
    2c20:	aa0003e1 	mov	x1, x0
    2c24:	d2800040 	mov	x0, #0x2                   	// #2
/home/hei/Desktop/optee-qemu/optee_os/lib/libutee/tee_api.c:372
    2c28:	910003fd 	mov	x29, sp
/home/hei/Desktop/optee-qemu/optee_os/lib/libutee/tee_api.c:373
    2c2c:	940000b4 	bl	2efc <utee_get_time>
/home/hei/Desktop/optee-qemu/optee_os/lib/libutee/tee_api.c:375
    2c30:	34000060 	cbz	w0, 2c3c <TEE_GetREETime+0x20>
/home/hei/Desktop/optee-qemu/optee_os/lib/libutee/tee_api.c:377
    2c34:	a8c17bfd 	ldp	x29, x30, [sp], #16
/home/hei/Desktop/optee-qemu/optee_os/lib/libutee/tee_api.c:376
    2c38:	14000023 	b	2cc4 <TEE_Panic>
/home/hei/Desktop/optee-qemu/optee_os/lib/libutee/tee_api.c:377
    2c3c:	a8c17bfd 	ldp	x29, x30, [sp], #16
    2c40:	d65f03c0 	ret

0000000000002c44 <TEE_Malloc>:
TEE_Malloc():
/home/hei/Desktop/optee-qemu/optee_os/lib/libutee/tee_api.c:381
    2c44:	35000081 	cbnz	w1, 2c54 <TEE_Malloc+0x10>
/home/hei/Desktop/optee-qemu/optee_os/lib/libutee/tee_api.c:382
    2c48:	2a0003e1 	mov	w1, w0
    2c4c:	d2800020 	mov	x0, #0x1                   	// #1
    2c50:	17fff98a 	b	1278 <calloc>
/home/hei/Desktop/optee-qemu/optee_os/lib/libutee/tee_api.c:383
    2c54:	52b00002 	mov	w2, #0x80000000            	// #-2147483648
    2c58:	6b02003f 	cmp	w1, w2
    2c5c:	54000061 	b.ne	2c68 <TEE_Malloc+0x24>  // b.any
/home/hei/Desktop/optee-qemu/optee_os/lib/libutee/tee_api.c:384
    2c60:	2a0003e0 	mov	w0, w0
    2c64:	17fff971 	b	1228 <malloc>
/home/hei/Desktop/optee-qemu/optee_os/lib/libutee/tee_api.c:380
    2c68:	a9bf7bfd 	stp	x29, x30, [sp, #-16]!
    2c6c:	2a0103e5 	mov	w5, w1
/home/hei/Desktop/optee-qemu/optee_os/lib/libutee/tee_api.c:386
    2c70:	52800023 	mov	w3, #0x1                   	// #1
/home/hei/Desktop/optee-qemu/optee_os/lib/libutee/tee_api.c:380
    2c74:	910003fd 	mov	x29, sp
/home/hei/Desktop/optee-qemu/optee_os/lib/libutee/tee_api.c:386
    2c78:	52800022 	mov	w2, #0x1                   	// #1
    2c7c:	52803041 	mov	w1, #0x182                 	// #386
    2c80:	b0000044 	adrp	x4, b000 <__func__.3755+0x98>
    2c84:	90000040 	adrp	x0, a000 <__text_end+0x12f4>
    2c88:	910ad884 	add	x4, x4, #0x2b6
    2c8c:	91226c00 	add	x0, x0, #0x89b
    2c90:	97fff6fa 	bl	878 <trace_printf>
/home/hei/Desktop/optee-qemu/optee_os/lib/libutee/tee_api.c:389
    2c94:	d2800000 	mov	x0, #0x0                   	// #0
    2c98:	a8c17bfd 	ldp	x29, x30, [sp], #16
    2c9c:	d65f03c0 	ret

0000000000002ca0 <TEE_Realloc>:
TEE_Realloc():
/home/hei/Desktop/optee-qemu/optee_os/lib/libutee/tee_api.c:393
    2ca0:	2a0103e1 	mov	w1, w1
    2ca4:	17fff98e 	b	12dc <realloc>

0000000000002ca8 <TEE_Free>:
TEE_Free():
/home/hei/Desktop/optee-qemu/optee_os/lib/libutee/tee_api.c:398
    2ca8:	17fff9a1 	b	132c <free>

0000000000002cac <TEE_CacheClean>:
TEE_CacheClean():
/home/hei/Desktop/optee-qemu/optee_os/lib/libutee/tee_api.c:404
    2cac:	d2800002 	mov	x2, #0x0                   	// #0
    2cb0:	14000111 	b	30f4 <utee_cache_operation>

0000000000002cb4 <TEE_CacheFlush>:
TEE_CacheFlush():
/home/hei/Desktop/optee-qemu/optee_os/lib/libutee/tee_api.c:408
    2cb4:	d2800022 	mov	x2, #0x1                   	// #1
    2cb8:	1400010f 	b	30f4 <utee_cache_operation>

0000000000002cbc <TEE_CacheInvalidate>:
TEE_CacheInvalidate():
/home/hei/Desktop/optee-qemu/optee_os/lib/libutee/tee_api.c:413
    2cbc:	d2800042 	mov	x2, #0x2                   	// #2
    2cc0:	1400010d 	b	30f4 <utee_cache_operation>

0000000000002cc4 <TEE_Panic>:
TEE_Panic():
/home/hei/Desktop/optee-qemu/optee_os/lib/libutee/tee_api_panic.c:12
    2cc4:	2a0003e0 	mov	w0, w0
    2cc8:	14000063 	b	2e54 <utee_panic>

0000000000002ccc <invoke_system_pta>:
invoke_system_pta():
/home/hei/Desktop/optee-qemu/optee_os/lib/libutee/tee_system_pta.c:15
    2ccc:	a9bd7bfd 	stp	x29, x30, [sp, #-48]!
    2cd0:	910003fd 	mov	x29, sp
    2cd4:	a90153f3 	stp	x19, x20, [sp, #16]
    2cd8:	2a0003f4 	mov	w20, w0
/home/hei/Desktop/optee-qemu/optee_os/lib/libutee/tee_system_pta.c:19
    2cdc:	d0000040 	adrp	x0, c000 <_DYNAMIC>
/home/hei/Desktop/optee-qemu/optee_os/lib/libutee/tee_system_pta.c:15
    2ce0:	a9025bf5 	stp	x21, x22, [sp, #32]
    2ce4:	2a0103f5 	mov	w21, w1
    2ce8:	aa0203f6 	mov	x22, x2
/home/hei/Desktop/optee-qemu/optee_os/lib/libutee/tee_system_pta.c:19
    2cec:	f9424c01 	ldr	x1, [x0, #1176]
    2cf0:	aa0003f3 	mov	x19, x0
    2cf4:	b4000161 	cbz	x1, 2d20 <invoke_system_pta+0x54>
/home/hei/Desktop/optee-qemu/optee_os/lib/libutee/tee_system_pta.c:27
    2cf8:	aa1603e4 	mov	x4, x22
    2cfc:	2a1503e3 	mov	w3, w21
    2d00:	2a1403e2 	mov	w2, w20
    2d04:	d2800005 	mov	x5, #0x0                   	// #0
    2d08:	f9424e60 	ldr	x0, [x19, #1176]
    2d0c:	12800001 	mov	w1, #0xffffffff            	// #-1
/home/hei/Desktop/optee-qemu/optee_os/lib/libutee/tee_system_pta.c:29
    2d10:	a94153f3 	ldp	x19, x20, [sp, #16]
    2d14:	a9425bf5 	ldp	x21, x22, [sp, #32]
    2d18:	a8c37bfd 	ldp	x29, x30, [sp], #48
/home/hei/Desktop/optee-qemu/optee_os/lib/libutee/tee_system_pta.c:27
    2d1c:	17fffef5 	b	28f0 <TEE_InvokeTACommand>
    2d20:	91126004 	add	x4, x0, #0x498
/home/hei/Desktop/optee-qemu/optee_os/lib/libutee/tee_system_pta.c:20
    2d24:	d2800005 	mov	x5, #0x0                   	// #0
    2d28:	90000040 	adrp	x0, a000 <__text_end+0x12f4>
    2d2c:	d2800003 	mov	x3, #0x0                   	// #0
    2d30:	52800002 	mov	w2, #0x0                   	// #0
    2d34:	12800001 	mov	w1, #0xffffffff            	// #-1
    2d38:	9122a000 	add	x0, x0, #0x8a8
    2d3c:	97ffff2e 	bl	29f4 <TEE_OpenTASession>
/home/hei/Desktop/optee-qemu/optee_os/lib/libutee/tee_system_pta.c:23
    2d40:	34fffdc0 	cbz	w0, 2cf8 <invoke_system_pta+0x2c>
/home/hei/Desktop/optee-qemu/optee_os/lib/libutee/tee_system_pta.c:29
    2d44:	a94153f3 	ldp	x19, x20, [sp, #16]
    2d48:	a9425bf5 	ldp	x21, x22, [sp, #32]
    2d4c:	a8c37bfd 	ldp	x29, x30, [sp], #48
    2d50:	d65f03c0 	ret

0000000000002d54 <tee_map_zi>:
tee_map_zi():
/home/hei/Desktop/optee-qemu/optee_os/lib/libutee/tee_system_pta.c:32
    2d54:	a9ba7bfd 	stp	x29, x30, [sp, #-96]!
/home/hei/Desktop/optee-qemu/optee_os/lib/libutee/tee_system_pta.c:37
    2d58:	d2800782 	mov	x2, #0x3c                  	// #60
/home/hei/Desktop/optee-qemu/optee_os/lib/libutee/tee_system_pta.c:32
    2d5c:	910003fd 	mov	x29, sp
    2d60:	a90153f3 	stp	x19, x20, [sp, #16]
    2d64:	aa0003f4 	mov	x20, x0
    2d68:	2a0103f3 	mov	w19, w1
/home/hei/Desktop/optee-qemu/optee_os/lib/libutee/tee_system_pta.c:37
    2d6c:	910093e0 	add	x0, sp, #0x24
    2d70:	52800001 	mov	w1, #0x0                   	// #0
    2d74:	97fffa49 	bl	1698 <memset>
/home/hei/Desktop/optee-qemu/optee_os/lib/libutee/tee_system_pta.c:40
    2d78:	b90023f4 	str	w20, [sp, #32]
/home/hei/Desktop/optee-qemu/optee_os/lib/libutee/tee_system_pta.c:41
    2d7c:	f2607e9f 	tst	x20, #0xffffffff00000000
    2d80:	54000060 	b.eq	2d8c <tee_map_zi+0x38>  // b.none
/home/hei/Desktop/optee-qemu/optee_os/lib/libutee/tee_system_pta.c:50
    2d84:	d2800000 	mov	x0, #0x0                   	// #0
    2d88:	1400000d 	b	2dbc <tee_map_zi+0x68>
/home/hei/Desktop/optee-qemu/optee_os/lib/libutee/tee_system_pta.c:43
    2d8c:	340000b3 	cbz	w19, 2da0 <tee_map_zi+0x4c>
    2d90:	7100127f 	cmp	w19, #0x4
    2d94:	54ffff81 	b.ne	2d84 <tee_map_zi+0x30>  // b.any
/home/hei/Desktop/optee-qemu/optee_os/lib/libutee/tee_system_pta.c:47
    2d98:	52800020 	mov	w0, #0x1                   	// #1
    2d9c:	b90027e0 	str	w0, [sp, #36]
/home/hei/Desktop/optee-qemu/optee_os/lib/libutee/tee_system_pta.c:53
    2da0:	910083e2 	add	x2, sp, #0x20
    2da4:	52802621 	mov	w1, #0x131                 	// #305
    2da8:	52800040 	mov	w0, #0x2                   	// #2
    2dac:	97ffffc8 	bl	2ccc <invoke_system_pta>
/home/hei/Desktop/optee-qemu/optee_os/lib/libutee/tee_system_pta.c:54
    2db0:	35fffea0 	cbnz	w0, 2d84 <tee_map_zi+0x30>
reg_pair_to_64():
/home/hei/Desktop/optee-qemu/optee_os/lib/libutils/ext/include/util.h:139
    2db4:	294607e0 	ldp	w0, w1, [sp, #48]
    2db8:	aa008020 	orr	x0, x1, x0, lsl #32
tee_map_zi():
/home/hei/Desktop/optee-qemu/optee_os/lib/libutee/tee_system_pta.c:59
    2dbc:	a94153f3 	ldp	x19, x20, [sp, #16]
    2dc0:	a8c67bfd 	ldp	x29, x30, [sp], #96
    2dc4:	d65f03c0 	ret

0000000000002dc8 <tee_unmap>:
tee_unmap():
/home/hei/Desktop/optee-qemu/optee_os/lib/libutee/tee_system_pta.c:62
    2dc8:	a9b97bfd 	stp	x29, x30, [sp, #-112]!
/home/hei/Desktop/optee-qemu/optee_os/lib/libutee/tee_system_pta.c:68
    2dcc:	d2800782 	mov	x2, #0x3c                  	// #60
/home/hei/Desktop/optee-qemu/optee_os/lib/libutee/tee_system_pta.c:62
    2dd0:	910003fd 	mov	x29, sp
    2dd4:	a90153f3 	stp	x19, x20, [sp, #16]
    2dd8:	aa0003f3 	mov	x19, x0
/home/hei/Desktop/optee-qemu/optee_os/lib/libutee/tee_system_pta.c:68
    2ddc:	9100d3e0 	add	x0, sp, #0x34
/home/hei/Desktop/optee-qemu/optee_os/lib/libutee/tee_system_pta.c:62
    2de0:	f90013f5 	str	x21, [sp, #32]
    2de4:	aa0103f5 	mov	x21, x1
/home/hei/Desktop/optee-qemu/optee_os/lib/libutee/tee_system_pta.c:68
    2de8:	52800001 	mov	w1, #0x0                   	// #0
    2dec:	97fffa2b 	bl	1698 <memset>
reg_pair_from_64():
/home/hei/Desktop/optee-qemu/optee_os/lib/libutils/ext/include/util.h:145
    2df0:	d360fe60 	lsr	x0, x19, #32
tee_unmap():
/home/hei/Desktop/optee-qemu/optee_os/lib/libutee/tee_system_pta.c:73
    2df4:	9100c3e2 	add	x2, sp, #0x30
    2df8:	52800221 	mov	w1, #0x11                  	// #17
/home/hei/Desktop/optee-qemu/optee_os/lib/libutee/tee_system_pta.c:70
    2dfc:	b90033f5 	str	w21, [sp, #48]
reg_pair_from_64():
/home/hei/Desktop/optee-qemu/optee_os/lib/libutils/ext/include/util.h:146
    2e00:	29084fe0 	stp	w0, w19, [sp, #64]
tee_unmap():
/home/hei/Desktop/optee-qemu/optee_os/lib/libutee/tee_system_pta.c:73
    2e04:	52800060 	mov	w0, #0x3                   	// #3
    2e08:	97ffffb1 	bl	2ccc <invoke_system_pta>
    2e0c:	2a0003f4 	mov	w20, w0
/home/hei/Desktop/optee-qemu/optee_os/lib/libutee/tee_system_pta.c:74
    2e10:	34000180 	cbz	w0, 2e40 <tee_unmap+0x78>
/home/hei/Desktop/optee-qemu/optee_os/lib/libutee/tee_system_pta.c:75
    2e14:	90000040 	adrp	x0, a000 <__text_end+0x12f4>
    2e18:	9122a000 	add	x0, x0, #0x8a8
    2e1c:	b0000044 	adrp	x4, b000 <__func__.3755+0x98>
    2e20:	aa1503e6 	mov	x6, x21
    2e24:	aa1303e5 	mov	x5, x19
    2e28:	910b1c84 	add	x4, x4, #0x2c7
    2e2c:	52800023 	mov	w3, #0x1                   	// #1
    2e30:	52800022 	mov	w2, #0x1                   	// #1
    2e34:	52800961 	mov	w1, #0x4b                  	// #75
    2e38:	91004000 	add	x0, x0, #0x10
    2e3c:	97fff68f 	bl	878 <trace_printf>
/home/hei/Desktop/optee-qemu/optee_os/lib/libutee/tee_system_pta.c:78
    2e40:	2a1403e0 	mov	w0, w20
    2e44:	a94153f3 	ldp	x19, x20, [sp, #16]
    2e48:	f94013f5 	ldr	x21, [sp, #32]
    2e4c:	a8c77bfd 	ldp	x29, x30, [sp], #112
    2e50:	d65f03c0 	ret

0000000000002e54 <utee_panic>:
utee_panic():
/home/hei/Desktop/optee-qemu/optee_os/lib/libutee/arch/arm/utee_syscalls_a64.S:41
    2e54:	a9bf7bfd 	stp	x29, x30, [sp, #-16]!
/home/hei/Desktop/optee-qemu/optee_os/lib/libutee/arch/arm/utee_syscalls_a64.S:42
    2e58:	910003e1 	mov	x1, sp
/home/hei/Desktop/optee-qemu/optee_os/lib/libutee/arch/arm/utee_syscalls_a64.S:43
    2e5c:	94000007 	bl	2e78 <__utee_panic>

0000000000002e60 <utee_return>:
utee_return():
/home/hei/Desktop/optee-qemu/optee_os/lib/libutee/arch/arm/utee_syscalls_asm.S:8
    2e60:	d2800008 	mov	x8, #0x0                   	// #0
    2e64:	d4000001 	svc	#0x0
    2e68:	d65f03c0 	ret

0000000000002e6c <utee_log>:
utee_log():
/home/hei/Desktop/optee-qemu/optee_os/lib/libutee/arch/arm/utee_syscalls_asm.S:10
    2e6c:	d2800028 	mov	x8, #0x1                   	// #1
    2e70:	d4000001 	svc	#0x0
    2e74:	d65f03c0 	ret

0000000000002e78 <__utee_panic>:
__utee_panic():
/home/hei/Desktop/optee-qemu/optee_os/lib/libutee/arch/arm/utee_syscalls_asm.S:12
    2e78:	d2800048 	mov	x8, #0x2                   	// #2
    2e7c:	d4000001 	svc	#0x0
    2e80:	d65f03c0 	ret

0000000000002e84 <utee_get_property>:
utee_get_property():
/home/hei/Desktop/optee-qemu/optee_os/lib/libutee/arch/arm/utee_syscalls_asm.S:14
    2e84:	d2800068 	mov	x8, #0x3                   	// #3
    2e88:	d4000001 	svc	#0x0
    2e8c:	d65f03c0 	ret

0000000000002e90 <utee_get_property_name_to_index>:
utee_get_property_name_to_index():
/home/hei/Desktop/optee-qemu/optee_os/lib/libutee/arch/arm/utee_syscalls_asm.S:16
    2e90:	d2800088 	mov	x8, #0x4                   	// #4
    2e94:	d4000001 	svc	#0x0
    2e98:	d65f03c0 	ret

0000000000002e9c <utee_open_ta_session>:
utee_open_ta_session():
/home/hei/Desktop/optee-qemu/optee_os/lib/libutee/arch/arm/utee_syscalls_asm.S:19
    2e9c:	d28000a8 	mov	x8, #0x5                   	// #5
    2ea0:	d4000001 	svc	#0x0
    2ea4:	d65f03c0 	ret

0000000000002ea8 <utee_close_ta_session>:
utee_close_ta_session():
/home/hei/Desktop/optee-qemu/optee_os/lib/libutee/arch/arm/utee_syscalls_asm.S:21
    2ea8:	d28000c8 	mov	x8, #0x6                   	// #6
    2eac:	d4000001 	svc	#0x0
    2eb0:	d65f03c0 	ret

0000000000002eb4 <utee_invoke_ta_command>:
utee_invoke_ta_command():
/home/hei/Desktop/optee-qemu/optee_os/lib/libutee/arch/arm/utee_syscalls_asm.S:23
    2eb4:	d28000e8 	mov	x8, #0x7                   	// #7
    2eb8:	d4000001 	svc	#0x0
    2ebc:	d65f03c0 	ret

0000000000002ec0 <utee_get_cancellation_flag>:
utee_get_cancellation_flag():
/home/hei/Desktop/optee-qemu/optee_os/lib/libutee/arch/arm/utee_syscalls_asm.S:25
    2ec0:	d2800128 	mov	x8, #0x9                   	// #9
    2ec4:	d4000001 	svc	#0x0
    2ec8:	d65f03c0 	ret

0000000000002ecc <utee_check_access_rights>:
utee_check_access_rights():
/home/hei/Desktop/optee-qemu/optee_os/lib/libutee/arch/arm/utee_syscalls_asm.S:28
    2ecc:	d2800108 	mov	x8, #0x8                   	// #8
    2ed0:	d4000001 	svc	#0x0
    2ed4:	d65f03c0 	ret

0000000000002ed8 <utee_unmask_cancellation>:
utee_unmask_cancellation():
/home/hei/Desktop/optee-qemu/optee_os/lib/libutee/arch/arm/utee_syscalls_asm.S:30
    2ed8:	d2800148 	mov	x8, #0xa                   	// #10
    2edc:	d4000001 	svc	#0x0
    2ee0:	d65f03c0 	ret

0000000000002ee4 <utee_mask_cancellation>:
utee_mask_cancellation():
/home/hei/Desktop/optee-qemu/optee_os/lib/libutee/arch/arm/utee_syscalls_asm.S:32
    2ee4:	d2800168 	mov	x8, #0xb                   	// #11
    2ee8:	d4000001 	svc	#0x0
    2eec:	d65f03c0 	ret

0000000000002ef0 <utee_wait>:
utee_wait():
/home/hei/Desktop/optee-qemu/optee_os/lib/libutee/arch/arm/utee_syscalls_asm.S:34
    2ef0:	d2800188 	mov	x8, #0xc                   	// #12
    2ef4:	d4000001 	svc	#0x0
    2ef8:	d65f03c0 	ret

0000000000002efc <utee_get_time>:
utee_get_time():
/home/hei/Desktop/optee-qemu/optee_os/lib/libutee/arch/arm/utee_syscalls_asm.S:36
    2efc:	d28001a8 	mov	x8, #0xd                   	// #13
    2f00:	d4000001 	svc	#0x0
    2f04:	d65f03c0 	ret

0000000000002f08 <utee_set_ta_time>:
utee_set_ta_time():
/home/hei/Desktop/optee-qemu/optee_os/lib/libutee/arch/arm/utee_syscalls_asm.S:38
    2f08:	d28001c8 	mov	x8, #0xe                   	// #14
    2f0c:	d4000001 	svc	#0x0
    2f10:	d65f03c0 	ret

0000000000002f14 <utee_cryp_state_alloc>:
utee_cryp_state_alloc():
/home/hei/Desktop/optee-qemu/optee_os/lib/libutee/arch/arm/utee_syscalls_asm.S:40
    2f14:	d28001e8 	mov	x8, #0xf                   	// #15
    2f18:	d4000001 	svc	#0x0
    2f1c:	d65f03c0 	ret

0000000000002f20 <utee_cryp_state_copy>:
utee_cryp_state_copy():
/home/hei/Desktop/optee-qemu/optee_os/lib/libutee/arch/arm/utee_syscalls_asm.S:42
    2f20:	d2800208 	mov	x8, #0x10                  	// #16
    2f24:	d4000001 	svc	#0x0
    2f28:	d65f03c0 	ret

0000000000002f2c <utee_cryp_state_free>:
utee_cryp_state_free():
/home/hei/Desktop/optee-qemu/optee_os/lib/libutee/arch/arm/utee_syscalls_asm.S:44
    2f2c:	d2800228 	mov	x8, #0x11                  	// #17
    2f30:	d4000001 	svc	#0x0
    2f34:	d65f03c0 	ret

0000000000002f38 <utee_hash_init>:
utee_hash_init():
/home/hei/Desktop/optee-qemu/optee_os/lib/libutee/arch/arm/utee_syscalls_asm.S:46
    2f38:	d2800248 	mov	x8, #0x12                  	// #18
    2f3c:	d4000001 	svc	#0x0
    2f40:	d65f03c0 	ret

0000000000002f44 <utee_hash_update>:
utee_hash_update():
/home/hei/Desktop/optee-qemu/optee_os/lib/libutee/arch/arm/utee_syscalls_asm.S:48
    2f44:	d2800268 	mov	x8, #0x13                  	// #19
    2f48:	d4000001 	svc	#0x0
    2f4c:	d65f03c0 	ret

0000000000002f50 <utee_hash_final>:
utee_hash_final():
/home/hei/Desktop/optee-qemu/optee_os/lib/libutee/arch/arm/utee_syscalls_asm.S:50
    2f50:	d2800288 	mov	x8, #0x14                  	// #20
    2f54:	d4000001 	svc	#0x0
    2f58:	d65f03c0 	ret

0000000000002f5c <utee_cipher_init>:
utee_cipher_init():
/home/hei/Desktop/optee-qemu/optee_os/lib/libutee/arch/arm/utee_syscalls_asm.S:52
    2f5c:	d28002a8 	mov	x8, #0x15                  	// #21
    2f60:	d4000001 	svc	#0x0
    2f64:	d65f03c0 	ret

0000000000002f68 <utee_cipher_update>:
utee_cipher_update():
/home/hei/Desktop/optee-qemu/optee_os/lib/libutee/arch/arm/utee_syscalls_asm.S:54
    2f68:	d28002c8 	mov	x8, #0x16                  	// #22
    2f6c:	d4000001 	svc	#0x0
    2f70:	d65f03c0 	ret

0000000000002f74 <utee_cipher_final>:
utee_cipher_final():
/home/hei/Desktop/optee-qemu/optee_os/lib/libutee/arch/arm/utee_syscalls_asm.S:56
    2f74:	d28002e8 	mov	x8, #0x17                  	// #23
    2f78:	d4000001 	svc	#0x0
    2f7c:	d65f03c0 	ret

0000000000002f80 <utee_cryp_obj_get_info>:
utee_cryp_obj_get_info():
/home/hei/Desktop/optee-qemu/optee_os/lib/libutee/arch/arm/utee_syscalls_asm.S:58
    2f80:	d2800308 	mov	x8, #0x18                  	// #24
    2f84:	d4000001 	svc	#0x0
    2f88:	d65f03c0 	ret

0000000000002f8c <utee_cryp_obj_restrict_usage>:
utee_cryp_obj_restrict_usage():
/home/hei/Desktop/optee-qemu/optee_os/lib/libutee/arch/arm/utee_syscalls_asm.S:60
    2f8c:	d2800328 	mov	x8, #0x19                  	// #25
    2f90:	d4000001 	svc	#0x0
    2f94:	d65f03c0 	ret

0000000000002f98 <utee_cryp_obj_get_attr>:
utee_cryp_obj_get_attr():
/home/hei/Desktop/optee-qemu/optee_os/lib/libutee/arch/arm/utee_syscalls_asm.S:63
    2f98:	d2800348 	mov	x8, #0x1a                  	// #26
    2f9c:	d4000001 	svc	#0x0
    2fa0:	d65f03c0 	ret

0000000000002fa4 <utee_cryp_obj_alloc>:
utee_cryp_obj_alloc():
/home/hei/Desktop/optee-qemu/optee_os/lib/libutee/arch/arm/utee_syscalls_asm.S:65
    2fa4:	d2800368 	mov	x8, #0x1b                  	// #27
    2fa8:	d4000001 	svc	#0x0
    2fac:	d65f03c0 	ret

0000000000002fb0 <utee_cryp_obj_close>:
utee_cryp_obj_close():
/home/hei/Desktop/optee-qemu/optee_os/lib/libutee/arch/arm/utee_syscalls_asm.S:67
    2fb0:	d2800388 	mov	x8, #0x1c                  	// #28
    2fb4:	d4000001 	svc	#0x0
    2fb8:	d65f03c0 	ret

0000000000002fbc <utee_cryp_obj_reset>:
utee_cryp_obj_reset():
/home/hei/Desktop/optee-qemu/optee_os/lib/libutee/arch/arm/utee_syscalls_asm.S:69
    2fbc:	d28003a8 	mov	x8, #0x1d                  	// #29
    2fc0:	d4000001 	svc	#0x0
    2fc4:	d65f03c0 	ret

0000000000002fc8 <utee_cryp_obj_populate>:
utee_cryp_obj_populate():
/home/hei/Desktop/optee-qemu/optee_os/lib/libutee/arch/arm/utee_syscalls_asm.S:71
    2fc8:	d28003c8 	mov	x8, #0x1e                  	// #30
    2fcc:	d4000001 	svc	#0x0
    2fd0:	d65f03c0 	ret

0000000000002fd4 <utee_cryp_obj_copy>:
utee_cryp_obj_copy():
/home/hei/Desktop/optee-qemu/optee_os/lib/libutee/arch/arm/utee_syscalls_asm.S:73
    2fd4:	d28003e8 	mov	x8, #0x1f                  	// #31
    2fd8:	d4000001 	svc	#0x0
    2fdc:	d65f03c0 	ret

0000000000002fe0 <utee_cryp_derive_key>:
utee_cryp_derive_key():
/home/hei/Desktop/optee-qemu/optee_os/lib/libutee/arch/arm/utee_syscalls_asm.S:75
    2fe0:	d2800408 	mov	x8, #0x20                  	// #32
    2fe4:	d4000001 	svc	#0x0
    2fe8:	d65f03c0 	ret

0000000000002fec <utee_cryp_random_number_generate>:
utee_cryp_random_number_generate():
/home/hei/Desktop/optee-qemu/optee_os/lib/libutee/arch/arm/utee_syscalls_asm.S:77
    2fec:	d2800428 	mov	x8, #0x21                  	// #33
    2ff0:	d4000001 	svc	#0x0
    2ff4:	d65f03c0 	ret

0000000000002ff8 <utee_authenc_init>:
utee_authenc_init():
/home/hei/Desktop/optee-qemu/optee_os/lib/libutee/arch/arm/utee_syscalls_asm.S:80
    2ff8:	d2800448 	mov	x8, #0x22                  	// #34
    2ffc:	d4000001 	svc	#0x0
    3000:	d65f03c0 	ret

0000000000003004 <utee_authenc_update_aad>:
utee_authenc_update_aad():
/home/hei/Desktop/optee-qemu/optee_os/lib/libutee/arch/arm/utee_syscalls_asm.S:82
    3004:	d2800468 	mov	x8, #0x23                  	// #35
    3008:	d4000001 	svc	#0x0
    300c:	d65f03c0 	ret

0000000000003010 <utee_authenc_update_payload>:
utee_authenc_update_payload():
/home/hei/Desktop/optee-qemu/optee_os/lib/libutee/arch/arm/utee_syscalls_asm.S:84
    3010:	d2800488 	mov	x8, #0x24                  	// #36
    3014:	d4000001 	svc	#0x0
    3018:	d65f03c0 	ret

000000000000301c <utee_authenc_enc_final>:
utee_authenc_enc_final():
/home/hei/Desktop/optee-qemu/optee_os/lib/libutee/arch/arm/utee_syscalls_asm.S:87
    301c:	d28004a8 	mov	x8, #0x25                  	// #37
    3020:	d4000001 	svc	#0x0
    3024:	d65f03c0 	ret

0000000000003028 <utee_authenc_dec_final>:
utee_authenc_dec_final():
/home/hei/Desktop/optee-qemu/optee_os/lib/libutee/arch/arm/utee_syscalls_asm.S:89
    3028:	d28004c8 	mov	x8, #0x26                  	// #38
    302c:	d4000001 	svc	#0x0
    3030:	d65f03c0 	ret

0000000000003034 <utee_asymm_operate>:
utee_asymm_operate():
/home/hei/Desktop/optee-qemu/optee_os/lib/libutee/arch/arm/utee_syscalls_asm.S:91
    3034:	d28004e8 	mov	x8, #0x27                  	// #39
    3038:	d4000001 	svc	#0x0
    303c:	d65f03c0 	ret

0000000000003040 <utee_asymm_verify>:
utee_asymm_verify():
/home/hei/Desktop/optee-qemu/optee_os/lib/libutee/arch/arm/utee_syscalls_asm.S:93
    3040:	d2800508 	mov	x8, #0x28                  	// #40
    3044:	d4000001 	svc	#0x0
    3048:	d65f03c0 	ret

000000000000304c <utee_storage_obj_open>:
utee_storage_obj_open():
/home/hei/Desktop/optee-qemu/optee_os/lib/libutee/arch/arm/utee_syscalls_asm.S:95
    304c:	d2800528 	mov	x8, #0x29                  	// #41
    3050:	d4000001 	svc	#0x0
    3054:	d65f03c0 	ret

0000000000003058 <utee_storage_obj_create>:
utee_storage_obj_create():
/home/hei/Desktop/optee-qemu/optee_os/lib/libutee/arch/arm/utee_syscalls_asm.S:97
    3058:	d2800548 	mov	x8, #0x2a                  	// #42
    305c:	d4000001 	svc	#0x0
    3060:	d65f03c0 	ret

0000000000003064 <utee_storage_obj_del>:
utee_storage_obj_del():
/home/hei/Desktop/optee-qemu/optee_os/lib/libutee/arch/arm/utee_syscalls_asm.S:99
    3064:	d2800568 	mov	x8, #0x2b                  	// #43
    3068:	d4000001 	svc	#0x0
    306c:	d65f03c0 	ret

0000000000003070 <utee_storage_obj_rename>:
utee_storage_obj_rename():
/home/hei/Desktop/optee-qemu/optee_os/lib/libutee/arch/arm/utee_syscalls_asm.S:101
    3070:	d2800588 	mov	x8, #0x2c                  	// #44
    3074:	d4000001 	svc	#0x0
    3078:	d65f03c0 	ret

000000000000307c <utee_storage_alloc_enum>:
utee_storage_alloc_enum():
/home/hei/Desktop/optee-qemu/optee_os/lib/libutee/arch/arm/utee_syscalls_asm.S:103
    307c:	d28005a8 	mov	x8, #0x2d                  	// #45
    3080:	d4000001 	svc	#0x0
    3084:	d65f03c0 	ret

0000000000003088 <utee_storage_free_enum>:
utee_storage_free_enum():
/home/hei/Desktop/optee-qemu/optee_os/lib/libutee/arch/arm/utee_syscalls_asm.S:105
    3088:	d28005c8 	mov	x8, #0x2e                  	// #46
    308c:	d4000001 	svc	#0x0
    3090:	d65f03c0 	ret

0000000000003094 <utee_storage_reset_enum>:
utee_storage_reset_enum():
/home/hei/Desktop/optee-qemu/optee_os/lib/libutee/arch/arm/utee_syscalls_asm.S:107
    3094:	d28005e8 	mov	x8, #0x2f                  	// #47
    3098:	d4000001 	svc	#0x0
    309c:	d65f03c0 	ret

00000000000030a0 <utee_storage_start_enum>:
utee_storage_start_enum():
/home/hei/Desktop/optee-qemu/optee_os/lib/libutee/arch/arm/utee_syscalls_asm.S:109
    30a0:	d2800608 	mov	x8, #0x30                  	// #48
    30a4:	d4000001 	svc	#0x0
    30a8:	d65f03c0 	ret

00000000000030ac <utee_storage_next_enum>:
utee_storage_next_enum():
/home/hei/Desktop/optee-qemu/optee_os/lib/libutee/arch/arm/utee_syscalls_asm.S:111
    30ac:	d2800628 	mov	x8, #0x31                  	// #49
    30b0:	d4000001 	svc	#0x0
    30b4:	d65f03c0 	ret

00000000000030b8 <utee_storage_obj_read>:
utee_storage_obj_read():
/home/hei/Desktop/optee-qemu/optee_os/lib/libutee/arch/arm/utee_syscalls_asm.S:113
    30b8:	d2800648 	mov	x8, #0x32                  	// #50
    30bc:	d4000001 	svc	#0x0
    30c0:	d65f03c0 	ret

00000000000030c4 <utee_storage_obj_write>:
utee_storage_obj_write():
/home/hei/Desktop/optee-qemu/optee_os/lib/libutee/arch/arm/utee_syscalls_asm.S:115
    30c4:	d2800668 	mov	x8, #0x33                  	// #51
    30c8:	d4000001 	svc	#0x0
    30cc:	d65f03c0 	ret

00000000000030d0 <utee_storage_obj_trunc>:
utee_storage_obj_trunc():
/home/hei/Desktop/optee-qemu/optee_os/lib/libutee/arch/arm/utee_syscalls_asm.S:117
    30d0:	d2800688 	mov	x8, #0x34                  	// #52
    30d4:	d4000001 	svc	#0x0
    30d8:	d65f03c0 	ret

00000000000030dc <utee_storage_obj_seek>:
utee_storage_obj_seek():
/home/hei/Desktop/optee-qemu/optee_os/lib/libutee/arch/arm/utee_syscalls_asm.S:119
    30dc:	d28006a8 	mov	x8, #0x35                  	// #53
    30e0:	d4000001 	svc	#0x0
    30e4:	d65f03c0 	ret

00000000000030e8 <utee_cryp_obj_generate_key>:
utee_cryp_obj_generate_key():
/home/hei/Desktop/optee-qemu/optee_os/lib/libutee/arch/arm/utee_syscalls_asm.S:121
    30e8:	d28006c8 	mov	x8, #0x36                  	// #54
    30ec:	d4000001 	svc	#0x0
    30f0:	d65f03c0 	ret

00000000000030f4 <utee_cache_operation>:
utee_cache_operation():
/home/hei/Desktop/optee-qemu/optee_os/lib/libutee/arch/arm/utee_syscalls_asm.S:124
    30f4:	d28008c8 	mov	x8, #0x46                  	// #70
    30f8:	d4000001 	svc	#0x0
    30fc:	d65f03c0 	ret

0000000000003100 <ta_header_get_session>:
ta_header_get_session():
/home/hei/Desktop/optee-qemu/optee_os/lib/libutee/arch/arm/user_ta_entry.c:65
    3100:	2a0003e1 	mov	w1, w0
/home/hei/Desktop/optee-qemu/optee_os/lib/libutee/arch/arm/user_ta_entry.c:68
    3104:	b0000040 	adrp	x0, c000 <_DYNAMIC>
    3108:	f9423800 	ldr	x0, [x0, #1136]
/home/hei/Desktop/optee-qemu/optee_os/lib/libutee/arch/arm/user_ta_entry.c:68 (discriminator 1)
    310c:	b5000040 	cbnz	x0, 3114 <ta_header_get_session+0x14>
/home/hei/Desktop/optee-qemu/optee_os/lib/libutee/arch/arm/user_ta_entry.c:73
    3110:	d65f03c0 	ret
/home/hei/Desktop/optee-qemu/optee_os/lib/libutee/arch/arm/user_ta_entry.c:69
    3114:	b9400002 	ldr	w2, [x0]
    3118:	6b01005f 	cmp	w2, w1
    311c:	54ffffa0 	b.eq	3110 <ta_header_get_session+0x10>  // b.none
/home/hei/Desktop/optee-qemu/optee_os/lib/libutee/arch/arm/user_ta_entry.c:68 (discriminator 2)
    3120:	f9400800 	ldr	x0, [x0, #16]
    3124:	17fffffa 	b	310c <ta_header_get_session+0xc>

0000000000003128 <to_utee_params>:
to_utee_params():
/home/hei/Desktop/optee-qemu/optee_os/lib/libutee/arch/arm/user_ta_entry.c:129
    3128:	f0000025 	adrp	x5, a000 <__text_end+0x12f4>
    312c:	912310a5 	add	x5, x5, #0x8c4
/home/hei/Desktop/optee-qemu/optee_os/lib/libutee/arch/arm/user_ta_entry.c:127
    3130:	2a0103e3 	mov	w3, w1
    3134:	52800004 	mov	w4, #0x0                   	// #0
    3138:	f8008403 	str	x3, [x0], #8
/home/hei/Desktop/optee-qemu/optee_os/lib/libutee/arch/arm/user_ta_entry.c:129
    313c:	1ac42423 	lsr	w3, w1, w4
    3140:	12000c63 	and	w3, w3, #0xf
    3144:	51000463 	sub	w3, w3, #0x1
    3148:	7100187f 	cmp	w3, #0x6
    314c:	54000268 	b.hi	3198 <to_utee_params+0x70>  // b.pmore
    3150:	386348a3 	ldrb	w3, [x5, w3, uxtw]
    3154:	10000066 	adr	x6, 3160 <to_utee_params+0x38>
    3158:	8b2388c3 	add	x3, x6, w3, sxtb #2
    315c:	d61f0060 	br	x3
/home/hei/Desktop/optee-qemu/optee_os/lib/libutee/arch/arm/user_ta_entry.c:133
    3160:	b9400043 	ldr	w3, [x2]
    3164:	f9000003 	str	x3, [x0]
/home/hei/Desktop/optee-qemu/optee_os/lib/libutee/arch/arm/user_ta_entry.c:134
    3168:	b9400443 	ldr	w3, [x2, #4]
/home/hei/Desktop/optee-qemu/optee_os/lib/libutee/arch/arm/user_ta_entry.c:140
    316c:	f9000403 	str	x3, [x0, #8]
/home/hei/Desktop/optee-qemu/optee_os/lib/libutee/arch/arm/user_ta_entry.c:141
    3170:	11001084 	add	w4, w4, #0x4
    3174:	91004042 	add	x2, x2, #0x10
    3178:	91004000 	add	x0, x0, #0x10
