
a237ca48-2aa4-11ed-a261-0242ac120002.elf:     file format elf64-littleaarch64
a237ca48-2aa4-11ed-a261-0242ac120002.elf
architecture: aarch64, flags 0x00000150:
HAS_SYMS, DYNAMIC, D_PAGED
start address 0x00000000000004e4

Program Header:
    LOAD off    0x0000000000001000 vaddr 0x0000000000000000 paddr 0x0000000000000000 align 2**12
         filesz 0x000000000000bc90 memsz 0x000000000000bc90 flags r-x
    LOAD off    0x000000000000d000 vaddr 0x000000000000c000 paddr 0x000000000000c000 align 2**12
         filesz 0x000000000000048c memsz 0x000000000000b4f8 flags rw-
 DYNAMIC off    0x000000000000d000 vaddr 0x000000000000c000 paddr 0x000000000000c000 align 2**3
         filesz 0x0000000000000110 memsz 0x0000000000000110 flags rw-
   STACK off    0x0000000000000000 vaddr 0x0000000000000000 paddr 0x0000000000000000 align 2**4
         filesz 0x0000000000000000 memsz 0x0000000000000000 flags rw-

Dynamic Section:
  HASH                 0x000000000000ba50
  GNU_HASH             0x000000000000b9e0
  STRTAB               0x000000000000ba48
  SYMTAB               0x000000000000ba00
  STRSZ                0x0000000000000001
  SYMENT               0x0000000000000018
  DEBUG                0x0000000000000000
  RELA                 0x000000000000ba68
  RELASZ               0x0000000000000390
  RELAENT              0x0000000000000018
  FLAGS_1              0x0000000008000000
  RELACOUNT            0x0000000000000017
private flags = 0:

Sections:
Idx Name          Size      VMA               LMA               File off  Algn
  0 .ta_head      00000020  0000000000000000  0000000000000000  00001000  2**3
                  CONTENTS, ALLOC, LOAD, READONLY, DATA
  1 .text         00008cec  0000000000000020  0000000000000020  00001020  2**2
                  CONTENTS, ALLOC, LOAD, READONLY, CODE
  2 .eh_frame     00001b54  0000000000008d10  0000000000008d10  00009d10  2**3
                  CONTENTS, ALLOC, LOAD, READONLY, DATA
  3 .rodata       00001175  000000000000a868  000000000000a868  0000b868  2**3
                  CONTENTS, ALLOC, LOAD, READONLY, DATA
  4 .gnu.hash     0000001c  000000000000b9e0  000000000000b9e0  0000c9e0  2**3
                  CONTENTS, ALLOC, LOAD, READONLY, DATA
  5 .dynsym       00000048  000000000000ba00  000000000000ba00  0000ca00  2**3
                  CONTENTS, ALLOC, LOAD, READONLY, DATA
  6 .dynstr       00000001  000000000000ba48  000000000000ba48  0000ca48  2**0
                  CONTENTS, ALLOC, LOAD, READONLY, DATA
  7 .hash         00000018  000000000000ba50  000000000000ba50  0000ca50  2**3
                  CONTENTS, ALLOC, LOAD, READONLY, DATA
  8 .rela.dyn     00000228  000000000000ba68  000000000000ba68  0000ca68  2**3
                  CONTENTS, ALLOC, LOAD, READONLY, DATA
  9 .dynamic      00000110  000000000000c000  000000000000c000  0000d000  2**3
                  CONTENTS, ALLOC, LOAD, DATA
 10 .got          00000098  000000000000c110  000000000000c110  0000d110  2**3
                  CONTENTS, ALLOC, LOAD, DATA
 11 .rela.got     00000168  000000000000c1a8  000000000000c1a8  0000d1a8  2**3
                  CONTENTS, ALLOC, LOAD, READONLY, DATA
 12 .data         0000017c  000000000000c310  000000000000c310  0000d310  2**3
                  CONTENTS, ALLOC, LOAD, DATA
 13 .bss          0000b068  000000000000c490  000000000000c490  0000d48c  2**3
                  ALLOC
 14 .debug_info   00011de5  0000000000000000  0000000000000000  0000d48c  2**0
                  CONTENTS, READONLY, DEBUGGING
 15 .debug_abbrev 00002ece  0000000000000000  0000000000000000  0001f271  2**0
                  CONTENTS, READONLY, DEBUGGING
 16 .debug_loc    0001989b  0000000000000000  0000000000000000  0002213f  2**0
                  CONTENTS, READONLY, DEBUGGING
 17 .debug_aranges 00000830  0000000000000000  0000000000000000  0003b9e0  2**4
                  CONTENTS, READONLY, DEBUGGING
 18 .debug_ranges 000016a0  0000000000000000  0000000000000000  0003c210  2**4
                  CONTENTS, READONLY, DEBUGGING
 19 .debug_macro  0001153c  0000000000000000  0000000000000000  0003d8b0  2**0
                  CONTENTS, READONLY, DEBUGGING
 20 .debug_line   00009db7  0000000000000000  0000000000000000  0004edec  2**0
                  CONTENTS, READONLY, DEBUGGING
 21 .debug_str    000120cf  0000000000000000  0000000000000000  00058ba3  2**0
                  CONTENTS, READONLY, DEBUGGING
 22 .comment      00000055  0000000000000000  0000000000000000  0006ac72  2**0
                  CONTENTS, READONLY
SYMBOL TABLE:
0000000000000000 l    d  .ta_head	0000000000000000 .ta_head
0000000000000020 l    d  .text	0000000000000000 .text
0000000000008d10 l    d  .eh_frame	0000000000000000 .eh_frame
000000000000a868 l    d  .rodata	0000000000000000 .rodata
000000000000b9e0 l    d  .gnu.hash	0000000000000000 .gnu.hash
000000000000ba00 l    d  .dynsym	0000000000000000 .dynsym
000000000000ba48 l    d  .dynstr	0000000000000000 .dynstr
000000000000ba50 l    d  .hash	0000000000000000 .hash
000000000000ba68 l    d  .rela.dyn	0000000000000000 .rela.dyn
000000000000c000 l    d  .dynamic	0000000000000000 .dynamic
000000000000c110 l    d  .got	0000000000000000 .got
000000000000c1a8 l    d  .rela.got	0000000000000000 .rela.got
000000000000c310 l    d  .data	0000000000000000 .data
000000000000c490 l    d  .bss	0000000000000000 .bss
0000000000000000 l    d  .debug_info	0000000000000000 .debug_info
0000000000000000 l    d  .debug_abbrev	0000000000000000 .debug_abbrev
0000000000000000 l    d  .debug_loc	0000000000000000 .debug_loc
0000000000000000 l    d  .debug_aranges	0000000000000000 .debug_aranges
0000000000000000 l    d  .debug_ranges	0000000000000000 .debug_ranges
0000000000000000 l    d  .debug_macro	0000000000000000 .debug_macro
0000000000000000 l    d  .debug_line	0000000000000000 .debug_line
0000000000000000 l    d  .debug_str	0000000000000000 .debug_str
0000000000000000 l    d  .comment	0000000000000000 .comment
0000000000000000 l    df *ABS*	0000000000000000 user_ta_header.c
000000000000a870 l     O .rodata	0000000000000004 __compound_literal.5
000000000000a874 l     O .rodata	0000000000000004 __compound_literal.4
000000000000a878 l     O .rodata	0000000000000004 __compound_literal.3
000000000000a87c l     O .rodata	0000000000000001 __compound_literal.2
000000000000a87d l     O .rodata	0000000000000001 __compound_literal.1
000000000000a87e l     O .rodata	0000000000000001 __compound_literal.0
0000000000000000 l    df *ABS*	0000000000000000 overflow.c
000000000000ab98 l     O .rodata	0000000000000009 __func__.4162
000000000000aba1 l     O .rodata	0000000000000014 __func__.4128
000000000000abb5 l     O .rodata	0000000000000015 __func__.4133
000000000000abca l     O .rodata	0000000000000019 __func__.4140
000000000000abe3 l     O .rodata	000000000000001a __func__.4144
000000000000abfd l     O .rodata	000000000000000b __func__.4150
000000000000ac08 l     O .rodata	0000000000000010 __func__.4156
000000000000ac18 l     O .rodata	000000000000000e __func__.4168
0000000000000000 l    df *ABS*	0000000000000000 strdup.c
0000000000000000 l    df *ABS*	0000000000000000 memcpy.c
0000000000000000 l    df *ABS*	0000000000000000 strcpy.c
0000000000000000 l    df *ABS*	0000000000000000 strlen.c
0000000000000000 l    df *ABS*	0000000000000000 trace.c
0000000000000598 l     F .text	00000000000000c4 append
000000000000aedd l     O .rodata	0000000000000005 lvl_strs.3494
000000000000aee2 l     O .rodata	000000000000000a __func__.3556
0000000000000000 l    df *ABS*	0000000000000000 bget_malloc.c
0000000000000a54 l     F .text	0000000000000044 raw_malloc_return_hook.constprop.21
000000000000af23 l     O .rodata	0000000000000005 __func__.3641
000000000000af28 l     O .rodata	0000000000000006 __func__.3656
000000000000af2e l     O .rodata	0000000000000005 __func__.3674
000000000000af33 l     O .rodata	0000000000000006 __func__.3665
000000000000af39 l     O .rodata	0000000000000006 __func__.3683
000000000000af3f l     O .rodata	0000000000000007 __func__.3693
000000000000af46 l     O .rodata	0000000000000014 __func__.3857
000000000000af5a l     O .rodata	000000000000000e __func__.3808
000000000000af68 l     O .rodata	0000000000000013 __func__.3755
000000000000c3f0 l     O .data	0000000000000080 malloc_ctx
0000000000000000 l    df *ABS*	0000000000000000 memset.c
0000000000000000 l    df *ABS*	0000000000000000 snprintk.c
000000000000b235 l     O .rodata	0000000000000011 hexdigits
000000000000b246 l     O .rodata	0000000000000011 HEXDIGITS
0000000000000000 l    df *ABS*	0000000000000000 memchr.c
0000000000000000 l    df *ABS*	0000000000000000 trace_ext.c
0000000000000000 l    df *ABS*	0000000000000000 assert.c
0000000000000000 l    df *ABS*	0000000000000000 tee_api.c
00000000000025a8 l     F .text	00000000000000b8 update_out_param
0000000000002720 l     F .text	00000000000001d0 copy_param.constprop.1
000000000000c490 l     O .bss	0000000000000008 tee_api_instance_data
000000000000a89b l     O .rodata	000000000000000b __func__.4702
0000000000000000 l    df *ABS*	0000000000000000 tee_api_panic.c
0000000000000000 l    df *ABS*	0000000000000000 tee_system_pta.c
0000000000002ccc l     F .text	0000000000000088 invoke_system_pta
000000000000a8a8 l     O .rodata	0000000000000010 uuid.4139
000000000000a8b8 l     O .rodata	000000000000000a __func__.4159
000000000000c498 l     O .bss	0000000000000008 sess.4138
0000000000000000 l    df *ABS*	0000000000000000 utee_syscalls_a64.o
0000000000000000 l    df *ABS*	0000000000000000 user_ta_entry.c
0000000000003100 l     F .text	0000000000000028 ta_header_get_session
0000000000003128 l     F .text	0000000000000078 to_utee_params
00000000000031a0 l     F .text	0000000000000068 from_utee_params
0000000000003208 l     F .text	0000000000000094 ta_header_remove_session
000000000000329c l     F .text	0000000000000014 ta_header_save_params.part.0
00000000000174f1 l     O .bss	0000000000000001 init_done
000000000000c470 l     O .data	0000000000000010 ta_sessions
0000000000000000 l    df *ABS*	0000000000000000 tee_api_arith_mpi.c
00000000000034ac l     F .text	0000000000000030 api_panic
00000000000034dc l     F .text	0000000000000030 mpi_panic
000000000000350c l     F .text	0000000000000098 get_mpi
00000000000035a4 l     F .text	0000000000000064 copy_mpi_to_bigint
0000000000003608 l     F .text	0000000000000118 bigint_binary
0000000000003720 l     F .text	0000000000000020 mpi_is_odd
0000000000003740 l     F .text	0000000000000028 rng_read
0000000000003768 l     F .text	000000000000054c mpi_egcd
000000000000c4e8 l     O .bss	0000000000003000 data.4684
0000000000004050 l     F .text	0000000000000194 bigint_binary_mod
000000000000b2f1 l     O .rodata	0000000000000008 __func__.4718
000000000000b2f9 l     O .rodata	000000000000000e __func__.4815
000000000000b307 l     O .rodata	0000000000000009 __func__.4961
000000000000b310 l     O .rodata	0000000000000012 __func__.4685
000000000000b322 l     O .rodata	000000000000000f __func__.4724
000000000000b331 l     O .rodata	000000000000001f __func__.4742
000000000000b350 l     O .rodata	0000000000000019 __func__.4749
000000000000b369 l     O .rodata	0000000000000012 __func__.4827
000000000000b37b l     O .rodata	0000000000000015 __func__.4780
000000000000b390 l     O .rodata	000000000000000e __func__.4855
000000000000b39e l     O .rodata	000000000000000e __func__.4884
000000000000b3ac l     O .rodata	000000000000000e __func__.4892
000000000000b3ba l     O .rodata	0000000000000011 __func__.4921
000000000000b3cb l     O .rodata	0000000000000018 __func__.4938
000000000000b3e3 l     O .rodata	000000000000001d __func__.5018
000000000000b400 l     O .rodata	0000000000000019 __func__.5071
000000000000b419 l     O .rodata	0000000000000015 __func__.5086
0000000000000000 l    df *ABS*	0000000000000000 bignum.c
0000000000004df0 l     F .text	0000000000000064 mpi_get_digit
0000000000004e54 l     F .text	0000000000000060 mpi_sub_hlp
0000000000004eb4 l     F .text	00000000000004d4 mpi_mul_hlp
0000000000006d9c l     F .text	00000000000000d4 mpi_write_hlp
0000000000007044 l     F .text	0000000000000098 mpi_check_small_factors
0000000000007b58 l     F .text	0000000000000288 mpi_miller_rabin
000000000000a8d4 l     O .rodata	00000000000002a0 small_prime
000000000000ab74 l     O .rodata	0000000000000024 gcd_pairs
0000000000000000 l    df *ABS*	0000000000000000 platform_util.c
000000000000c480 l     O .data	0000000000000008 memset_func
0000000000000000 l    df *ABS*	0000000000000000 snprintf.c
0000000000000000 l    df *ABS*	0000000000000000 memmove.c
0000000000000000 l    df *ABS*	0000000000000000 mempool.c
000000000000b942 l     O .rodata	0000000000000013 __func__.3549
000000000000b955 l     O .rodata	000000000000000e __func__.3558
0000000000000000 l    df *ABS*	0000000000000000 consttime_memcmp.c
0000000000000000 l    df *ABS*	0000000000000000 
000000000000c000 l     O *ABS*	0000000000000000 _DYNAMIC
000000000000c128 l     O *ABS*	0000000000000000 _GLOBAL_OFFSET_TABLE_
0000000000002514 g     F .text	000000000000003c putchar
0000000000000564 g     F .text	0000000000000018 strcpy
0000000000004c38 g     F .text	0000000000000004 TEE_BigIntConvertToFMM
0000000000004794 g     F .text	000000000000000c TEE_BigIntSquareMod
00000000000041e4 g     F .text	000000000000016c TEE_BigIntShiftRight
0000000000003058 g     F .text	000000000000000c utee_storage_obj_create
000000000000542c g     F .text	00000000000000f8 mbedtls_mpi_grow
0000000000002e60 g     F .text	000000000000000c utee_return
0000000000002ca0 g     F .text	0000000000000008 TEE_Realloc
000000000000240c g     F .text	00000000000000c8 printf
0000000000002e6c g     F .text	000000000000000c utee_log
00000000000028f0 g     F .text	0000000000000104 TEE_InvokeTACommand
0000000000005398 g     F .text	0000000000000028 mbedtls_mpi_init_mempool
0000000000005ba0 g     F .text	00000000000000c4 mbedtls_mpi_write_binary
00000000000022e8 g     F .text	0000000000000054 vsnprintk
0000000000006334 g     F .text	0000000000000040 mbedtls_mpi_sub_int
0000000000008a98 g     F .text	000000000000005c memmove
00000000000089cc g     F .text	0000000000000078 snprintf
0000000000004008 g     F .text	0000000000000048 TEE_BigIntCmpS32
0000000000005524 g     F .text	0000000000000120 mbedtls_mpi_shrink
00000000000043dc g     F .text	000000000000000c TEE_BigIntAdd
0000000000002e90 g     F .text	000000000000000c utee_get_property_name_to_index
000000000000a880 g     O .rodata	0000000000000008 ta_heap_size
0000000000002f14 g     F .text	000000000000000c utee_cryp_state_alloc
000000000000301c g     F .text	000000000000000c utee_authenc_enc_final
00000000000064f8 g     F .text	00000000000001e4 mbedtls_mpi_read_string
00000000000043f4 g     F .text	00000000000000b0 TEE_BigIntNeg
0000000000000020 g       .text	0000000000000000 __text_start
0000000000005d64 g     F .text	00000000000000c8 mbedtls_mpi_shift_r
000000000000162c g     F .text	000000000000006c malloc_buffer_overlaps_heap
000000000000477c g     F .text	000000000000000c TEE_BigIntSubMod
00000000000082d0 g     F .text	000000000000030c mbedtls_mpi_gen_prime
0000000000005964 g     F .text	000000000000002c mbedtls_mpi_get_bit
0000000000005ae8 g     F .text	00000000000000b8 mbedtls_mpi_read_binary
0000000000000878 g     F .text	0000000000000070 trace_printf
0000000000007118 g     F .text	0000000000000134 mbedtls_mpi_montmul
0000000000000544 g     F .text	0000000000000020 memcpy
0000000000002f2c g     F .text	000000000000000c utee_cryp_state_free
0000000000004c3c g     F .text	000000000000009c TEE_BigIntConvertFromFMM
0000000000002cc4 g     F .text	0000000000000008 TEE_Panic
00000000000024d4 g     F .text	0000000000000040 puts
0000000000004cd8 g     F .text	0000000000000118 TEE_BigIntComputeFMM
00000000000011f0 g     F .text	0000000000000038 malloc_get_stats
0000000000002f74 g     F .text	000000000000000c utee_cipher_final
0000000000002c1c g     F .text	0000000000000028 TEE_GetREETime
000000000000c318 g     O .data	00000000000000d8 ta_props
00000000000001c0 g     F .text	0000000000000080 fibufnacci
0000000000001228 g     F .text	0000000000000050 malloc
0000000000002fb0 g     F .text	000000000000000c utee_cryp_obj_close
0000000000008a44 g     F .text	0000000000000054 vsnprintf
000000000000c488 g     O .data	0000000000000004 trace_level
000000000000f4f0 g     O .bss	0000000000000001 PRINTSECRET
0000000000003fa0 g     F .text	0000000000000068 TEE_BigIntCmp
000000000000a868 g     O .rodata	0000000000000008 ta_num_props
0000000000000fa0 g     F .text	00000000000000cc bgetr
0000000000000020 g     F .text	0000000000000078 backdoor
0000000000003010 g     F .text	000000000000000c utee_authenc_update_payload
0000000000008c58 g     F .text	0000000000000044 mempool_free
0000000000003e00 g     F .text	0000000000000094 TEE_BigIntConvertToOctetString
00000000000030f4 g     F .text	000000000000000c utee_cache_operation
0000000000005a70 g     F .text	000000000000005c mbedtls_mpi_bitlen
0000000000002ff8 g     F .text	000000000000000c utee_authenc_init
0000000000004350 g     F .text	000000000000004c TEE_BigIntGetBit
000000000000a888 g     O .rodata	0000000000000003 trace_ext_prefix
0000000000000c58 g     F .text	000000000000008c bgetz
0000000000002adc g     F .text	000000000000000c TEE_GetInstanceData
0000000000002b28 g     F .text	000000000000003c TEE_Wait
00000000000030c4 g     F .text	000000000000000c utee_storage_obj_write
0000000000006374 g     F .text	0000000000000150 mbedtls_mpi_mul_mpi
0000000000002cb4 g     F .text	0000000000000008 TEE_CacheFlush
0000000000000688 g     F .text	00000000000001f0 trace_vprintf
0000000000000108 g     F .text	0000000000000024 TA_DestroyEntryPoint
0000000000005388 g     F .text	0000000000000010 mbedtls_mpi_init
0000000000005a1c g     F .text	0000000000000054 mbedtls_mpi_lsb
0000000000002550 g     F .text	0000000000000044 _assert_log
0000000000004c30 g     F .text	0000000000000008 TEE_BigIntFMMContextSizeInU32
0000000000002dc8 g     F .text	000000000000008c tee_unmap
0000000000003cb4 g     F .text	0000000000000050 _TEE_MathAPI_Init
00000000000061e0 g     F .text	0000000000000088 mbedtls_mpi_add_mpi
00000000000030ac g     F .text	000000000000000c utee_storage_next_enum
000000000000f4f1 g     O .bss	0000000000008000 ta_heap
00000000000047a0 g     F .text	000000000000011c TEE_BigIntInvMod
000000000000019c g     F .text	0000000000000024 TA_CloseSessionEntryPoint
0000000000006268 g     F .text	000000000000008c mbedtls_mpi_sub_mpi
0000000000008c9c g     F .text	0000000000000070 consttime_memcmp
0000000000002e78 g     F .text	000000000000000c __utee_panic
0000000000002f20 g     F .text	000000000000000c utee_cryp_state_copy
0000000000000240 g     F .text	00000000000002a4 TA_InvokeCommandEntryPoint
0000000000001344 g     F .text	0000000000000018 free_wipe
0000000000008b5c g     F .text	00000000000000ac mempool_alloc
0000000000002fa4 g     F .text	000000000000000c utee_cryp_obj_alloc
0000000000002f08 g     F .text	000000000000000c utee_set_ta_time
0000000000002f98 g     F .text	000000000000000c utee_cryp_obj_get_attr
0000000000008c08 g     F .text	0000000000000050 mempool_calloc
0000000000001278 g     F .text	0000000000000064 calloc
0000000000002c44 g     F .text	000000000000005c TEE_Malloc
0000000000002ee4 g     F .text	000000000000000c utee_mask_cancellation
0000000000002fbc g     F .text	000000000000000c utee_cryp_obj_reset
000000000000270c g     F .text	0000000000000014 TEE_CheckMemoryAccessRights
00000000000058fc g     F .text	0000000000000068 mbedtls_mpi_lset
000000000000012c g     F .text	0000000000000070 TA_OpenSessionEntryPoint
00000000000030a0 g     F .text	000000000000000c utee_storage_start_enum
0000000000003070 g     F .text	000000000000000c utee_storage_obj_rename
00000000000174f8 g       .bss	0000000000000000 __ftrace_buf_end
000000000000c4a0 g     O .bss	0000000000000004 ta_param_types
0000000000006c08 g     F .text	0000000000000040 mbedtls_mpi_div_int
0000000000008218 g     F .text	00000000000000a8 mbedtls_mpi_is_prime_ext
0000000000004bc8 g     F .text	0000000000000050 TEE_BigIntIsProbablePrime
00000000000064c4 g     F .text	0000000000000034 mbedtls_mpi_mul_int
000000000000728c g     F .text	000000000000068c mbedtls_mpi_exp_mod
0000000000005758 g     F .text	00000000000000c0 mbedtls_mpi_safe_cond_assign
0000000000002e84 g     F .text	000000000000000c utee_get_property
0000000000003d04 g     F .text	0000000000000070 TEE_BigIntInit
0000000000002ae8 g     F .text	0000000000000008 TEE_MemMove
00000000000089b8 g     F .text	0000000000000014 mbedtls_platform_zeroize
0000000000003d74 g     F .text	000000000000008c TEE_BigIntConvertFromOctetString
0000000000005e2c g     F .text	000000000000009c mbedtls_mpi_cmp_abs
00000000000023b0 g     F .text	000000000000002c memchr
00000000000026b4 g     F .text	000000000000002c TEE_UnmaskCancellation
00000000000085dc g     F .text	00000000000003dc mbedtls_mpi_self_test
0000000000003064 g     F .text	000000000000000c utee_storage_obj_del
00000000000030dc g     F .text	000000000000000c utee_storage_obj_seek
0000000000005fa0 g     F .text	0000000000000040 mbedtls_mpi_cmp_int
0000000000002f44 g     F .text	000000000000000c utee_hash_update
000000000000470c g     F .text	0000000000000064 TEE_BigIntMod
0000000000006cfc g     F .text	00000000000000a0 mbedtls_mpi_mod_int
0000000000002ea8 g     F .text	000000000000000c utee_close_ta_session
0000000000004594 g     F .text	0000000000000178 TEE_BigIntDiv
00000000000174f8 g       .bss	0000000000000000 __ftrace_buf_start
0000000000005644 g     F .text	00000000000000b4 mbedtls_mpi_copy
00000000000011d8 g     F .text	0000000000000018 malloc_reset_stats
0000000000002f68 g     F .text	000000000000000c utee_cipher_update
00000000000012dc g     F .text	0000000000000050 realloc
00000000000056f8 g     F .text	0000000000000060 mbedtls_mpi_swap
0000000000008af4 g     F .text	0000000000000068 mempool_alloc_pool
0000000000003040 g     F .text	000000000000000c utee_asymm_verify
00000000000044a4 g     F .text	00000000000000e8 TEE_BigIntMul
0000000000005c64 g     F .text	0000000000000100 mbedtls_mpi_shift_l
0000000000005ec8 g     F .text	00000000000000d8 mbedtls_mpi_cmp_mpi
0000000000002af8 g     F .text	0000000000000008 TEE_MemFill
000000000000135c g     F .text	0000000000000150 malloc_add_pool
0000000000000678 g     F .text	0000000000000010 trace_get_level
0000000000005fe0 g     F .text	000000000000012c mbedtls_mpi_add_abs
0000000000002fec g     F .text	000000000000000c utee_cryp_random_number_generate
0000000000004c20 g     F .text	0000000000000010 TEE_BigIntFMMSizeInU32
0000000000004c18 g     F .text	0000000000000004 TEE_BigIntInitFMM
0000000000003034 g     F .text	000000000000000c utee_asymm_operate
00000000000032b0 g     F .text	00000000000001fc __utee_entry
0000000000008d0c g       .text	0000000000000000 __text_end
00000000000048bc g     F .text	00000000000000d4 TEE_BigIntRelativePrime
0000000000006c48 g     F .text	00000000000000b4 mbedtls_mpi_mod_mpi
000000000000106c g     F .text	00000000000000d4 bpool
0000000000000500 g     F .text	0000000000000044 strdup
0000000000002688 g     F .text	000000000000002c TEE_GetCancellationFlag
0000000000007918 g     F .text	00000000000001bc mbedtls_mpi_gcd
0000000000002bd8 g     F .text	0000000000000044 TEE_SetTAPersistentTime
0000000000001698 g     F .text	000000000000001c memset
0000000000002b64 g     F .text	0000000000000074 TEE_GetTAPersistentTime
00000000000008e8 g     F .text	000000000000016c dhex_dump
00000000000026e0 g     F .text	000000000000002c TEE_MaskCancellation
00000000000030b8 g     F .text	000000000000000c utee_storage_obj_read
0000000000002fc8 g     F .text	000000000000000c utee_cryp_obj_populate
000000000000065c g     F .text	000000000000001c trace_set_level
0000000000002f80 g     F .text	000000000000000c utee_cryp_obj_get_info
000000000000307c g     F .text	000000000000000c utee_storage_alloc_enum
0000000000003094 g     F .text	000000000000000c utee_storage_reset_enum
00000000000030d0 g     F .text	000000000000000c utee_storage_obj_trunc
0000000000003f18 g     F .text	0000000000000088 TEE_BigIntConvertToS32
00000000000043e8 g     F .text	000000000000000c TEE_BigIntSub
0000000000002ec0 g     F .text	000000000000000c utee_get_cancellation_flag
0000000000002f38 g     F .text	000000000000000c utee_hash_init
00000000000004f8 g     F .text	0000000000000008 tahead_get_trace_level
0000000000002d54 g     F .text	0000000000000074 tee_map_zi
000000000000724c g     F .text	0000000000000040 mbedtls_mpi_montred
0000000000003e94 g     F .text	0000000000000084 TEE_BigIntConvertFromS32
00000000000062f4 g     F .text	0000000000000040 mbedtls_mpi_add_int
0000000000002f8c g     F .text	000000000000000c utee_cryp_obj_restrict_usage
000000000000c310 g     O .data	0000000000000008 SECRET
00000000000014ac g     F .text	0000000000000180 malloc_buffer_is_within_alloced
0000000000002fd4 g     F .text	000000000000000c utee_cryp_obj_copy
0000000000004c1c g     F .text	0000000000000004 TEE_BigIntInitFMMContext
0000000000002fe0 g     F .text	000000000000000c utee_cryp_derive_key
0000000000003028 g     F .text	000000000000000c utee_authenc_dec_final
000000000000458c g     F .text	0000000000000008 TEE_BigIntSquare
0000000000000098 g     F .text	0000000000000070 TA_CreateEntryPoint
00000000000004e4 g     F .text	0000000000000014 __ta_entry
00000000000070dc g     F .text	000000000000003c mbedtls_mpi_montg_init
000000000000233c g     F .text	0000000000000074 snprintk
000000000000439c g     F .text	0000000000000040 TEE_BigIntGetBitCount
0000000000004788 g     F .text	000000000000000c TEE_BigIntMulMod
0000000000007de0 g     F .text	0000000000000438 mbedtls_mpi_inv_mod
000000000000c4a8 g     O .bss	0000000000000040 ta_params
00000000000066dc g     F .text	000000000000052c mbedtls_mpi_div_mpi
0000000000005acc g     F .text	000000000000001c mbedtls_mpi_size
0000000000000a98 g     F .text	00000000000001c0 bget
0000000000005990 g     F .text	000000000000008c mbedtls_mpi_set_bit
0000000000002ca8 g     F .text	0000000000000004 TEE_Free
00000000000082c0 g     F .text	0000000000000010 mbedtls_mpi_is_prime
0000000000002cbc g     F .text	0000000000000008 TEE_CacheInvalidate
0000000000002f5c g     F .text	000000000000000c utee_cipher_init
0000000000002594 g     F .text	0000000000000014 _assert_break
0000000000004770 g     F .text	000000000000000c TEE_BigIntAddMod
0000000000003088 g     F .text	000000000000000c utee_storage_free_enum
0000000000003004 g     F .text	000000000000000c utee_authenc_update_aad
0000000000002af0 g     F .text	0000000000000008 TEE_MemCompare
00000000000016b4 g     F .text	0000000000000c34 __vsnprintf
00000000000029f4 g     F .text	00000000000000dc TEE_OpenTASession
0000000000002e54 g     F .text	000000000000000c utee_panic
00000000000023dc g     F .text	0000000000000028 trace_ext_puts
0000000000002404 g     F .text	0000000000000008 trace_ext_get_thread_id
00000000000053c0 g     F .text	000000000000006c mbedtls_mpi_free
0000000000002cac g     F .text	0000000000000008 TEE_CacheClean
0000000000002e9c g     F .text	000000000000000c utee_open_ta_session
0000000000005818 g     F .text	00000000000000e4 mbedtls_mpi_safe_cond_swap
0000000000002f50 g     F .text	000000000000000c utee_hash_final
000000000000057c g     F .text	000000000000001c strlen
0000000000004990 g     F .text	0000000000000238 TEE_BigIntComputeExtendedGcd
000000000000304c g     F .text	000000000000000c utee_storage_obj_open
0000000000002eb4 g     F .text	000000000000000c utee_invoke_ta_command
0000000000002ef0 g     F .text	000000000000000c utee_wait
0000000000002b00 g     F .text	0000000000000028 TEE_GetSystemTime
0000000000000000 g     O .ta_head	0000000000000020 ta_head
0000000000000ce4 g     F .text	00000000000002bc brel
000000000000610c g     F .text	00000000000000d4 mbedtls_mpi_sub_abs
0000000000002efc g     F .text	000000000000000c utee_get_time
0000000000007ad4 g     F .text	0000000000000084 mbedtls_mpi_fill_random
0000000000002ad0 g     F .text	000000000000000c TEE_SetInstanceData
0000000000002ed8 g     F .text	000000000000000c utee_unmask_cancellation
0000000000002ecc g     F .text	000000000000000c utee_check_access_rights
0000000000006e70 g     F .text	00000000000001d4 mbedtls_mpi_write_string
00000000000030e8 g     F .text	000000000000000c utee_cryp_obj_generate_key
0000000000002660 g     F .text	0000000000000028 TEE_CloseTASession
000000000000132c g     F .text	0000000000000018 free
0000000000001140 g     F .text	0000000000000098 bstats
000000000000f4e8 g     O .bss	0000000000000008 mbedtls_mpi_mempool



Disassembly of section .text:

0000000000000020 <backdoor>:
backdoor():
/home/hei/Desktop/optee-qemu/optee_examples/overflow/ta/overflow.c:117
      20:	a9be7bfd 	stp	x29, x30, [sp, #-32]!
/home/hei/Desktop/optee-qemu/optee_examples/overflow/ta/overflow.c:118
      24:	52800023 	mov	w3, #0x1                   	// #1
      28:	52800062 	mov	w2, #0x3                   	// #3
/home/hei/Desktop/optee-qemu/optee_examples/overflow/ta/overflow.c:117
      2c:	910003fd 	mov	x29, sp
      30:	a90153f3 	stp	x19, x20, [sp, #16]
/home/hei/Desktop/optee-qemu/optee_examples/overflow/ta/overflow.c:118
      34:	d0000054 	adrp	x20, a000 <__text_end+0x12f4>
      38:	d0000053 	adrp	x19, a000 <__text_end+0x12f4>
      3c:	91309a94 	add	x20, x20, #0xc26
      40:	912e6273 	add	x19, x19, #0xb98
      44:	aa1403e4 	mov	x4, x20
      48:	aa1303e0 	mov	x0, x19
      4c:	52800ec1 	mov	w1, #0x76                  	// #118
      50:	9400020a 	bl	878 <trace_printf>
/home/hei/Desktop/optee-qemu/optee_examples/overflow/ta/overflow.c:119
      54:	aa1303e0 	mov	x0, x19
      58:	52800023 	mov	w3, #0x1                   	// #1
      5c:	52800062 	mov	w2, #0x3                   	// #3
      60:	52800ee1 	mov	w1, #0x77                  	// #119
      64:	d0000044 	adrp	x4, a000 <__text_end+0x12f4>
      68:	91317084 	add	x4, x4, #0xc5c
      6c:	94000203 	bl	878 <trace_printf>
/home/hei/Desktop/optee-qemu/optee_examples/overflow/ta/overflow.c:120
      70:	aa1403e4 	mov	x4, x20
      74:	aa1303e0 	mov	x0, x19
      78:	52800023 	mov	w3, #0x1                   	// #1
      7c:	52800062 	mov	w2, #0x3                   	// #3
      80:	52800f01 	mov	w1, #0x78                  	// #120
      84:	940001fd 	bl	878 <trace_printf>
/home/hei/Desktop/optee-qemu/optee_examples/overflow/ta/overflow.c:122
      88:	52800000 	mov	w0, #0x0                   	// #0
      8c:	a94153f3 	ldp	x19, x20, [sp, #16]
      90:	a8c27bfd 	ldp	x29, x30, [sp], #32
      94:	d65f03c0 	ret

0000000000000098 <TA_CreateEntryPoint>:
TA_CreateEntryPoint():
/home/hei/Desktop/optee-qemu/optee_examples/overflow/ta/overflow.c:15
      98:	a9bd7bfd 	stp	x29, x30, [sp, #-48]!
/home/hei/Desktop/optee-qemu/optee_examples/overflow/ta/overflow.c:16
      9c:	52800023 	mov	w3, #0x1                   	// #1
      a0:	52800062 	mov	w2, #0x3                   	// #3
/home/hei/Desktop/optee-qemu/optee_examples/overflow/ta/overflow.c:15
      a4:	910003fd 	mov	x29, sp
      a8:	f9000bf3 	str	x19, [sp, #16]
/home/hei/Desktop/optee-qemu/optee_examples/overflow/ta/overflow.c:16
      ac:	d0000053 	adrp	x19, a000 <__text_end+0x12f4>
      b0:	912e6273 	add	x19, x19, #0xb98
      b4:	52800201 	mov	w1, #0x10                  	// #16
      b8:	91002673 	add	x19, x19, #0x9
      bc:	d0000044 	adrp	x4, a000 <__text_end+0x12f4>
      c0:	aa1303e0 	mov	x0, x19
      c4:	9131c484 	add	x4, x4, #0xc71
      c8:	940001ec 	bl	878 <trace_printf>
/home/hei/Desktop/optee-qemu/optee_examples/overflow/ta/overflow.c:18
      cc:	d28c0e05 	mov	x5, #0x6070                	// #24688
      d0:	aa1303e0 	mov	x0, x19
      d4:	f2a80a05 	movk	x5, #0x4050, lsl #16
      d8:	52800023 	mov	w3, #0x1                   	// #1
      dc:	f2c40605 	movk	x5, #0x2030, lsl #32
      e0:	52800062 	mov	w2, #0x3                   	// #3
      e4:	f2e10205 	movk	x5, #0x810, lsl #48
      e8:	52800241 	mov	w1, #0x12                  	// #18
      ec:	d0000044 	adrp	x4, a000 <__text_end+0x12f4>
      f0:	91320484 	add	x4, x4, #0xc81
      f4:	940001e1 	bl	878 <trace_printf>
/home/hei/Desktop/optee-qemu/optee_examples/overflow/ta/overflow.c:20
      f8:	52800000 	mov	w0, #0x0                   	// #0
      fc:	f9400bf3 	ldr	x19, [sp, #16]
     100:	a8c37bfd 	ldp	x29, x30, [sp], #48
     104:	d65f03c0 	ret

0000000000000108 <TA_DestroyEntryPoint>:
TA_DestroyEntryPoint():
/home/hei/Desktop/optee-qemu/optee_examples/overflow/ta/overflow.c:25
     108:	d0000040 	adrp	x0, a000 <__text_end+0x12f4>
     10c:	912e6000 	add	x0, x0, #0xb98
     110:	d0000044 	adrp	x4, a000 <__text_end+0x12f4>
     114:	52800023 	mov	w3, #0x1                   	// #1
     118:	9131c484 	add	x4, x4, #0xc71
     11c:	52800062 	mov	w2, #0x3                   	// #3
     120:	52800321 	mov	w1, #0x19                  	// #25
     124:	91007400 	add	x0, x0, #0x1d
     128:	140001d4 	b	878 <trace_printf>

000000000000012c <TA_OpenSessionEntryPoint>:
TA_OpenSessionEntryPoint():
/home/hei/Desktop/optee-qemu/optee_examples/overflow/ta/overflow.c:31
     12c:	a9be7bfd 	stp	x29, x30, [sp, #-32]!
/home/hei/Desktop/optee-qemu/optee_examples/overflow/ta/overflow.c:37
     130:	d0000044 	adrp	x4, a000 <__text_end+0x12f4>
     134:	52800023 	mov	w3, #0x1                   	// #1
/home/hei/Desktop/optee-qemu/optee_examples/overflow/ta/overflow.c:31
     138:	910003fd 	mov	x29, sp
     13c:	a90153f3 	stp	x19, x20, [sp, #16]
/home/hei/Desktop/optee-qemu/optee_examples/overflow/ta/overflow.c:37
     140:	d0000053 	adrp	x19, a000 <__text_end+0x12f4>
     144:	912e6273 	add	x19, x19, #0xb98
     148:	9100ca73 	add	x19, x19, #0x32
/home/hei/Desktop/optee-qemu/optee_examples/overflow/ta/overflow.c:31
     14c:	2a0003f4 	mov	w20, w0
/home/hei/Desktop/optee-qemu/optee_examples/overflow/ta/overflow.c:37
     150:	9131c484 	add	x4, x4, #0xc71
     154:	52800062 	mov	w2, #0x3                   	// #3
     158:	528004a1 	mov	w1, #0x25                  	// #37
     15c:	aa1303e0 	mov	x0, x19
     160:	940001c6 	bl	878 <trace_printf>
/home/hei/Desktop/optee-qemu/optee_examples/overflow/ta/overflow.c:39
     164:	35000194 	cbnz	w20, 194 <TA_OpenSessionEntryPoint+0x68>
/home/hei/Desktop/optee-qemu/optee_examples/overflow/ta/overflow.c:45
     168:	d0000044 	adrp	x4, a000 <__text_end+0x12f4>
     16c:	52800023 	mov	w3, #0x1                   	// #1
     170:	91324c84 	add	x4, x4, #0xc93
     174:	52800042 	mov	w2, #0x2                   	// #2
     178:	528005a1 	mov	w1, #0x2d                  	// #45
     17c:	aa1303e0 	mov	x0, x19
     180:	940001be 	bl	878 <trace_printf>
/home/hei/Desktop/optee-qemu/optee_examples/overflow/ta/overflow.c:48
     184:	2a1403e0 	mov	w0, w20
     188:	a94153f3 	ldp	x19, x20, [sp, #16]
     18c:	a8c27bfd 	ldp	x29, x30, [sp], #32
     190:	d65f03c0 	ret
/home/hei/Desktop/optee-qemu/optee_examples/overflow/ta/overflow.c:40
     194:	129fff34 	mov	w20, #0xffff0006            	// #-65530
     198:	17fffffb 	b	184 <TA_OpenSessionEntryPoint+0x58>

000000000000019c <TA_CloseSessionEntryPoint>:
TA_CloseSessionEntryPoint():
/home/hei/Desktop/optee-qemu/optee_examples/overflow/ta/overflow.c:53
     19c:	d0000040 	adrp	x0, a000 <__text_end+0x12f4>
     1a0:	912e6000 	add	x0, x0, #0xb98
     1a4:	d0000044 	adrp	x4, a000 <__text_end+0x12f4>
     1a8:	52800023 	mov	w3, #0x1                   	// #1
     1ac:	91328484 	add	x4, x4, #0xca1
     1b0:	52800042 	mov	w2, #0x2                   	// #2
     1b4:	528006a1 	mov	w1, #0x35                  	// #53
     1b8:	91012c00 	add	x0, x0, #0x4b
     1bc:	140001af 	b	878 <trace_printf>

00000000000001c0 <fibufnacci>:
fibufnacci():
/home/hei/Desktop/optee-qemu/optee_examples/overflow/ta/overflow.c:58
     1c0:	a9b67bfd 	stp	x29, x30, [sp, #-160]!
/home/hei/Desktop/optee-qemu/optee_examples/overflow/ta/overflow.c:60
     1c4:	aa0103e2 	mov	x2, x1
     1c8:	aa0003e1 	mov	x1, x0
/home/hei/Desktop/optee-qemu/optee_examples/overflow/ta/overflow.c:58
     1cc:	910003fd 	mov	x29, sp
     1d0:	a90153f3 	stp	x19, x20, [sp, #16]
/home/hei/Desktop/optee-qemu/optee_examples/overflow/ta/overflow.c:60
     1d4:	910083f3 	add	x19, sp, #0x20
/home/hei/Desktop/optee-qemu/optee_examples/overflow/ta/overflow.c:61
     1d8:	d0000054 	adrp	x20, a000 <__text_end+0x12f4>
     1dc:	912e6294 	add	x20, x20, #0xb98
/home/hei/Desktop/optee-qemu/optee_examples/overflow/ta/overflow.c:60
     1e0:	aa1303e0 	mov	x0, x19
/home/hei/Desktop/optee-qemu/optee_examples/overflow/ta/overflow.c:61
     1e4:	91019694 	add	x20, x20, #0x65
/home/hei/Desktop/optee-qemu/optee_examples/overflow/ta/overflow.c:60
     1e8:	940000d7 	bl	544 <memcpy>
/home/hei/Desktop/optee-qemu/optee_examples/overflow/ta/overflow.c:61
     1ec:	aa1303e5 	mov	x5, x19
     1f0:	aa1403e0 	mov	x0, x20
     1f4:	52800023 	mov	w3, #0x1                   	// #1
     1f8:	52800062 	mov	w2, #0x3                   	// #3
     1fc:	528007a1 	mov	w1, #0x3d                  	// #61
     200:	d0000044 	adrp	x4, a000 <__text_end+0x12f4>
     204:	9132ac84 	add	x4, x4, #0xcab
     208:	9400019c 	bl	878 <trace_printf>
/home/hei/Desktop/optee-qemu/optee_examples/overflow/ta/overflow.c:62
     20c:	aa1303e5 	mov	x5, x19
     210:	d0000044 	adrp	x4, a000 <__text_end+0x12f4>
     214:	9132f884 	add	x4, x4, #0xcbe
     218:	52800023 	mov	w3, #0x1                   	// #1
     21c:	52800062 	mov	w2, #0x3                   	// #3
     220:	528007c1 	mov	w1, #0x3e                  	// #62
     224:	aa1403e0 	mov	x0, x20
     228:	94000194 	bl	878 <trace_printf>
/home/hei/Desktop/optee-qemu/optee_examples/overflow/ta/overflow.c:63
     22c:	aa1303e0 	mov	x0, x19
     230:	940000b4 	bl	500 <strdup>
/home/hei/Desktop/optee-qemu/optee_examples/overflow/ta/overflow.c:64
     234:	a94153f3 	ldp	x19, x20, [sp, #16]
     238:	a8ca7bfd 	ldp	x29, x30, [sp], #160
     23c:	d65f03c0 	ret

0000000000000240 <TA_InvokeCommandEntryPoint>:
TA_InvokeCommandEntryPoint():
/home/hei/Desktop/optee-qemu/optee_examples/overflow/ta/overflow.c:158
     240:	a9bb7bfd 	stp	x29, x30, [sp, #-80]!
     244:	910003fd 	mov	x29, sp
     248:	a90153f3 	stp	x19, x20, [sp, #16]
     24c:	2a0103f3 	mov	w19, w1
     250:	a9025bf5 	stp	x21, x22, [sp, #32]
     254:	aa0303f6 	mov	x22, x3
     258:	a90363f7 	stp	x23, x24, [sp, #48]
     25c:	f90023f9 	str	x25, [sp, #64]
     260:	2a0203f9 	mov	w25, w2
/home/hei/Desktop/optee-qemu/optee_examples/overflow/ta/overflow.c:161
     264:	340000a1 	cbz	w1, 278 <TA_InvokeCommandEntryPoint+0x38>
     268:	7100043f 	cmp	w1, #0x1
     26c:	54000c20 	b.eq	3f0 <TA_InvokeCommandEntryPoint+0x1b0>  // b.none
call_fibufnacci():
/home/hei/Desktop/optee-qemu/optee_examples/overflow/ta/overflow.c:80
     270:	129fff33 	mov	w19, #0xffff0006            	// #-65530
     274:	1400002b 	b	320 <TA_InvokeCommandEntryPoint+0xe0>
/home/hei/Desktop/optee-qemu/optee_examples/overflow/ta/overflow.c:76
     278:	d0000057 	adrp	x23, a000 <__text_end+0x12f4>
     27c:	912e62f4 	add	x20, x23, #0xb98
     280:	9101c294 	add	x20, x20, #0x70
     284:	d0000058 	adrp	x24, a000 <__text_end+0x12f4>
     288:	aa1403e0 	mov	x0, x20
     28c:	91309b04 	add	x4, x24, #0xc26
     290:	52800023 	mov	w3, #0x1                   	// #1
     294:	52800062 	mov	w2, #0x3                   	// #3
     298:	52800981 	mov	w1, #0x4c                  	// #76
     29c:	94000177 	bl	878 <trace_printf>
/home/hei/Desktop/optee-qemu/optee_examples/overflow/ta/overflow.c:78
     2a0:	5282a6e0 	mov	w0, #0x1537                	// #5431
     2a4:	6b00033f 	cmp	w25, w0
     2a8:	54fffe41 	b.ne	270 <TA_InvokeCommandEntryPoint+0x30>  // b.any
/home/hei/Desktop/optee-qemu/optee_examples/overflow/ta/overflow.c:82
     2ac:	52800023 	mov	w3, #0x1                   	// #1
     2b0:	52800062 	mov	w2, #0x3                   	// #3
     2b4:	52800a41 	mov	w1, #0x52                  	// #82
     2b8:	aa1403e0 	mov	x0, x20
     2bc:	d0000044 	adrp	x4, a000 <__text_end+0x12f4>
     2c0:	91334084 	add	x4, x4, #0xcd0
     2c4:	9400016d 	bl	878 <trace_printf>
/home/hei/Desktop/optee-qemu/optee_examples/overflow/ta/overflow.c:85
     2c8:	b9402ad9 	ldr	w25, [x22, #40]
reg_pair_to_64():
/home/hei/Desktop/optee-qemu/optee_examples/overflow/ta/overflow.c:11
     2cc:	294202d5 	ldp	w21, w0, [x22, #16]
call_fibufnacci():
/home/hei/Desktop/optee-qemu/optee_examples/overflow/ta/overflow.c:86
     2d0:	aa1903e5 	mov	x5, x25
     2d4:	d0000044 	adrp	x4, a000 <__text_end+0x12f4>
     2d8:	52800023 	mov	w3, #0x1                   	// #1
     2dc:	91338884 	add	x4, x4, #0xce2
     2e0:	52800062 	mov	w2, #0x3                   	// #3
reg_pair_to_64():
/home/hei/Desktop/optee-qemu/optee_examples/overflow/ta/overflow.c:11
     2e4:	aa158015 	orr	x21, x0, x21, lsl #32
call_fibufnacci():
/home/hei/Desktop/optee-qemu/optee_examples/overflow/ta/overflow.c:86
     2e8:	52800ac1 	mov	w1, #0x56                  	// #86
     2ec:	aa1403e0 	mov	x0, x20
     2f0:	94000162 	bl	878 <trace_printf>
/home/hei/Desktop/optee-qemu/optee_examples/overflow/ta/overflow.c:88
     2f4:	b9400ac5 	ldr	w5, [x22, #8]
     2f8:	eb2542bf 	cmp	x21, w5, uxtw
     2fc:	54000209 	b.ls	33c <TA_InvokeCommandEntryPoint+0xfc>  // b.plast
/home/hei/Desktop/optee-qemu/optee_examples/overflow/ta/overflow.c:90
     300:	d0000044 	adrp	x4, a000 <__text_end+0x12f4>
     304:	52800023 	mov	w3, #0x1                   	// #1
     308:	9133ac84 	add	x4, x4, #0xceb
     30c:	52800062 	mov	w2, #0x3                   	// #3
     310:	52800b41 	mov	w1, #0x5a                  	// #90
     314:	aa1403e0 	mov	x0, x20
     318:	94000158 	bl	878 <trace_printf>
/home/hei/Desktop/optee-qemu/optee_examples/overflow/ta/overflow.c:103
     31c:	129ffdf3 	mov	w19, #0xffff0010            	// #-65520
TA_InvokeCommandEntryPoint():
/home/hei/Desktop/optee-qemu/optee_examples/overflow/ta/overflow.c:169
     320:	2a1303e0 	mov	w0, w19
     324:	a94153f3 	ldp	x19, x20, [sp, #16]
     328:	a9425bf5 	ldp	x21, x22, [sp, #32]
     32c:	a94363f7 	ldp	x23, x24, [sp, #48]
     330:	f94023f9 	ldr	x25, [sp, #64]
     334:	a8c57bfd 	ldp	x29, x30, [sp], #80
     338:	d65f03c0 	ret
call_fibufnacci():
/home/hei/Desktop/optee-qemu/optee_examples/overflow/ta/overflow.c:94
     33c:	f94012c0 	ldr	x0, [x22, #32]
     340:	aa1903e1 	mov	x1, x25
     344:	97ffff9f 	bl	1c0 <fibufnacci>
     348:	aa0003f5 	mov	x21, x0
/home/hei/Desktop/optee-qemu/optee_examples/overflow/ta/overflow.c:99
     34c:	9400008c 	bl	57c <strlen>
     350:	91000400 	add	x0, x0, #0x1
     354:	b9400ac1 	ldr	w1, [x22, #8]
     358:	eb01001f 	cmp	x0, x1
     35c:	54000169 	b.ls	388 <TA_InvokeCommandEntryPoint+0x148>  // b.plast
/home/hei/Desktop/optee-qemu/optee_examples/overflow/ta/overflow.c:101
     360:	d0000044 	adrp	x4, a000 <__text_end+0x12f4>
     364:	91345c84 	add	x4, x4, #0xd17
     368:	52800023 	mov	w3, #0x1                   	// #1
     36c:	52800062 	mov	w2, #0x3                   	// #3
     370:	52800ca1 	mov	w1, #0x65                  	// #101
     374:	aa1403e0 	mov	x0, x20
     378:	94000140 	bl	878 <trace_printf>
/home/hei/Desktop/optee-qemu/optee_examples/overflow/ta/overflow.c:102
     37c:	aa1503e0 	mov	x0, x21
     380:	94000a4a 	bl	2ca8 <TEE_Free>
     384:	17ffffe6 	b	31c <TA_InvokeCommandEntryPoint+0xdc>
/home/hei/Desktop/optee-qemu/optee_examples/overflow/ta/overflow.c:105
     388:	f94002c0 	ldr	x0, [x22]
     38c:	aa1503e1 	mov	x1, x21
     390:	94000075 	bl	564 <strcpy>
/home/hei/Desktop/optee-qemu/optee_examples/overflow/ta/overflow.c:106
     394:	aa1503e0 	mov	x0, x21
/home/hei/Desktop/optee-qemu/optee_examples/overflow/ta/overflow.c:107
     398:	90000075 	adrp	x21, c000 <_DYNAMIC>
/home/hei/Desktop/optee-qemu/optee_examples/overflow/ta/overflow.c:106
     39c:	94000a43 	bl	2ca8 <TEE_Free>
/home/hei/Desktop/optee-qemu/optee_examples/overflow/ta/overflow.c:107
     3a0:	f940a2a0 	ldr	x0, [x21, #320]
     3a4:	39400000 	ldrb	w0, [x0]
     3a8:	34000140 	cbz	w0, 3d0 <TA_InvokeCommandEntryPoint+0x190>
/home/hei/Desktop/optee-qemu/optee_examples/overflow/ta/overflow.c:109
     3ac:	f940c6b5 	ldr	x21, [x21, #392]
     3b0:	d0000044 	adrp	x4, a000 <__text_end+0x12f4>
     3b4:	52800023 	mov	w3, #0x1                   	// #1
     3b8:	91333484 	add	x4, x4, #0xccd
     3bc:	52800062 	mov	w2, #0x3                   	// #3
     3c0:	52800da1 	mov	w1, #0x6d                  	// #109
     3c4:	f94002a5 	ldr	x5, [x21]
     3c8:	aa1403e0 	mov	x0, x20
     3cc:	9400012b 	bl	878 <trace_printf>
/home/hei/Desktop/optee-qemu/optee_examples/overflow/ta/overflow.c:111
     3d0:	912e62e0 	add	x0, x23, #0xb98
     3d4:	91309b04 	add	x4, x24, #0xc26
     3d8:	52800023 	mov	w3, #0x1                   	// #1
     3dc:	52800062 	mov	w2, #0x3                   	// #3
     3e0:	52800de1 	mov	w1, #0x6f                  	// #111
     3e4:	9101c000 	add	x0, x0, #0x70
     3e8:	94000124 	bl	878 <trace_printf>
/home/hei/Desktop/optee-qemu/optee_examples/overflow/ta/overflow.c:112
     3ec:	17ffffcd 	b	320 <TA_InvokeCommandEntryPoint+0xe0>
show_backdoor():
/home/hei/Desktop/optee-qemu/optee_examples/overflow/ta/overflow.c:135
     3f0:	d0000054 	adrp	x20, a000 <__text_end+0x12f4>
     3f4:	912e6295 	add	x21, x20, #0xb98
     3f8:	910202b5 	add	x21, x21, #0x80
     3fc:	2a0103e3 	mov	w3, w1
     400:	52800062 	mov	w2, #0x3                   	// #3
     404:	528010e1 	mov	w1, #0x87                  	// #135
     408:	aa1503e0 	mov	x0, x21
     40c:	d0000044 	adrp	x4, a000 <__text_end+0x12f4>
     410:	91309884 	add	x4, x4, #0xc26
     414:	94000119 	bl	878 <trace_printf>
/home/hei/Desktop/optee-qemu/optee_examples/overflow/ta/overflow.c:136
     418:	d0000044 	adrp	x4, a000 <__text_end+0x12f4>
     41c:	2a1303e3 	mov	w3, w19
     420:	9134d484 	add	x4, x4, #0xd35
     424:	52800062 	mov	w2, #0x3                   	// #3
     428:	52801101 	mov	w1, #0x88                  	// #136
     42c:	aa1503e0 	mov	x0, x21
     430:	94000112 	bl	878 <trace_printf>
/home/hei/Desktop/optee-qemu/optee_examples/overflow/ta/overflow.c:138
     434:	71000f3f 	cmp	w25, #0x3
     438:	54000100 	b.eq	458 <TA_InvokeCommandEntryPoint+0x218>  // b.none
/home/hei/Desktop/optee-qemu/optee_examples/overflow/ta/overflow.c:140
     43c:	d0000044 	adrp	x4, a000 <__text_end+0x12f4>
     440:	2a1303e3 	mov	w3, w19
     444:	91356884 	add	x4, x4, #0xd5a
     448:	52800062 	mov	w2, #0x3                   	// #3
     44c:	52801181 	mov	w1, #0x8c                  	// #140
     450:	aa1503e0 	mov	x0, x21
     454:	94000109 	bl	878 <trace_printf>
/home/hei/Desktop/optee-qemu/optee_examples/overflow/ta/overflow.c:142
     458:	90000075 	adrp	x21, c000 <_DYNAMIC>
     45c:	912e6294 	add	x20, x20, #0xb98
     460:	91020294 	add	x20, x20, #0x80
     464:	52800023 	mov	w3, #0x1                   	// #1
     468:	f940a6b7 	ldr	x23, [x21, #328]
     46c:	52800062 	mov	w2, #0x3                   	// #3
     470:	528011c1 	mov	w1, #0x8e                  	// #142
     474:	aa1403e0 	mov	x0, x20
     478:	aa1703e5 	mov	x5, x23
     47c:	d0000044 	adrp	x4, a000 <__text_end+0x12f4>
     480:	91359484 	add	x4, x4, #0xd65
     484:	940000fd 	bl	878 <trace_printf>
/home/hei/Desktop/optee-qemu/optee_examples/overflow/ta/overflow.c:144
     488:	b90002d7 	str	w23, [x22]
/home/hei/Desktop/optee-qemu/optee_examples/overflow/ta/overflow.c:145
     48c:	aa1403e0 	mov	x0, x20
     490:	d0000044 	adrp	x4, a000 <__text_end+0x12f4>
     494:	52800023 	mov	w3, #0x1                   	// #1
     498:	f94002c5 	ldr	x5, [x22]
     49c:	9135dc84 	add	x4, x4, #0xd77
     4a0:	52800062 	mov	w2, #0x3                   	// #3
     4a4:	52801221 	mov	w1, #0x91                  	// #145
     4a8:	940000f4 	bl	878 <trace_printf>
/home/hei/Desktop/optee-qemu/optee_examples/overflow/ta/overflow.c:146
     4ac:	f940a2a0 	ldr	x0, [x21, #320]
     4b0:	39400000 	ldrb	w0, [x0]
     4b4:	34000140 	cbz	w0, 4dc <TA_InvokeCommandEntryPoint+0x29c>
/home/hei/Desktop/optee-qemu/optee_examples/overflow/ta/overflow.c:148
     4b8:	f940c6b5 	ldr	x21, [x21, #392]
     4bc:	d0000044 	adrp	x4, a000 <__text_end+0x12f4>
     4c0:	52800023 	mov	w3, #0x1                   	// #1
     4c4:	91333484 	add	x4, x4, #0xccd
     4c8:	52800062 	mov	w2, #0x3                   	// #3
     4cc:	52801281 	mov	w1, #0x94                  	// #148
     4d0:	f94002a5 	ldr	x5, [x21]
     4d4:	aa1403e0 	mov	x0, x20
     4d8:	940000e8 	bl	878 <trace_printf>
TA_InvokeCommandEntryPoint():
/home/hei/Desktop/optee-qemu/optee_examples/overflow/ta/overflow.c:165
     4dc:	52800013 	mov	w19, #0x0                   	// #0
     4e0:	17ffff90 	b	320 <TA_InvokeCommandEntryPoint+0xe0>

00000000000004e4 <__ta_entry>:
__ta_entry():
/home/hei/Desktop/optee-qemu/optee_os/out/arm/export-ta_arm64/src/user_ta_header.c:47
     4e4:	a9bf7bfd 	stp	x29, x30, [sp, #-16]!
     4e8:	910003fd 	mov	x29, sp
/home/hei/Desktop/optee-qemu/optee_os/out/arm/export-ta_arm64/src/user_ta_header.c:48
     4ec:	94000b71 	bl	32b0 <__utee_entry>
/home/hei/Desktop/optee-qemu/optee_os/out/arm/export-ta_arm64/src/user_ta_header.c:59
     4f0:	2a0003e0 	mov	w0, w0
     4f4:	94000a5b 	bl	2e60 <utee_return>

00000000000004f8 <tahead_get_trace_level>:
tahead_get_trace_level():
/home/hei/Desktop/optee-qemu/optee_os/out/arm/export-ta_arm64/src/user_ta_header.c:149
     4f8:	52800080 	mov	w0, #0x4                   	// #4
     4fc:	d65f03c0 	ret

0000000000000500 <strdup>:
strdup():
/home/hei/Desktop/optee-qemu/optee_os/lib/libutils/isoc/strdup.c:9
     500:	a9bd7bfd 	stp	x29, x30, [sp, #-48]!
     504:	910003fd 	mov	x29, sp
     508:	a90153f3 	stp	x19, x20, [sp, #16]
     50c:	f90017e0 	str	x0, [sp, #40]
/home/hei/Desktop/optee-qemu/optee_os/lib/libutils/isoc/strdup.c:10
     510:	9400001b 	bl	57c <strlen>
     514:	91000414 	add	x20, x0, #0x1
/home/hei/Desktop/optee-qemu/optee_os/lib/libutils/isoc/strdup.c:11
     518:	aa1403e0 	mov	x0, x20
     51c:	94000343 	bl	1228 <malloc>
     520:	aa0003f3 	mov	x19, x0
/home/hei/Desktop/optee-qemu/optee_os/lib/libutils/isoc/strdup.c:13
     524:	b4000080 	cbz	x0, 534 <strdup+0x34>
/home/hei/Desktop/optee-qemu/optee_os/lib/libutils/isoc/strdup.c:14
     528:	f94017e1 	ldr	x1, [sp, #40]
     52c:	aa1403e2 	mov	x2, x20
     530:	94000005 	bl	544 <memcpy>
/home/hei/Desktop/optee-qemu/optee_os/lib/libutils/isoc/strdup.c:16
     534:	aa1303e0 	mov	x0, x19
     538:	a94153f3 	ldp	x19, x20, [sp, #16]
     53c:	a8c37bfd 	ldp	x29, x30, [sp], #48
     540:	d65f03c0 	ret

0000000000000544 <memcpy>:
memcpy():
/home/hei/Desktop/optee-qemu/optee_os/lib/libutils/isoc/newlib/memcpy.c:94
     544:	d2800003 	mov	x3, #0x0                   	// #0
     548:	eb03005f 	cmp	x2, x3
     54c:	54000041 	b.ne	554 <memcpy+0x10>  // b.any
/home/hei/Desktop/optee-qemu/optee_os/lib/libutils/isoc/newlib/memcpy.c:135
     550:	d65f03c0 	ret
/home/hei/Desktop/optee-qemu/optee_os/lib/libutils/isoc/newlib/memcpy.c:95
     554:	38636824 	ldrb	w4, [x1, x3]
     558:	38236804 	strb	w4, [x0, x3]
     55c:	91000463 	add	x3, x3, #0x1
     560:	17fffffa 	b	548 <memcpy+0x4>

0000000000000564 <strcpy>:
strcpy():
/home/hei/Desktop/optee-qemu/optee_os/lib/libutils/isoc/newlib/strcpy.c:101
     564:	d2800002 	mov	x2, #0x0                   	// #0
/home/hei/Desktop/optee-qemu/optee_os/lib/libutils/isoc/newlib/strcpy.c:101 (discriminator 1)
     568:	38626823 	ldrb	w3, [x1, x2]
     56c:	38226803 	strb	w3, [x0, x2]
     570:	91000442 	add	x2, x2, #0x1
     574:	35ffffa3 	cbnz	w3, 568 <strcpy+0x4>
/home/hei/Desktop/optee-qemu/optee_os/lib/libutils/isoc/newlib/strcpy.c:132
     578:	d65f03c0 	ret

000000000000057c <strlen>:
strlen():
/home/hei/Desktop/optee-qemu/optee_os/lib/libutils/isoc/newlib/strlen.c:117
     57c:	aa0003e1 	mov	x1, x0
     580:	39400022 	ldrb	w2, [x1]
     584:	35000062 	cbnz	w2, 590 <strlen+0x14>
/home/hei/Desktop/optee-qemu/optee_os/lib/libutils/isoc/newlib/strlen.c:120
     588:	cb000020 	sub	x0, x1, x0
     58c:	d65f03c0 	ret
/home/hei/Desktop/optee-qemu/optee_os/lib/libutils/isoc/newlib/strlen.c:118
     590:	91000421 	add	x1, x1, #0x1
     594:	17fffffb 	b	580 <strlen+0x4>

0000000000000598 <append>:
append():
/home/hei/Desktop/optee-qemu/optee_os/lib/libutils/ext/trace.c:204
     598:	a9af7bfd 	stp	x29, x30, [sp, #-272]!
     59c:	910003fd 	mov	x29, sp
     5a0:	3d801be0 	str	q0, [sp, #96]
     5a4:	3d801fe1 	str	q1, [sp, #112]
     5a8:	3d8023e2 	str	q2, [sp, #128]
     5ac:	3d8027e3 	str	q3, [sp, #144]
     5b0:	3d802be4 	str	q4, [sp, #160]
     5b4:	3d802fe5 	str	q5, [sp, #176]
     5b8:	3d8033e6 	str	q6, [sp, #192]
     5bc:	3d8037e7 	str	q7, [sp, #208]
     5c0:	a90e0fe2 	stp	x2, x3, [sp, #224]
     5c4:	a90f17e4 	stp	x4, x5, [sp, #240]
     5c8:	a9101fe6 	stp	x6, x7, [sp, #256]
     5cc:	a90153f3 	stp	x19, x20, [sp, #16]
     5d0:	aa0003f3 	mov	x19, x0
/home/hei/Desktop/optee-qemu/optee_os/lib/libutils/ext/trace.c:209
     5d4:	f9408000 	ldr	x0, [x0, #256]
     5d8:	b5000040 	cbnz	x0, 5e0 <append+0x48>
/home/hei/Desktop/optee-qemu/optee_os/lib/libutils/ext/trace.c:210
     5dc:	f9008273 	str	x19, [x19, #256]
/home/hei/Desktop/optee-qemu/optee_os/lib/libutils/ext/trace.c:212
     5e0:	910443e2 	add	x2, sp, #0x110
     5e4:	a9040be2 	stp	x2, x2, [sp, #64]
     5e8:	910383e2 	add	x2, sp, #0xe0
     5ec:	f9002be2 	str	x2, [sp, #80]
     5f0:	128005e2 	mov	w2, #0xffffffd0            	// #-48
/home/hei/Desktop/optee-qemu/optee_os/lib/libutils/ext/trace.c:211
     5f4:	f9408260 	ldr	x0, [x19, #256]
/home/hei/Desktop/optee-qemu/optee_os/lib/libutils/ext/trace.c:212
     5f8:	b9005be2 	str	w2, [sp, #88]
     5fc:	12800fe2 	mov	w2, #0xffffff80            	// #-128
     600:	b9005fe2 	str	w2, [sp, #92]
/home/hei/Desktop/optee-qemu/optee_os/lib/libutils/ext/trace.c:213
     604:	a9440fe2 	ldp	x2, x3, [sp, #64]
/home/hei/Desktop/optee-qemu/optee_os/lib/libutils/ext/trace.c:211
     608:	4b000274 	sub	w20, w19, w0
/home/hei/Desktop/optee-qemu/optee_os/lib/libutils/ext/trace.c:213
     60c:	a9020fe2 	stp	x2, x3, [sp, #32]
/home/hei/Desktop/optee-qemu/optee_os/lib/libutils/ext/trace.c:211
     610:	11040294 	add	w20, w20, #0x100
/home/hei/Desktop/optee-qemu/optee_os/lib/libutils/ext/trace.c:213
     614:	a9450fe2 	ldp	x2, x3, [sp, #80]
     618:	a9030fe2 	stp	x2, x3, [sp, #48]
     61c:	aa0103e2 	mov	x2, x1
     620:	910083e3 	add	x3, sp, #0x20
     624:	93407e81 	sxtw	x1, w20
     628:	94000730 	bl	22e8 <vsnprintk>
/home/hei/Desktop/optee-qemu/optee_os/lib/libutils/ext/trace.c:215
     62c:	37f80140 	tbnz	w0, #31, 654 <append+0xbc>
/home/hei/Desktop/optee-qemu/optee_os/lib/libutils/ext/trace.c:219
     630:	6b00029f 	cmp	w20, w0
     634:	5400010d 	b.le	654 <append+0xbc>
/home/hei/Desktop/optee-qemu/optee_os/lib/libutils/ext/trace.c:223
     638:	f9408261 	ldr	x1, [x19, #256]
     63c:	8b20c020 	add	x0, x1, w0, sxtw
     640:	f9008260 	str	x0, [x19, #256]
/home/hei/Desktop/optee-qemu/optee_os/lib/libutils/ext/trace.c:224
     644:	52800020 	mov	w0, #0x1                   	// #1
/home/hei/Desktop/optee-qemu/optee_os/lib/libutils/ext/trace.c:225
     648:	a94153f3 	ldp	x19, x20, [sp, #16]
     64c:	a8d17bfd 	ldp	x29, x30, [sp], #272
     650:	d65f03c0 	ret
/home/hei/Desktop/optee-qemu/optee_os/lib/libutils/ext/trace.c:217
     654:	52800000 	mov	w0, #0x0                   	// #0
     658:	17fffffc 	b	648 <append+0xb0>

000000000000065c <trace_set_level>:
trace_set_level():
/home/hei/Desktop/optee-qemu/optee_os/lib/libutils/ext/trace.c:29
     65c:	7100141f 	cmp	w0, #0x5
     660:	52800081 	mov	w1, #0x4                   	// #4
     664:	1a813000 	csel	w0, w0, w1, cc  // cc = lo, ul, last
     668:	90000061 	adrp	x1, c000 <_DYNAMIC>
     66c:	f9409c21 	ldr	x1, [x1, #312]
     670:	b9000020 	str	w0, [x1]
/home/hei/Desktop/optee-qemu/optee_os/lib/libutils/ext/trace.c:30
     674:	d65f03c0 	ret

0000000000000678 <trace_get_level>:
trace_get_level():
/home/hei/Desktop/optee-qemu/optee_os/lib/libutils/ext/trace.c:34
     678:	90000060 	adrp	x0, c000 <_DYNAMIC>
/home/hei/Desktop/optee-qemu/optee_os/lib/libutils/ext/trace.c:35
     67c:	f9409c00 	ldr	x0, [x0, #312]
     680:	b9400000 	ldr	w0, [x0]
     684:	d65f03c0 	ret

0000000000000688 <trace_vprintf>:
trace_vprintf():
/home/hei/Desktop/optee-qemu/optee_os/lib/libutils/ext/trace.c:106
     688:	a9a87bfd 	stp	x29, x30, [sp, #-384]!
     68c:	910003fd 	mov	x29, sp
     690:	a90153f3 	stp	x19, x20, [sp, #16]
     694:	a9025bf5 	stp	x21, x22, [sp, #32]
     698:	a90363f7 	stp	x23, x24, [sp, #48]
/home/hei/Desktop/optee-qemu/optee_os/lib/libutils/ext/trace.c:111
     69c:	72001c77 	ands	w23, w3, #0xff
/home/hei/Desktop/optee-qemu/optee_os/lib/libutils/ext/trace.c:106
     6a0:	a9046bf9 	stp	x25, x26, [sp, #64]
     6a4:	f9002bfb 	str	x27, [sp, #80]
/home/hei/Desktop/optee-qemu/optee_os/lib/libutils/ext/trace.c:111
     6a8:	54000c00 	b.eq	828 <trace_vprintf+0x1a0>  // b.none
/home/hei/Desktop/optee-qemu/optee_os/lib/libutils/ext/trace.c:111 (discriminator 1)
     6ac:	90000063 	adrp	x3, c000 <_DYNAMIC>
     6b0:	f9409c63 	ldr	x3, [x3, #312]
     6b4:	b9400063 	ldr	w3, [x3]
     6b8:	6b02007f 	cmp	w3, w2
     6bc:	54000a8b 	b.lt	80c <trace_vprintf+0x184>  // b.tstop
trace_level_to_string():
/home/hei/Desktop/optee-qemu/optee_os/lib/libutils/ext/trace.c:52
     6c0:	7100105f 	cmp	w2, #0x4
/home/hei/Desktop/optee-qemu/optee_os/lib/libutils/ext/trace.c:55
     6c4:	d0000043 	adrp	x3, a000 <__text_end+0x12f4>
/home/hei/Desktop/optee-qemu/optee_os/lib/libutils/ext/trace.c:52
     6c8:	1a9f9046 	csel	w6, w2, wzr, ls  // ls = plast
/home/hei/Desktop/optee-qemu/optee_os/lib/libutils/ext/trace.c:55
     6cc:	913b7463 	add	x3, x3, #0xedd
     6d0:	3866c863 	ldrb	w3, [x3, w6, sxtw]
trace_vprintf():
/home/hei/Desktop/optee-qemu/optee_os/lib/libutils/ext/trace.c:115
     6d4:	910203f4 	add	x20, sp, #0x80
     6d8:	2a0203f8 	mov	w24, w2
     6dc:	2a0103fb 	mov	w27, w1
     6e0:	aa0003f6 	mov	x22, x0
     6e4:	d0000042 	adrp	x2, a000 <__text_end+0x12f4>
     6e8:	aa0503fa 	mov	x26, x5
     6ec:	aa0403f9 	mov	x25, x4
     6f0:	913bb042 	add	x2, x2, #0xeec
     6f4:	d2802001 	mov	x1, #0x100                 	// #256
     6f8:	aa1403e0 	mov	x0, x20
     6fc:	94000710 	bl	233c <snprintk>
/home/hei/Desktop/optee-qemu/optee_os/lib/libutils/ext/trace.c:117
     700:	37f80860 	tbnz	w0, #31, 80c <trace_vprintf+0x184>
/home/hei/Desktop/optee-qemu/optee_os/lib/libutils/ext/trace.c:122
     704:	90000063 	adrp	x3, c000 <_DYNAMIC>
/home/hei/Desktop/optee-qemu/optee_os/lib/libutils/ext/trace.c:119
     708:	93407c15 	sxtw	x21, w0
/home/hei/Desktop/optee-qemu/optee_os/lib/libutils/ext/trace.c:122
     70c:	d2802013 	mov	x19, #0x100                 	// #256
     710:	d0000042 	adrp	x2, a000 <__text_end+0x12f4>
     714:	f940a863 	ldr	x3, [x3, #336]
     718:	913bc042 	add	x2, x2, #0xef0
     71c:	cb150261 	sub	x1, x19, x21
     720:	8b150280 	add	x0, x20, x21
     724:	94000706 	bl	233c <snprintk>
/home/hei/Desktop/optee-qemu/optee_os/lib/libutils/ext/trace.c:124
     728:	37f80720 	tbnz	w0, #31, 80c <trace_vprintf+0x184>
/home/hei/Desktop/optee-qemu/optee_os/lib/libutils/ext/trace.c:126
     72c:	8b20c2b5 	add	x21, x21, w0, sxtw
/home/hei/Desktop/optee-qemu/optee_os/lib/libutils/ext/trace.c:128
     730:	34000937 	cbz	w23, 854 <trace_vprintf+0x1cc>
/home/hei/Desktop/optee-qemu/optee_os/lib/libutils/ext/trace.c:128 (discriminator 1)
     734:	52800342 	mov	w2, #0x1a                  	// #26
     738:	1ad82442 	lsr	w2, w2, w24
     73c:	360008c2 	tbz	w2, #0, 854 <trace_vprintf+0x1cc>
/home/hei/Desktop/optee-qemu/optee_os/lib/libutils/ext/trace.c:130
     740:	8b150297 	add	x23, x20, x21
     744:	cb150273 	sub	x19, x19, x21
print_thread_id():
/home/hei/Desktop/optee-qemu/optee_os/lib/libutils/ext/trace.c:65
     748:	9400072f 	bl	2404 <trace_ext_get_thread_id>
/home/hei/Desktop/optee-qemu/optee_os/lib/libutils/ext/trace.c:67
     74c:	37f80720 	tbnz	w0, #31, 830 <trace_vprintf+0x1a8>
/home/hei/Desktop/optee-qemu/optee_os/lib/libutils/ext/trace.c:68
     750:	2a0003e4 	mov	w4, w0
     754:	d0000042 	adrp	x2, a000 <__text_end+0x12f4>
     758:	52800023 	mov	w3, #0x1                   	// #1
     75c:	913bd042 	add	x2, x2, #0xef4
     760:	aa1303e1 	mov	x1, x19
     764:	aa1703e0 	mov	x0, x23
     768:	940006f5 	bl	233c <snprintk>
trace_vprintf():
/home/hei/Desktop/optee-qemu/optee_os/lib/libutils/ext/trace.c:137
     76c:	37f80500 	tbnz	w0, #31, 80c <trace_vprintf+0x184>
/home/hei/Desktop/optee-qemu/optee_os/lib/libutils/ext/trace.c:139
     770:	8b20c2b3 	add	x19, x21, w0, sxtw
/home/hei/Desktop/optee-qemu/optee_os/lib/libutils/ext/trace.c:141
     774:	b4000176 	cbz	x22, 7a0 <trace_vprintf+0x118>
/home/hei/Desktop/optee-qemu/optee_os/lib/libutils/ext/trace.c:142
     778:	d0000042 	adrp	x2, a000 <__text_end+0x12f4>
     77c:	d2802001 	mov	x1, #0x100                 	// #256
     780:	2a1b03e4 	mov	w4, w27
     784:	aa1603e3 	mov	x3, x22
     788:	913bfc42 	add	x2, x2, #0xeff
     78c:	cb130021 	sub	x1, x1, x19
     790:	8b130280 	add	x0, x20, x19
     794:	940006ea 	bl	233c <snprintk>
/home/hei/Desktop/optee-qemu/optee_os/lib/libutils/ext/trace.c:144
     798:	37f803a0 	tbnz	w0, #31, 80c <trace_vprintf+0x184>
/home/hei/Desktop/optee-qemu/optee_os/lib/libutils/ext/trace.c:146
     79c:	8b20c273 	add	x19, x19, w0, sxtw
/home/hei/Desktop/optee-qemu/optee_os/lib/libutils/ext/trace.c:156
     7a0:	910183e3 	add	x3, sp, #0x60
     7a4:	d2800402 	mov	x2, #0x20                  	// #32
     7a8:	aa1a03e1 	mov	x1, x26
     7ac:	aa0303e0 	mov	x0, x3
     7b0:	97ffff65 	bl	544 <memcpy>
     7b4:	aa0003e3 	mov	x3, x0
     7b8:	aa1903e2 	mov	x2, x25
     7bc:	d2802001 	mov	x1, #0x100                 	// #256
     7c0:	8b130280 	add	x0, x20, x19
     7c4:	cb130021 	sub	x1, x1, x19
     7c8:	940006c8 	bl	22e8 <vsnprintk>
/home/hei/Desktop/optee-qemu/optee_os/lib/libutils/ext/trace.c:157
     7cc:	7100001f 	cmp	w0, #0x0
     7d0:	5400004d 	b.le	7d8 <trace_vprintf+0x150>
/home/hei/Desktop/optee-qemu/optee_os/lib/libutils/ext/trace.c:158
     7d4:	8b20c273 	add	x19, x19, w0, sxtw
/home/hei/Desktop/optee-qemu/optee_os/lib/libutils/ext/trace.c:160
     7d8:	f103fa7f 	cmp	x19, #0xfe
     7dc:	d2801fc0 	mov	x0, #0xfe                  	// #254
     7e0:	9a809273 	csel	x19, x19, x0, ls  // ls = plast
/home/hei/Desktop/optee-qemu/optee_os/lib/libutils/ext/trace.c:163
     7e4:	52800140 	mov	w0, #0xa                   	// #10
     7e8:	38336a80 	strb	w0, [x20, x19]
/home/hei/Desktop/optee-qemu/optee_os/lib/libutils/ext/trace.c:164
     7ec:	b4000093 	cbz	x19, 7fc <trace_vprintf+0x174>
/home/hei/Desktop/optee-qemu/optee_os/lib/libutils/ext/trace.c:164 (discriminator 1)
     7f0:	38736a80 	ldrb	w0, [x20, x19]
     7f4:	7100281f 	cmp	w0, #0xa
     7f8:	540003c0 	b.eq	870 <trace_vprintf+0x1e8>  // b.none
/home/hei/Desktop/optee-qemu/optee_os/lib/libutils/ext/trace.c:167
     7fc:	91020be0 	add	x0, sp, #0x82
     800:	3833681f 	strb	wzr, [x0, x19]
/home/hei/Desktop/optee-qemu/optee_os/lib/libutils/ext/trace.c:169
     804:	aa1403e0 	mov	x0, x20
     808:	940006f5 	bl	23dc <trace_ext_puts>
/home/hei/Desktop/optee-qemu/optee_os/lib/libutils/ext/trace.c:170
     80c:	a94153f3 	ldp	x19, x20, [sp, #16]
     810:	a9425bf5 	ldp	x21, x22, [sp, #32]
     814:	a94363f7 	ldp	x23, x24, [sp, #48]
     818:	a9446bf9 	ldp	x25, x26, [sp, #64]
     81c:	f9402bfb 	ldr	x27, [sp, #80]
     820:	a8d87bfd 	ldp	x29, x30, [sp], #384
     824:	d65f03c0 	ret
trace_level_to_string():
/home/hei/Desktop/optee-qemu/optee_os/lib/libutils/ext/trace.c:50
     828:	528009a3 	mov	w3, #0x4d                  	// #77
     82c:	17ffffaa 	b	6d4 <trace_vprintf+0x4c>
print_thread_id():
/home/hei/Desktop/optee-qemu/optee_os/lib/libutils/ext/trace.c:70
     830:	d0000044 	adrp	x4, a000 <__text_end+0x12f4>
     834:	52800023 	mov	w3, #0x1                   	// #1
     838:	91338484 	add	x4, x4, #0xce1
     83c:	d0000042 	adrp	x2, a000 <__text_end+0x12f4>
     840:	aa1303e1 	mov	x1, x19
     844:	913be842 	add	x2, x2, #0xefa
     848:	aa1703e0 	mov	x0, x23
     84c:	940006bc 	bl	233c <snprintk>
     850:	17ffffc7 	b	76c <trace_vprintf+0xe4>
trace_vprintf():
/home/hei/Desktop/optee-qemu/optee_os/lib/libutils/ext/trace.c:150
     854:	f103fabf 	cmp	x21, #0xfe
     858:	54fffda8 	b.hi	80c <trace_vprintf+0x184>  // b.pmore
/home/hei/Desktop/optee-qemu/optee_os/lib/libutils/ext/trace.c:152
     85c:	910006b3 	add	x19, x21, #0x1
     860:	52800400 	mov	w0, #0x20                  	// #32
     864:	38356a80 	strb	w0, [x20, x21]
/home/hei/Desktop/optee-qemu/optee_os/lib/libutils/ext/trace.c:153
     868:	38336a9f 	strb	wzr, [x20, x19]
     86c:	17ffffcd 	b	7a0 <trace_vprintf+0x118>
/home/hei/Desktop/optee-qemu/optee_os/lib/libutils/ext/trace.c:165
     870:	d1000673 	sub	x19, x19, #0x1
     874:	17ffffde 	b	7ec <trace_vprintf+0x164>

0000000000000878 <trace_printf>:
trace_printf():
/home/hei/Desktop/optee-qemu/optee_os/lib/libutils/ext/trace.c:97
     878:	a9b17bfd 	stp	x29, x30, [sp, #-240]!
     87c:	910003fd 	mov	x29, sp
     880:	a90d9be5 	stp	x5, x6, [sp, #216]
/home/hei/Desktop/optee-qemu/optee_os/lib/libutils/ext/trace.c:100
     884:	9103c3e5 	add	x5, sp, #0xf0
     888:	a90317e5 	stp	x5, x5, [sp, #48]
     88c:	910343e5 	add	x5, sp, #0xd0
     890:	f90023e5 	str	x5, [sp, #64]
     894:	128002e5 	mov	w5, #0xffffffe8            	// #-24
     898:	b9004be5 	str	w5, [sp, #72]
     89c:	12800fe5 	mov	w5, #0xffffff80            	// #-128
     8a0:	b9004fe5 	str	w5, [sp, #76]
/home/hei/Desktop/optee-qemu/optee_os/lib/libutils/ext/trace.c:101
     8a4:	910043e5 	add	x5, sp, #0x10
/home/hei/Desktop/optee-qemu/optee_os/lib/libutils/ext/trace.c:97
     8a8:	f90077e7 	str	x7, [sp, #232]
/home/hei/Desktop/optee-qemu/optee_os/lib/libutils/ext/trace.c:101
     8ac:	a9431fe6 	ldp	x6, x7, [sp, #48]
     8b0:	a9011fe6 	stp	x6, x7, [sp, #16]
     8b4:	a9441fe6 	ldp	x6, x7, [sp, #64]
     8b8:	a9021fe6 	stp	x6, x7, [sp, #32]
/home/hei/Desktop/optee-qemu/optee_os/lib/libutils/ext/trace.c:97
     8bc:	3d8017e0 	str	q0, [sp, #80]
     8c0:	3d801be1 	str	q1, [sp, #96]
     8c4:	3d801fe2 	str	q2, [sp, #112]
     8c8:	3d8023e3 	str	q3, [sp, #128]
     8cc:	3d8027e4 	str	q4, [sp, #144]
     8d0:	3d802be5 	str	q5, [sp, #160]
     8d4:	3d802fe6 	str	q6, [sp, #176]
     8d8:	3d8033e7 	str	q7, [sp, #192]
/home/hei/Desktop/optee-qemu/optee_os/lib/libutils/ext/trace.c:101
     8dc:	97ffff6b 	bl	688 <trace_vprintf>
/home/hei/Desktop/optee-qemu/optee_os/lib/libutils/ext/trace.c:103
     8e0:	a8cf7bfd 	ldp	x29, x30, [sp], #240
     8e4:	d65f03c0 	ret

00000000000008e8 <dhex_dump>:
dhex_dump():
/home/hei/Desktop/optee-qemu/optee_os/lib/libutils/ext/trace.c:235
     8e8:	90000065 	adrp	x5, c000 <_DYNAMIC>
     8ec:	f9409ca5 	ldr	x5, [x5, #312]
     8f0:	b94000a5 	ldr	w5, [x5]
     8f4:	6b0200bf 	cmp	w5, w2
     8f8:	54000acb 	b.lt	a50 <dhex_dump+0x168>  // b.tstop
/home/hei/Desktop/optee-qemu/optee_os/lib/libutils/ext/trace.c:229
     8fc:	a9a97bfd 	stp	x29, x30, [sp, #-368]!
     900:	910003fd 	mov	x29, sp
     904:	a90153f3 	stp	x19, x20, [sp, #16]
     908:	2a0203f4 	mov	w20, w2
/home/hei/Desktop/optee-qemu/optee_os/lib/libutils/ext/trace.c:237
     90c:	d2800013 	mov	x19, #0x0                   	// #0
/home/hei/Desktop/optee-qemu/optee_os/lib/libutils/ext/trace.c:229
     910:	a9025bf5 	stp	x21, x22, [sp, #32]
     914:	2a0103f6 	mov	w22, w1
     918:	aa0003f5 	mov	x21, x0
     91c:	a90363f7 	stp	x23, x24, [sp, #48]
     920:	aa0303f8 	mov	x24, x3
     924:	9101a3f7 	add	x23, sp, #0x68
     928:	a9046bf9 	stp	x25, x26, [sp, #64]
/home/hei/Desktop/optee-qemu/optee_os/lib/libutils/ext/trace.c:239
     92c:	d000005a 	adrp	x26, a000 <__text_end+0x12f4>
     930:	2a0403f9 	mov	w25, w4
     934:	913c335a 	add	x26, x26, #0xf0c
/home/hei/Desktop/optee-qemu/optee_os/lib/libutils/ext/trace.c:229
     938:	a90573fb 	stp	x27, x28, [sp, #80]
/home/hei/Desktop/optee-qemu/optee_os/lib/libutils/ext/trace.c:244
     93c:	d000005b 	adrp	x27, a000 <__text_end+0x12f4>
     940:	913c1b7b 	add	x27, x27, #0xf06
/home/hei/Desktop/optee-qemu/optee_os/lib/libutils/ext/trace.c:236
     944:	f900b7ff 	str	xzr, [sp, #360]
/home/hei/Desktop/optee-qemu/optee_os/lib/libutils/ext/trace.c:237
     948:	2a1303fc 	mov	w28, w19
/home/hei/Desktop/optee-qemu/optee_os/lib/libutils/ext/trace.c:237 (discriminator 1)
     94c:	6b13033f 	cmp	w25, w19
     950:	5400024c 	b.gt	998 <dhex_dump+0xb0>
/home/hei/Desktop/optee-qemu/optee_os/lib/libutils/ext/trace.c:257
     954:	f940b7e0 	ldr	x0, [sp, #360]
     958:	b4000120 	cbz	x0, 97c <dhex_dump+0x94>
/home/hei/Desktop/optee-qemu/optee_os/lib/libutils/ext/trace.c:259
     95c:	d0000044 	adrp	x4, a000 <__text_end+0x12f4>
     960:	9101a3e5 	add	x5, sp, #0x68
     964:	91333484 	add	x4, x4, #0xccd
     968:	52800023 	mov	w3, #0x1                   	// #1
     96c:	2a1403e2 	mov	w2, w20
     970:	2a1603e1 	mov	w1, w22
     974:	aa1503e0 	mov	x0, x21
     978:	97ffffc0 	bl	878 <trace_printf>
/home/hei/Desktop/optee-qemu/optee_os/lib/libutils/ext/trace.c:267
     97c:	a94153f3 	ldp	x19, x20, [sp, #16]
     980:	a9425bf5 	ldp	x21, x22, [sp, #32]
     984:	a94363f7 	ldp	x23, x24, [sp, #48]
     988:	a9446bf9 	ldp	x25, x26, [sp, #64]
     98c:	a94573fb 	ldp	x27, x28, [sp, #80]
     990:	a8d77bfd 	ldp	x29, x30, [sp], #368
     994:	d65f03c0 	ret
/home/hei/Desktop/optee-qemu/optee_os/lib/libutils/ext/trace.c:238
     998:	f2400e7f 	tst	x19, #0xf
     99c:	54000200 	b.eq	9dc <dhex_dump+0xf4>  // b.none
/home/hei/Desktop/optee-qemu/optee_os/lib/libutils/ext/trace.c:244
     9a0:	38736b02 	ldrb	w2, [x24, x19]
     9a4:	aa1b03e1 	mov	x1, x27
     9a8:	aa1703e0 	mov	x0, x23
     9ac:	97fffefb 	bl	598 <append>
/home/hei/Desktop/optee-qemu/optee_os/lib/libutils/ext/trace.c:245
     9b0:	35000240 	cbnz	w0, 9f8 <dhex_dump+0x110>
/home/hei/Desktop/optee-qemu/optee_os/lib/libutils/ext/trace.c:266
     9b4:	d0000040 	adrp	x0, a000 <__text_end+0x12f4>
     9b8:	913b7400 	add	x0, x0, #0xedd
     9bc:	d0000044 	adrp	x4, a000 <__text_end+0x12f4>
     9c0:	52800023 	mov	w3, #0x1                   	// #1
     9c4:	913c5084 	add	x4, x4, #0xf14
     9c8:	52800062 	mov	w2, #0x3                   	// #3
     9cc:	52802141 	mov	w1, #0x10a                 	// #266
     9d0:	91001400 	add	x0, x0, #0x5
     9d4:	97ffffa9 	bl	878 <trace_printf>
     9d8:	17ffffe9 	b	97c <dhex_dump+0x94>
/home/hei/Desktop/optee-qemu/optee_os/lib/libutils/ext/trace.c:239
     9dc:	8b130303 	add	x3, x24, x19
     9e0:	52800202 	mov	w2, #0x10                  	// #16
     9e4:	aa1a03e1 	mov	x1, x26
     9e8:	aa1703e0 	mov	x0, x23
     9ec:	97fffeeb 	bl	598 <append>
/home/hei/Desktop/optee-qemu/optee_os/lib/libutils/ext/trace.c:241
     9f0:	35fffd80 	cbnz	w0, 9a0 <dhex_dump+0xb8>
     9f4:	17fffff0 	b	9b4 <dhex_dump+0xcc>
/home/hei/Desktop/optee-qemu/optee_os/lib/libutils/ext/trace.c:247
     9f8:	12000f80 	and	w0, w28, #0xf
     9fc:	71001c1f 	cmp	w0, #0x7
     a00:	54000101 	b.ne	a20 <dhex_dump+0x138>  // b.any
/home/hei/Desktop/optee-qemu/optee_os/lib/libutils/ext/trace.c:248
     a04:	d0000041 	adrp	x1, a000 <__text_end+0x12f4>
     a08:	aa1703e0 	mov	x0, x23
     a0c:	913c4821 	add	x1, x1, #0xf12
     a10:	97fffee2 	bl	598 <append>
/home/hei/Desktop/optee-qemu/optee_os/lib/libutils/ext/trace.c:249
     a14:	34fffd00 	cbz	w0, 9b4 <dhex_dump+0xcc>
     a18:	91000673 	add	x19, x19, #0x1
     a1c:	17ffffcb 	b	948 <dhex_dump+0x60>
/home/hei/Desktop/optee-qemu/optee_os/lib/libutils/ext/trace.c:251
     a20:	71003c1f 	cmp	w0, #0xf
     a24:	54ffffa1 	b.ne	a18 <dhex_dump+0x130>  // b.any
/home/hei/Desktop/optee-qemu/optee_os/lib/libutils/ext/trace.c:252
     a28:	aa1703e5 	mov	x5, x23
     a2c:	d0000044 	adrp	x4, a000 <__text_end+0x12f4>
     a30:	52800023 	mov	w3, #0x1                   	// #1
     a34:	91333484 	add	x4, x4, #0xccd
     a38:	2a1403e2 	mov	w2, w20
     a3c:	2a1603e1 	mov	w1, w22
     a40:	aa1503e0 	mov	x0, x21
     a44:	97ffff8d 	bl	878 <trace_printf>
/home/hei/Desktop/optee-qemu/optee_os/lib/libutils/ext/trace.c:254
     a48:	f900b7ff 	str	xzr, [sp, #360]
     a4c:	17fffff3 	b	a18 <dhex_dump+0x130>
     a50:	d65f03c0 	ret

0000000000000a54 <raw_malloc_return_hook.constprop.21>:
raw_malloc_return_hook():
/home/hei/Desktop/optee-qemu/optee_os/lib/libutils/isoc/bget_malloc.c:210
     a54:	90000062 	adrp	x2, c000 <_DYNAMIC>
     a58:	910fc044 	add	x4, x2, #0x3f0
     a5c:	f9401083 	ldr	x3, [x4, #32]
     a60:	b9406c85 	ldr	w5, [x4, #108]
     a64:	eb05007f 	cmp	x3, x5
     a68:	5400004d 	b.le	a70 <raw_malloc_return_hook.constprop.21+0x1c>
/home/hei/Desktop/optee-qemu/optee_os/lib/libutils/isoc/bget_malloc.c:211
     a6c:	b9006c83 	str	w3, [x4, #108]
/home/hei/Desktop/optee-qemu/optee_os/lib/libutils/isoc/bget_malloc.c:213
     a70:	b5000120 	cbnz	x0, a94 <raw_malloc_return_hook.constprop.21+0x40>
/home/hei/Desktop/optee-qemu/optee_os/lib/libutils/isoc/bget_malloc.c:214
     a74:	910fc040 	add	x0, x2, #0x3f0
     a78:	b9407402 	ldr	w2, [x0, #116]
     a7c:	11000442 	add	w2, w2, #0x1
     a80:	b9007402 	str	w2, [x0, #116]
/home/hei/Desktop/optee-qemu/optee_os/lib/libutils/isoc/bget_malloc.c:216
     a84:	b9407802 	ldr	w2, [x0, #120]
     a88:	eb01005f 	cmp	x2, x1
     a8c:	54000042 	b.cs	a94 <raw_malloc_return_hook.constprop.21+0x40>  // b.hs, b.nlast
/home/hei/Desktop/optee-qemu/optee_os/lib/libutils/isoc/bget_malloc.c:218
     a90:	290f0c01 	stp	w1, w3, [x0, #120]
/home/hei/Desktop/optee-qemu/optee_os/lib/libutils/isoc/bget_malloc.c:222
     a94:	d65f03c0 	ret

0000000000000a98 <bget>:
bget():
/home/hei/Desktop/optee-qemu/optee_os/lib/libutils/isoc/bget.c:583
     a98:	a9bf7bfd 	stp	x29, x30, [sp, #-16]!
/home/hei/Desktop/optee-qemu/optee_os/lib/libutils/isoc/bget.c:594
     a9c:	f100001f 	cmp	x0, #0x0
/home/hei/Desktop/optee-qemu/optee_os/lib/libutils/isoc/bget.c:583
     aa0:	910003fd 	mov	x29, sp
/home/hei/Desktop/optee-qemu/optee_os/lib/libutils/isoc/bget.c:594
     aa4:	5400014c 	b.gt	acc <bget+0x34>
/home/hei/Desktop/optee-qemu/optee_os/lib/libutils/isoc/bget.c:594 (discriminator 1)
     aa8:	d0000043 	adrp	x3, a000 <__text_end+0x12f4>
     aac:	d0000041 	adrp	x1, a000 <__text_end+0x12f4>
     ab0:	f0000040 	adrp	x0, b000 <__func__.3755+0x98>
     ab4:	913c8c63 	add	x3, x3, #0xf23
     ab8:	913dec21 	add	x1, x1, #0xf7b
     abc:	9107a000 	add	x0, x0, #0x1e8
     ac0:	52804a42 	mov	w2, #0x252                 	// #594
/home/hei/Desktop/optee-qemu/optee_os/lib/libutils/isoc/bget.c:658 (discriminator 1)
     ac4:	940006a3 	bl	2550 <_assert_log>
     ac8:	940006b3 	bl	2594 <_assert_break>
/home/hei/Desktop/optee-qemu/optee_os/lib/libutils/isoc/bget.c:601
     acc:	f100401f 	cmp	x0, #0x10
     ad0:	d2800202 	mov	x2, #0x10                  	// #16
     ad4:	9a82a000 	csel	x0, x0, x2, ge  // ge = tcont
     ad8:	b1003c02 	adds	x2, x0, #0xf
     adc:	54000144 	b.mi	b04 <bget+0x6c>  // b.first
     ae0:	eb00005f 	cmp	x2, x0
     ae4:	54000103 	b.cc	b04 <bget+0x6c>  // b.lo, b.ul, b.last
/home/hei/Desktop/optee-qemu/optee_os/lib/libutils/isoc/bget.c:604
     ae8:	927cec40 	and	x0, x2, #0xfffffffffffffff0
/home/hei/Desktop/optee-qemu/optee_os/lib/libutils/isoc/bget.c:609
     aec:	91004003 	add	x3, x0, #0x10
     af0:	eb00007f 	cmp	x3, x0
     af4:	5400008b 	b.lt	b04 <bget+0x6c>  // b.tstop
/home/hei/Desktop/optee-qemu/optee_os/lib/libutils/isoc/bget.c:619
     af8:	f9400820 	ldr	x0, [x1, #16]
/home/hei/Desktop/optee-qemu/optee_os/lib/libutils/isoc/bget.c:641
     afc:	eb00003f 	cmp	x1, x0
     b00:	54000061 	b.ne	b0c <bget+0x74>  // b.any
/home/hei/Desktop/optee-qemu/optee_os/lib/libutils/isoc/bget.c:602
     b04:	d2800000 	mov	x0, #0x0                   	// #0
     b08:	1400001e 	b	b80 <bget+0xe8>
/home/hei/Desktop/optee-qemu/optee_os/lib/libutils/isoc/bget.c:642
     b0c:	f9400402 	ldr	x2, [x0, #8]
     b10:	eb02007f 	cmp	x3, x2
     b14:	540009ec 	b.gt	c50 <bget+0x1b8>
/home/hei/Desktop/optee-qemu/optee_os/lib/libutils/isoc/bget.c:653
     b18:	cb030044 	sub	x4, x2, x3
     b1c:	f100809f 	cmp	x4, #0x20
     b20:	5400034d 	b.le	b88 <bget+0xf0>
/home/hei/Desktop/optee-qemu/optee_os/lib/libutils/isoc/bget.c:656
     b24:	8b040005 	add	x5, x0, x4
/home/hei/Desktop/optee-qemu/optee_os/lib/libutils/isoc/bget.c:658
     b28:	f86368a6 	ldr	x6, [x5, x3]
     b2c:	eb06005f 	cmp	x2, x6
     b30:	54000120 	b.eq	b54 <bget+0xbc>  // b.none
/home/hei/Desktop/optee-qemu/optee_os/lib/libutils/isoc/bget.c:658 (discriminator 1)
     b34:	d0000043 	adrp	x3, a000 <__text_end+0x12f4>
     b38:	d0000041 	adrp	x1, a000 <__text_end+0x12f4>
     b3c:	d0000040 	adrp	x0, a000 <__text_end+0x12f4>
     b40:	913c8c63 	add	x3, x3, #0xf23
     b44:	52805242 	mov	w2, #0x292                 	// #658
     b48:	913dec21 	add	x1, x1, #0xf7b
     b4c:	913e5000 	add	x0, x0, #0xf94
     b50:	17ffffdd 	b	ac4 <bget+0x2c>
/home/hei/Desktop/optee-qemu/optee_os/lib/libutils/isoc/bget.c:660
     b54:	f9000404 	str	x4, [x0, #8]
/home/hei/Desktop/optee-qemu/optee_os/lib/libutils/isoc/bget.c:662
     b58:	f8246804 	str	x4, [x0, x4]
/home/hei/Desktop/optee-qemu/optee_os/lib/libutils/isoc/bget.c:664
     b5c:	cb0303e0 	neg	x0, x3
     b60:	f90004a0 	str	x0, [x5, #8]
/home/hei/Desktop/optee-qemu/optee_os/lib/libutils/isoc/bget.c:669
     b64:	f9401020 	ldr	x0, [x1, #32]
/home/hei/Desktop/optee-qemu/optee_os/lib/libutils/isoc/bget.c:666
     b68:	f82368bf 	str	xzr, [x5, x3]
/home/hei/Desktop/optee-qemu/optee_os/lib/libutils/isoc/bget.c:669
     b6c:	8b030003 	add	x3, x0, x3
/home/hei/Desktop/optee-qemu/optee_os/lib/libutils/isoc/bget.c:670
     b70:	f9401420 	ldr	x0, [x1, #40]
     b74:	91000400 	add	x0, x0, #0x1
     b78:	a9020023 	stp	x3, x0, [x1, #32]
/home/hei/Desktop/optee-qemu/optee_os/lib/libutils/isoc/bget.c:672
     b7c:	910040a0 	add	x0, x5, #0x10
/home/hei/Desktop/optee-qemu/optee_os/lib/libutils/isoc/bget.c:770
     b80:	a8c17bfd 	ldp	x29, x30, [sp], #16
     b84:	d65f03c0 	ret
/home/hei/Desktop/optee-qemu/optee_os/lib/libutils/isoc/bget.c:679
     b88:	f8626803 	ldr	x3, [x0, x2]
/home/hei/Desktop/optee-qemu/optee_os/lib/libutils/isoc/bget.c:678
     b8c:	8b020005 	add	x5, x0, x2
/home/hei/Desktop/optee-qemu/optee_os/lib/libutils/isoc/bget.c:679
     b90:	eb03005f 	cmp	x2, x3
     b94:	54000120 	b.eq	bb8 <bget+0x120>  // b.none
/home/hei/Desktop/optee-qemu/optee_os/lib/libutils/isoc/bget.c:679 (discriminator 1)
     b98:	d0000043 	adrp	x3, a000 <__text_end+0x12f4>
     b9c:	d0000041 	adrp	x1, a000 <__text_end+0x12f4>
     ba0:	d0000040 	adrp	x0, a000 <__text_end+0x12f4>
     ba4:	913c8c63 	add	x3, x3, #0xf23
     ba8:	528054e2 	mov	w2, #0x2a7                 	// #679
     bac:	913dec21 	add	x1, x1, #0xf7b
     bb0:	913ec000 	add	x0, x0, #0xfb0
     bb4:	17ffffc4 	b	ac4 <bget+0x2c>
/home/hei/Desktop/optee-qemu/optee_os/lib/libutils/isoc/bget.c:684
     bb8:	f9400c03 	ldr	x3, [x0, #24]
     bbc:	f9400864 	ldr	x4, [x3, #16]
     bc0:	eb00009f 	cmp	x4, x0
     bc4:	54000120 	b.eq	be8 <bget+0x150>  // b.none
/home/hei/Desktop/optee-qemu/optee_os/lib/libutils/isoc/bget.c:684 (discriminator 1)
     bc8:	d0000043 	adrp	x3, a000 <__text_end+0x12f4>
     bcc:	d0000041 	adrp	x1, a000 <__text_end+0x12f4>
     bd0:	d0000040 	adrp	x0, a000 <__text_end+0x12f4>
     bd4:	913c8c63 	add	x3, x3, #0xf23
     bd8:	52805582 	mov	w2, #0x2ac                 	// #684
     bdc:	913dec21 	add	x1, x1, #0xf7b
     be0:	913f3000 	add	x0, x0, #0xfcc
     be4:	17ffffb8 	b	ac4 <bget+0x2c>
/home/hei/Desktop/optee-qemu/optee_os/lib/libutils/isoc/bget.c:685
     be8:	f9400804 	ldr	x4, [x0, #16]
     bec:	f9400c86 	ldr	x6, [x4, #24]
     bf0:	eb0000df 	cmp	x6, x0
     bf4:	54000120 	b.eq	c18 <bget+0x180>  // b.none
/home/hei/Desktop/optee-qemu/optee_os/lib/libutils/isoc/bget.c:685 (discriminator 1)
     bf8:	d0000043 	adrp	x3, a000 <__text_end+0x12f4>
     bfc:	d0000041 	adrp	x1, a000 <__text_end+0x12f4>
     c00:	d0000040 	adrp	x0, a000 <__text_end+0x12f4>
     c04:	913c8c63 	add	x3, x3, #0xf23
     c08:	528055a2 	mov	w2, #0x2ad                 	// #685
     c0c:	913dec21 	add	x1, x1, #0xf7b
     c10:	913f9c00 	add	x0, x0, #0xfe7
     c14:	17ffffac 	b	ac4 <bget+0x2c>
/home/hei/Desktop/optee-qemu/optee_os/lib/libutils/isoc/bget.c:686
     c18:	f9000864 	str	x4, [x3, #16]
/home/hei/Desktop/optee-qemu/optee_os/lib/libutils/isoc/bget.c:701
     c1c:	91004000 	add	x0, x0, #0x10
/home/hei/Desktop/optee-qemu/optee_os/lib/libutils/isoc/bget.c:687
     c20:	f9400004 	ldr	x4, [x0]
     c24:	f9000c83 	str	x3, [x4, #24]
/home/hei/Desktop/optee-qemu/optee_os/lib/libutils/isoc/bget.c:690
     c28:	f9401023 	ldr	x3, [x1, #32]
     c2c:	8b020063 	add	x3, x3, x2
     c30:	f9001023 	str	x3, [x1, #32]
/home/hei/Desktop/optee-qemu/optee_os/lib/libutils/isoc/bget.c:691
     c34:	f9401423 	ldr	x3, [x1, #40]
/home/hei/Desktop/optee-qemu/optee_os/lib/libutils/isoc/bget.c:694
     c38:	cb0203e2 	neg	x2, x2
/home/hei/Desktop/optee-qemu/optee_os/lib/libutils/isoc/bget.c:691
     c3c:	91000463 	add	x3, x3, #0x1
     c40:	f9001423 	str	x3, [x1, #40]
/home/hei/Desktop/optee-qemu/optee_os/lib/libutils/isoc/bget.c:694
     c44:	f81f8002 	stur	x2, [x0, #-8]
/home/hei/Desktop/optee-qemu/optee_os/lib/libutils/isoc/bget.c:698
     c48:	f90000bf 	str	xzr, [x5]
/home/hei/Desktop/optee-qemu/optee_os/lib/libutils/isoc/bget.c:703
     c4c:	17ffffcd 	b	b80 <bget+0xe8>
/home/hei/Desktop/optee-qemu/optee_os/lib/libutils/isoc/bget.c:706
     c50:	f9400800 	ldr	x0, [x0, #16]
     c54:	17ffffaa 	b	afc <bget+0x64>

0000000000000c58 <bgetz>:
bgetz():
/home/hei/Desktop/optee-qemu/optee_os/lib/libutils/isoc/bget.c:779
     c58:	a9be7bfd 	stp	x29, x30, [sp, #-32]!
     c5c:	910003fd 	mov	x29, sp
     c60:	f9000bf3 	str	x19, [sp, #16]
     c64:	aa0003f3 	mov	x19, x0
/home/hei/Desktop/optee-qemu/optee_os/lib/libutils/isoc/bget.c:780
     c68:	97ffff8c 	bl	a98 <bget>
     c6c:	aa0003e3 	mov	x3, x0
/home/hei/Desktop/optee-qemu/optee_os/lib/libutils/isoc/bget.c:782
     c70:	b4000320 	cbz	x0, cd4 <bgetz+0x7c>
/home/hei/Desktop/optee-qemu/optee_os/lib/libutils/isoc/bget.c:787
     c74:	f85f8000 	ldur	x0, [x0, #-8]
/home/hei/Desktop/optee-qemu/optee_os/lib/libutils/isoc/bget.c:788
     c78:	b50001e0 	cbnz	x0, cb4 <bgetz+0x5c>
/home/hei/Desktop/optee-qemu/optee_os/lib/libutils/isoc/bget.c:792
     c7c:	f85e8062 	ldur	x2, [x3, #-24]
     c80:	d1006042 	sub	x2, x2, #0x18
/home/hei/Desktop/optee-qemu/optee_os/lib/libutils/isoc/bget.c:796
     c84:	eb13005f 	cmp	x2, x19
     c88:	540001ca 	b.ge	cc0 <bgetz+0x68>  // b.tcont
     c8c:	d0000043 	adrp	x3, a000 <__text_end+0x12f4>
     c90:	913c8c63 	add	x3, x3, #0xf23
     c94:	91001463 	add	x3, x3, #0x5
     c98:	d0000041 	adrp	x1, a000 <__text_end+0x12f4>
     c9c:	f0000040 	adrp	x0, b000 <__func__.3755+0x98>
     ca0:	913dec21 	add	x1, x1, #0xf7b
     ca4:	91000800 	add	x0, x0, #0x2
     ca8:	52806382 	mov	w2, #0x31c                 	// #796
     cac:	94000629 	bl	2550 <_assert_log>
     cb0:	94000639 	bl	2594 <_assert_break>
/home/hei/Desktop/optee-qemu/optee_os/lib/libutils/isoc/bget.c:794
     cb4:	928001e2 	mov	x2, #0xfffffffffffffff0    	// #-16
     cb8:	cb000042 	sub	x2, x2, x0
     cbc:	17fffff2 	b	c84 <bgetz+0x2c>
memset_unchecked():
/home/hei/Desktop/optee-qemu/optee_os/lib/libutils/isoc/bget_malloc.c:130
     cc0:	aa0303e0 	mov	x0, x3
     cc4:	93407c42 	sxtw	x2, w2
     cc8:	52800001 	mov	w1, #0x0                   	// #0
     ccc:	94000273 	bl	1698 <memset>
     cd0:	aa0003e3 	mov	x3, x0
bgetz():
/home/hei/Desktop/optee-qemu/optee_os/lib/libutils/isoc/bget.c:800
     cd4:	aa0303e0 	mov	x0, x3
     cd8:	f9400bf3 	ldr	x19, [sp, #16]
     cdc:	a8c27bfd 	ldp	x29, x30, [sp], #32
     ce0:	d65f03c0 	ret

0000000000000ce4 <brel>:
brel():
/home/hei/Desktop/optee-qemu/optee_os/lib/libutils/isoc/bget.c:852
     ce4:	a9be7bfd 	stp	x29, x30, [sp, #-32]!
     ce8:	910003fd 	mov	x29, sp
/home/hei/Desktop/optee-qemu/optee_os/lib/libutils/isoc/bget.c:858
     cec:	f9401823 	ldr	x3, [x1, #48]
/home/hei/Desktop/optee-qemu/optee_os/lib/libutils/isoc/bget.c:852
     cf0:	a90153f3 	stp	x19, x20, [sp, #16]
/home/hei/Desktop/optee-qemu/optee_os/lib/libutils/isoc/bget.c:858
     cf4:	91000463 	add	x3, x3, #0x1
     cf8:	f9001823 	str	x3, [x1, #48]
/home/hei/Desktop/optee-qemu/optee_os/lib/libutils/isoc/bget.c:860
     cfc:	b5000160 	cbnz	x0, d28 <brel+0x44>
/home/hei/Desktop/optee-qemu/optee_os/lib/libutils/isoc/bget.c:860 (discriminator 1)
     d00:	d0000043 	adrp	x3, a000 <__text_end+0x12f4>
     d04:	913c8c63 	add	x3, x3, #0xf23
     d08:	d0000041 	adrp	x1, a000 <__text_end+0x12f4>
     d0c:	f0000040 	adrp	x0, b000 <__func__.3755+0x98>
     d10:	91002c63 	add	x3, x3, #0xb
     d14:	913dec21 	add	x1, x1, #0xf7b
     d18:	91004000 	add	x0, x0, #0x10
     d1c:	52806b82 	mov	w2, #0x35c                 	// #860
/home/hei/Desktop/optee-qemu/optee_os/lib/libutils/isoc/bget.c:895 (discriminator 1)
     d20:	9400060c 	bl	2550 <_assert_log>
     d24:	9400061c 	bl	2594 <_assert_break>
/home/hei/Desktop/optee-qemu/optee_os/lib/libutils/isoc/bget.c:892
     d28:	f85f8003 	ldur	x3, [x0, #-8]
/home/hei/Desktop/optee-qemu/optee_os/lib/libutils/isoc/bget.c:895
     d2c:	b7f80143 	tbnz	x3, #63, d54 <brel+0x70>
/home/hei/Desktop/optee-qemu/optee_os/lib/libutils/isoc/bget.c:895 (discriminator 1)
     d30:	d0000043 	adrp	x3, a000 <__text_end+0x12f4>
     d34:	913c8c63 	add	x3, x3, #0xf23
     d38:	d0000041 	adrp	x1, a000 <__text_end+0x12f4>
     d3c:	f0000040 	adrp	x0, b000 <__func__.3755+0x98>
     d40:	91002c63 	add	x3, x3, #0xb
     d44:	52806fe2 	mov	w2, #0x37f                 	// #895
     d48:	913dec21 	add	x1, x1, #0xf7b
     d4c:	91007000 	add	x0, x0, #0x1c
     d50:	17fffff4 	b	d20 <brel+0x3c>
     d54:	d1004013 	sub	x19, x0, #0x10
/home/hei/Desktop/optee-qemu/optee_os/lib/libutils/isoc/bget.c:901
     d58:	cb030264 	sub	x4, x19, x3
     d5c:	f9400084 	ldr	x4, [x4]
     d60:	b4000144 	cbz	x4, d88 <brel+0xa4>
/home/hei/Desktop/optee-qemu/optee_os/lib/libutils/isoc/bget.c:901 (discriminator 1)
     d64:	d0000043 	adrp	x3, a000 <__text_end+0x12f4>
     d68:	913c8c63 	add	x3, x3, #0xf23
     d6c:	d0000041 	adrp	x1, a000 <__text_end+0x12f4>
     d70:	f0000040 	adrp	x0, b000 <__func__.3755+0x98>
     d74:	91002c63 	add	x3, x3, #0xb
     d78:	528070a2 	mov	w2, #0x385                 	// #901
     d7c:	913dec21 	add	x1, x1, #0xf7b
     d80:	9100b000 	add	x0, x0, #0x2c
     d84:	17ffffe7 	b	d20 <brel+0x3c>
/home/hei/Desktop/optee-qemu/optee_os/lib/libutils/isoc/bget.c:904
     d88:	f9401024 	ldr	x4, [x1, #32]
     d8c:	8b040064 	add	x4, x3, x4
     d90:	f9001024 	str	x4, [x1, #32]
/home/hei/Desktop/optee-qemu/optee_os/lib/libutils/isoc/bget.c:905
     d94:	b6f80144 	tbz	x4, #63, dbc <brel+0xd8>
/home/hei/Desktop/optee-qemu/optee_os/lib/libutils/isoc/bget.c:905 (discriminator 1)
     d98:	d0000043 	adrp	x3, a000 <__text_end+0x12f4>
     d9c:	913c8c63 	add	x3, x3, #0xf23
     da0:	d0000041 	adrp	x1, a000 <__text_end+0x12f4>
     da4:	f0000040 	adrp	x0, b000 <__func__.3755+0x98>
     da8:	91002c63 	add	x3, x3, #0xb
     dac:	52807122 	mov	w2, #0x389                 	// #905
     db0:	913dec21 	add	x1, x1, #0xf7b
     db4:	91016000 	add	x0, x0, #0x58
     db8:	17ffffda 	b	d20 <brel+0x3c>
/home/hei/Desktop/optee-qemu/optee_os/lib/libutils/isoc/bget.c:910
     dbc:	f85f0004 	ldur	x4, [x0, #-16]
     dc0:	b4000424 	cbz	x4, e44 <brel+0x160>
/home/hei/Desktop/optee-qemu/optee_os/lib/libutils/isoc/bget.c:921
     dc4:	cb040273 	sub	x19, x19, x4
     dc8:	f9400660 	ldr	x0, [x19, #8]
     dcc:	eb00009f 	cmp	x4, x0
     dd0:	54000140 	b.eq	df8 <brel+0x114>  // b.none
/home/hei/Desktop/optee-qemu/optee_os/lib/libutils/isoc/bget.c:921 (discriminator 1)
     dd4:	d0000043 	adrp	x3, a000 <__text_end+0x12f4>
     dd8:	913c8c63 	add	x3, x3, #0xf23
     ddc:	d0000041 	adrp	x1, a000 <__text_end+0x12f4>
     de0:	f0000040 	adrp	x0, b000 <__func__.3755+0x98>
     de4:	91002c63 	add	x3, x3, #0xb
     de8:	52807322 	mov	w2, #0x399                 	// #921
     dec:	913dec21 	add	x1, x1, #0xf7b
     df0:	9101bc00 	add	x0, x0, #0x6f
     df4:	17ffffcb 	b	d20 <brel+0x3c>
/home/hei/Desktop/optee-qemu/optee_os/lib/libutils/isoc/bget.c:923
     df8:	cb030083 	sub	x3, x4, x3
     dfc:	f9000663 	str	x3, [x19, #8]
/home/hei/Desktop/optee-qemu/optee_os/lib/libutils/isoc/bget.c:943
     e00:	f9400660 	ldr	x0, [x19, #8]
     e04:	8b000274 	add	x20, x19, x0
/home/hei/Desktop/optee-qemu/optee_os/lib/libutils/isoc/bget.c:944
     e08:	f9400681 	ldr	x1, [x20, #8]
     e0c:	f100003f 	cmp	x1, #0x0
     e10:	540009ad 	b.le	f44 <brel+0x260>
/home/hei/Desktop/optee-qemu/optee_os/lib/libutils/isoc/bget.c:949
     e14:	f8616a83 	ldr	x3, [x20, x1]
     e18:	eb03003f 	cmp	x1, x3
     e1c:	54000560 	b.eq	ec8 <brel+0x1e4>  // b.none
/home/hei/Desktop/optee-qemu/optee_os/lib/libutils/isoc/bget.c:949 (discriminator 1)
     e20:	d0000043 	adrp	x3, a000 <__text_end+0x12f4>
     e24:	913c8c63 	add	x3, x3, #0xf23
     e28:	d0000041 	adrp	x1, a000 <__text_end+0x12f4>
     e2c:	f0000040 	adrp	x0, b000 <__func__.3755+0x98>
     e30:	91002c63 	add	x3, x3, #0xb
     e34:	528076a2 	mov	w2, #0x3b5                 	// #949
     e38:	913dec21 	add	x1, x1, #0xf7b
     e3c:	91047800 	add	x0, x0, #0x11e
     e40:	17ffffb8 	b	d20 <brel+0x3c>
/home/hei/Desktop/optee-qemu/optee_os/lib/libutils/isoc/bget.c:929
     e44:	f9400c25 	ldr	x5, [x1, #24]
     e48:	f94008a4 	ldr	x4, [x5, #16]
     e4c:	eb01009f 	cmp	x4, x1
     e50:	54000140 	b.eq	e78 <brel+0x194>  // b.none
/home/hei/Desktop/optee-qemu/optee_os/lib/libutils/isoc/bget.c:929 (discriminator 1)
     e54:	d0000043 	adrp	x3, a000 <__text_end+0x12f4>
     e58:	913c8c63 	add	x3, x3, #0xf23
     e5c:	d0000041 	adrp	x1, a000 <__text_end+0x12f4>
     e60:	f0000040 	adrp	x0, b000 <__func__.3755+0x98>
     e64:	91002c63 	add	x3, x3, #0xb
     e68:	52807422 	mov	w2, #0x3a1                 	// #929
     e6c:	913dec21 	add	x1, x1, #0xf7b
     e70:	9102a000 	add	x0, x0, #0xa8
     e74:	17ffffab 	b	d20 <brel+0x3c>
/home/hei/Desktop/optee-qemu/optee_os/lib/libutils/isoc/bget.c:930
     e78:	f9400881 	ldr	x1, [x4, #16]
     e7c:	f9400c21 	ldr	x1, [x1, #24]
     e80:	eb01009f 	cmp	x4, x1
     e84:	54000140 	b.eq	eac <brel+0x1c8>  // b.none
/home/hei/Desktop/optee-qemu/optee_os/lib/libutils/isoc/bget.c:930 (discriminator 1)
     e88:	d0000043 	adrp	x3, a000 <__text_end+0x12f4>
     e8c:	913c8c63 	add	x3, x3, #0xf23
     e90:	d0000041 	adrp	x1, a000 <__text_end+0x12f4>
     e94:	f0000040 	adrp	x0, b000 <__func__.3755+0x98>
     e98:	91002c63 	add	x3, x3, #0xb
     e9c:	52807442 	mov	w2, #0x3a2                 	// #930
     ea0:	913dec21 	add	x1, x1, #0xf7b
     ea4:	91038c00 	add	x0, x0, #0xe3
     ea8:	17ffff9e 	b	d20 <brel+0x3c>
/home/hei/Desktop/optee-qemu/optee_os/lib/libutils/isoc/bget.c:932
     eac:	a9011664 	stp	x4, x5, [x19, #16]
/home/hei/Desktop/optee-qemu/optee_os/lib/libutils/isoc/bget.c:896
     eb0:	cb0303e3 	neg	x3, x3
/home/hei/Desktop/optee-qemu/optee_os/lib/libutils/isoc/bget.c:933
     eb4:	f9000c93 	str	x19, [x4, #24]
/home/hei/Desktop/optee-qemu/optee_os/lib/libutils/isoc/bget.c:934
     eb8:	f9400e61 	ldr	x1, [x19, #24]
     ebc:	f9000833 	str	x19, [x1, #16]
/home/hei/Desktop/optee-qemu/optee_os/lib/libutils/isoc/bget.c:935
     ec0:	f81f8003 	stur	x3, [x0, #-8]
     ec4:	17ffffcf 	b	e00 <brel+0x11c>
/home/hei/Desktop/optee-qemu/optee_os/lib/libutils/isoc/bget.c:950
     ec8:	f9400e84 	ldr	x4, [x20, #24]
     ecc:	f9400885 	ldr	x5, [x4, #16]
     ed0:	eb1400bf 	cmp	x5, x20
     ed4:	54000140 	b.eq	efc <brel+0x218>  // b.none
/home/hei/Desktop/optee-qemu/optee_os/lib/libutils/isoc/bget.c:950 (discriminator 1)
     ed8:	d0000043 	adrp	x3, a000 <__text_end+0x12f4>
     edc:	913c8c63 	add	x3, x3, #0xf23
     ee0:	d0000041 	adrp	x1, a000 <__text_end+0x12f4>
     ee4:	f0000040 	adrp	x0, b000 <__func__.3755+0x98>
     ee8:	91002c63 	add	x3, x3, #0xb
     eec:	528076c2 	mov	w2, #0x3b6                 	// #950
     ef0:	913dec21 	add	x1, x1, #0xf7b
     ef4:	91055c00 	add	x0, x0, #0x157
     ef8:	17ffff8a 	b	d20 <brel+0x3c>
/home/hei/Desktop/optee-qemu/optee_os/lib/libutils/isoc/bget.c:951
     efc:	f94008a3 	ldr	x3, [x5, #16]
     f00:	f9400c66 	ldr	x6, [x3, #24]
     f04:	eb0500df 	cmp	x6, x5
     f08:	54000140 	b.eq	f30 <brel+0x24c>  // b.none
/home/hei/Desktop/optee-qemu/optee_os/lib/libutils/isoc/bget.c:951 (discriminator 1)
     f0c:	d0000043 	adrp	x3, a000 <__text_end+0x12f4>
     f10:	913c8c63 	add	x3, x3, #0xf23
     f14:	d0000041 	adrp	x1, a000 <__text_end+0x12f4>
     f18:	f0000040 	adrp	x0, b000 <__func__.3755+0x98>
     f1c:	91002c63 	add	x3, x3, #0xb
     f20:	528076e2 	mov	w2, #0x3b7                 	// #951
     f24:	913dec21 	add	x1, x1, #0xf7b
     f28:	9105d000 	add	x0, x0, #0x174
     f2c:	17ffff7d 	b	d20 <brel+0x3c>
/home/hei/Desktop/optee-qemu/optee_os/lib/libutils/isoc/bget.c:952
     f30:	f9000883 	str	x3, [x4, #16]
/home/hei/Desktop/optee-qemu/optee_os/lib/libutils/isoc/bget.c:954
     f34:	8b010014 	add	x20, x0, x1
/home/hei/Desktop/optee-qemu/optee_os/lib/libutils/isoc/bget.c:953
     f38:	f9000c64 	str	x4, [x3, #24]
/home/hei/Desktop/optee-qemu/optee_os/lib/libutils/isoc/bget.c:954
     f3c:	f9000674 	str	x20, [x19, #8]
/home/hei/Desktop/optee-qemu/optee_os/lib/libutils/isoc/bget.c:963
     f40:	8b140274 	add	x20, x19, x20
/home/hei/Desktop/optee-qemu/optee_os/lib/libutils/isoc/bget.c:965
     f44:	340000e2 	cbz	w2, f60 <brel+0x27c>
/home/hei/Desktop/optee-qemu/optee_os/lib/libutils/isoc/bget.c:967
     f48:	f9400662 	ldr	x2, [x19, #8]
memset_unchecked():
/home/hei/Desktop/optee-qemu/optee_os/lib/libutils/isoc/bget_malloc.c:130
     f4c:	52800aa1 	mov	w1, #0x55                  	// #85
     f50:	91008260 	add	x0, x19, #0x20
brel():
/home/hei/Desktop/optee-qemu/optee_os/lib/libutils/isoc/bget.c:967
     f54:	51008042 	sub	w2, w2, #0x20
memset_unchecked():
/home/hei/Desktop/optee-qemu/optee_os/lib/libutils/isoc/bget_malloc.c:130
     f58:	93407c42 	sxtw	x2, w2
     f5c:	940001cf 	bl	1698 <memset>
brel():
/home/hei/Desktop/optee-qemu/optee_os/lib/libutils/isoc/bget.c:969
     f60:	f9400680 	ldr	x0, [x20, #8]
     f64:	b7f80140 	tbnz	x0, #63, f8c <brel+0x2a8>
/home/hei/Desktop/optee-qemu/optee_os/lib/libutils/isoc/bget.c:969 (discriminator 1)
     f68:	d0000043 	adrp	x3, a000 <__text_end+0x12f4>
     f6c:	913c8c63 	add	x3, x3, #0xf23
     f70:	d0000041 	adrp	x1, a000 <__text_end+0x12f4>
     f74:	f0000040 	adrp	x0, b000 <__func__.3755+0x98>
     f78:	91002c63 	add	x3, x3, #0xb
     f7c:	52807922 	mov	w2, #0x3c9                 	// #969
     f80:	913dec21 	add	x1, x1, #0xf7b
     f84:	91064400 	add	x0, x0, #0x191
     f88:	17ffff66 	b	d20 <brel+0x3c>
/home/hei/Desktop/optee-qemu/optee_os/lib/libutils/isoc/bget.c:974
     f8c:	f9400660 	ldr	x0, [x19, #8]
     f90:	f9000280 	str	x0, [x20]
/home/hei/Desktop/optee-qemu/optee_os/lib/libutils/isoc/bget.c:1002
     f94:	a94153f3 	ldp	x19, x20, [sp, #16]
     f98:	a8c27bfd 	ldp	x29, x30, [sp], #32
     f9c:	d65f03c0 	ret

0000000000000fa0 <bgetr>:
bgetr():
/home/hei/Desktop/optee-qemu/optee_os/lib/libutils/isoc/bget.c:811
     fa0:	a9bc7bfd 	stp	x29, x30, [sp, #-64]!
     fa4:	910003fd 	mov	x29, sp
     fa8:	a90153f3 	stp	x19, x20, [sp, #16]
     fac:	aa0103f4 	mov	x20, x1
/home/hei/Desktop/optee-qemu/optee_os/lib/libutils/isoc/bget.c:816
     fb0:	aa0203e1 	mov	x1, x2
/home/hei/Desktop/optee-qemu/optee_os/lib/libutils/isoc/bget.c:811
     fb4:	a9025bf5 	stp	x21, x22, [sp, #32]
     fb8:	aa0003f5 	mov	x21, x0
/home/hei/Desktop/optee-qemu/optee_os/lib/libutils/isoc/bget.c:816
     fbc:	aa1403e0 	mov	x0, x20
/home/hei/Desktop/optee-qemu/optee_os/lib/libutils/isoc/bget.c:811
     fc0:	f9001bf7 	str	x23, [sp, #48]
     fc4:	aa0203f7 	mov	x23, x2
/home/hei/Desktop/optee-qemu/optee_os/lib/libutils/isoc/bget.c:816
     fc8:	97fffeb4 	bl	a98 <bget>
     fcc:	aa0003f6 	mov	x22, x0
     fd0:	b4000420 	cbz	x0, 1054 <bgetr+0xb4>
/home/hei/Desktop/optee-qemu/optee_os/lib/libutils/isoc/bget.c:819
     fd4:	b4000415 	cbz	x21, 1054 <bgetr+0xb4>
/home/hei/Desktop/optee-qemu/optee_os/lib/libutils/isoc/bget.c:833
     fd8:	f85f82a1 	ldur	x1, [x21, #-8]
     fdc:	928001f3 	mov	x19, #0xfffffffffffffff0    	// #-16
     fe0:	cb010273 	sub	x19, x19, x1
/home/hei/Desktop/optee-qemu/optee_os/lib/libutils/isoc/bget.c:834
     fe4:	f100027f 	cmp	x19, #0x0
     fe8:	5400016c 	b.gt	1014 <bgetr+0x74>
     fec:	d0000043 	adrp	x3, a000 <__text_end+0x12f4>
     ff0:	913c8c63 	add	x3, x3, #0xf23
     ff4:	91004063 	add	x3, x3, #0x10
     ff8:	d0000041 	adrp	x1, a000 <__text_end+0x12f4>
     ffc:	f0000040 	adrp	x0, b000 <__func__.3755+0x98>
    1000:	913dec21 	add	x1, x1, #0xf7b
    1004:	91068800 	add	x0, x0, #0x1a2
    1008:	52806842 	mov	w2, #0x342                 	// #834
    100c:	94000551 	bl	2550 <_assert_log>
    1010:	94000561 	bl	2594 <_assert_break>
/home/hei/Desktop/optee-qemu/optee_os/lib/libutils/isoc/bget.c:835
    1014:	eb13029f 	cmp	x20, x19
    1018:	93407e81 	sxtw	x1, w20
    101c:	93407e62 	sxtw	x2, w19
    1020:	9a81a042 	csel	x2, x2, x1, ge  // ge = tcont
    1024:	aa1503e1 	mov	x1, x21
    1028:	97fffd47 	bl	544 <memcpy>
/home/hei/Desktop/optee-qemu/optee_os/lib/libutils/isoc/bget.c:839
    102c:	eb13029f 	cmp	x20, x19
    1030:	540000ad 	b.le	1044 <bgetr+0xa4>
/home/hei/Desktop/optee-qemu/optee_os/lib/libutils/isoc/bget.c:840
    1034:	cb130282 	sub	x2, x20, x19
    1038:	52800001 	mov	w1, #0x0                   	// #0
    103c:	8b1302c0 	add	x0, x22, x19
    1040:	94000196 	bl	1698 <memset>
/home/hei/Desktop/optee-qemu/optee_os/lib/libutils/isoc/bget.c:842
    1044:	52800002 	mov	w2, #0x0                   	// #0
    1048:	aa1703e1 	mov	x1, x23
    104c:	aa1503e0 	mov	x0, x21
    1050:	97ffff25 	bl	ce4 <brel>
/home/hei/Desktop/optee-qemu/optee_os/lib/libutils/isoc/bget.c:844
    1054:	aa1603e0 	mov	x0, x22
    1058:	a94153f3 	ldp	x19, x20, [sp, #16]
    105c:	a9425bf5 	ldp	x21, x22, [sp, #32]
    1060:	f9401bf7 	ldr	x23, [sp, #48]
    1064:	a8c47bfd 	ldp	x29, x30, [sp], #64
    1068:	d65f03c0 	ret

000000000000106c <bpool>:
bpool():
/home/hei/Desktop/optee-qemu/optee_os/lib/libutils/isoc/bget.c:1028
    106c:	a9bf7bfd 	stp	x29, x30, [sp, #-16]!
/home/hei/Desktop/optee-qemu/optee_os/lib/libutils/isoc/bget.c:1033
    1070:	927cec21 	and	x1, x1, #0xfffffffffffffff0
/home/hei/Desktop/optee-qemu/optee_os/lib/libutils/isoc/bget.c:1052
    1074:	f1004021 	subs	x1, x1, #0x10
/home/hei/Desktop/optee-qemu/optee_os/lib/libutils/isoc/bget.c:1028
    1078:	910003fd 	mov	x29, sp
/home/hei/Desktop/optee-qemu/optee_os/lib/libutils/isoc/bget.c:1052
    107c:	54000165 	b.pl	10a8 <bpool+0x3c>  // b.nfrst
/home/hei/Desktop/optee-qemu/optee_os/lib/libutils/isoc/bget.c:1052 (discriminator 1)
    1080:	b0000043 	adrp	x3, a000 <__text_end+0x12f4>
    1084:	913c8c63 	add	x3, x3, #0xf23
    1088:	b0000041 	adrp	x1, a000 <__text_end+0x12f4>
    108c:	d0000040 	adrp	x0, b000 <__func__.3755+0x98>
    1090:	91005863 	add	x3, x3, #0x16
    1094:	913dec21 	add	x1, x1, #0xf7b
    1098:	9106b000 	add	x0, x0, #0x1ac
    109c:	52808382 	mov	w2, #0x41c                 	// #1052
/home/hei/Desktop/optee-qemu/optee_os/lib/libutils/isoc/bget.c:1062 (discriminator 1)
    10a0:	9400052c 	bl	2550 <_assert_log>
    10a4:	9400053c 	bl	2594 <_assert_break>
/home/hei/Desktop/optee-qemu/optee_os/lib/libutils/isoc/bget.c:1062
    10a8:	f9400c44 	ldr	x4, [x2, #24]
    10ac:	f9400883 	ldr	x3, [x4, #16]
/home/hei/Desktop/optee-qemu/optee_os/lib/libutils/isoc/bget.c:1058
    10b0:	f900001f 	str	xzr, [x0]
/home/hei/Desktop/optee-qemu/optee_os/lib/libutils/isoc/bget.c:1062
    10b4:	eb02007f 	cmp	x3, x2
    10b8:	54000140 	b.eq	10e0 <bpool+0x74>  // b.none
/home/hei/Desktop/optee-qemu/optee_os/lib/libutils/isoc/bget.c:1062 (discriminator 1)
    10bc:	b0000043 	adrp	x3, a000 <__text_end+0x12f4>
    10c0:	913c8c63 	add	x3, x3, #0xf23
    10c4:	b0000041 	adrp	x1, a000 <__text_end+0x12f4>
    10c8:	d0000040 	adrp	x0, b000 <__func__.3755+0x98>
    10cc:	91005863 	add	x3, x3, #0x16
    10d0:	528084c2 	mov	w2, #0x426                 	// #1062
    10d4:	913dec21 	add	x1, x1, #0xf7b
    10d8:	9102a000 	add	x0, x0, #0xa8
    10dc:	17fffff1 	b	10a0 <bpool+0x34>
/home/hei/Desktop/optee-qemu/optee_os/lib/libutils/isoc/bget.c:1063
    10e0:	f9400862 	ldr	x2, [x3, #16]
    10e4:	f9400c42 	ldr	x2, [x2, #24]
    10e8:	eb02007f 	cmp	x3, x2
    10ec:	54000140 	b.eq	1114 <bpool+0xa8>  // b.none
    10f0:	b0000043 	adrp	x3, a000 <__text_end+0x12f4>
    10f4:	913c8c63 	add	x3, x3, #0xf23
    10f8:	b0000041 	adrp	x1, a000 <__text_end+0x12f4>
    10fc:	d0000040 	adrp	x0, b000 <__func__.3755+0x98>
    1100:	91005863 	add	x3, x3, #0x16
    1104:	528084e2 	mov	w2, #0x427                 	// #1063
    1108:	913dec21 	add	x1, x1, #0xf7b
    110c:	91038c00 	add	x0, x0, #0xe3
    1110:	17ffffe4 	b	10a0 <bpool+0x34>
/home/hei/Desktop/optee-qemu/optee_os/lib/libutils/isoc/bget.c:1065
    1114:	a9011003 	stp	x3, x4, [x0, #16]
/home/hei/Desktop/optee-qemu/optee_os/lib/libutils/isoc/bget.c:1066
    1118:	f9000c60 	str	x0, [x3, #24]
/home/hei/Desktop/optee-qemu/optee_os/lib/libutils/isoc/bget.c:1067
    111c:	f9400c02 	ldr	x2, [x0, #24]
    1120:	f9000840 	str	x0, [x2, #16]
/home/hei/Desktop/optee-qemu/optee_os/lib/libutils/isoc/bget.c:1083
    1124:	8b010002 	add	x2, x0, x1
/home/hei/Desktop/optee-qemu/optee_os/lib/libutils/isoc/bget.c:1078
    1128:	f9000401 	str	x1, [x0, #8]
/home/hei/Desktop/optee-qemu/optee_os/lib/libutils/isoc/bget.c:1084
    112c:	f8216801 	str	x1, [x0, x1]
/home/hei/Desktop/optee-qemu/optee_os/lib/libutils/isoc/bget.c:1087
    1130:	d2f00000 	mov	x0, #0x8000000000000000    	// #-9223372036854775808
    1134:	f9000440 	str	x0, [x2, #8]
/home/hei/Desktop/optee-qemu/optee_os/lib/libutils/isoc/bget.c:1088
    1138:	a8c17bfd 	ldp	x29, x30, [sp], #16
    113c:	d65f03c0 	ret

0000000000001140 <bstats>:
bstats():
/home/hei/Desktop/optee-qemu/optee_os/lib/libutils/isoc/bget.c:1101
    1140:	f94014a7 	ldr	x7, [x5, #40]
/home/hei/Desktop/optee-qemu/optee_os/lib/libutils/isoc/bget.c:1099
    1144:	f94008a6 	ldr	x6, [x5, #16]
/home/hei/Desktop/optee-qemu/optee_os/lib/libutils/isoc/bget.c:1101
    1148:	f9000067 	str	x7, [x3]
/home/hei/Desktop/optee-qemu/optee_os/lib/libutils/isoc/bget.c:1102
    114c:	f94018a3 	ldr	x3, [x5, #48]
    1150:	f9000083 	str	x3, [x4]
/home/hei/Desktop/optee-qemu/optee_os/lib/libutils/isoc/bget.c:1103
    1154:	f94010a3 	ldr	x3, [x5, #32]
    1158:	f9000003 	str	x3, [x0]
/home/hei/Desktop/optee-qemu/optee_os/lib/libutils/isoc/bget.c:1104
    115c:	f900003f 	str	xzr, [x1]
/home/hei/Desktop/optee-qemu/optee_os/lib/libutils/isoc/bget.c:1105
    1160:	92800000 	mov	x0, #0xffffffffffffffff    	// #-1
    1164:	f9000040 	str	x0, [x2]
/home/hei/Desktop/optee-qemu/optee_os/lib/libutils/isoc/bget.c:1106
    1168:	eb0600bf 	cmp	x5, x6
    116c:	54000041 	b.ne	1174 <bstats+0x34>  // b.any
    1170:	d65f03c0 	ret
/home/hei/Desktop/optee-qemu/optee_os/lib/libutils/isoc/bget.c:1107
    1174:	f94004c3 	ldr	x3, [x6, #8]
    1178:	f100007f 	cmp	x3, #0x0
    117c:	540001ac 	b.gt	11b0 <bstats+0x70>
/home/hei/Desktop/optee-qemu/optee_os/lib/libutils/isoc/bget.c:1107 (discriminator 1)
    1180:	b0000043 	adrp	x3, a000 <__text_end+0x12f4>
    1184:	913c8c63 	add	x3, x3, #0xf23
    1188:	91007063 	add	x3, x3, #0x1c
    118c:	b0000041 	adrp	x1, a000 <__text_end+0x12f4>
    1190:	d0000040 	adrp	x0, b000 <__func__.3755+0x98>
    1194:	913dec21 	add	x1, x1, #0xf7b
    1198:	91078400 	add	x0, x0, #0x1e1
/home/hei/Desktop/optee-qemu/optee_os/lib/libutils/isoc/bget.c:1098 (discriminator 1)
    119c:	a9bf7bfd 	stp	x29, x30, [sp, #-16]!
/home/hei/Desktop/optee-qemu/optee_os/lib/libutils/isoc/bget.c:1107 (discriminator 1)
    11a0:	52808a62 	mov	w2, #0x453                 	// #1107
/home/hei/Desktop/optee-qemu/optee_os/lib/libutils/isoc/bget.c:1098 (discriminator 1)
    11a4:	910003fd 	mov	x29, sp
/home/hei/Desktop/optee-qemu/optee_os/lib/libutils/isoc/bget.c:1107 (discriminator 1)
    11a8:	940004ea 	bl	2550 <_assert_log>
    11ac:	940004fa 	bl	2594 <_assert_break>
/home/hei/Desktop/optee-qemu/optee_os/lib/libutils/isoc/bget.c:1108
    11b0:	f9400020 	ldr	x0, [x1]
    11b4:	8b030000 	add	x0, x0, x3
    11b8:	f9000020 	str	x0, [x1]
/home/hei/Desktop/optee-qemu/optee_os/lib/libutils/isoc/bget.c:1109
    11bc:	f9400043 	ldr	x3, [x2]
    11c0:	f94004c0 	ldr	x0, [x6, #8]
    11c4:	eb03001f 	cmp	x0, x3
    11c8:	5400004d 	b.le	11d0 <bstats+0x90>
/home/hei/Desktop/optee-qemu/optee_os/lib/libutils/isoc/bget.c:1110
    11cc:	f9000040 	str	x0, [x2]
/home/hei/Desktop/optee-qemu/optee_os/lib/libutils/isoc/bget.c:1112
    11d0:	f94008c6 	ldr	x6, [x6, #16]
    11d4:	17ffffe5 	b	1168 <bstats+0x28>

00000000000011d8 <malloc_reset_stats>:
gen_malloc_reset_stats():
/home/hei/Desktop/optee-qemu/optee_os/lib/libutils/isoc/bget_malloc.c:228
    11d8:	f0000040 	adrp	x0, c000 <_DYNAMIC>
    11dc:	910fc000 	add	x0, x0, #0x3f0
    11e0:	b9006c1f 	str	wzr, [x0, #108]
/home/hei/Desktop/optee-qemu/optee_os/lib/libutils/isoc/bget_malloc.c:229
    11e4:	b900741f 	str	wzr, [x0, #116]
/home/hei/Desktop/optee-qemu/optee_os/lib/libutils/isoc/bget_malloc.c:230
    11e8:	f9003c1f 	str	xzr, [x0, #120]
malloc_reset_stats():
/home/hei/Desktop/optee-qemu/optee_os/lib/libutils/isoc/bget_malloc.c:238
    11ec:	d65f03c0 	ret

00000000000011f0 <malloc_get_stats>:
malloc_get_stats():
/home/hei/Desktop/optee-qemu/optee_os/lib/libutils/isoc/bget_malloc.c:251
    11f0:	a9be7bfd 	stp	x29, x30, [sp, #-32]!
memcpy_unchecked():
/home/hei/Desktop/optee-qemu/optee_os/lib/libutils/isoc/bget_malloc.c:136
    11f4:	d2800702 	mov	x2, #0x38                  	// #56
malloc_get_stats():
/home/hei/Desktop/optee-qemu/optee_os/lib/libutils/isoc/bget_malloc.c:251
    11f8:	910003fd 	mov	x29, sp
    11fc:	f9000bf3 	str	x19, [sp, #16]
memcpy_unchecked():
/home/hei/Desktop/optee-qemu/optee_os/lib/libutils/isoc/bget_malloc.c:136
    1200:	f0000053 	adrp	x19, c000 <_DYNAMIC>
    1204:	910fc273 	add	x19, x19, #0x3f0
    1208:	91012261 	add	x1, x19, #0x48
    120c:	97fffcce 	bl	544 <memcpy>
    1210:	aa0003e3 	mov	x3, x0
gen_malloc_get_stats():
/home/hei/Desktop/optee-qemu/optee_os/lib/libutils/isoc/bget_malloc.c:246
    1214:	f9401260 	ldr	x0, [x19, #32]
malloc_get_stats():
/home/hei/Desktop/optee-qemu/optee_os/lib/libutils/isoc/bget_malloc.c:253
    1218:	f9400bf3 	ldr	x19, [sp, #16]
gen_malloc_get_stats():
/home/hei/Desktop/optee-qemu/optee_os/lib/libutils/isoc/bget_malloc.c:246
    121c:	b9002060 	str	w0, [x3, #32]
malloc_get_stats():
/home/hei/Desktop/optee-qemu/optee_os/lib/libutils/isoc/bget_malloc.c:253
    1220:	a8c27bfd 	ldp	x29, x30, [sp], #32
    1224:	d65f03c0 	ret

0000000000001228 <malloc>:
malloc():
/home/hei/Desktop/optee-qemu/optee_os/lib/libutils/isoc/bget_malloc.c:668
    1228:	a9be7bfd 	stp	x29, x30, [sp, #-32]!
    122c:	910003fd 	mov	x29, sp
    1230:	f9000bf3 	str	x19, [sp, #16]
    1234:	aa0003f3 	mov	x19, x0
raw_malloc():
/home/hei/Desktop/optee-qemu/optee_os/lib/libutils/isoc/bget_malloc.c:364
    1238:	b7f801c0 	tbnz	x0, #63, 1270 <malloc+0x48>
/home/hei/Desktop/optee-qemu/optee_os/lib/libutils/isoc/bget_malloc.c:371
    123c:	f100001f 	cmp	x0, #0x0
/home/hei/Desktop/optee-qemu/optee_os/lib/libutils/isoc/bget_malloc.c:373
    1240:	f0000041 	adrp	x1, c000 <_DYNAMIC>
    1244:	9a9f1400 	csinc	x0, x0, xzr, ne  // ne = any
    1248:	910fc021 	add	x1, x1, #0x3f0
    124c:	97fffe13 	bl	a98 <bget>
    1250:	aa0003e6 	mov	x6, x0
/home/hei/Desktop/optee-qemu/optee_os/lib/libutils/isoc/bget_malloc.c:375
    1254:	aa1303e1 	mov	x1, x19
    1258:	aa0603e0 	mov	x0, x6
    125c:	97fffdfe 	bl	a54 <raw_malloc_return_hook.constprop.21>
malloc():
/home/hei/Desktop/optee-qemu/optee_os/lib/libutils/isoc/bget_malloc.c:675
    1260:	aa0603e0 	mov	x0, x6
    1264:	f9400bf3 	ldr	x19, [sp, #16]
    1268:	a8c27bfd 	ldp	x29, x30, [sp], #32
    126c:	d65f03c0 	ret
raw_malloc():
/home/hei/Desktop/optee-qemu/optee_os/lib/libutils/isoc/bget_malloc.c:351
    1270:	d2800006 	mov	x6, #0x0                   	// #0
    1274:	17fffff8 	b	1254 <malloc+0x2c>

0000000000001278 <calloc>:
calloc():
/home/hei/Desktop/optee-qemu/optee_os/lib/libutils/isoc/bget_malloc.c:686
    1278:	a9be7bfd 	stp	x29, x30, [sp, #-32]!
    127c:	910003fd 	mov	x29, sp
    1280:	f9000bf3 	str	x19, [sp, #16]
raw_calloc():
/home/hei/Desktop/optee-qemu/optee_os/lib/libutils/isoc/bget_malloc.c:397
    1284:	9b017c13 	mul	x19, x0, x1
    1288:	9bc17c00 	umulh	x0, x0, x1
    128c:	f100001f 	cmp	x0, #0x0
    1290:	d2800020 	mov	x0, #0x1                   	// #1
    1294:	9a9f07e1 	cset	x1, ne  // ne = any
    1298:	f100027f 	cmp	x19, #0x0
    129c:	9a80a021 	csel	x1, x1, x0, ge  // ge = tcont
    12a0:	b50001a1 	cbnz	x1, 12d4 <calloc+0x5c>
/home/hei/Desktop/optee-qemu/optee_os/lib/libutils/isoc/bget_malloc.c:408
    12a4:	f0000041 	adrp	x1, c000 <_DYNAMIC>
    12a8:	9a801260 	csel	x0, x19, x0, ne  // ne = any
    12ac:	910fc021 	add	x1, x1, #0x3f0
    12b0:	97fffe6a 	bl	c58 <bgetz>
    12b4:	aa0003e6 	mov	x6, x0
/home/hei/Desktop/optee-qemu/optee_os/lib/libutils/isoc/bget_malloc.c:410
    12b8:	aa1303e1 	mov	x1, x19
    12bc:	aa0603e0 	mov	x0, x6
    12c0:	97fffde5 	bl	a54 <raw_malloc_return_hook.constprop.21>
calloc():
/home/hei/Desktop/optee-qemu/optee_os/lib/libutils/isoc/bget_malloc.c:693
    12c4:	aa0603e0 	mov	x0, x6
    12c8:	f9400bf3 	ldr	x19, [sp, #16]
    12cc:	a8c27bfd 	ldp	x29, x30, [sp], #32
    12d0:	d65f03c0 	ret
raw_calloc():
/home/hei/Desktop/optee-qemu/optee_os/lib/libutils/isoc/bget_malloc.c:391
    12d4:	d2800006 	mov	x6, #0x0                   	// #0
    12d8:	17fffff8 	b	12b8 <calloc+0x40>

00000000000012dc <realloc>:
realloc():
/home/hei/Desktop/optee-qemu/optee_os/lib/libutils/isoc/bget_malloc.c:702
    12dc:	a9be7bfd 	stp	x29, x30, [sp, #-32]!
    12e0:	910003fd 	mov	x29, sp
    12e4:	f9000bf3 	str	x19, [sp, #16]
    12e8:	aa0103f3 	mov	x19, x1
raw_realloc():
/home/hei/Desktop/optee-qemu/optee_os/lib/libutils/isoc/bget_malloc.c:422
    12ec:	b7f801c1 	tbnz	x1, #63, 1324 <realloc+0x48>
/home/hei/Desktop/optee-qemu/optee_os/lib/libutils/isoc/bget_malloc.c:431
    12f0:	f100003f 	cmp	x1, #0x0
/home/hei/Desktop/optee-qemu/optee_os/lib/libutils/isoc/bget_malloc.c:433
    12f4:	f0000042 	adrp	x2, c000 <_DYNAMIC>
    12f8:	9a9f1421 	csinc	x1, x1, xzr, ne  // ne = any
    12fc:	910fc042 	add	x2, x2, #0x3f0
    1300:	97ffff28 	bl	fa0 <bgetr>
    1304:	aa0003e6 	mov	x6, x0
/home/hei/Desktop/optee-qemu/optee_os/lib/libutils/isoc/bget_malloc.c:435
    1308:	aa1303e1 	mov	x1, x19
    130c:	aa0603e0 	mov	x0, x6
    1310:	97fffdd1 	bl	a54 <raw_malloc_return_hook.constprop.21>
realloc():
/home/hei/Desktop/optee-qemu/optee_os/lib/libutils/isoc/bget_malloc.c:709
    1314:	aa0603e0 	mov	x0, x6
    1318:	f9400bf3 	ldr	x19, [sp, #16]
    131c:	a8c27bfd 	ldp	x29, x30, [sp], #32
    1320:	d65f03c0 	ret
raw_realloc():
/home/hei/Desktop/optee-qemu/optee_os/lib/libutils/isoc/bget_malloc.c:418
    1324:	d2800006 	mov	x6, #0x0                   	// #0
    1328:	17fffff8 	b	1308 <realloc+0x2c>

000000000000132c <free>:
raw_free():
/home/hei/Desktop/optee-qemu/optee_os/lib/libutils/isoc/bget_malloc.c:384
    132c:	b40000a0 	cbz	x0, 1340 <free+0x14>
/home/hei/Desktop/optee-qemu/optee_os/lib/libutils/isoc/bget_malloc.c:385
    1330:	52800002 	mov	w2, #0x0                   	// #0
    1334:	f0000041 	adrp	x1, c000 <_DYNAMIC>
    1338:	910fc021 	add	x1, x1, #0x3f0
    133c:	17fffe6a 	b	ce4 <brel>
free():
/home/hei/Desktop/optee-qemu/optee_os/lib/libutils/isoc/bget_malloc.c:722
    1340:	d65f03c0 	ret

0000000000001344 <free_wipe>:
raw_free():
/home/hei/Desktop/optee-qemu/optee_os/lib/libutils/isoc/bget_malloc.c:384
    1344:	b40000a0 	cbz	x0, 1358 <free_wipe+0x14>
/home/hei/Desktop/optee-qemu/optee_os/lib/libutils/isoc/bget_malloc.c:385
    1348:	52800022 	mov	w2, #0x1                   	// #1
    134c:	f0000041 	adrp	x1, c000 <_DYNAMIC>
    1350:	910fc021 	add	x1, x1, #0x3f0
    1354:	17fffe64 	b	ce4 <brel>
free_wipe():
/home/hei/Desktop/optee-qemu/optee_os/lib/libutils/isoc/bget_malloc.c:727
    1358:	d65f03c0 	ret

000000000000135c <malloc_add_pool>:
malloc_add_pool():
/home/hei/Desktop/optee-qemu/optee_os/lib/libutils/isoc/bget_malloc.c:835
    135c:	a9bc7bfd 	stp	x29, x30, [sp, #-64]!
    1360:	910003fd 	mov	x29, sp
    1364:	a90153f3 	stp	x19, x20, [sp, #16]
gen_malloc_add_pool():
/home/hei/Desktop/optee-qemu/optee_os/lib/libutils/isoc/bget_malloc.c:735
    1368:	8b010014 	add	x20, x0, x1
/home/hei/Desktop/optee-qemu/optee_os/lib/libutils/isoc/bget_malloc.c:741
    136c:	91003c00 	add	x0, x0, #0xf
malloc_add_pool():
/home/hei/Desktop/optee-qemu/optee_os/lib/libutils/isoc/bget_malloc.c:835
    1370:	a9025bf5 	stp	x21, x22, [sp, #32]
gen_malloc_add_pool():
/home/hei/Desktop/optee-qemu/optee_os/lib/libutils/isoc/bget_malloc.c:742
    1374:	927cee94 	and	x20, x20, #0xfffffffffffffff0
/home/hei/Desktop/optee-qemu/optee_os/lib/libutils/isoc/bget_malloc.c:741
    1378:	927cec16 	and	x22, x0, #0xfffffffffffffff0
malloc_add_pool():
/home/hei/Desktop/optee-qemu/optee_os/lib/libutils/isoc/bget_malloc.c:835
    137c:	a90363f7 	stp	x23, x24, [sp, #48]
gen_malloc_add_pool():
/home/hei/Desktop/optee-qemu/optee_os/lib/libutils/isoc/bget_malloc.c:743
    1380:	eb1402df 	cmp	x22, x20
    1384:	54000163 	b.cc	13b0 <malloc_add_pool+0x54>  // b.lo, b.ul, b.last
    1388:	b0000043 	adrp	x3, a000 <__text_end+0x12f4>
    138c:	913c8c63 	add	x3, x3, #0xf23
    1390:	d0000041 	adrp	x1, b000 <__func__.3755+0x98>
    1394:	d0000040 	adrp	x0, b000 <__func__.3755+0x98>
    1398:	91008c63 	add	x3, x3, #0x23
    139c:	9107c421 	add	x1, x1, #0x1f1
    13a0:	91084400 	add	x0, x0, #0x211
    13a4:	52805ce2 	mov	w2, #0x2e7                 	// #743
/home/hei/Desktop/optee-qemu/optee_os/lib/libutils/isoc/bget_malloc.c:756
    13a8:	9400046a 	bl	2550 <_assert_log>
    13ac:	9400047a 	bl	2594 <_assert_break>
/home/hei/Desktop/optee-qemu/optee_os/lib/libutils/isoc/bget_malloc.c:745
    13b0:	cb160294 	sub	x20, x20, x22
    13b4:	f100be9f 	cmp	x20, #0x2f
    13b8:	540001c8 	b.hi	13f0 <malloc_add_pool+0x94>  // b.pmore
malloc_add_pool():
/home/hei/Desktop/optee-qemu/optee_os/lib/libutils/isoc/bget_malloc.c:837
    13bc:	a94153f3 	ldp	x19, x20, [sp, #16]
gen_malloc_add_pool():
/home/hei/Desktop/optee-qemu/optee_os/lib/libutils/isoc/bget_malloc.c:746
    13c0:	b0000040 	adrp	x0, a000 <__text_end+0x12f4>
malloc_add_pool():
/home/hei/Desktop/optee-qemu/optee_os/lib/libutils/isoc/bget_malloc.c:837
    13c4:	a9425bf5 	ldp	x21, x22, [sp, #32]
gen_malloc_add_pool():
/home/hei/Desktop/optee-qemu/optee_os/lib/libutils/isoc/bget_malloc.c:746
    13c8:	913c8c00 	add	x0, x0, #0xf23
malloc_add_pool():
/home/hei/Desktop/optee-qemu/optee_os/lib/libutils/isoc/bget_malloc.c:837
    13cc:	a94363f7 	ldp	x23, x24, [sp, #48]
gen_malloc_add_pool():
/home/hei/Desktop/optee-qemu/optee_os/lib/libutils/isoc/bget_malloc.c:746
    13d0:	d0000044 	adrp	x4, b000 <__func__.3755+0x98>
malloc_add_pool():
/home/hei/Desktop/optee-qemu/optee_os/lib/libutils/isoc/bget_malloc.c:837
    13d4:	a8c47bfd 	ldp	x29, x30, [sp], #64
gen_malloc_add_pool():
/home/hei/Desktop/optee-qemu/optee_os/lib/libutils/isoc/bget_malloc.c:746
    13d8:	91087484 	add	x4, x4, #0x21d
    13dc:	52800023 	mov	w3, #0x1                   	// #1
    13e0:	52800062 	mov	w2, #0x3                   	// #3
    13e4:	52805d41 	mov	w1, #0x2ea                 	// #746
    13e8:	91008c00 	add	x0, x0, #0x23
    13ec:	17fffd23 	b	878 <trace_printf>
/home/hei/Desktop/optee-qemu/optee_os/lib/libutils/isoc/bget_malloc.c:753
    13f0:	f0000053 	adrp	x19, c000 <_DYNAMIC>
    13f4:	910fc278 	add	x24, x19, #0x3f0
    13f8:	aa1803e2 	mov	x2, x24
    13fc:	aa1403e1 	mov	x1, x20
    1400:	aa1603e0 	mov	x0, x22
    1404:	97ffff1a 	bl	106c <bpool>
/home/hei/Desktop/optee-qemu/optee_os/lib/libutils/isoc/bget_malloc.c:754
    1408:	f9402317 	ldr	x23, [x24, #64]
    140c:	910006f7 	add	x23, x23, #0x1
/home/hei/Desktop/optee-qemu/optee_os/lib/libutils/isoc/bget_malloc.c:755
    1410:	d37ceef5 	lsl	x21, x23, #4
raw_realloc():
/home/hei/Desktop/optee-qemu/optee_os/lib/libutils/isoc/bget_malloc.c:422
    1414:	b7f80295 	tbnz	x21, #63, 1464 <malloc_add_pool+0x108>
/home/hei/Desktop/optee-qemu/optee_os/lib/libutils/isoc/bget_malloc.c:433
    1418:	f9401f00 	ldr	x0, [x24, #56]
/home/hei/Desktop/optee-qemu/optee_os/lib/libutils/isoc/bget_malloc.c:431
    141c:	f10002bf 	cmp	x21, #0x0
/home/hei/Desktop/optee-qemu/optee_os/lib/libutils/isoc/bget_malloc.c:433
    1420:	aa1803e2 	mov	x2, x24
    1424:	9a9f16a1 	csinc	x1, x21, xzr, ne  // ne = any
    1428:	97fffede 	bl	fa0 <bgetr>
    142c:	aa0003e6 	mov	x6, x0
/home/hei/Desktop/optee-qemu/optee_os/lib/libutils/isoc/bget_malloc.c:435
    1430:	aa1503e1 	mov	x1, x21
    1434:	aa0603e0 	mov	x0, x6
    1438:	97fffd87 	bl	a54 <raw_malloc_return_hook.constprop.21>
gen_malloc_add_pool():
/home/hei/Desktop/optee-qemu/optee_os/lib/libutils/isoc/bget_malloc.c:756
    143c:	b5000186 	cbnz	x6, 146c <malloc_add_pool+0x110>
    1440:	b0000043 	adrp	x3, a000 <__text_end+0x12f4>
    1444:	913c8c63 	add	x3, x3, #0xf23
    1448:	d0000041 	adrp	x1, b000 <__func__.3755+0x98>
    144c:	b0000040 	adrp	x0, a000 <__text_end+0x12f4>
    1450:	91008c63 	add	x3, x3, #0x23
    1454:	52805e82 	mov	w2, #0x2f4                 	// #756
    1458:	9107c421 	add	x1, x1, #0x1f1
    145c:	91324400 	add	x0, x0, #0xc91
    1460:	17ffffd2 	b	13a8 <malloc_add_pool+0x4c>
raw_realloc():
/home/hei/Desktop/optee-qemu/optee_os/lib/libutils/isoc/bget_malloc.c:418
    1464:	d2800006 	mov	x6, #0x0                   	// #0
    1468:	17fffff2 	b	1430 <malloc_add_pool+0xd4>
gen_malloc_add_pool():
/home/hei/Desktop/optee-qemu/optee_os/lib/libutils/isoc/bget_malloc.c:757
    146c:	910fc260 	add	x0, x19, #0x3f0
/home/hei/Desktop/optee-qemu/optee_os/lib/libutils/isoc/bget_malloc.c:758
    1470:	f9402001 	ldr	x1, [x0, #64]
/home/hei/Desktop/optee-qemu/optee_os/lib/libutils/isoc/bget_malloc.c:757
    1474:	f9001c06 	str	x6, [x0, #56]
/home/hei/Desktop/optee-qemu/optee_os/lib/libutils/isoc/bget_malloc.c:758
    1478:	d37cec21 	lsl	x1, x1, #4
    147c:	8b0100c2 	add	x2, x6, x1
    1480:	f82168d6 	str	x22, [x6, x1]
/home/hei/Desktop/optee-qemu/optee_os/lib/libutils/isoc/bget_malloc.c:761
    1484:	b9407001 	ldr	w1, [x0, #112]
malloc_add_pool():
/home/hei/Desktop/optee-qemu/optee_os/lib/libutils/isoc/bget_malloc.c:837
    1488:	a9425bf5 	ldp	x21, x22, [sp, #32]
gen_malloc_add_pool():
/home/hei/Desktop/optee-qemu/optee_os/lib/libutils/isoc/bget_malloc.c:759
    148c:	f9000454 	str	x20, [x2, #8]
/home/hei/Desktop/optee-qemu/optee_os/lib/libutils/isoc/bget_malloc.c:761
    1490:	0b140034 	add	w20, w1, w20
/home/hei/Desktop/optee-qemu/optee_os/lib/libutils/isoc/bget_malloc.c:763
    1494:	f9002017 	str	x23, [x0, #64]
/home/hei/Desktop/optee-qemu/optee_os/lib/libutils/isoc/bget_malloc.c:761
    1498:	b9007014 	str	w20, [x0, #112]
malloc_add_pool():
/home/hei/Desktop/optee-qemu/optee_os/lib/libutils/isoc/bget_malloc.c:837
    149c:	a94153f3 	ldp	x19, x20, [sp, #16]
    14a0:	a94363f7 	ldp	x23, x24, [sp, #48]
    14a4:	a8c47bfd 	ldp	x29, x30, [sp], #64
    14a8:	d65f03c0 	ret

00000000000014ac <malloc_buffer_is_within_alloced>:
gen_malloc_buffer_is_within_alloced():
/home/hei/Desktop/optee-qemu/optee_os/lib/libutils/isoc/bget_malloc.c:773
    14ac:	8b010001 	add	x1, x0, x1
/home/hei/Desktop/optee-qemu/optee_os/lib/libutils/isoc/bget_malloc.c:780
    14b0:	eb01001f 	cmp	x0, x1
    14b4:	54000b88 	b.hi	1624 <malloc_buffer_is_within_alloced+0x178>  // b.pmore
    14b8:	aa0003e4 	mov	x4, x0
/home/hei/Desktop/optee-qemu/optee_os/lib/libutils/isoc/bget_malloc.c:783
    14bc:	f0000040 	adrp	x0, c000 <_DYNAMIC>
    14c0:	910fc000 	add	x0, x0, #0x3f0
bpool_foreach_iterator_init():
/home/hei/Desktop/optee-qemu/optee_os/lib/libutils/isoc/bget_malloc.c:288
    14c4:	d2800005 	mov	x5, #0x0                   	// #0
bpool_foreach_pool():
/home/hei/Desktop/optee-qemu/optee_os/lib/libutils/isoc/bget_malloc.c:298
    14c8:	d2f0000a 	mov	x10, #0x8000000000000000    	// #-9223372036854775808
    14cc:	928001eb 	mov	x11, #0xfffffffffffffff0    	// #-16
bpool_foreach():
/home/hei/Desktop/optee-qemu/optee_os/lib/libutils/isoc/bget_malloc.c:335
    14d0:	a943a406 	ldp	x6, x9, [x0, #56]
bpool_foreach_iterator_init():
/home/hei/Desktop/optee-qemu/optee_os/lib/libutils/isoc/bget_malloc.c:289
    14d4:	f94000c3 	ldr	x3, [x6]
/home/hei/Desktop/optee-qemu/optee_os/lib/libutils/isoc/bget_malloc.c:288
    14d8:	aa0303e0 	mov	x0, x3
bpool_foreach_pool():
/home/hei/Desktop/optee-qemu/optee_os/lib/libutils/isoc/bget_malloc.c:296
    14dc:	f9400462 	ldr	x2, [x3, #8]
/home/hei/Desktop/optee-qemu/optee_os/lib/libutils/isoc/bget_malloc.c:298
    14e0:	eb0a005f 	cmp	x2, x10
    14e4:	540009a0 	b.eq	1618 <malloc_buffer_is_within_alloced+0x16c>  // b.none
malloc_buffer_is_within_alloced():
/home/hei/Desktop/optee-qemu/optee_os/lib/libutils/isoc/bget_malloc.c:840
    14e8:	a9bf7bfd 	stp	x29, x30, [sp, #-16]!
    14ec:	910003fd 	mov	x29, sp
    14f0:	1400000d 	b	1524 <malloc_buffer_is_within_alloced+0x78>
bpool_foreach_pool():
/home/hei/Desktop/optee-qemu/optee_os/lib/libutils/isoc/bget_malloc.c:315
    14f4:	91004000 	add	x0, x0, #0x10
gen_malloc_buffer_is_within_alloced():
/home/hei/Desktop/optee-qemu/optee_os/lib/libutils/isoc/bget_malloc.c:789
    14f8:	8b020002 	add	x2, x0, x2
/home/hei/Desktop/optee-qemu/optee_os/lib/libutils/isoc/bget_malloc.c:791
    14fc:	eb02003f 	cmp	x1, x2
    1500:	1a9f87e2 	cset	w2, ls  // ls = plast
    1504:	eb00009f 	cmp	x4, x0
    1508:	1a9f37e0 	cset	w0, cs  // cs = hs, nlast
    150c:	6a000040 	ands	w0, w2, w0
    1510:	540007a1 	b.ne	1604 <malloc_buffer_is_within_alloced+0x158>  // b.any
bpool_foreach_pool():
/home/hei/Desktop/optee-qemu/optee_os/lib/libutils/isoc/bget_malloc.c:296
    1514:	f9400462 	ldr	x2, [x3, #8]
bpool_foreach_iterator_init():
/home/hei/Desktop/optee-qemu/optee_os/lib/libutils/isoc/bget_malloc.c:288
    1518:	aa0303e0 	mov	x0, x3
bpool_foreach_pool():
/home/hei/Desktop/optee-qemu/optee_os/lib/libutils/isoc/bget_malloc.c:298
    151c:	eb0a005f 	cmp	x2, x10
    1520:	540006a0 	b.eq	15f4 <malloc_buffer_is_within_alloced+0x148>  // b.none
/home/hei/Desktop/optee-qemu/optee_os/lib/libutils/isoc/bget_malloc.c:301
    1524:	b6f80242 	tbz	x2, #63, 156c <malloc_buffer_is_within_alloced+0xc0>
/home/hei/Desktop/optee-qemu/optee_os/lib/libutils/isoc/bget_malloc.c:303
    1528:	cb0203e8 	neg	x8, x2
/home/hei/Desktop/optee-qemu/optee_os/lib/libutils/isoc/bget_malloc.c:305
    152c:	52800007 	mov	w7, #0x0                   	// #0
/home/hei/Desktop/optee-qemu/optee_os/lib/libutils/isoc/bget_malloc.c:318
    1530:	8b080063 	add	x3, x3, x8
bpool_foreach():
/home/hei/Desktop/optee-qemu/optee_os/lib/libutils/isoc/bget_malloc.c:330
    1534:	35ffff07 	cbnz	w7, 1514 <malloc_buffer_is_within_alloced+0x68>
bget_buf_size():
/home/hei/Desktop/optee-qemu/optee_os/lib/libutils/isoc/bget_malloc.c:457
    1538:	cb020162 	sub	x2, x11, x2
/home/hei/Desktop/optee-qemu/optee_os/lib/libutils/isoc/bget_malloc.c:458
    153c:	f100005f 	cmp	x2, #0x0
    1540:	54fffdac 	b.gt	14f4 <malloc_buffer_is_within_alloced+0x48>
    1544:	b0000043 	adrp	x3, a000 <__text_end+0x12f4>
    1548:	913c8c63 	add	x3, x3, #0xf23
    154c:	9100dc63 	add	x3, x3, #0x37
    1550:	d0000041 	adrp	x1, b000 <__func__.3755+0x98>
    1554:	d0000040 	adrp	x0, b000 <__func__.3755+0x98>
    1558:	9107c421 	add	x1, x1, #0x1f1
    155c:	91068800 	add	x0, x0, #0x1a2
    1560:	52803942 	mov	w2, #0x1ca                 	// #458
    1564:	940003fb 	bl	2550 <_assert_log>
    1568:	9400040b 	bl	2594 <_assert_break>
bpool_foreach_pool():
/home/hei/Desktop/optee-qemu/optee_os/lib/libutils/isoc/bget_malloc.c:311
    156c:	f9400c67 	ldr	x7, [x3, #24]
    1570:	f94008e7 	ldr	x7, [x7, #16]
    1574:	eb0300ff 	cmp	x7, x3
    1578:	54000160 	b.eq	15a4 <malloc_buffer_is_within_alloced+0xf8>  // b.none
    157c:	b0000043 	adrp	x3, a000 <__text_end+0x12f4>
    1580:	913c8c63 	add	x3, x3, #0xf23
    1584:	91011463 	add	x3, x3, #0x45
    1588:	d0000041 	adrp	x1, b000 <__func__.3755+0x98>
    158c:	b0000040 	adrp	x0, a000 <__text_end+0x12f4>
    1590:	9107c421 	add	x1, x1, #0x1f1
    1594:	913f3000 	add	x0, x0, #0xfcc
    1598:	528026e2 	mov	w2, #0x137                 	// #311
    159c:	940003ed 	bl	2550 <_assert_log>
    15a0:	940003fd 	bl	2594 <_assert_break>
/home/hei/Desktop/optee-qemu/optee_os/lib/libutils/isoc/bget_malloc.c:312
    15a4:	f9400867 	ldr	x7, [x3, #16]
    15a8:	f9400ce7 	ldr	x7, [x7, #24]
    15ac:	eb0300ff 	cmp	x7, x3
    15b0:	54000160 	b.eq	15dc <malloc_buffer_is_within_alloced+0x130>  // b.none
    15b4:	b0000043 	adrp	x3, a000 <__text_end+0x12f4>
    15b8:	913c8c63 	add	x3, x3, #0xf23
    15bc:	91011463 	add	x3, x3, #0x45
    15c0:	d0000041 	adrp	x1, b000 <__func__.3755+0x98>
    15c4:	b0000040 	adrp	x0, a000 <__text_end+0x12f4>
    15c8:	9107c421 	add	x1, x1, #0x1f1
    15cc:	913f9c00 	add	x0, x0, #0xfe7
    15d0:	52802702 	mov	w2, #0x138                 	// #312
    15d4:	940003df 	bl	2550 <_assert_log>
    15d8:	940003ef 	bl	2594 <_assert_break>
    15dc:	aa0203e8 	mov	x8, x2
/home/hei/Desktop/optee-qemu/optee_os/lib/libutils/isoc/bget_malloc.c:308
    15e0:	52800027 	mov	w7, #0x1                   	// #1
    15e4:	17ffffd3 	b	1530 <malloc_buffer_is_within_alloced+0x84>
bpool_foreach():
/home/hei/Desktop/optee-qemu/optee_os/lib/libutils/isoc/bget_malloc.c:339
    15e8:	d37ceca0 	lsl	x0, x5, #4
    15ec:	f86068c3 	ldr	x3, [x6, x0]
    15f0:	17ffffc9 	b	1514 <malloc_buffer_is_within_alloced+0x68>
/home/hei/Desktop/optee-qemu/optee_os/lib/libutils/isoc/bget_malloc.c:335
    15f4:	910004a5 	add	x5, x5, #0x1
    15f8:	eb0900bf 	cmp	x5, x9
    15fc:	54ffff63 	b.cc	15e8 <malloc_buffer_is_within_alloced+0x13c>  // b.lo, b.ul, b.last
gen_malloc_buffer_is_within_alloced():
/home/hei/Desktop/optee-qemu/optee_os/lib/libutils/isoc/bget_malloc.c:774
    1600:	52800000 	mov	w0, #0x0                   	// #0
malloc_buffer_is_within_alloced():
/home/hei/Desktop/optee-qemu/optee_os/lib/libutils/isoc/bget_malloc.c:842
    1604:	a8c17bfd 	ldp	x29, x30, [sp], #16
    1608:	d65f03c0 	ret
bpool_foreach():
/home/hei/Desktop/optee-qemu/optee_os/lib/libutils/isoc/bget_malloc.c:339
    160c:	d37ceca0 	lsl	x0, x5, #4
    1610:	f86068c3 	ldr	x3, [x6, x0]
    1614:	17ffffb1 	b	14d8 <malloc_buffer_is_within_alloced+0x2c>
/home/hei/Desktop/optee-qemu/optee_os/lib/libutils/isoc/bget_malloc.c:335
    1618:	910004a5 	add	x5, x5, #0x1
    161c:	eb0900bf 	cmp	x5, x9
    1620:	54ffff63 	b.cc	160c <malloc_buffer_is_within_alloced+0x160>  // b.lo, b.ul, b.last
gen_malloc_buffer_is_within_alloced():
/home/hei/Desktop/optee-qemu/optee_os/lib/libutils/isoc/bget_malloc.c:774
    1624:	52800000 	mov	w0, #0x0                   	// #0
malloc_buffer_is_within_alloced():
/home/hei/Desktop/optee-qemu/optee_os/lib/libutils/isoc/bget_malloc.c:842
    1628:	d65f03c0 	ret

000000000000162c <malloc_buffer_overlaps_heap>:
gen_malloc_buffer_overlaps_heap():
/home/hei/Desktop/optee-qemu/optee_os/lib/libutils/isoc/bget_malloc.c:814
    162c:	f0000042 	adrp	x2, c000 <_DYNAMIC>
    1630:	910fc042 	add	x2, x2, #0x3f0
/home/hei/Desktop/optee-qemu/optee_os/lib/libutils/isoc/bget_malloc.c:807
    1634:	8b010001 	add	x1, x0, x1
/home/hei/Desktop/optee-qemu/optee_os/lib/libutils/isoc/bget_malloc.c:814
    1638:	d2800005 	mov	x5, #0x0                   	// #0
    163c:	a9439c43 	ldp	x3, x7, [x2, #56]
    1640:	eb0700bf 	cmp	x5, x7
    1644:	54000081 	b.ne	1654 <malloc_buffer_overlaps_heap+0x28>  // b.any
/home/hei/Desktop/optee-qemu/optee_os/lib/libutils/isoc/bget_malloc.c:809
    1648:	52800002 	mov	w2, #0x0                   	// #0
malloc_buffer_overlaps_heap():
/home/hei/Desktop/optee-qemu/optee_os/lib/libutils/isoc/bget_malloc.c:847
    164c:	2a0203e0 	mov	w0, w2
    1650:	d65f03c0 	ret
gen_malloc_buffer_overlaps_heap():
/home/hei/Desktop/optee-qemu/optee_os/lib/libutils/isoc/bget_malloc.c:816
    1654:	a9401066 	ldp	x6, x4, [x3]
/home/hei/Desktop/optee-qemu/optee_os/lib/libutils/isoc/bget_malloc.c:818
    1658:	eb01001f 	cmp	x0, x1
    165c:	1a9f97e2 	cset	w2, hi  // hi = pmore
/home/hei/Desktop/optee-qemu/optee_os/lib/libutils/isoc/bget_malloc.c:816
    1660:	8b0400c4 	add	x4, x6, x4
/home/hei/Desktop/optee-qemu/optee_os/lib/libutils/isoc/bget_malloc.c:818
    1664:	eb0400df 	cmp	x6, x4
    1668:	1a9f97e8 	cset	w8, hi  // hi = pmore
    166c:	2a080042 	orr	w2, w2, w8
    1670:	35fffee2 	cbnz	w2, 164c <malloc_buffer_overlaps_heap+0x20>
/home/hei/Desktop/optee-qemu/optee_os/lib/libutils/isoc/bget_malloc.c:823
    1674:	eb06003f 	cmp	x1, x6
    1678:	91004063 	add	x3, x3, #0x10
    167c:	1a9f97e2 	cset	w2, hi  // hi = pmore
    1680:	eb04001f 	cmp	x0, x4
    1684:	1a9f27e4 	cset	w4, cc  // cc = lo, ul, last
    1688:	2a040042 	orr	w2, w2, w4
    168c:	35fffe02 	cbnz	w2, 164c <malloc_buffer_overlaps_heap+0x20>
/home/hei/Desktop/optee-qemu/optee_os/lib/libutils/isoc/bget_malloc.c:814
    1690:	910004a5 	add	x5, x5, #0x1
    1694:	17ffffeb 	b	1640 <malloc_buffer_overlaps_heap+0x14>

0000000000001698 <memset>:
memset():
/home/hei/Desktop/optee-qemu/optee_os/lib/libutils/isoc/newlib/memset.c:125
    1698:	d2800003 	mov	x3, #0x0                   	// #0
    169c:	eb03005f 	cmp	x2, x3
    16a0:	54000041 	b.ne	16a8 <memset+0x10>  // b.any
/home/hei/Desktop/optee-qemu/optee_os/lib/libutils/isoc/newlib/memset.c:129
    16a4:	d65f03c0 	ret
/home/hei/Desktop/optee-qemu/optee_os/lib/libutils/isoc/newlib/memset.c:126
    16a8:	38236801 	strb	w1, [x0, x3]
    16ac:	91000463 	add	x3, x3, #0x1
    16b0:	17fffffb 	b	169c <memset+0x4>

00000000000016b4 <__vsnprintf>:
__vsnprintf():
/home/hei/Desktop/optee-qemu/optee_os/lib/libutils/ext/snprintk.c:137
    16b4:	d10403ff 	sub	sp, sp, #0x100
    16b8:	aa0203e9 	mov	x9, x2
kprintf():
/home/hei/Desktop/optee-qemu/optee_os/lib/libutils/ext/snprintk.c:537
    16bc:	910363ed 	add	x13, sp, #0xd8
__vsnprintf():
/home/hei/Desktop/optee-qemu/optee_os/lib/libutils/ext/snprintk.c:137
    16c0:	a9037bfd 	stp	x29, x30, [sp, #48]
    16c4:	9100c3fd 	add	x29, sp, #0x30
    16c8:	a90987e0 	stp	x0, x1, [sp, #152]
    16cc:	12001c80 	and	w0, w4, #0xff
    16d0:	a90453f3 	stp	x19, x20, [sp, #64]
    16d4:	b9401874 	ldr	w20, [x3, #24]
    16d8:	a90873fb 	stp	x27, x28, [sp, #128]
    16dc:	b900afe0 	str	w0, [sp, #172]
    16e0:	a9407073 	ldp	x19, x28, [x3]
    16e4:	a9076bf9 	stp	x25, x26, [sp, #112]
kprintf():
/home/hei/Desktop/optee-qemu/optee_os/lib/libutils/ext/snprintk.c:267
    16e8:	5280001a 	mov	w26, #0x0                   	// #0
__vsnprintf():
/home/hei/Desktop/optee-qemu/optee_os/lib/libutils/ext/snprintk.c:141
    16ec:	f9404fe0 	ldr	x0, [sp, #152]
/home/hei/Desktop/optee-qemu/optee_os/lib/libutils/ext/snprintk.c:137
    16f0:	a9055bf5 	stp	x21, x22, [sp, #80]
kprintf():
/home/hei/Desktop/optee-qemu/optee_os/lib/libutils/ext/snprintk.c:269
    16f4:	d2800016 	mov	x22, #0x0                   	// #0
__vsnprintf():
/home/hei/Desktop/optee-qemu/optee_os/lib/libutils/ext/snprintk.c:141
    16f8:	8b010019 	add	x25, x0, x1
    16fc:	aa0003fb 	mov	x27, x0
/home/hei/Desktop/optee-qemu/optee_os/lib/libutils/ext/snprintk.c:137
    1700:	a90663f7 	stp	x23, x24, [sp, #96]
kprintf():
/home/hei/Desktop/optee-qemu/optee_os/lib/libutils/ext/snprintk.c:275
    1704:	39400120 	ldrb	w0, [x9]
    1708:	7100941f 	cmp	w0, #0x25
    170c:	7a401804 	ccmp	w0, #0x0, #0x4, ne  // ne = any
    1710:	540003c1 	b.ne	1788 <__vsnprintf+0xd4>  // b.any
/home/hei/Desktop/optee-qemu/optee_os/lib/libutils/ext/snprintk.c:279
    1714:	34005be0 	cbz	w0, 2290 <__vsnprintf+0xbdc>
/home/hei/Desktop/optee-qemu/optee_os/lib/libutils/ext/snprintk.c:287
    1718:	12800003 	mov	w3, #0xffffffff            	// #-1
/home/hei/Desktop/optee-qemu/optee_os/lib/libutils/ext/snprintk.c:282
    171c:	91000529 	add	x9, x9, #0x1
    1720:	2a1403e1 	mov	w1, w20
    1724:	aa1303e0 	mov	x0, x19
/home/hei/Desktop/optee-qemu/optee_os/lib/libutils/ext/snprintk.c:324
    1728:	2a0303e6 	mov	w6, w3
/home/hei/Desktop/optee-qemu/optee_os/lib/libutils/ext/snprintk.c:288
    172c:	52800002 	mov	w2, #0x0                   	// #0
/home/hei/Desktop/optee-qemu/optee_os/lib/libutils/ext/snprintk.c:286
    1730:	52800017 	mov	w23, #0x0                   	// #0
/home/hei/Desktop/optee-qemu/optee_os/lib/libutils/ext/snprintk.c:284
    1734:	52800015 	mov	w21, #0x0                   	// #0
/home/hei/Desktop/optee-qemu/optee_os/lib/libutils/ext/snprintk.c:299
    1738:	52800407 	mov	w7, #0x20                  	// #32
/home/hei/Desktop/optee-qemu/optee_os/lib/libutils/ext/snprintk.c:290
    173c:	38401538 	ldrb	w24, [x9], #1
/home/hei/Desktop/optee-qemu/optee_os/lib/libutils/ext/snprintk.c:291
    1740:	71018f1f 	cmp	w24, #0x63
    1744:	540019e0 	b.eq	1a80 <__vsnprintf+0x3cc>  // b.none
    1748:	540007ec 	b.gt	1844 <__vsnprintf+0x190>
    174c:	7100c31f 	cmp	w24, #0x30
    1750:	540017c0 	b.eq	1a48 <__vsnprintf+0x394>  // b.none
    1754:	5400038c 	b.gt	17c4 <__vsnprintf+0x110>
    1758:	7100ab1f 	cmp	w24, #0x2a
    175c:	54001100 	b.eq	197c <__vsnprintf+0x2c8>  // b.none
    1760:	5400022c 	b.gt	17a4 <__vsnprintf+0xf0>
    1764:	7100831f 	cmp	w24, #0x20
    1768:	54001000 	b.eq	1968 <__vsnprintf+0x2b4>  // b.none
    176c:	71008f1f 	cmp	w24, #0x23
    1770:	54001020 	b.eq	1974 <__vsnprintf+0x2c0>  // b.none
/home/hei/Desktop/optee-qemu/optee_os/lib/libutils/ext/snprintk.c:541
    1774:	340058f8 	cbz	w24, 2290 <__vsnprintf+0xbdc>
/home/hei/Desktop/optee-qemu/optee_os/lib/libutils/ext/snprintk.c:545
    1778:	2a0103f4 	mov	w20, w1
    177c:	aa0003f3 	mov	x19, x0
    1780:	390363f8 	strb	w24, [sp, #216]
/home/hei/Desktop/optee-qemu/optee_os/lib/libutils/ext/snprintk.c:548
    1784:	140000c5 	b	1a98 <__vsnprintf+0x3e4>
/home/hei/Desktop/optee-qemu/optee_os/lib/libutils/ext/snprintk.c:276
    1788:	1100075a 	add	w26, w26, #0x1
/home/hei/Desktop/optee-qemu/optee_os/lib/libutils/ext/snprintk.c:277
    178c:	b400009b 	cbz	x27, 179c <__vsnprintf+0xe8>
    1790:	eb1b033f 	cmp	x25, x27
    1794:	54000049 	b.ls	179c <__vsnprintf+0xe8>  // b.plast
    1798:	38001760 	strb	w0, [x27], #1
/home/hei/Desktop/optee-qemu/optee_os/lib/libutils/ext/snprintk.c:275
    179c:	91000529 	add	x9, x9, #0x1
    17a0:	17ffffd9 	b	1704 <__vsnprintf+0x50>
/home/hei/Desktop/optee-qemu/optee_os/lib/libutils/ext/snprintk.c:291
    17a4:	7100b71f 	cmp	w24, #0x2d
    17a8:	54000f80 	b.eq	1998 <__vsnprintf+0x2e4>  // b.none
    17ac:	7100bb1f 	cmp	w24, #0x2e
    17b0:	540010e0 	b.eq	19cc <__vsnprintf+0x318>  // b.none
    17b4:	7100af1f 	cmp	w24, #0x2b
    17b8:	54fffde1 	b.ne	1774 <__vsnprintf+0xc0>  // b.any
/home/hei/Desktop/optee-qemu/optee_os/lib/libutils/ext/snprintk.c:319
    17bc:	2a1803e2 	mov	w2, w24
    17c0:	17ffffdf 	b	173c <__vsnprintf+0x88>
/home/hei/Desktop/optee-qemu/optee_os/lib/libutils/ext/snprintk.c:291
    17c4:	7101131f 	cmp	w24, #0x44
    17c8:	54001840 	b.eq	1ad0 <__vsnprintf+0x41c>  // b.none
    17cc:	5400018c 	b.gt	17fc <__vsnprintf+0x148>
    17d0:	7100e71f 	cmp	w24, #0x39
    17d4:	54fffd0c 	b.gt	1774 <__vsnprintf+0xc0>
/home/hei/Desktop/optee-qemu/optee_os/lib/libutils/ext/snprintk.c:344
    17d8:	52800017 	mov	w23, #0x0                   	// #0
/home/hei/Desktop/optee-qemu/optee_os/lib/libutils/ext/snprintk.c:346
    17dc:	5100c308 	sub	w8, w24, #0x30
    17e0:	52800144 	mov	w4, #0xa                   	// #10
/home/hei/Desktop/optee-qemu/optee_os/lib/libutils/ext/snprintk.c:347
    17e4:	38401538 	ldrb	w24, [x9], #1
/home/hei/Desktop/optee-qemu/optee_os/lib/libutils/ext/snprintk.c:346
    17e8:	1b0422f7 	madd	w23, w23, w4, w8
/home/hei/Desktop/optee-qemu/optee_os/lib/libutils/ext/snprintk.c:348
    17ec:	5100c304 	sub	w4, w24, #0x30
    17f0:	7100249f 	cmp	w4, #0x9
    17f4:	54ffff49 	b.ls	17dc <__vsnprintf+0x128>  // b.plast
    17f8:	17ffffd2 	b	1740 <__vsnprintf+0x8c>
/home/hei/Desktop/optee-qemu/optee_os/lib/libutils/ext/snprintk.c:291
    17fc:	7101571f 	cmp	w24, #0x55
    1800:	54003e20 	b.eq	1fc4 <__vsnprintf+0x910>  // b.none
    1804:	7101631f 	cmp	w24, #0x58
    1808:	540043a0 	b.eq	207c <__vsnprintf+0x9c8>  // b.none
    180c:	71013f1f 	cmp	w24, #0x4f
    1810:	54fffb21 	b.ne	1774 <__vsnprintf+0xc0>  // b.any
/home/hei/Desktop/optee-qemu/optee_os/lib/libutils/ext/snprintk.c:408
    1814:	321c02b5 	orr	w21, w21, #0x10
/home/hei/Desktop/optee-qemu/optee_os/lib/libutils/ext/snprintk.c:411
    1818:	36382675 	tbz	w21, #7, 1ce4 <__vsnprintf+0x630>
    181c:	37f827a1 	tbnz	w1, #31, 1d10 <__vsnprintf+0x65c>
    1820:	91003c13 	add	x19, x0, #0xf
    1824:	2a0103f4 	mov	w20, w1
    1828:	927df273 	and	x19, x19, #0xfffffffffffffff8
    182c:	f9400000 	ldr	x0, [x0]
/home/hei/Desktop/optee-qemu/optee_os/lib/libutils/ext/snprintk.c:488
    1830:	52800002 	mov	w2, #0x0                   	// #0
    1834:	3100047f 	cmn	w3, #0x1
    1838:	540016e0 	b.eq	1b14 <__vsnprintf+0x460>  // b.none
    183c:	52800001 	mov	w1, #0x0                   	// #0
    1840:	1400024e 	b	2178 <__vsnprintf+0xac4>
/home/hei/Desktop/optee-qemu/optee_os/lib/libutils/ext/snprintk.c:291
    1844:	7101bf1f 	cmp	w24, #0x6f
    1848:	54fffe80 	b.eq	1818 <__vsnprintf+0x164>  // b.none
    184c:	5400024c 	b.gt	1894 <__vsnprintf+0x1e0>
    1850:	7101a71f 	cmp	w24, #0x69
    1854:	54001400 	b.eq	1ad4 <__vsnprintf+0x420>  // b.none
    1858:	540000ec 	b.gt	1874 <__vsnprintf+0x1c0>
    185c:	7101931f 	cmp	w24, #0x64
    1860:	540013a0 	b.eq	1ad4 <__vsnprintf+0x420>  // b.none
    1864:	7101a31f 	cmp	w24, #0x68
    1868:	54fff861 	b.ne	1774 <__vsnprintf+0xc0>  // b.any
/home/hei/Desktop/optee-qemu/optee_os/lib/libutils/ext/snprintk.c:352
    186c:	321a02b5 	orr	w21, w21, #0x40
/home/hei/Desktop/optee-qemu/optee_os/lib/libutils/ext/snprintk.c:353
    1870:	17ffffb3 	b	173c <__vsnprintf+0x88>
/home/hei/Desktop/optee-qemu/optee_os/lib/libutils/ext/snprintk.c:291
    1874:	7101b31f 	cmp	w24, #0x6c
    1878:	54000ec0 	b.eq	1a50 <__vsnprintf+0x39c>  // b.none
    187c:	7101bb1f 	cmp	w24, #0x6e
    1880:	54001c40 	b.eq	1c08 <__vsnprintf+0x554>  // b.none
    1884:	7101ab1f 	cmp	w24, #0x6a
    1888:	54fff761 	b.ne	1774 <__vsnprintf+0xc0>  // b.any
/home/hei/Desktop/optee-qemu/optee_os/lib/libutils/ext/snprintk.c:355
    188c:	321902b5 	orr	w21, w21, #0x80
/home/hei/Desktop/optee-qemu/optee_os/lib/libutils/ext/snprintk.c:356
    1890:	17ffffab 	b	173c <__vsnprintf+0x88>
/home/hei/Desktop/optee-qemu/optee_os/lib/libutils/ext/snprintk.c:291
    1894:	7101d31f 	cmp	w24, #0x74
    1898:	54000ec0 	b.eq	1a70 <__vsnprintf+0x3bc>  // b.none
    189c:	5400042c 	b.gt	1920 <__vsnprintf+0x26c>
    18a0:	7101c71f 	cmp	w24, #0x71
    18a4:	54000de0 	b.eq	1a60 <__vsnprintf+0x3ac>  // b.none
    18a8:	5400276b 	b.lt	1d94 <__vsnprintf+0x6e0>  // b.tstop
    18ac:	7101cf1f 	cmp	w24, #0x73
    18b0:	54fff621 	b.ne	1774 <__vsnprintf+0xc0>  // b.any
/home/hei/Desktop/optee-qemu/optee_os/lib/libutils/ext/snprintk.c:442
    18b4:	37f83621 	tbnz	w1, #31, 1f78 <__vsnprintf+0x8c4>
    18b8:	91003c13 	add	x19, x0, #0xf
    18bc:	2a0103f4 	mov	w20, w1
    18c0:	927df273 	and	x19, x19, #0xfffffffffffffff8
    18c4:	f9400004 	ldr	x4, [x0]
    18c8:	b5000064 	cbnz	x4, 18d4 <__vsnprintf+0x220>
/home/hei/Desktop/optee-qemu/optee_os/lib/libutils/ext/snprintk.c:444
    18cc:	d0000044 	adrp	x4, b000 <__func__.3755+0x98>
    18d0:	91095c84 	add	x4, x4, #0x257
/home/hei/Desktop/optee-qemu/optee_os/lib/libutils/ext/snprintk.c:445
    18d4:	3100047f 	cmn	w3, #0x1
    18d8:	54003620 	b.eq	1f9c <__vsnprintf+0x8e8>  // b.none
/home/hei/Desktop/optee-qemu/optee_os/lib/libutils/ext/snprintk.c:451
    18dc:	93407c62 	sxtw	x2, w3
    18e0:	aa0403e0 	mov	x0, x4
    18e4:	52800001 	mov	w1, #0x0                   	// #0
    18e8:	f9005be4 	str	x4, [sp, #176]
    18ec:	b900bbe3 	str	w3, [sp, #184]
    18f0:	a90c37e9 	stp	x9, x13, [sp, #192]
    18f4:	940002af 	bl	23b0 <memchr>
/home/hei/Desktop/optee-qemu/optee_os/lib/libutils/ext/snprintk.c:453
    18f8:	b940bbe3 	ldr	w3, [sp, #184]
    18fc:	f9405be4 	ldr	x4, [sp, #176]
    1900:	a94c37e9 	ldp	x9, x13, [sp, #192]
    1904:	b4000080 	cbz	x0, 1914 <__vsnprintf+0x260>
/home/hei/Desktop/optee-qemu/optee_os/lib/libutils/ext/snprintk.c:454
    1908:	cb040000 	sub	x0, x0, x4
    190c:	6b00007f 	cmp	w3, w0
    1910:	1a80d063 	csel	w3, w3, w0, le
/home/hei/Desktop/optee-qemu/optee_os/lib/libutils/ext/snprintk.c:285
    1914:	52800001 	mov	w1, #0x0                   	// #0
/home/hei/Desktop/optee-qemu/optee_os/lib/libutils/ext/snprintk.c:461
    1918:	52800002 	mov	w2, #0x0                   	// #0
    191c:	14000148 	b	1e3c <__vsnprintf+0x788>
/home/hei/Desktop/optee-qemu/optee_os/lib/libutils/ext/snprintk.c:291
    1920:	7101e31f 	cmp	w24, #0x78
    1924:	54003ca0 	b.eq	20b8 <__vsnprintf+0xa04>  // b.none
    1928:	7101eb1f 	cmp	w24, #0x7a
    192c:	54000a60 	b.eq	1a78 <__vsnprintf+0x3c4>  // b.none
    1930:	7101d71f 	cmp	w24, #0x75
    1934:	54fff201 	b.ne	1774 <__vsnprintf+0xc0>  // b.any
/home/hei/Desktop/optee-qemu/optee_os/lib/libutils/ext/snprintk.c:467
    1938:	363834b5 	tbz	w21, #7, 1fcc <__vsnprintf+0x918>
    193c:	37f835e1 	tbnz	w1, #31, 1ff8 <__vsnprintf+0x944>
    1940:	91003c13 	add	x19, x0, #0xf
    1944:	2a0103f4 	mov	w20, w1
    1948:	927df273 	and	x19, x19, #0xfffffffffffffff8
    194c:	f9400000 	ldr	x0, [x0]
/home/hei/Desktop/optee-qemu/optee_os/lib/libutils/ext/snprintk.c:482
    1950:	52800002 	mov	w2, #0x0                   	// #0
/home/hei/Desktop/optee-qemu/optee_os/lib/libutils/ext/snprintk.c:488
    1954:	3100047f 	cmn	w3, #0x1
    1958:	540041e1 	b.ne	2194 <__vsnprintf+0xae0>  // b.any
/home/hei/Desktop/optee-qemu/optee_os/lib/libutils/ext/snprintk.c:508
    195c:	910095a1 	add	x1, x13, #0x25
/home/hei/Desktop/optee-qemu/optee_os/lib/libutils/ext/snprintk.c:517
    1960:	d2800145 	mov	x5, #0xa                   	// #10
    1964:	14000216 	b	21bc <__vsnprintf+0xb08>
/home/hei/Desktop/optee-qemu/optee_os/lib/libutils/ext/snprintk.c:299
    1968:	7100005f 	cmp	w2, #0x0
    196c:	1a871042 	csel	w2, w2, w7, ne  // ne = any
    1970:	17ffff73 	b	173c <__vsnprintf+0x88>
/home/hei/Desktop/optee-qemu/optee_os/lib/libutils/ext/snprintk.c:302
    1974:	320002b5 	orr	w21, w21, #0x1
/home/hei/Desktop/optee-qemu/optee_os/lib/libutils/ext/snprintk.c:303
    1978:	17ffff71 	b	173c <__vsnprintf+0x88>
/home/hei/Desktop/optee-qemu/optee_os/lib/libutils/ext/snprintk.c:311
    197c:	37f80121 	tbnz	w1, #31, 19a0 <__vsnprintf+0x2ec>
    1980:	91002c05 	add	x5, x0, #0xb
    1984:	aa0003e4 	mov	x4, x0
    1988:	927df0a0 	and	x0, x5, #0xfffffffffffffff8
    198c:	b9400097 	ldr	w23, [x4]
    1990:	36ffed77 	tbz	w23, #31, 173c <__vsnprintf+0x88>
/home/hei/Desktop/optee-qemu/optee_os/lib/libutils/ext/snprintk.c:313
    1994:	4b1703f7 	neg	w23, w23
/home/hei/Desktop/optee-qemu/optee_os/lib/libutils/ext/snprintk.c:316
    1998:	321e02b5 	orr	w21, w21, #0x4
/home/hei/Desktop/optee-qemu/optee_os/lib/libutils/ext/snprintk.c:317
    199c:	17ffff68 	b	173c <__vsnprintf+0x88>
/home/hei/Desktop/optee-qemu/optee_os/lib/libutils/ext/snprintk.c:311
    19a0:	11002025 	add	w5, w1, #0x8
    19a4:	710000bf 	cmp	w5, #0x0
    19a8:	540000cd 	b.le	19c0 <__vsnprintf+0x30c>
    19ac:	91002c08 	add	x8, x0, #0xb
    19b0:	aa0003e4 	mov	x4, x0
    19b4:	2a0503e1 	mov	w1, w5
    19b8:	927df100 	and	x0, x8, #0xfffffffffffffff8
    19bc:	17fffff4 	b	198c <__vsnprintf+0x2d8>
    19c0:	8b21c384 	add	x4, x28, w1, sxtw
    19c4:	2a0503e1 	mov	w1, w5
    19c8:	17fffff1 	b	198c <__vsnprintf+0x2d8>
/home/hei/Desktop/optee-qemu/optee_os/lib/libutils/ext/snprintk.c:322
    19cc:	38401538 	ldrb	w24, [x9], #1
    19d0:	7100ab1f 	cmp	w24, #0x2a
    19d4:	54000361 	b.ne	1a40 <__vsnprintf+0x38c>  // b.any
/home/hei/Desktop/optee-qemu/optee_os/lib/libutils/ext/snprintk.c:323
    19d8:	37f80141 	tbnz	w1, #31, 1a00 <__vsnprintf+0x34c>
    19dc:	91002c04 	add	x4, x0, #0xb
    19e0:	2a0103e5 	mov	w5, w1
    19e4:	927df084 	and	x4, x4, #0xfffffffffffffff8
/home/hei/Desktop/optee-qemu/optee_os/lib/libutils/ext/snprintk.c:324
    19e8:	b9400003 	ldr	w3, [x0]
    19ec:	2a0503e1 	mov	w1, w5
    19f0:	aa0403e0 	mov	x0, x4
    19f4:	7100007f 	cmp	w3, #0x0
    19f8:	1a86a063 	csel	w3, w3, w6, ge  // ge = tcont
/home/hei/Desktop/optee-qemu/optee_os/lib/libutils/ext/snprintk.c:325
    19fc:	17ffff50 	b	173c <__vsnprintf+0x88>
/home/hei/Desktop/optee-qemu/optee_os/lib/libutils/ext/snprintk.c:323
    1a00:	11002025 	add	w5, w1, #0x8
    1a04:	710000bf 	cmp	w5, #0x0
    1a08:	5400008d 	b.le	1a18 <__vsnprintf+0x364>
    1a0c:	91002c04 	add	x4, x0, #0xb
    1a10:	927df084 	and	x4, x4, #0xfffffffffffffff8
    1a14:	17fffff5 	b	19e8 <__vsnprintf+0x334>
    1a18:	aa0003e4 	mov	x4, x0
    1a1c:	8b21c380 	add	x0, x28, w1, sxtw
    1a20:	17fffff2 	b	19e8 <__vsnprintf+0x334>
/home/hei/Desktop/optee-qemu/optee_os/lib/libutils/ext/snprintk.c:329
    1a24:	52800145 	mov	w5, #0xa                   	// #10
/home/hei/Desktop/optee-qemu/optee_os/lib/libutils/ext/snprintk.c:330
    1a28:	38401538 	ldrb	w24, [x9], #1
/home/hei/Desktop/optee-qemu/optee_os/lib/libutils/ext/snprintk.c:329
    1a2c:	1b051063 	madd	w3, w3, w5, w4
/home/hei/Desktop/optee-qemu/optee_os/lib/libutils/ext/snprintk.c:328
    1a30:	5100c304 	sub	w4, w24, #0x30
    1a34:	7100249f 	cmp	w4, #0x9
    1a38:	54ffff69 	b.ls	1a24 <__vsnprintf+0x370>  // b.plast
    1a3c:	17ffff41 	b	1740 <__vsnprintf+0x8c>
/home/hei/Desktop/optee-qemu/optee_os/lib/libutils/ext/snprintk.c:327
    1a40:	52800003 	mov	w3, #0x0                   	// #0
    1a44:	17fffffb 	b	1a30 <__vsnprintf+0x37c>
/home/hei/Desktop/optee-qemu/optee_os/lib/libutils/ext/snprintk.c:340
    1a48:	321602b5 	orr	w21, w21, #0x400
/home/hei/Desktop/optee-qemu/optee_os/lib/libutils/ext/snprintk.c:341
    1a4c:	17ffff3c 	b	173c <__vsnprintf+0x88>
/home/hei/Desktop/optee-qemu/optee_os/lib/libutils/ext/snprintk.c:358
    1a50:	39400124 	ldrb	w4, [x9]
    1a54:	7101b09f 	cmp	w4, #0x6c
    1a58:	54000081 	b.ne	1a68 <__vsnprintf+0x3b4>  // b.any
    1a5c:	91000529 	add	x9, x9, #0x1
/home/hei/Desktop/optee-qemu/optee_os/lib/libutils/ext/snprintk.c:366
    1a60:	321b02b5 	orr	w21, w21, #0x20
/home/hei/Desktop/optee-qemu/optee_os/lib/libutils/ext/snprintk.c:367
    1a64:	17ffff36 	b	173c <__vsnprintf+0x88>
/home/hei/Desktop/optee-qemu/optee_os/lib/libutils/ext/snprintk.c:362
    1a68:	321c02b5 	orr	w21, w21, #0x10
    1a6c:	17ffff34 	b	173c <__vsnprintf+0x88>
/home/hei/Desktop/optee-qemu/optee_os/lib/libutils/ext/snprintk.c:369
    1a70:	321802b5 	orr	w21, w21, #0x100
/home/hei/Desktop/optee-qemu/optee_os/lib/libutils/ext/snprintk.c:370
    1a74:	17ffff32 	b	173c <__vsnprintf+0x88>
/home/hei/Desktop/optee-qemu/optee_os/lib/libutils/ext/snprintk.c:372
    1a78:	321702b5 	orr	w21, w21, #0x200
/home/hei/Desktop/optee-qemu/optee_os/lib/libutils/ext/snprintk.c:373
    1a7c:	17ffff30 	b	173c <__vsnprintf+0x88>
/home/hei/Desktop/optee-qemu/optee_os/lib/libutils/ext/snprintk.c:375
    1a80:	37f80161 	tbnz	w1, #31, 1aac <__vsnprintf+0x3f8>
    1a84:	91002c13 	add	x19, x0, #0xb
    1a88:	2a0103f4 	mov	w20, w1
    1a8c:	927df273 	and	x19, x19, #0xfffffffffffffff8
    1a90:	b9400000 	ldr	w0, [x0]
    1a94:	390363e0 	strb	w0, [sp, #216]
/home/hei/Desktop/optee-qemu/optee_os/lib/libutils/ext/snprintk.c:546
    1a98:	52800023 	mov	w3, #0x1                   	// #1
/home/hei/Desktop/optee-qemu/optee_os/lib/libutils/ext/snprintk.c:285
    1a9c:	52800001 	mov	w1, #0x0                   	// #0
/home/hei/Desktop/optee-qemu/optee_os/lib/libutils/ext/snprintk.c:547
    1aa0:	52800002 	mov	w2, #0x0                   	// #0
/home/hei/Desktop/optee-qemu/optee_os/lib/libutils/ext/snprintk.c:544
    1aa4:	910363e4 	add	x4, sp, #0xd8
    1aa8:	140000e5 	b	1e3c <__vsnprintf+0x788>
/home/hei/Desktop/optee-qemu/optee_os/lib/libutils/ext/snprintk.c:375
    1aac:	11002034 	add	w20, w1, #0x8
    1ab0:	7100029f 	cmp	w20, #0x0
    1ab4:	5400008d 	b.le	1ac4 <__vsnprintf+0x410>
    1ab8:	91002c13 	add	x19, x0, #0xb
    1abc:	927df273 	and	x19, x19, #0xfffffffffffffff8
    1ac0:	17fffff4 	b	1a90 <__vsnprintf+0x3dc>
    1ac4:	aa0003f3 	mov	x19, x0
    1ac8:	8b21c380 	add	x0, x28, w1, sxtw
    1acc:	17fffff1 	b	1a90 <__vsnprintf+0x3dc>
/home/hei/Desktop/optee-qemu/optee_os/lib/libutils/ext/snprintk.c:380
    1ad0:	321c02b5 	orr	w21, w21, #0x10
/home/hei/Desktop/optee-qemu/optee_os/lib/libutils/ext/snprintk.c:384
    1ad4:	36380435 	tbz	w21, #7, 1b58 <__vsnprintf+0x4a4>
    1ad8:	37f80561 	tbnz	w1, #31, 1b84 <__vsnprintf+0x4d0>
    1adc:	91003c13 	add	x19, x0, #0xf
    1ae0:	2a0103f4 	mov	w20, w1
    1ae4:	927df273 	and	x19, x19, #0xfffffffffffffff8
    1ae8:	f9400000 	ldr	x0, [x0]
/home/hei/Desktop/optee-qemu/optee_os/lib/libutils/ext/snprintk.c:385
    1aec:	b6fff340 	tbz	x0, #63, 1954 <__vsnprintf+0x2a0>
/home/hei/Desktop/optee-qemu/optee_os/lib/libutils/ext/snprintk.c:386
    1af0:	cb0003e0 	neg	x0, x0
/home/hei/Desktop/optee-qemu/optee_os/lib/libutils/ext/snprintk.c:389
    1af4:	52800021 	mov	w1, #0x1                   	// #1
/home/hei/Desktop/optee-qemu/optee_os/lib/libutils/ext/snprintk.c:387
    1af8:	528005a2 	mov	w2, #0x2d                  	// #45
/home/hei/Desktop/optee-qemu/optee_os/lib/libutils/ext/snprintk.c:488
    1afc:	3100047f 	cmn	w3, #0x1
    1b00:	540033c1 	b.ne	2178 <__vsnprintf+0xac4>  // b.any
/home/hei/Desktop/optee-qemu/optee_os/lib/libutils/ext/snprintk.c:503
    1b04:	7100043f 	cmp	w1, #0x1
    1b08:	54fff2a0 	b.eq	195c <__vsnprintf+0x2a8>  // b.none
    1b0c:	7100083f 	cmp	w1, #0x2
    1b10:	54002140 	b.eq	1f38 <__vsnprintf+0x884>  // b.none
/home/hei/Desktop/optee-qemu/optee_os/lib/libutils/ext/snprintk.c:488
    1b14:	910095a1 	add	x1, x13, #0x25
/home/hei/Desktop/optee-qemu/optee_os/lib/libutils/ext/snprintk.c:506
    1b18:	12000805 	and	w5, w0, #0x7
    1b1c:	d1000424 	sub	x4, x1, #0x1
    1b20:	1100c0a5 	add	w5, w5, #0x30
    1b24:	381ff025 	sturb	w5, [x1, #-1]
/home/hei/Desktop/optee-qemu/optee_os/lib/libutils/ext/snprintk.c:507
    1b28:	d343fc00 	lsr	x0, x0, #3
/home/hei/Desktop/optee-qemu/optee_os/lib/libutils/ext/snprintk.c:508
    1b2c:	b5003380 	cbnz	x0, 219c <__vsnprintf+0xae8>
/home/hei/Desktop/optee-qemu/optee_os/lib/libutils/ext/snprintk.c:510
    1b30:	360000d5 	tbz	w21, #0, 1b48 <__vsnprintf+0x494>
    1b34:	7100c0bf 	cmp	w5, #0x30
    1b38:	54000080 	b.eq	1b48 <__vsnprintf+0x494>  // b.none
/home/hei/Desktop/optee-qemu/optee_os/lib/libutils/ext/snprintk.c:511
    1b3c:	52800600 	mov	w0, #0x30                  	// #48
    1b40:	381ff080 	sturb	w0, [x4, #-1]
    1b44:	d1000824 	sub	x4, x1, #0x2
/home/hei/Desktop/optee-qemu/optee_os/lib/libutils/ext/snprintk.c:537
    1b48:	910095a0 	add	x0, x13, #0x25
    1b4c:	2a0303e1 	mov	w1, w3
    1b50:	4b040003 	sub	w3, w0, w4
    1b54:	140000ba 	b	1e3c <__vsnprintf+0x788>
/home/hei/Desktop/optee-qemu/optee_os/lib/libutils/ext/snprintk.c:384
    1b58:	3747fc15 	tbnz	w21, #8, 1ad8 <__vsnprintf+0x424>
    1b5c:	374ffbf5 	tbnz	w21, #9, 1ad8 <__vsnprintf+0x424>
    1b60:	372ffbd5 	tbnz	w21, #5, 1ad8 <__vsnprintf+0x424>
    1b64:	3727fbb5 	tbnz	w21, #4, 1ad8 <__vsnprintf+0x424>
    1b68:	36300335 	tbz	w21, #6, 1bcc <__vsnprintf+0x518>
    1b6c:	37f801e1 	tbnz	w1, #31, 1ba8 <__vsnprintf+0x4f4>
    1b70:	91002c13 	add	x19, x0, #0xb
    1b74:	2a0103f4 	mov	w20, w1
    1b78:	927df273 	and	x19, x19, #0xfffffffffffffff8
    1b7c:	79800000 	ldrsh	x0, [x0]
    1b80:	17ffffdb 	b	1aec <__vsnprintf+0x438>
    1b84:	11002034 	add	w20, w1, #0x8
    1b88:	7100029f 	cmp	w20, #0x0
    1b8c:	5400008d 	b.le	1b9c <__vsnprintf+0x4e8>
    1b90:	91003c13 	add	x19, x0, #0xf
    1b94:	927df273 	and	x19, x19, #0xfffffffffffffff8
    1b98:	17ffffd4 	b	1ae8 <__vsnprintf+0x434>
    1b9c:	aa0003f3 	mov	x19, x0
    1ba0:	8b21c380 	add	x0, x28, w1, sxtw
    1ba4:	17ffffd1 	b	1ae8 <__vsnprintf+0x434>
    1ba8:	11002034 	add	w20, w1, #0x8
    1bac:	7100029f 	cmp	w20, #0x0
    1bb0:	5400008d 	b.le	1bc0 <__vsnprintf+0x50c>
    1bb4:	91002c13 	add	x19, x0, #0xb
    1bb8:	927df273 	and	x19, x19, #0xfffffffffffffff8
    1bbc:	17fffff0 	b	1b7c <__vsnprintf+0x4c8>
    1bc0:	aa0003f3 	mov	x19, x0
    1bc4:	8b21c380 	add	x0, x28, w1, sxtw
    1bc8:	17ffffed 	b	1b7c <__vsnprintf+0x4c8>
    1bcc:	37f800c1 	tbnz	w1, #31, 1be4 <__vsnprintf+0x530>
    1bd0:	91002c13 	add	x19, x0, #0xb
    1bd4:	2a0103f4 	mov	w20, w1
    1bd8:	927df273 	and	x19, x19, #0xfffffffffffffff8
    1bdc:	b9800000 	ldrsw	x0, [x0]
    1be0:	17ffffc3 	b	1aec <__vsnprintf+0x438>
    1be4:	11002034 	add	w20, w1, #0x8
    1be8:	7100029f 	cmp	w20, #0x0
    1bec:	5400008d 	b.le	1bfc <__vsnprintf+0x548>
    1bf0:	91002c13 	add	x19, x0, #0xb
    1bf4:	927df273 	and	x19, x19, #0xfffffffffffffff8
    1bf8:	17fffff9 	b	1bdc <__vsnprintf+0x528>
    1bfc:	aa0003f3 	mov	x19, x0
    1c00:	8b21c380 	add	x0, x28, w1, sxtw
    1c04:	17fffff6 	b	1bdc <__vsnprintf+0x528>
/home/hei/Desktop/optee-qemu/optee_os/lib/libutils/ext/snprintk.c:392
    1c08:	36380135 	tbz	w21, #7, 1c2c <__vsnprintf+0x578>
/home/hei/Desktop/optee-qemu/optee_os/lib/libutils/ext/snprintk.c:401
    1c0c:	37f80281 	tbnz	w1, #31, 1c5c <__vsnprintf+0x5a8>
    1c10:	91003c13 	add	x19, x0, #0xf
    1c14:	2a0103f4 	mov	w20, w1
    1c18:	927df273 	and	x19, x19, #0xfffffffffffffff8
    1c1c:	f9400000 	ldr	x0, [x0]
    1c20:	93407f41 	sxtw	x1, w26
    1c24:	f9000001 	str	x1, [x0]
    1c28:	17fffeb7 	b	1704 <__vsnprintf+0x50>
/home/hei/Desktop/optee-qemu/optee_os/lib/libutils/ext/snprintk.c:394
    1c2c:	3747ff15 	tbnz	w21, #8, 1c0c <__vsnprintf+0x558>
/home/hei/Desktop/optee-qemu/optee_os/lib/libutils/ext/snprintk.c:396
    1c30:	374ffef5 	tbnz	w21, #9, 1c0c <__vsnprintf+0x558>
/home/hei/Desktop/optee-qemu/optee_os/lib/libutils/ext/snprintk.c:398
    1c34:	372ffed5 	tbnz	w21, #5, 1c0c <__vsnprintf+0x558>
/home/hei/Desktop/optee-qemu/optee_os/lib/libutils/ext/snprintk.c:400
    1c38:	3727feb5 	tbnz	w21, #4, 1c0c <__vsnprintf+0x558>
/home/hei/Desktop/optee-qemu/optee_os/lib/libutils/ext/snprintk.c:402
    1c3c:	36300355 	tbz	w21, #6, 1ca4 <__vsnprintf+0x5f0>
/home/hei/Desktop/optee-qemu/optee_os/lib/libutils/ext/snprintk.c:403
    1c40:	37f80201 	tbnz	w1, #31, 1c80 <__vsnprintf+0x5cc>
    1c44:	91003c13 	add	x19, x0, #0xf
    1c48:	2a0103f4 	mov	w20, w1
    1c4c:	927df273 	and	x19, x19, #0xfffffffffffffff8
    1c50:	f9400000 	ldr	x0, [x0]
    1c54:	7900001a 	strh	w26, [x0]
    1c58:	17fffeab 	b	1704 <__vsnprintf+0x50>
/home/hei/Desktop/optee-qemu/optee_os/lib/libutils/ext/snprintk.c:401
    1c5c:	11002034 	add	w20, w1, #0x8
    1c60:	7100029f 	cmp	w20, #0x0
    1c64:	5400008d 	b.le	1c74 <__vsnprintf+0x5c0>
    1c68:	91003c13 	add	x19, x0, #0xf
    1c6c:	927df273 	and	x19, x19, #0xfffffffffffffff8
    1c70:	17ffffeb 	b	1c1c <__vsnprintf+0x568>
    1c74:	aa0003f3 	mov	x19, x0
    1c78:	8b21c380 	add	x0, x28, w1, sxtw
    1c7c:	17ffffe8 	b	1c1c <__vsnprintf+0x568>
/home/hei/Desktop/optee-qemu/optee_os/lib/libutils/ext/snprintk.c:403
    1c80:	11002034 	add	w20, w1, #0x8
    1c84:	7100029f 	cmp	w20, #0x0
    1c88:	5400008d 	b.le	1c98 <__vsnprintf+0x5e4>
    1c8c:	91003c13 	add	x19, x0, #0xf
    1c90:	927df273 	and	x19, x19, #0xfffffffffffffff8
    1c94:	17ffffef 	b	1c50 <__vsnprintf+0x59c>
    1c98:	aa0003f3 	mov	x19, x0
    1c9c:	8b21c380 	add	x0, x28, w1, sxtw
    1ca0:	17ffffec 	b	1c50 <__vsnprintf+0x59c>
/home/hei/Desktop/optee-qemu/optee_os/lib/libutils/ext/snprintk.c:405
    1ca4:	37f800e1 	tbnz	w1, #31, 1cc0 <__vsnprintf+0x60c>
    1ca8:	91003c13 	add	x19, x0, #0xf
    1cac:	2a0103f4 	mov	w20, w1
    1cb0:	927df273 	and	x19, x19, #0xfffffffffffffff8
    1cb4:	f9400000 	ldr	x0, [x0]
    1cb8:	b900001a 	str	w26, [x0]
    1cbc:	17fffe92 	b	1704 <__vsnprintf+0x50>
    1cc0:	11002034 	add	w20, w1, #0x8
    1cc4:	7100029f 	cmp	w20, #0x0
    1cc8:	5400008d 	b.le	1cd8 <__vsnprintf+0x624>
    1ccc:	91003c13 	add	x19, x0, #0xf
    1cd0:	927df273 	and	x19, x19, #0xfffffffffffffff8
    1cd4:	17fffff8 	b	1cb4 <__vsnprintf+0x600>
    1cd8:	aa0003f3 	mov	x19, x0
    1cdc:	8b21c380 	add	x0, x28, w1, sxtw
    1ce0:	17fffff5 	b	1cb4 <__vsnprintf+0x600>
/home/hei/Desktop/optee-qemu/optee_os/lib/libutils/ext/snprintk.c:411
    1ce4:	3747d9d5 	tbnz	w21, #8, 181c <__vsnprintf+0x168>
    1ce8:	374fd9b5 	tbnz	w21, #9, 181c <__vsnprintf+0x168>
    1cec:	372fd995 	tbnz	w21, #5, 181c <__vsnprintf+0x168>
    1cf0:	3727d975 	tbnz	w21, #4, 181c <__vsnprintf+0x168>
    1cf4:	36300335 	tbz	w21, #6, 1d58 <__vsnprintf+0x6a4>
    1cf8:	37f801e1 	tbnz	w1, #31, 1d34 <__vsnprintf+0x680>
    1cfc:	91002c13 	add	x19, x0, #0xb
    1d00:	2a0103f4 	mov	w20, w1
    1d04:	927df273 	and	x19, x19, #0xfffffffffffffff8
    1d08:	79400000 	ldrh	w0, [x0]
    1d0c:	17fffec9 	b	1830 <__vsnprintf+0x17c>
    1d10:	11002034 	add	w20, w1, #0x8
    1d14:	7100029f 	cmp	w20, #0x0
    1d18:	5400008d 	b.le	1d28 <__vsnprintf+0x674>
    1d1c:	91003c13 	add	x19, x0, #0xf
    1d20:	927df273 	and	x19, x19, #0xfffffffffffffff8
    1d24:	17fffec2 	b	182c <__vsnprintf+0x178>
    1d28:	aa0003f3 	mov	x19, x0
    1d2c:	8b21c380 	add	x0, x28, w1, sxtw
    1d30:	17fffebf 	b	182c <__vsnprintf+0x178>
    1d34:	11002034 	add	w20, w1, #0x8
    1d38:	7100029f 	cmp	w20, #0x0
    1d3c:	5400008d 	b.le	1d4c <__vsnprintf+0x698>
    1d40:	91002c13 	add	x19, x0, #0xb
    1d44:	927df273 	and	x19, x19, #0xfffffffffffffff8
    1d48:	17fffff0 	b	1d08 <__vsnprintf+0x654>
    1d4c:	aa0003f3 	mov	x19, x0
    1d50:	8b21c380 	add	x0, x28, w1, sxtw
    1d54:	17ffffed 	b	1d08 <__vsnprintf+0x654>
    1d58:	37f800c1 	tbnz	w1, #31, 1d70 <__vsnprintf+0x6bc>
    1d5c:	91002c13 	add	x19, x0, #0xb
    1d60:	2a0103f4 	mov	w20, w1
    1d64:	927df273 	and	x19, x19, #0xfffffffffffffff8
    1d68:	b9400000 	ldr	w0, [x0]
    1d6c:	17fffeb1 	b	1830 <__vsnprintf+0x17c>
    1d70:	11002034 	add	w20, w1, #0x8
    1d74:	7100029f 	cmp	w20, #0x0
    1d78:	5400008d 	b.le	1d88 <__vsnprintf+0x6d4>
    1d7c:	91002c13 	add	x19, x0, #0xb
    1d80:	927df273 	and	x19, x19, #0xfffffffffffffff8
    1d84:	17fffff9 	b	1d68 <__vsnprintf+0x6b4>
    1d88:	aa0003f3 	mov	x19, x0
    1d8c:	8b21c380 	add	x0, x28, w1, sxtw
    1d90:	17fffff6 	b	1d68 <__vsnprintf+0x6b4>
/home/hei/Desktop/optee-qemu/optee_os/lib/libutils/ext/snprintk.c:415
    1d94:	b940afe2 	ldr	w2, [sp, #172]
    1d98:	34000b82 	cbz	w2, 1f08 <__vsnprintf+0x854>
    1d9c:	39400122 	ldrb	w2, [x9]
    1da0:	7101545f 	cmp	w2, #0x55
    1da4:	54000b21 	b.ne	1f08 <__vsnprintf+0x854>  // b.any
    1da8:	39400522 	ldrb	w2, [x9, #1]
    1dac:	7101b05f 	cmp	w2, #0x6c
    1db0:	54000ac1 	b.ne	1f08 <__vsnprintf+0x854>  // b.any
/home/hei/Desktop/optee-qemu/optee_os/lib/libutils/ext/snprintk.c:420
    1db4:	91000929 	add	x9, x9, #0x2
/home/hei/Desktop/optee-qemu/optee_os/lib/libutils/ext/snprintk.c:421
    1db8:	37f80961 	tbnz	w1, #31, 1ee4 <__vsnprintf+0x830>
    1dbc:	91003c13 	add	x19, x0, #0xf
    1dc0:	2a0103f4 	mov	w20, w1
    1dc4:	927df273 	and	x19, x19, #0xfffffffffffffff8
    1dc8:	f9400000 	ldr	x0, [x0]
uuid2str():
/home/hei/Desktop/optee-qemu/optee_os/lib/libutils/ext/snprintk.c:223
    1dcc:	d0000042 	adrp	x2, b000 <__func__.3755+0x98>
    1dd0:	91097842 	add	x2, x2, #0x25e
    1dd4:	a90b27ed 	stp	x13, x9, [sp, #176]
    1dd8:	39403c01 	ldrb	w1, [x0, #15]
    1ddc:	79400804 	ldrh	w4, [x0, #4]
    1de0:	39402407 	ldrb	w7, [x0, #9]
    1de4:	39402006 	ldrb	w6, [x0, #8]
    1de8:	79400c05 	ldrh	w5, [x0, #6]
    1dec:	b9002be1 	str	w1, [sp, #40]
    1df0:	39403801 	ldrb	w1, [x0, #14]
    1df4:	b90023e1 	str	w1, [sp, #32]
    1df8:	39403401 	ldrb	w1, [x0, #13]
    1dfc:	b9001be1 	str	w1, [sp, #24]
    1e00:	39403001 	ldrb	w1, [x0, #12]
    1e04:	b90013e1 	str	w1, [sp, #16]
    1e08:	39402c01 	ldrb	w1, [x0, #11]
    1e0c:	b9000be1 	str	w1, [sp, #8]
    1e10:	39402801 	ldrb	w1, [x0, #10]
    1e14:	b90003e1 	str	w1, [sp]
    1e18:	d28004a1 	mov	x1, #0x25                  	// #37
    1e1c:	b9400003 	ldr	w3, [x0]
    1e20:	aa0d03e0 	mov	x0, x13
    1e24:	94000146 	bl	233c <snprintk>
    1e28:	2a0003e3 	mov	w3, w0
kprintf():
/home/hei/Desktop/optee-qemu/optee_os/lib/libutils/ext/snprintk.c:425
    1e2c:	a94b27ed 	ldp	x13, x9, [sp, #176]
/home/hei/Desktop/optee-qemu/optee_os/lib/libutils/ext/snprintk.c:285
    1e30:	52800001 	mov	w1, #0x0                   	// #0
/home/hei/Desktop/optee-qemu/optee_os/lib/libutils/ext/snprintk.c:424
    1e34:	52800002 	mov	w2, #0x0                   	// #0
/home/hei/Desktop/optee-qemu/optee_os/lib/libutils/ext/snprintk.c:423
    1e38:	aa0d03e4 	mov	x4, x13
/home/hei/Desktop/optee-qemu/optee_os/lib/libutils/ext/snprintk.c:565
    1e3c:	6b03003f 	cmp	w1, w3
    1e40:	1a83a020 	csel	w0, w1, w3, ge  // ge = tcont
/home/hei/Desktop/optee-qemu/optee_os/lib/libutils/ext/snprintk.c:566
    1e44:	34001c82 	cbz	w2, 21d4 <__vsnprintf+0xb20>
/home/hei/Desktop/optee-qemu/optee_os/lib/libutils/ext/snprintk.c:567
    1e48:	11000400 	add	w0, w0, #0x1
/home/hei/Desktop/optee-qemu/optee_os/lib/libutils/ext/snprintk.c:572
    1e4c:	6b17001f 	cmp	w0, w23
    1e50:	1a97a005 	csel	w5, w0, w23, ge  // ge = tcont
    1e54:	0b05035a 	add	w26, w26, w5
/home/hei/Desktop/optee-qemu/optee_os/lib/libutils/ext/snprintk.c:575
    1e58:	52808085 	mov	w5, #0x404                 	// #1028
    1e5c:	6a0502a5 	ands	w5, w21, w5
    1e60:	540000a1 	b.ne	1e74 <__vsnprintf+0x7c0>  // b.any
/home/hei/Desktop/optee-qemu/optee_os/lib/libutils/ext/snprintk.c:576
    1e64:	4b0002e6 	sub	w6, w23, w0
/home/hei/Desktop/optee-qemu/optee_os/lib/libutils/ext/snprintk.c:578
    1e68:	52800407 	mov	w7, #0x20                  	// #32
/home/hei/Desktop/optee-qemu/optee_os/lib/libutils/ext/snprintk.c:577
    1e6c:	710000df 	cmp	w6, #0x0
    1e70:	54001b8c 	b.gt	21e0 <__vsnprintf+0xb2c>
/home/hei/Desktop/optee-qemu/optee_os/lib/libutils/ext/snprintk.c:582
    1e74:	34001ca2 	cbz	w2, 2208 <__vsnprintf+0xb54>
/home/hei/Desktop/optee-qemu/optee_os/lib/libutils/ext/snprintk.c:583
    1e78:	b5001c1b 	cbnz	x27, 21f8 <__vsnprintf+0xb44>
/home/hei/Desktop/optee-qemu/optee_os/lib/libutils/ext/snprintk.c:586
    1e7c:	d280001b 	mov	x27, #0x0                   	// #0
/home/hei/Desktop/optee-qemu/optee_os/lib/libutils/ext/snprintk.c:590
    1e80:	711000bf 	cmp	w5, #0x400
    1e84:	540000a1 	b.ne	1e98 <__vsnprintf+0x7e4>  // b.any
/home/hei/Desktop/optee-qemu/optee_os/lib/libutils/ext/snprintk.c:591
    1e88:	4b0002e2 	sub	w2, w23, w0
/home/hei/Desktop/optee-qemu/optee_os/lib/libutils/ext/snprintk.c:593
    1e8c:	52800605 	mov	w5, #0x30                  	// #48
/home/hei/Desktop/optee-qemu/optee_os/lib/libutils/ext/snprintk.c:592
    1e90:	7100005f 	cmp	w2, #0x0
    1e94:	54001d8c 	b.gt	2244 <__vsnprintf+0xb90>
/home/hei/Desktop/optee-qemu/optee_os/lib/libutils/ext/snprintk.c:597
    1e98:	4b030021 	sub	w1, w1, w3
/home/hei/Desktop/optee-qemu/optee_os/lib/libutils/ext/snprintk.c:599
    1e9c:	52800602 	mov	w2, #0x30                  	// #48
/home/hei/Desktop/optee-qemu/optee_os/lib/libutils/ext/snprintk.c:598
    1ea0:	7100003f 	cmp	w1, #0x0
    1ea4:	54001dcc 	b.gt	225c <__vsnprintf+0xba8>
    1ea8:	2a0303e3 	mov	w3, w3
    1eac:	d2800001 	mov	x1, #0x0                   	// #0
/home/hei/Desktop/optee-qemu/optee_os/lib/libutils/ext/snprintk.c:602
    1eb0:	eb01007f 	cmp	x3, x1
    1eb4:	54001e01 	b.ne	2274 <__vsnprintf+0xbc0>  // b.any
/home/hei/Desktop/optee-qemu/optee_os/lib/libutils/ext/snprintk.c:605
    1eb8:	3617c275 	tbz	w21, #2, 1704 <__vsnprintf+0x50>
/home/hei/Desktop/optee-qemu/optee_os/lib/libutils/ext/snprintk.c:606
    1ebc:	4b0002eb 	sub	w11, w23, w0
/home/hei/Desktop/optee-qemu/optee_os/lib/libutils/ext/snprintk.c:608
    1ec0:	52800400 	mov	w0, #0x20                  	// #32
/home/hei/Desktop/optee-qemu/optee_os/lib/libutils/ext/snprintk.c:607
    1ec4:	7100017f 	cmp	w11, #0x0
    1ec8:	54ffc1ed 	b.le	1704 <__vsnprintf+0x50>
/home/hei/Desktop/optee-qemu/optee_os/lib/libutils/ext/snprintk.c:608
    1ecc:	b400009b 	cbz	x27, 1edc <__vsnprintf+0x828>
    1ed0:	eb1b033f 	cmp	x25, x27
    1ed4:	54000049 	b.ls	1edc <__vsnprintf+0x828>  // b.plast
    1ed8:	38001760 	strb	w0, [x27], #1
    1edc:	5100056b 	sub	w11, w11, #0x1
    1ee0:	17fffff9 	b	1ec4 <__vsnprintf+0x810>
/home/hei/Desktop/optee-qemu/optee_os/lib/libutils/ext/snprintk.c:421
    1ee4:	11002034 	add	w20, w1, #0x8
    1ee8:	7100029f 	cmp	w20, #0x0
    1eec:	5400008d 	b.le	1efc <__vsnprintf+0x848>
    1ef0:	91003c13 	add	x19, x0, #0xf
    1ef4:	927df273 	and	x19, x19, #0xfffffffffffffff8
    1ef8:	17ffffb4 	b	1dc8 <__vsnprintf+0x714>
    1efc:	aa0003f3 	mov	x19, x0
    1f00:	8b21c380 	add	x0, x28, w1, sxtw
    1f04:	17ffffb1 	b	1dc8 <__vsnprintf+0x714>
/home/hei/Desktop/optee-qemu/optee_os/lib/libutils/ext/snprintk.c:435
    1f08:	37f80261 	tbnz	w1, #31, 1f54 <__vsnprintf+0x8a0>
    1f0c:	91003c13 	add	x19, x0, #0xf
    1f10:	2a0103f4 	mov	w20, w1
    1f14:	927df273 	and	x19, x19, #0xfffffffffffffff8
    1f18:	f9400000 	ldr	x0, [x0]
/home/hei/Desktop/optee-qemu/optee_os/lib/libutils/ext/snprintk.c:437
    1f1c:	d0000056 	adrp	x22, b000 <__func__.3755+0x98>
/home/hei/Desktop/optee-qemu/optee_os/lib/libutils/ext/snprintk.c:438
    1f20:	321f02b5 	orr	w21, w21, #0x2
/home/hei/Desktop/optee-qemu/optee_os/lib/libutils/ext/snprintk.c:437
    1f24:	9108d6d6 	add	x22, x22, #0x235
/home/hei/Desktop/optee-qemu/optee_os/lib/libutils/ext/snprintk.c:439
    1f28:	52800f18 	mov	w24, #0x78                  	// #120
/home/hei/Desktop/optee-qemu/optee_os/lib/libutils/ext/snprintk.c:488
    1f2c:	52800002 	mov	w2, #0x0                   	// #0
    1f30:	3100047f 	cmn	w3, #0x1
    1f34:	54001201 	b.ne	2174 <__vsnprintf+0xac0>  // b.any
    1f38:	910095a4 	add	x4, x13, #0x25
/home/hei/Desktop/optee-qemu/optee_os/lib/libutils/ext/snprintk.c:525
    1f3c:	92400c01 	and	x1, x0, #0xf
/home/hei/Desktop/optee-qemu/optee_os/lib/libutils/ext/snprintk.c:526
    1f40:	d344fc00 	lsr	x0, x0, #4
/home/hei/Desktop/optee-qemu/optee_os/lib/libutils/ext/snprintk.c:525
    1f44:	38616ac1 	ldrb	w1, [x22, x1]
    1f48:	381ffc81 	strb	w1, [x4, #-1]!
/home/hei/Desktop/optee-qemu/optee_os/lib/libutils/ext/snprintk.c:527
    1f4c:	b5ffff80 	cbnz	x0, 1f3c <__vsnprintf+0x888>
    1f50:	17fffefe 	b	1b48 <__vsnprintf+0x494>
/home/hei/Desktop/optee-qemu/optee_os/lib/libutils/ext/snprintk.c:435
    1f54:	11002034 	add	w20, w1, #0x8
    1f58:	7100029f 	cmp	w20, #0x0
    1f5c:	5400008d 	b.le	1f6c <__vsnprintf+0x8b8>
    1f60:	91003c13 	add	x19, x0, #0xf
    1f64:	927df273 	and	x19, x19, #0xfffffffffffffff8
    1f68:	17ffffec 	b	1f18 <__vsnprintf+0x864>
    1f6c:	aa0003f3 	mov	x19, x0
    1f70:	8b21c380 	add	x0, x28, w1, sxtw
    1f74:	17ffffe9 	b	1f18 <__vsnprintf+0x864>
/home/hei/Desktop/optee-qemu/optee_os/lib/libutils/ext/snprintk.c:442
    1f78:	11002034 	add	w20, w1, #0x8
    1f7c:	7100029f 	cmp	w20, #0x0
    1f80:	5400008d 	b.le	1f90 <__vsnprintf+0x8dc>
    1f84:	91003c13 	add	x19, x0, #0xf
    1f88:	927df273 	and	x19, x19, #0xfffffffffffffff8
    1f8c:	17fffe4e 	b	18c4 <__vsnprintf+0x210>
    1f90:	aa0003f3 	mov	x19, x0
    1f94:	8b21c380 	add	x0, x28, w1, sxtw
    1f98:	17fffe4b 	b	18c4 <__vsnprintf+0x210>
/home/hei/Desktop/optee-qemu/optee_os/lib/libutils/ext/snprintk.c:460
    1f9c:	aa0403e0 	mov	x0, x4
    1fa0:	a90b27e4 	stp	x4, x9, [sp, #176]
    1fa4:	f90063ed 	str	x13, [sp, #192]
    1fa8:	97fff975 	bl	57c <strlen>
/home/hei/Desktop/optee-qemu/optee_os/lib/libutils/ext/snprintk.c:285
    1fac:	52800001 	mov	w1, #0x0                   	// #0
/home/hei/Desktop/optee-qemu/optee_os/lib/libutils/ext/snprintk.c:460
    1fb0:	2a0003e3 	mov	w3, w0
/home/hei/Desktop/optee-qemu/optee_os/lib/libutils/ext/snprintk.c:461
    1fb4:	52800002 	mov	w2, #0x0                   	// #0
    1fb8:	a94b27e4 	ldp	x4, x9, [sp, #176]
    1fbc:	f94063ed 	ldr	x13, [sp, #192]
    1fc0:	17ffff9f 	b	1e3c <__vsnprintf+0x788>
/home/hei/Desktop/optee-qemu/optee_os/lib/libutils/ext/snprintk.c:464
    1fc4:	321c02b5 	orr	w21, w21, #0x10
    1fc8:	17fffe5c 	b	1938 <__vsnprintf+0x284>
/home/hei/Desktop/optee-qemu/optee_os/lib/libutils/ext/snprintk.c:467
    1fcc:	3747cb95 	tbnz	w21, #8, 193c <__vsnprintf+0x288>
    1fd0:	374fcb75 	tbnz	w21, #9, 193c <__vsnprintf+0x288>
    1fd4:	372fcb55 	tbnz	w21, #5, 193c <__vsnprintf+0x288>
    1fd8:	3727cb35 	tbnz	w21, #4, 193c <__vsnprintf+0x288>
    1fdc:	36300335 	tbz	w21, #6, 2040 <__vsnprintf+0x98c>
    1fe0:	37f801e1 	tbnz	w1, #31, 201c <__vsnprintf+0x968>
    1fe4:	91002c13 	add	x19, x0, #0xb
    1fe8:	2a0103f4 	mov	w20, w1
    1fec:	927df273 	and	x19, x19, #0xfffffffffffffff8
    1ff0:	79400000 	ldrh	w0, [x0]
    1ff4:	17fffe57 	b	1950 <__vsnprintf+0x29c>
    1ff8:	11002034 	add	w20, w1, #0x8
    1ffc:	7100029f 	cmp	w20, #0x0
    2000:	5400008d 	b.le	2010 <__vsnprintf+0x95c>
    2004:	91003c13 	add	x19, x0, #0xf
    2008:	927df273 	and	x19, x19, #0xfffffffffffffff8
    200c:	17fffe50 	b	194c <__vsnprintf+0x298>
    2010:	aa0003f3 	mov	x19, x0
    2014:	8b21c380 	add	x0, x28, w1, sxtw
    2018:	17fffe4d 	b	194c <__vsnprintf+0x298>
    201c:	11002034 	add	w20, w1, #0x8
    2020:	7100029f 	cmp	w20, #0x0
    2024:	5400008d 	b.le	2034 <__vsnprintf+0x980>
    2028:	91002c13 	add	x19, x0, #0xb
    202c:	927df273 	and	x19, x19, #0xfffffffffffffff8
    2030:	17fffff0 	b	1ff0 <__vsnprintf+0x93c>
    2034:	aa0003f3 	mov	x19, x0
    2038:	8b21c380 	add	x0, x28, w1, sxtw
    203c:	17ffffed 	b	1ff0 <__vsnprintf+0x93c>
    2040:	37f800c1 	tbnz	w1, #31, 2058 <__vsnprintf+0x9a4>
    2044:	91002c13 	add	x19, x0, #0xb
    2048:	2a0103f4 	mov	w20, w1
    204c:	927df273 	and	x19, x19, #0xfffffffffffffff8
    2050:	b9400000 	ldr	w0, [x0]
    2054:	17fffe3f 	b	1950 <__vsnprintf+0x29c>
    2058:	11002034 	add	w20, w1, #0x8
    205c:	7100029f 	cmp	w20, #0x0
    2060:	5400008d 	b.le	2070 <__vsnprintf+0x9bc>
    2064:	91002c13 	add	x19, x0, #0xb
    2068:	927df273 	and	x19, x19, #0xfffffffffffffff8
    206c:	17fffff9 	b	2050 <__vsnprintf+0x99c>
    2070:	aa0003f3 	mov	x19, x0
    2074:	8b21c380 	add	x0, x28, w1, sxtw
    2078:	17fffff6 	b	2050 <__vsnprintf+0x99c>
/home/hei/Desktop/optee-qemu/optee_os/lib/libutils/ext/snprintk.c:471
    207c:	b0000056 	adrp	x22, b000 <__func__.3755+0x98>
    2080:	9108d6d6 	add	x22, x22, #0x235
    2084:	910046d6 	add	x22, x22, #0x11
/home/hei/Desktop/optee-qemu/optee_os/lib/libutils/ext/snprintk.c:475
    2088:	363801f5 	tbz	w21, #7, 20c4 <__vsnprintf+0xa10>
    208c:	37f80321 	tbnz	w1, #31, 20f0 <__vsnprintf+0xa3c>
    2090:	91003c13 	add	x19, x0, #0xf
    2094:	2a0103f4 	mov	w20, w1
    2098:	927df273 	and	x19, x19, #0xfffffffffffffff8
    209c:	f9400000 	ldr	x0, [x0]
/home/hei/Desktop/optee-qemu/optee_os/lib/libutils/ext/snprintk.c:478
    20a0:	3607f475 	tbz	w21, #0, 1f2c <__vsnprintf+0x878>
    20a4:	b4fff440 	cbz	x0, 1f2c <__vsnprintf+0x878>
/home/hei/Desktop/optee-qemu/optee_os/lib/libutils/ext/snprintk.c:479
    20a8:	321f02b5 	orr	w21, w21, #0x2
/home/hei/Desktop/optee-qemu/optee_os/lib/libutils/ext/snprintk.c:476
    20ac:	52800041 	mov	w1, #0x2                   	// #2
/home/hei/Desktop/optee-qemu/optee_os/lib/libutils/ext/snprintk.c:482
    20b0:	52800002 	mov	w2, #0x0                   	// #0
    20b4:	17fffe92 	b	1afc <__vsnprintf+0x448>
/home/hei/Desktop/optee-qemu/optee_os/lib/libutils/ext/snprintk.c:474
    20b8:	b0000056 	adrp	x22, b000 <__func__.3755+0x98>
    20bc:	9108d6d6 	add	x22, x22, #0x235
    20c0:	17fffff2 	b	2088 <__vsnprintf+0x9d4>
/home/hei/Desktop/optee-qemu/optee_os/lib/libutils/ext/snprintk.c:475
    20c4:	3747fe55 	tbnz	w21, #8, 208c <__vsnprintf+0x9d8>
    20c8:	374ffe35 	tbnz	w21, #9, 208c <__vsnprintf+0x9d8>
    20cc:	372ffe15 	tbnz	w21, #5, 208c <__vsnprintf+0x9d8>
    20d0:	3727fdf5 	tbnz	w21, #4, 208c <__vsnprintf+0x9d8>
    20d4:	36300335 	tbz	w21, #6, 2138 <__vsnprintf+0xa84>
    20d8:	37f801e1 	tbnz	w1, #31, 2114 <__vsnprintf+0xa60>
    20dc:	91002c13 	add	x19, x0, #0xb
    20e0:	2a0103f4 	mov	w20, w1
    20e4:	927df273 	and	x19, x19, #0xfffffffffffffff8
    20e8:	79400000 	ldrh	w0, [x0]
    20ec:	17ffffed 	b	20a0 <__vsnprintf+0x9ec>
    20f0:	11002034 	add	w20, w1, #0x8
    20f4:	7100029f 	cmp	w20, #0x0
    20f8:	5400008d 	b.le	2108 <__vsnprintf+0xa54>
    20fc:	91003c13 	add	x19, x0, #0xf
    2100:	927df273 	and	x19, x19, #0xfffffffffffffff8
    2104:	17ffffe6 	b	209c <__vsnprintf+0x9e8>
    2108:	aa0003f3 	mov	x19, x0
    210c:	8b21c380 	add	x0, x28, w1, sxtw
    2110:	17ffffe3 	b	209c <__vsnprintf+0x9e8>
    2114:	11002034 	add	w20, w1, #0x8
    2118:	7100029f 	cmp	w20, #0x0
    211c:	5400008d 	b.le	212c <__vsnprintf+0xa78>
    2120:	91002c13 	add	x19, x0, #0xb
    2124:	927df273 	and	x19, x19, #0xfffffffffffffff8
    2128:	17fffff0 	b	20e8 <__vsnprintf+0xa34>
    212c:	aa0003f3 	mov	x19, x0
    2130:	8b21c380 	add	x0, x28, w1, sxtw
    2134:	17ffffed 	b	20e8 <__vsnprintf+0xa34>
    2138:	37f800c1 	tbnz	w1, #31, 2150 <__vsnprintf+0xa9c>
    213c:	91002c13 	add	x19, x0, #0xb
    2140:	2a0103f4 	mov	w20, w1
    2144:	927df273 	and	x19, x19, #0xfffffffffffffff8
    2148:	b9400000 	ldr	w0, [x0]
    214c:	17ffffd5 	b	20a0 <__vsnprintf+0x9ec>
    2150:	11002034 	add	w20, w1, #0x8
    2154:	7100029f 	cmp	w20, #0x0
    2158:	5400008d 	b.le	2168 <__vsnprintf+0xab4>
    215c:	91002c13 	add	x19, x0, #0xb
    2160:	927df273 	and	x19, x19, #0xfffffffffffffff8
    2164:	17fffff9 	b	2148 <__vsnprintf+0xa94>
    2168:	aa0003f3 	mov	x19, x0
    216c:	8b21c380 	add	x0, x28, w1, sxtw
    2170:	17fffff6 	b	2148 <__vsnprintf+0xa94>
/home/hei/Desktop/optee-qemu/optee_os/lib/libutils/ext/snprintk.c:488
    2174:	52800041 	mov	w1, #0x2                   	// #2
/home/hei/Desktop/optee-qemu/optee_os/lib/libutils/ext/snprintk.c:497
    2178:	f100001f 	cmp	x0, #0x0
/home/hei/Desktop/optee-qemu/optee_os/lib/libutils/ext/snprintk.c:489
    217c:	12157ab5 	and	w21, w21, #0xfffffbff
/home/hei/Desktop/optee-qemu/optee_os/lib/libutils/ext/snprintk.c:497
    2180:	7a400860 	ccmp	w3, #0x0, #0x0, eq  // eq = none
    2184:	54ffcc01 	b.ne	1b04 <__vsnprintf+0x450>  // b.any
    2188:	52800003 	mov	w3, #0x0                   	// #0
/home/hei/Desktop/optee-qemu/optee_os/lib/libutils/ext/snprintk.c:496
    218c:	910095a4 	add	x4, x13, #0x25
    2190:	17fffe6e 	b	1b48 <__vsnprintf+0x494>
/home/hei/Desktop/optee-qemu/optee_os/lib/libutils/ext/snprintk.c:488
    2194:	52800021 	mov	w1, #0x1                   	// #1
    2198:	17fffff8 	b	2178 <__vsnprintf+0xac4>
/home/hei/Desktop/optee-qemu/optee_os/lib/libutils/ext/snprintk.c:508
    219c:	aa0403e1 	mov	x1, x4
    21a0:	17fffe5e 	b	1b18 <__vsnprintf+0x464>
/home/hei/Desktop/optee-qemu/optee_os/lib/libutils/ext/snprintk.c:517
    21a4:	9ac50806 	udiv	x6, x0, x5
    21a8:	9b0580c0 	msub	x0, x6, x5, x0
    21ac:	1100c000 	add	w0, w0, #0x30
    21b0:	381ff020 	sturb	w0, [x1, #-1]
/home/hei/Desktop/optee-qemu/optee_os/lib/libutils/ext/snprintk.c:518
    21b4:	aa0603e0 	mov	x0, x6
    21b8:	aa0403e1 	mov	x1, x4
    21bc:	d1000424 	sub	x4, x1, #0x1
/home/hei/Desktop/optee-qemu/optee_os/lib/libutils/ext/snprintk.c:516
    21c0:	f100241f 	cmp	x0, #0x9
    21c4:	54ffff08 	b.hi	21a4 <__vsnprintf+0xaf0>  // b.pmore
/home/hei/Desktop/optee-qemu/optee_os/lib/libutils/ext/snprintk.c:520
    21c8:	1100c000 	add	w0, w0, #0x30
    21cc:	381ff020 	sturb	w0, [x1, #-1]
/home/hei/Desktop/optee-qemu/optee_os/lib/libutils/ext/snprintk.c:521
    21d0:	17fffe5e 	b	1b48 <__vsnprintf+0x494>
/home/hei/Desktop/optee-qemu/optee_os/lib/libutils/ext/snprintk.c:568
    21d4:	360fe3d5 	tbz	w21, #1, 1e4c <__vsnprintf+0x798>
/home/hei/Desktop/optee-qemu/optee_os/lib/libutils/ext/snprintk.c:569
    21d8:	11000800 	add	w0, w0, #0x2
    21dc:	17ffff1c 	b	1e4c <__vsnprintf+0x798>
/home/hei/Desktop/optee-qemu/optee_os/lib/libutils/ext/snprintk.c:578
    21e0:	b400009b 	cbz	x27, 21f0 <__vsnprintf+0xb3c>
    21e4:	eb1b033f 	cmp	x25, x27
    21e8:	54000049 	b.ls	21f0 <__vsnprintf+0xb3c>  // b.plast
    21ec:	38001767 	strb	w7, [x27], #1
    21f0:	510004c6 	sub	w6, w6, #0x1
    21f4:	17ffff1e 	b	1e6c <__vsnprintf+0x7b8>
/home/hei/Desktop/optee-qemu/optee_os/lib/libutils/ext/snprintk.c:583
    21f8:	eb1b033f 	cmp	x25, x27
    21fc:	54ffe429 	b.ls	1e80 <__vsnprintf+0x7cc>  // b.plast
    2200:	38001762 	strb	w2, [x27], #1
    2204:	17ffff1f 	b	1e80 <__vsnprintf+0x7cc>
/home/hei/Desktop/optee-qemu/optee_os/lib/libutils/ext/snprintk.c:584
    2208:	360fe3d5 	tbz	w21, #1, 1e80 <__vsnprintf+0x7cc>
/home/hei/Desktop/optee-qemu/optee_os/lib/libutils/ext/snprintk.c:585
    220c:	b4ffe39b 	cbz	x27, 1e7c <__vsnprintf+0x7c8>
    2210:	eb1b033f 	cmp	x25, x27
    2214:	54ffe369 	b.ls	1e80 <__vsnprintf+0x7cc>  // b.plast
    2218:	aa1b03e2 	mov	x2, x27
    221c:	52800606 	mov	w6, #0x30                  	// #48
    2220:	38001446 	strb	w6, [x2], #1
/home/hei/Desktop/optee-qemu/optee_os/lib/libutils/ext/snprintk.c:586
    2224:	b4ffe2c2 	cbz	x2, 1e7c <__vsnprintf+0x7c8>
    2228:	eb02033f 	cmp	x25, x2
    222c:	54000089 	b.ls	223c <__vsnprintf+0xb88>  // b.plast
    2230:	91000b7b 	add	x27, x27, #0x2
    2234:	381ff378 	sturb	w24, [x27, #-1]
    2238:	17ffff12 	b	1e80 <__vsnprintf+0x7cc>
    223c:	aa0203fb 	mov	x27, x2
    2240:	17ffff10 	b	1e80 <__vsnprintf+0x7cc>
/home/hei/Desktop/optee-qemu/optee_os/lib/libutils/ext/snprintk.c:593
    2244:	b400009b 	cbz	x27, 2254 <__vsnprintf+0xba0>
    2248:	eb1b033f 	cmp	x25, x27
    224c:	54000049 	b.ls	2254 <__vsnprintf+0xba0>  // b.plast
    2250:	38001765 	strb	w5, [x27], #1
    2254:	51000442 	sub	w2, w2, #0x1
    2258:	17ffff0e 	b	1e90 <__vsnprintf+0x7dc>
/home/hei/Desktop/optee-qemu/optee_os/lib/libutils/ext/snprintk.c:599
    225c:	b400009b 	cbz	x27, 226c <__vsnprintf+0xbb8>
    2260:	eb1b033f 	cmp	x25, x27
    2264:	54000049 	b.ls	226c <__vsnprintf+0xbb8>  // b.plast
    2268:	38001762 	strb	w2, [x27], #1
    226c:	51000421 	sub	w1, w1, #0x1
    2270:	17ffff0c 	b	1ea0 <__vsnprintf+0x7ec>
/home/hei/Desktop/optee-qemu/optee_os/lib/libutils/ext/snprintk.c:603
    2274:	b40000bb 	cbz	x27, 2288 <__vsnprintf+0xbd4>
    2278:	eb1b033f 	cmp	x25, x27
    227c:	54000069 	b.ls	2288 <__vsnprintf+0xbd4>  // b.plast
    2280:	38616882 	ldrb	w2, [x4, x1]
    2284:	38001762 	strb	w2, [x27], #1
    2288:	91000421 	add	x1, x1, #0x1
    228c:	17ffff09 	b	1eb0 <__vsnprintf+0x7fc>
__vsnprintf():
/home/hei/Desktop/optee-qemu/optee_os/lib/libutils/ext/snprintk.c:143
    2290:	f9404fe0 	ldr	x0, [sp, #152]
    2294:	f100001f 	cmp	x0, #0x0
    2298:	f94053e0 	ldr	x0, [sp, #160]
    229c:	fa401804 	ccmp	x0, #0x0, #0x4, ne  // ne = any
    22a0:	540000c0 	b.eq	22b8 <__vsnprintf+0xc04>  // b.none
/home/hei/Desktop/optee-qemu/optee_os/lib/libutils/ext/snprintk.c:145
    22a4:	f94053e1 	ldr	x1, [sp, #160]
    22a8:	93407f40 	sxtw	x0, w26
    22ac:	eb01001f 	cmp	x0, x1
    22b0:	54000163 	b.cc	22dc <__vsnprintf+0xc28>  // b.lo, b.ul, b.last
/home/hei/Desktop/optee-qemu/optee_os/lib/libutils/ext/snprintk.c:146
    22b4:	381ff33f 	sturb	wzr, [x25, #-1]
/home/hei/Desktop/optee-qemu/optee_os/lib/libutils/ext/snprintk.c:151
    22b8:	2a1a03e0 	mov	w0, w26
    22bc:	a9437bfd 	ldp	x29, x30, [sp, #48]
    22c0:	a94453f3 	ldp	x19, x20, [sp, #64]
    22c4:	a9455bf5 	ldp	x21, x22, [sp, #80]
    22c8:	a94663f7 	ldp	x23, x24, [sp, #96]
    22cc:	a9476bf9 	ldp	x25, x26, [sp, #112]
    22d0:	a94873fb 	ldp	x27, x28, [sp, #128]
    22d4:	910403ff 	add	sp, sp, #0x100
    22d8:	d65f03c0 	ret
/home/hei/Desktop/optee-qemu/optee_os/lib/libutils/ext/snprintk.c:148
    22dc:	f9404fe1 	ldr	x1, [sp, #152]
    22e0:	3820683f 	strb	wzr, [x1, x0]
/home/hei/Desktop/optee-qemu/optee_os/lib/libutils/ext/snprintk.c:150
    22e4:	17fffff5 	b	22b8 <__vsnprintf+0xc04>

00000000000022e8 <vsnprintk>:
vsnprintk():
/home/hei/Desktop/optee-qemu/optee_os/lib/libutils/ext/snprintk.c:129
    22e8:	a9bb7bfd 	stp	x29, x30, [sp, #-80]!
    22ec:	910003fd 	mov	x29, sp
    22f0:	a90153f3 	stp	x19, x20, [sp, #16]
    22f4:	aa0003f3 	mov	x19, x0
    22f8:	aa0103f4 	mov	x20, x1
/home/hei/Desktop/optee-qemu/optee_os/lib/libutils/ext/snprintk.c:130
    22fc:	9100c3e0 	add	x0, sp, #0x30
    2300:	aa0303e1 	mov	x1, x3
/home/hei/Desktop/optee-qemu/optee_os/lib/libutils/ext/snprintk.c:129
    2304:	f90013f5 	str	x21, [sp, #32]
    2308:	aa0203f5 	mov	x21, x2
/home/hei/Desktop/optee-qemu/optee_os/lib/libutils/ext/snprintk.c:130
    230c:	d2800402 	mov	x2, #0x20                  	// #32
    2310:	97fff88d 	bl	544 <memcpy>
    2314:	aa1503e2 	mov	x2, x21
    2318:	aa0003e3 	mov	x3, x0
    231c:	aa1403e1 	mov	x1, x20
    2320:	52800024 	mov	w4, #0x1                   	// #1
    2324:	aa1303e0 	mov	x0, x19
    2328:	97fffce3 	bl	16b4 <__vsnprintf>
/home/hei/Desktop/optee-qemu/optee_os/lib/libutils/ext/snprintk.c:131
    232c:	a94153f3 	ldp	x19, x20, [sp, #16]
    2330:	f94013f5 	ldr	x21, [sp, #32]
    2334:	a8c57bfd 	ldp	x29, x30, [sp], #80
    2338:	d65f03c0 	ret

000000000000233c <snprintk>:
snprintk():
/home/hei/Desktop/optee-qemu/optee_os/lib/libutils/ext/snprintk.c:112
    233c:	a9b07bfd 	stp	x29, x30, [sp, #-256]!
    2340:	910003fd 	mov	x29, sp
    2344:	a90d93e3 	stp	x3, x4, [sp, #216]
/home/hei/Desktop/optee-qemu/optee_os/lib/libutils/ext/snprintk.c:116
    2348:	910403e3 	add	x3, sp, #0x100
    234c:	a9030fe3 	stp	x3, x3, [sp, #48]
    2350:	910343e3 	add	x3, sp, #0xd0
    2354:	f90023e3 	str	x3, [sp, #64]
    2358:	128004e3 	mov	w3, #0xffffffd8            	// #-40
    235c:	b9004be3 	str	w3, [sp, #72]
    2360:	12800fe3 	mov	w3, #0xffffff80            	// #-128
    2364:	b9004fe3 	str	w3, [sp, #76]
/home/hei/Desktop/optee-qemu/optee_os/lib/libutils/ext/snprintk.c:117
    2368:	910043e3 	add	x3, sp, #0x10
/home/hei/Desktop/optee-qemu/optee_os/lib/libutils/ext/snprintk.c:112
    236c:	a90e9be5 	stp	x5, x6, [sp, #232]
/home/hei/Desktop/optee-qemu/optee_os/lib/libutils/ext/snprintk.c:117
    2370:	a94317e4 	ldp	x4, x5, [sp, #48]
    2374:	a90117e4 	stp	x4, x5, [sp, #16]
    2378:	a94417e4 	ldp	x4, x5, [sp, #64]
    237c:	a90217e4 	stp	x4, x5, [sp, #32]
/home/hei/Desktop/optee-qemu/optee_os/lib/libutils/ext/snprintk.c:112
    2380:	3d8017e0 	str	q0, [sp, #80]
    2384:	3d801be1 	str	q1, [sp, #96]
    2388:	3d801fe2 	str	q2, [sp, #112]
    238c:	3d8023e3 	str	q3, [sp, #128]
    2390:	3d8027e4 	str	q4, [sp, #144]
    2394:	3d802be5 	str	q5, [sp, #160]
    2398:	3d802fe6 	str	q6, [sp, #176]
    239c:	3d8033e7 	str	q7, [sp, #192]
    23a0:	f9007fe7 	str	x7, [sp, #248]
/home/hei/Desktop/optee-qemu/optee_os/lib/libutils/ext/snprintk.c:117
    23a4:	97ffffd1 	bl	22e8 <vsnprintk>
/home/hei/Desktop/optee-qemu/optee_os/lib/libutils/ext/snprintk.c:121
    23a8:	a8d07bfd 	ldp	x29, x30, [sp], #256
    23ac:	d65f03c0 	ret

00000000000023b0 <memchr>:
memchr():
/home/hei/Desktop/optee-qemu/optee_os/lib/libutils/isoc/newlib/memchr.c:109
    23b0:	12001c21 	and	w1, w1, #0xff
/home/hei/Desktop/optee-qemu/optee_os/lib/libutils/isoc/newlib/memchr.c:153
    23b4:	8b020002 	add	x2, x0, x2
    23b8:	eb02001f 	cmp	x0, x2
    23bc:	54000061 	b.ne	23c8 <memchr+0x18>  // b.any
/home/hei/Desktop/optee-qemu/optee_os/lib/libutils/isoc/newlib/memchr.c:159
    23c0:	d2800000 	mov	x0, #0x0                   	// #0
/home/hei/Desktop/optee-qemu/optee_os/lib/libutils/isoc/newlib/memchr.c:160
    23c4:	d65f03c0 	ret
/home/hei/Desktop/optee-qemu/optee_os/lib/libutils/isoc/newlib/memchr.c:154
    23c8:	39400003 	ldrb	w3, [x0]
    23cc:	6b01007f 	cmp	w3, w1
    23d0:	54ffffa0 	b.eq	23c4 <memchr+0x14>  // b.none
/home/hei/Desktop/optee-qemu/optee_os/lib/libutils/isoc/newlib/memchr.c:156
    23d4:	91000400 	add	x0, x0, #0x1
    23d8:	17fffff8 	b	23b8 <memchr+0x8>

00000000000023dc <trace_ext_puts>:
trace_ext_puts():
/home/hei/Desktop/optee-qemu/optee_os/lib/libutee/trace_ext.c:17
    23dc:	a9be7bfd 	stp	x29, x30, [sp, #-32]!
    23e0:	910003fd 	mov	x29, sp
    23e4:	f9000bf3 	str	x19, [sp, #16]
    23e8:	aa0003f3 	mov	x19, x0
/home/hei/Desktop/optee-qemu/optee_os/lib/libutee/trace_ext.c:18
    23ec:	97fff864 	bl	57c <strlen>
    23f0:	aa0003e1 	mov	x1, x0
    23f4:	aa1303e0 	mov	x0, x19
/home/hei/Desktop/optee-qemu/optee_os/lib/libutee/trace_ext.c:19
    23f8:	f9400bf3 	ldr	x19, [sp, #16]
    23fc:	a8c27bfd 	ldp	x29, x30, [sp], #32
/home/hei/Desktop/optee-qemu/optee_os/lib/libutee/trace_ext.c:18
    2400:	1400029b 	b	2e6c <utee_log>

0000000000002404 <trace_ext_get_thread_id>:
trace_ext_get_thread_id():
/home/hei/Desktop/optee-qemu/optee_os/lib/libutee/trace_ext.c:24
    2404:	12800000 	mov	w0, #0xffffffff            	// #-1
    2408:	d65f03c0 	ret

000000000000240c <printf>:
printf():
/home/hei/Desktop/optee-qemu/optee_os/lib/libutee/trace_ext.c:32
    240c:	d10883ff 	sub	sp, sp, #0x220
    2410:	a9007bfd 	stp	x29, x30, [sp]
    2414:	910003fd 	mov	x29, sp
    2418:	a90153f3 	stp	x19, x20, [sp, #16]
    241c:	aa0003f3 	mov	x19, x0
    2420:	3d805be0 	str	q0, [sp, #352]
    2424:	3d805fe1 	str	q1, [sp, #368]
    2428:	3d8063e2 	str	q2, [sp, #384]
    242c:	3d8067e3 	str	q3, [sp, #400]
    2430:	3d806be4 	str	q4, [sp, #416]
    2434:	3d806fe5 	str	q5, [sp, #432]
    2438:	3d8073e6 	str	q6, [sp, #448]
    243c:	3d8077e7 	str	q7, [sp, #464]
    2440:	a91e8be1 	stp	x1, x2, [sp, #488]
    2444:	a91f93e3 	stp	x3, x4, [sp, #504]
    2448:	f90107e5 	str	x5, [sp, #520]
    244c:	f9010be6 	str	x6, [sp, #528]
    2450:	f9010fe7 	str	x7, [sp, #536]
/home/hei/Desktop/optee-qemu/optee_os/lib/libutee/trace_ext.c:37
    2454:	97fff889 	bl	678 <trace_get_level>
    2458:	7100001f 	cmp	w0, #0x0
    245c:	5400038d 	b.le	24cc <printf+0xc0>
/home/hei/Desktop/optee-qemu/optee_os/lib/libutee/trace_ext.c:40
    2460:	910883e0 	add	x0, sp, #0x220
    2464:	a90403e0 	stp	x0, x0, [sp, #64]
    2468:	910783e0 	add	x0, sp, #0x1e0
    246c:	f9002be0 	str	x0, [sp, #80]
    2470:	128006e0 	mov	w0, #0xffffffc8            	// #-56
    2474:	b9005be0 	str	w0, [sp, #88]
    2478:	12800fe0 	mov	w0, #0xffffff80            	// #-128
    247c:	b9005fe0 	str	w0, [sp, #92]
/home/hei/Desktop/optee-qemu/optee_os/lib/libutee/trace_ext.c:41
    2480:	910183f4 	add	x20, sp, #0x60
    2484:	a94407e0 	ldp	x0, x1, [sp, #64]
    2488:	a90207e0 	stp	x0, x1, [sp, #32]
    248c:	aa1303e2 	mov	x2, x19
    2490:	a94507e0 	ldp	x0, x1, [sp, #80]
    2494:	910083e3 	add	x3, sp, #0x20
    2498:	a90307e0 	stp	x0, x1, [sp, #48]
    249c:	aa1403e0 	mov	x0, x20
    24a0:	d2802001 	mov	x1, #0x100                 	// #256
    24a4:	94001968 	bl	8a44 <vsnprintf>
    24a8:	2a0003f3 	mov	w19, w0
/home/hei/Desktop/optee-qemu/optee_os/lib/libutee/trace_ext.c:44
    24ac:	37f80060 	tbnz	w0, #31, 24b8 <printf+0xac>
/home/hei/Desktop/optee-qemu/optee_os/lib/libutee/trace_ext.c:47
    24b0:	aa1403e0 	mov	x0, x20
    24b4:	97ffffca 	bl	23dc <trace_ext_puts>
/home/hei/Desktop/optee-qemu/optee_os/lib/libutee/trace_ext.c:50
    24b8:	2a1303e0 	mov	w0, w19
    24bc:	a9407bfd 	ldp	x29, x30, [sp]
    24c0:	a94153f3 	ldp	x19, x20, [sp, #16]
    24c4:	910883ff 	add	sp, sp, #0x220
    24c8:	d65f03c0 	ret
/home/hei/Desktop/optee-qemu/optee_os/lib/libutee/trace_ext.c:38
    24cc:	52800013 	mov	w19, #0x0                   	// #0
    24d0:	17fffffa 	b	24b8 <printf+0xac>

00000000000024d4 <puts>:
puts():
/home/hei/Desktop/optee-qemu/optee_os/lib/libutee/trace_ext.c:53
    24d4:	a9be7bfd 	stp	x29, x30, [sp, #-32]!
    24d8:	910003fd 	mov	x29, sp
    24dc:	f9000bf3 	str	x19, [sp, #16]
    24e0:	aa0003f3 	mov	x19, x0
/home/hei/Desktop/optee-qemu/optee_os/lib/libutee/trace_ext.c:54
    24e4:	97fff865 	bl	678 <trace_get_level>
    24e8:	7100001f 	cmp	w0, #0x0
    24ec:	540000cd 	b.le	2504 <puts+0x30>
/home/hei/Desktop/optee-qemu/optee_os/lib/libutee/trace_ext.c:55
    24f0:	aa1303e0 	mov	x0, x19
    24f4:	97ffffba 	bl	23dc <trace_ext_puts>
/home/hei/Desktop/optee-qemu/optee_os/lib/libutee/trace_ext.c:56
    24f8:	90000040 	adrp	x0, a000 <__text_end+0x12f4>
    24fc:	91338000 	add	x0, x0, #0xce0
    2500:	97ffffb7 	bl	23dc <trace_ext_puts>
/home/hei/Desktop/optee-qemu/optee_os/lib/libutee/trace_ext.c:59
    2504:	52800020 	mov	w0, #0x1                   	// #1
    2508:	f9400bf3 	ldr	x19, [sp, #16]
    250c:	a8c27bfd 	ldp	x29, x30, [sp], #32
    2510:	d65f03c0 	ret

0000000000002514 <putchar>:
putchar():
/home/hei/Desktop/optee-qemu/optee_os/lib/libutee/trace_ext.c:62
    2514:	a9bd7bfd 	stp	x29, x30, [sp, #-48]!
    2518:	910003fd 	mov	x29, sp
    251c:	f9000bf3 	str	x19, [sp, #16]
    2520:	2a0003f3 	mov	w19, w0
/home/hei/Desktop/optee-qemu/optee_os/lib/libutee/trace_ext.c:63
    2524:	3900a3e0 	strb	w0, [sp, #40]
    2528:	3900a7ff 	strb	wzr, [sp, #41]
/home/hei/Desktop/optee-qemu/optee_os/lib/libutee/trace_ext.c:65
    252c:	97fff853 	bl	678 <trace_get_level>
    2530:	7100001f 	cmp	w0, #0x0
    2534:	5400006d 	b.le	2540 <putchar+0x2c>
/home/hei/Desktop/optee-qemu/optee_os/lib/libutee/trace_ext.c:66
    2538:	9100a3e0 	add	x0, sp, #0x28
    253c:	97ffffa8 	bl	23dc <trace_ext_puts>
/home/hei/Desktop/optee-qemu/optee_os/lib/libutee/trace_ext.c:73
    2540:	12001e60 	and	w0, w19, #0xff
    2544:	f9400bf3 	ldr	x19, [sp, #16]
    2548:	a8c37bfd 	ldp	x29, x30, [sp], #48
    254c:	d65f03c0 	ret

0000000000002550 <_assert_log>:
_assert_log():
/home/hei/Desktop/optee-qemu/optee_os/lib/libutee/assert.c:17
    2550:	d10083ff 	sub	sp, sp, #0x20
/home/hei/Desktop/optee-qemu/optee_os/lib/libutee/assert.c:18
    2554:	2a0203e7 	mov	w7, w2
    2558:	aa0103e6 	mov	x6, x1
    255c:	aa0003e5 	mov	x5, x0
    2560:	52800022 	mov	w2, #0x1                   	// #1
    2564:	52800001 	mov	w1, #0x0                   	// #0
/home/hei/Desktop/optee-qemu/optee_os/lib/libutee/assert.c:17
    2568:	a9017bfd 	stp	x29, x30, [sp, #16]
    256c:	910043fd 	add	x29, sp, #0x10
/home/hei/Desktop/optee-qemu/optee_os/lib/libutee/assert.c:18
    2570:	d2800000 	mov	x0, #0x0                   	// #0
    2574:	b0000044 	adrp	x4, b000 <__func__.3755+0x98>
    2578:	f90003e3 	str	x3, [sp]
    257c:	910a3c84 	add	x4, x4, #0x28f
    2580:	52800023 	mov	w3, #0x1                   	// #1
    2584:	97fff8bd 	bl	878 <trace_printf>
/home/hei/Desktop/optee-qemu/optee_os/lib/libutee/assert.c:20
    2588:	a9417bfd 	ldp	x29, x30, [sp, #16]
    258c:	910083ff 	add	sp, sp, #0x20
    2590:	d65f03c0 	ret

0000000000002594 <_assert_break>:
_assert_break():
/home/hei/Desktop/optee-qemu/optee_os/lib/libutee/assert.c:23
    2594:	a9bf7bfd 	stp	x29, x30, [sp, #-16]!
/home/hei/Desktop/optee-qemu/optee_os/lib/libutee/assert.c:24
    2598:	d2bfffe0 	mov	x0, #0xffff0000            	// #4294901760
/home/hei/Desktop/optee-qemu/optee_os/lib/libutee/assert.c:23
    259c:	910003fd 	mov	x29, sp
/home/hei/Desktop/optee-qemu/optee_os/lib/libutee/assert.c:24
    25a0:	9400022d 	bl	2e54 <utee_panic>
/home/hei/Desktop/optee-qemu/optee_os/lib/libutee/assert.c:27 (discriminator 1)
    25a4:	14000000 	b	25a4 <_assert_break+0x10>

00000000000025a8 <update_out_param>:
update_out_param():
/home/hei/Desktop/optee-qemu/optee_os/lib/libutee/tee_api.c:115
    25a8:	a9bb7bfd 	stp	x29, x30, [sp, #-80]!
    25ac:	910003fd 	mov	x29, sp
    25b0:	a90153f3 	stp	x19, x20, [sp, #16]
/home/hei/Desktop/optee-qemu/optee_os/lib/libutee/tee_api.c:117
    25b4:	aa0203f4 	mov	x20, x2
    25b8:	aa0003f3 	mov	x19, x0
/home/hei/Desktop/optee-qemu/optee_os/lib/libutee/tee_api.c:115
    25bc:	a90363f7 	stp	x23, x24, [sp, #48]
/home/hei/Desktop/optee-qemu/optee_os/lib/libutee/tee_api.c:123
    25c0:	90000058 	adrp	x24, a000 <__text_end+0x12f4>
    25c4:	91223318 	add	x24, x24, #0x88c
/home/hei/Desktop/optee-qemu/optee_os/lib/libutee/tee_api.c:117
    25c8:	f8408697 	ldr	x23, [x20], #8
/home/hei/Desktop/optee-qemu/optee_os/lib/libutee/tee_api.c:115
    25cc:	f90023f9 	str	x25, [sp, #64]
    25d0:	aa0103f9 	mov	x25, x1
    25d4:	a9025bf5 	stp	x21, x22, [sp, #32]
/home/hei/Desktop/optee-qemu/optee_os/lib/libutee/tee_api.c:119
    25d8:	d2800015 	mov	x21, #0x0                   	// #0
/home/hei/Desktop/optee-qemu/optee_os/lib/libutee/tee_api.c:123
    25dc:	531e76a0 	lsl	w0, w21, #2
/home/hei/Desktop/optee-qemu/optee_os/lib/libutee/tee_api.c:121
    25e0:	f9400696 	ldr	x22, [x20, #8]
/home/hei/Desktop/optee-qemu/optee_os/lib/libutee/tee_api.c:123
    25e4:	1ac026e0 	lsr	w0, w23, w0
    25e8:	12000c00 	and	w0, w0, #0xf
    25ec:	51000800 	sub	w0, w0, #0x2
    25f0:	7100141f 	cmp	w0, #0x5
    25f4:	540000e8 	b.hi	2610 <update_out_param+0x68>  // b.pmore
    25f8:	38604b00 	ldrb	w0, [x24, w0, uxtw]
    25fc:	10000061 	adr	x1, 2608 <update_out_param+0x60>
    2600:	8b208820 	add	x0, x1, w0, sxtb #2
    2604:	d61f0000 	br	x0
/home/hei/Desktop/optee-qemu/optee_os/lib/libutee/tee_api.c:126
    2608:	f9400280 	ldr	x0, [x20]
/home/hei/Desktop/optee-qemu/optee_os/lib/libutee/tee_api.c:127
    260c:	29005a60 	stp	w0, w22, [x19]
/home/hei/Desktop/optee-qemu/optee_os/lib/libutee/tee_api.c:119 (discriminator 2)
    2610:	910006b5 	add	x21, x21, #0x1
    2614:	91004294 	add	x20, x20, #0x10
    2618:	91004273 	add	x19, x19, #0x10
    261c:	f10012bf 	cmp	x21, #0x4
    2620:	54fffde1 	b.ne	25dc <update_out_param+0x34>  // b.any
/home/hei/Desktop/optee-qemu/optee_os/lib/libutee/tee_api.c:140
    2624:	a94153f3 	ldp	x19, x20, [sp, #16]
    2628:	a9425bf5 	ldp	x21, x22, [sp, #32]
    262c:	a94363f7 	ldp	x23, x24, [sp, #48]
    2630:	f94023f9 	ldr	x25, [sp, #64]
    2634:	a8c57bfd 	ldp	x29, x30, [sp], #80
    2638:	d65f03c0 	ret
/home/hei/Desktop/optee-qemu/optee_os/lib/libutee/tee_api.c:131
    263c:	f8757b21 	ldr	x1, [x25, x21, lsl #3]
    2640:	b40000c1 	cbz	x1, 2658 <update_out_param+0xb0>
/home/hei/Desktop/optee-qemu/optee_os/lib/libutee/tee_api.c:133
    2644:	b9400a62 	ldr	w2, [x19, #8]
/home/hei/Desktop/optee-qemu/optee_os/lib/libutee/tee_api.c:132
    2648:	f9400260 	ldr	x0, [x19]
/home/hei/Desktop/optee-qemu/optee_os/lib/libutee/tee_api.c:133
    264c:	eb16005f 	cmp	x2, x22
/home/hei/Desktop/optee-qemu/optee_os/lib/libutee/tee_api.c:132
    2650:	9a969042 	csel	x2, x2, x22, ls  // ls = plast
    2654:	97fff7bc 	bl	544 <memcpy>
/home/hei/Desktop/optee-qemu/optee_os/lib/libutee/tee_api.c:134
    2658:	b9000a76 	str	w22, [x19, #8]
/home/hei/Desktop/optee-qemu/optee_os/lib/libutee/tee_api.c:135
    265c:	17ffffed 	b	2610 <update_out_param+0x68>

0000000000002660 <TEE_CloseTASession>:
TEE_CloseTASession():
/home/hei/Desktop/optee-qemu/optee_os/lib/libutee/tee_api.c:184
    2660:	b4000120 	cbz	x0, 2684 <TEE_CloseTASession+0x24>
/home/hei/Desktop/optee-qemu/optee_os/lib/libutee/tee_api.c:183
    2664:	a9bf7bfd 	stp	x29, x30, [sp, #-16]!
    2668:	910003fd 	mov	x29, sp
/home/hei/Desktop/optee-qemu/optee_os/lib/libutee/tee_api.c:185
    266c:	9400020f 	bl	2ea8 <utee_close_ta_session>
/home/hei/Desktop/optee-qemu/optee_os/lib/libutee/tee_api.c:187
    2670:	34000060 	cbz	w0, 267c <TEE_CloseTASession+0x1c>
/home/hei/Desktop/optee-qemu/optee_os/lib/libutee/tee_api.c:190
    2674:	a8c17bfd 	ldp	x29, x30, [sp], #16
/home/hei/Desktop/optee-qemu/optee_os/lib/libutee/tee_api.c:188
    2678:	14000193 	b	2cc4 <TEE_Panic>
/home/hei/Desktop/optee-qemu/optee_os/lib/libutee/tee_api.c:190
    267c:	a8c17bfd 	ldp	x29, x30, [sp], #16
    2680:	d65f03c0 	ret
    2684:	d65f03c0 	ret

0000000000002688 <TEE_GetCancellationFlag>:
TEE_GetCancellationFlag():
/home/hei/Desktop/optee-qemu/optee_os/lib/libutee/tee_api.c:237
    2688:	a9be7bfd 	stp	x29, x30, [sp, #-32]!
    268c:	910003fd 	mov	x29, sp
/home/hei/Desktop/optee-qemu/optee_os/lib/libutee/tee_api.c:239
    2690:	910073e0 	add	x0, sp, #0x1c
    2694:	9400020b 	bl	2ec0 <utee_get_cancellation_flag>
/home/hei/Desktop/optee-qemu/optee_os/lib/libutee/tee_api.c:241
    2698:	34000040 	cbz	w0, 26a0 <TEE_GetCancellationFlag+0x18>
/home/hei/Desktop/optee-qemu/optee_os/lib/libutee/tee_api.c:242
    269c:	b9001fff 	str	wzr, [sp, #28]
/home/hei/Desktop/optee-qemu/optee_os/lib/libutee/tee_api.c:243
    26a0:	b9401fe0 	ldr	w0, [sp, #28]
/home/hei/Desktop/optee-qemu/optee_os/lib/libutee/tee_api.c:244
    26a4:	a8c27bfd 	ldp	x29, x30, [sp], #32
/home/hei/Desktop/optee-qemu/optee_os/lib/libutee/tee_api.c:243
    26a8:	7100001f 	cmp	w0, #0x0
/home/hei/Desktop/optee-qemu/optee_os/lib/libutee/tee_api.c:244
    26ac:	1a9f07e0 	cset	w0, ne  // ne = any
    26b0:	d65f03c0 	ret

00000000000026b4 <TEE_UnmaskCancellation>:
TEE_UnmaskCancellation():
/home/hei/Desktop/optee-qemu/optee_os/lib/libutee/tee_api.c:247
    26b4:	a9be7bfd 	stp	x29, x30, [sp, #-32]!
    26b8:	910003fd 	mov	x29, sp
/home/hei/Desktop/optee-qemu/optee_os/lib/libutee/tee_api.c:249
    26bc:	910073e0 	add	x0, sp, #0x1c
    26c0:	94000206 	bl	2ed8 <utee_unmask_cancellation>
/home/hei/Desktop/optee-qemu/optee_os/lib/libutee/tee_api.c:251
    26c4:	34000040 	cbz	w0, 26cc <TEE_UnmaskCancellation+0x18>
/home/hei/Desktop/optee-qemu/optee_os/lib/libutee/tee_api.c:252
    26c8:	9400017f 	bl	2cc4 <TEE_Panic>
/home/hei/Desktop/optee-qemu/optee_os/lib/libutee/tee_api.c:253
    26cc:	b9401fe0 	ldr	w0, [sp, #28]
/home/hei/Desktop/optee-qemu/optee_os/lib/libutee/tee_api.c:254
    26d0:	a8c27bfd 	ldp	x29, x30, [sp], #32
/home/hei/Desktop/optee-qemu/optee_os/lib/libutee/tee_api.c:253
    26d4:	7100001f 	cmp	w0, #0x0
/home/hei/Desktop/optee-qemu/optee_os/lib/libutee/tee_api.c:254
    26d8:	1a9f07e0 	cset	w0, ne  // ne = any
    26dc:	d65f03c0 	ret

00000000000026e0 <TEE_MaskCancellation>:
TEE_MaskCancellation():
/home/hei/Desktop/optee-qemu/optee_os/lib/libutee/tee_api.c:257
    26e0:	a9be7bfd 	stp	x29, x30, [sp, #-32]!
    26e4:	910003fd 	mov	x29, sp
/home/hei/Desktop/optee-qemu/optee_os/lib/libutee/tee_api.c:259
    26e8:	910073e0 	add	x0, sp, #0x1c
    26ec:	940001fe 	bl	2ee4 <utee_mask_cancellation>
/home/hei/Desktop/optee-qemu/optee_os/lib/libutee/tee_api.c:261
    26f0:	34000040 	cbz	w0, 26f8 <TEE_MaskCancellation+0x18>
/home/hei/Desktop/optee-qemu/optee_os/lib/libutee/tee_api.c:262
    26f4:	94000174 	bl	2cc4 <TEE_Panic>
/home/hei/Desktop/optee-qemu/optee_os/lib/libutee/tee_api.c:263
    26f8:	b9401fe0 	ldr	w0, [sp, #28]
/home/hei/Desktop/optee-qemu/optee_os/lib/libutee/tee_api.c:264
    26fc:	a8c27bfd 	ldp	x29, x30, [sp], #32
/home/hei/Desktop/optee-qemu/optee_os/lib/libutee/tee_api.c:263
    2700:	7100001f 	cmp	w0, #0x0
/home/hei/Desktop/optee-qemu/optee_os/lib/libutee/tee_api.c:264
    2704:	1a9f07e0 	cset	w0, ne  // ne = any
    2708:	d65f03c0 	ret

000000000000270c <TEE_CheckMemoryAccessRights>:
TEE_CheckMemoryAccessRights():
/home/hei/Desktop/optee-qemu/optee_os/lib/libutee/tee_api.c:273
    270c:	34000062 	cbz	w2, 2718 <TEE_CheckMemoryAccessRights+0xc>
/home/hei/Desktop/optee-qemu/optee_os/lib/libutee/tee_api.c:277
    2710:	2a0203e2 	mov	w2, w2
    2714:	140001ee 	b	2ecc <utee_check_access_rights>
/home/hei/Desktop/optee-qemu/optee_os/lib/libutee/tee_api.c:289
    2718:	52800000 	mov	w0, #0x0                   	// #0
    271c:	d65f03c0 	ret

0000000000002720 <copy_param.constprop.1>:
copy_param():
/home/hei/Desktop/optee-qemu/optee_os/lib/libutee/tee_api.c:19
    2720:	a9b87bfd 	stp	x29, x30, [sp, #-128]!
    2724:	910003fd 	mov	x29, sp
    2728:	a9046bf9 	stp	x25, x26, [sp, #64]
    272c:	aa0303f9 	mov	x25, x3
/home/hei/Desktop/optee-qemu/optee_os/lib/libutee/tee_api.c:60
    2730:	9101e3e3 	add	x3, sp, #0x78
/home/hei/Desktop/optee-qemu/optee_os/lib/libutee/tee_api.c:19
    2734:	a90363f7 	stp	x23, x24, [sp, #48]
    2738:	aa0403f8 	mov	x24, x4
    273c:	aa0503f7 	mov	x23, x5
    2740:	a90153f3 	stp	x19, x20, [sp, #16]
    2744:	aa0003f3 	mov	x19, x0
    2748:	aa0203f4 	mov	x20, x2
    274c:	a9025bf5 	stp	x21, x22, [sp, #32]
    2750:	2a0103f6 	mov	w22, w1
/home/hei/Desktop/optee-qemu/optee_os/lib/libutee/tee_api.c:41
    2754:	d2800015 	mov	x21, #0x0                   	// #0
/home/hei/Desktop/optee-qemu/optee_os/lib/libutee/tee_api.c:19
    2758:	a90573fb 	stp	x27, x28, [sp, #80]
/home/hei/Desktop/optee-qemu/optee_os/lib/libutee/tee_api.c:48
    275c:	9100205c 	add	x28, x2, #0x8
/home/hei/Desktop/optee-qemu/optee_os/lib/libutee/tee_api.c:26
    2760:	d280001b 	mov	x27, #0x0                   	// #0
/home/hei/Desktop/optee-qemu/optee_os/lib/libutee/tee_api.c:39
    2764:	f900033f 	str	xzr, [x25]
/home/hei/Desktop/optee-qemu/optee_os/lib/libutee/tee_api.c:60
    2768:	52800024 	mov	w4, #0x1                   	// #1
/home/hei/Desktop/optee-qemu/optee_os/lib/libutee/tee_api.c:40
    276c:	f900031f 	str	xzr, [x24]
/home/hei/Desktop/optee-qemu/optee_os/lib/libutee/tee_api.c:28
    2770:	b9007bff 	str	wzr, [sp, #120]
/home/hei/Desktop/optee-qemu/optee_os/lib/libutee/tee_api.c:43
    2774:	531e76a0 	lsl	w0, w21, #2
/home/hei/Desktop/optee-qemu/optee_os/lib/libutee/tee_api.c:42
    2778:	f8357aff 	str	xzr, [x23, x21, lsl #3]
/home/hei/Desktop/optee-qemu/optee_os/lib/libutee/tee_api.c:43
    277c:	1ac026c0 	lsr	w0, w22, w0
    2780:	12000c00 	and	w0, w0, #0xf
    2784:	51001400 	sub	w0, w0, #0x5
    2788:	7100081f 	cmp	w0, #0x2
    278c:	54000268 	b.hi	27d8 <copy_param.constprop.1+0xb8>  // b.pmore
/home/hei/Desktop/optee-qemu/optee_os/lib/libutee/tee_api.c:47
    2790:	d37ceea0 	lsl	x0, x21, #4
/home/hei/Desktop/optee-qemu/optee_os/lib/libutee/tee_api.c:48
    2794:	b8606b82 	ldr	w2, [x28, x0]
/home/hei/Desktop/optee-qemu/optee_os/lib/libutee/tee_api.c:47
    2798:	f8606a81 	ldr	x1, [x20, x0]
/home/hei/Desktop/optee-qemu/optee_os/lib/libutee/tee_api.c:48
    279c:	2a0203fa 	mov	w26, w2
/home/hei/Desktop/optee-qemu/optee_os/lib/libutee/tee_api.c:58
    27a0:	f100003f 	cmp	x1, #0x0
    27a4:	fa401b44 	ccmp	x26, #0x0, #0x4, ne  // ne = any
    27a8:	54000180 	b.eq	27d8 <copy_param.constprop.1+0xb8>  // b.none
/home/hei/Desktop/optee-qemu/optee_os/lib/libutee/tee_api.c:59
    27ac:	52800020 	mov	w0, #0x1                   	// #1
    27b0:	f90033e3 	str	x3, [sp, #96]
    27b4:	b9006fe4 	str	w4, [sp, #108]
    27b8:	97ffffd5 	bl	270c <TEE_CheckMemoryAccessRights>
/home/hei/Desktop/optee-qemu/optee_os/lib/libutee/tee_api.c:58
    27bc:	b9406fe4 	ldr	w4, [sp, #108]
    27c0:	f94033e3 	ldr	x3, [sp, #96]
    27c4:	350000a0 	cbnz	w0, 27d8 <copy_param.constprop.1+0xb8>
/home/hei/Desktop/optee-qemu/optee_os/lib/libutee/tee_api.c:61
    27c8:	91003f5a 	add	x26, x26, #0xf
/home/hei/Desktop/optee-qemu/optee_os/lib/libutee/tee_api.c:60
    27cc:	38236aa4 	strb	w4, [x21, x3]
/home/hei/Desktop/optee-qemu/optee_os/lib/libutee/tee_api.c:61
    27d0:	927cef5a 	and	x26, x26, #0xfffffffffffffff0
    27d4:	8b1a037b 	add	x27, x27, x26
/home/hei/Desktop/optee-qemu/optee_os/lib/libutee/tee_api.c:41
    27d8:	910006b5 	add	x21, x21, #0x1
    27dc:	f10012bf 	cmp	x21, #0x4
    27e0:	54fffca1 	b.ne	2774 <copy_param.constprop.1+0x54>  // b.any
/home/hei/Desktop/optee-qemu/optee_os/lib/libutee/tee_api.c:69
    27e4:	b400031b 	cbz	x27, 2844 <copy_param.constprop.1+0x124>
/home/hei/Desktop/optee-qemu/optee_os/lib/libutee/tee_api.c:70
    27e8:	2a1503e1 	mov	w1, w21
    27ec:	aa1b03e0 	mov	x0, x27
    27f0:	94000159 	bl	2d54 <tee_map_zi>
    27f4:	aa0003e3 	mov	x3, x0
/home/hei/Desktop/optee-qemu/optee_os/lib/libutee/tee_api.c:71
    27f8:	b4000780 	cbz	x0, 28e8 <copy_param.constprop.1+0x1c8>
/home/hei/Desktop/optee-qemu/optee_os/lib/libutee/tee_api.c:73
    27fc:	f9000320 	str	x0, [x25]
/home/hei/Desktop/optee-qemu/optee_os/lib/libutee/tee_api.c:74
    2800:	f900031b 	str	x27, [x24]
/home/hei/Desktop/optee-qemu/optee_os/lib/libutee/tee_api.c:79
    2804:	90000059 	adrp	x25, a000 <__text_end+0x12f4>
/home/hei/Desktop/optee-qemu/optee_os/lib/libutee/tee_api.c:89
    2808:	9101e3fb 	add	x27, sp, #0x78
/home/hei/Desktop/optee-qemu/optee_os/lib/libutee/tee_api.c:79
    280c:	91225339 	add	x25, x25, #0x894
/home/hei/Desktop/optee-qemu/optee_os/lib/libutee/tee_api.c:77
    2810:	2a1603e0 	mov	w0, w22
/home/hei/Desktop/optee-qemu/optee_os/lib/libutee/tee_api.c:78
    2814:	d2800015 	mov	x21, #0x0                   	// #0
/home/hei/Desktop/optee-qemu/optee_os/lib/libutee/tee_api.c:77
    2818:	f8008660 	str	x0, [x19], #8
/home/hei/Desktop/optee-qemu/optee_os/lib/libutee/tee_api.c:79
    281c:	531e76a0 	lsl	w0, w21, #2
    2820:	1ac026c0 	lsr	w0, w22, w0
    2824:	12000c00 	and	w0, w0, #0xf
    2828:	51000401 	sub	w1, w0, #0x1
    282c:	7100183f 	cmp	w1, #0x6
    2830:	54000588 	b.hi	28e0 <copy_param.constprop.1+0x1c0>  // b.pmore
    2834:	38614b21 	ldrb	w1, [x25, w1, uxtw]
    2838:	10000062 	adr	x2, 2844 <copy_param.constprop.1+0x124>
    283c:	8b218841 	add	x1, x2, w1, sxtb #2
    2840:	d61f0020 	br	x1
/home/hei/Desktop/optee-qemu/optee_os/lib/libutee/tee_api.c:25
    2844:	d2800003 	mov	x3, #0x0                   	// #0
    2848:	17ffffef 	b	2804 <copy_param.constprop.1+0xe4>
/home/hei/Desktop/optee-qemu/optee_os/lib/libutee/tee_api.c:82
    284c:	b9400280 	ldr	w0, [x20]
    2850:	f9000260 	str	x0, [x19]
/home/hei/Desktop/optee-qemu/optee_os/lib/libutee/tee_api.c:83
    2854:	b9400680 	ldr	w0, [x20, #4]
    2858:	f9000660 	str	x0, [x19, #8]
/home/hei/Desktop/optee-qemu/optee_os/lib/libutee/tee_api.c:78
    285c:	910006b5 	add	x21, x21, #0x1
    2860:	91004294 	add	x20, x20, #0x10
    2864:	91004273 	add	x19, x19, #0x10
    2868:	f10012bf 	cmp	x21, #0x4
    286c:	54fffd81 	b.ne	281c <copy_param.constprop.1+0xfc>  // b.any
/home/hei/Desktop/optee-qemu/optee_os/lib/libutee/tee_api.c:109
    2870:	52800000 	mov	w0, #0x0                   	// #0
/home/hei/Desktop/optee-qemu/optee_os/lib/libutee/tee_api.c:110
    2874:	a94153f3 	ldp	x19, x20, [sp, #16]
    2878:	a9425bf5 	ldp	x21, x22, [sp, #32]
    287c:	a94363f7 	ldp	x23, x24, [sp, #48]
    2880:	a9446bf9 	ldp	x25, x26, [sp, #64]
    2884:	a94573fb 	ldp	x27, x28, [sp, #80]
    2888:	a8c87bfd 	ldp	x29, x30, [sp], #128
    288c:	d65f03c0 	ret
/home/hei/Desktop/optee-qemu/optee_os/lib/libutee/tee_api.c:89
    2890:	387b6aa1 	ldrb	w1, [x21, x27]
/home/hei/Desktop/optee-qemu/optee_os/lib/libutee/tee_api.c:88
    2894:	b9400a9a 	ldr	w26, [x20, #8]
/home/hei/Desktop/optee-qemu/optee_os/lib/libutee/tee_api.c:89
    2898:	340001e1 	cbz	w1, 28d4 <copy_param.constprop.1+0x1b4>
/home/hei/Desktop/optee-qemu/optee_os/lib/libutee/tee_api.c:92
    289c:	91003f58 	add	x24, x26, #0xf
/home/hei/Desktop/optee-qemu/optee_os/lib/libutee/tee_api.c:91
    28a0:	f8357ae3 	str	x3, [x23, x21, lsl #3]
/home/hei/Desktop/optee-qemu/optee_os/lib/libutee/tee_api.c:92
    28a4:	927cef18 	and	x24, x24, #0xfffffffffffffff0
/home/hei/Desktop/optee-qemu/optee_os/lib/libutee/tee_api.c:93
    28a8:	7100181f 	cmp	w0, #0x6
/home/hei/Desktop/optee-qemu/optee_os/lib/libutee/tee_api.c:92
    28ac:	8b180078 	add	x24, x3, x24
/home/hei/Desktop/optee-qemu/optee_os/lib/libutee/tee_api.c:93
    28b0:	540000c0 	b.eq	28c8 <copy_param.constprop.1+0x1a8>  // b.none
/home/hei/Desktop/optee-qemu/optee_os/lib/libutee/tee_api.c:95
    28b4:	f9400281 	ldr	x1, [x20]
    28b8:	aa0303e0 	mov	x0, x3
    28bc:	aa1a03e2 	mov	x2, x26
    28c0:	97fff721 	bl	544 <memcpy>
    28c4:	aa0003e3 	mov	x3, x0
/home/hei/Desktop/optee-qemu/optee_os/lib/libutee/tee_api.c:100
    28c8:	a9006a63 	stp	x3, x26, [x19]
    28cc:	aa1803e3 	mov	x3, x24
    28d0:	17ffffe3 	b	285c <copy_param.constprop.1+0x13c>
/home/hei/Desktop/optee-qemu/optee_os/lib/libutee/tee_api.c:97
    28d4:	aa0303f8 	mov	x24, x3
    28d8:	f9400283 	ldr	x3, [x20]
    28dc:	17fffffb 	b	28c8 <copy_param.constprop.1+0x1a8>
/home/hei/Desktop/optee-qemu/optee_os/lib/libutee/tee_api.c:104
    28e0:	a9007e7f 	stp	xzr, xzr, [x19]
/home/hei/Desktop/optee-qemu/optee_os/lib/libutee/tee_api.c:105
    28e4:	17ffffde 	b	285c <copy_param.constprop.1+0x13c>
/home/hei/Desktop/optee-qemu/optee_os/lib/libutee/tee_api.c:72
    28e8:	129ffe60 	mov	w0, #0xffff000c            	// #-65524
    28ec:	17ffffe2 	b	2874 <copy_param.constprop.1+0x154>

00000000000028f0 <TEE_InvokeTACommand>:
TEE_InvokeTACommand():
/home/hei/Desktop/optee-qemu/optee_os/lib/libutee/tee_api.c:197
    28f0:	a9b37bfd 	stp	x29, x30, [sp, #-208]!
    28f4:	910003fd 	mov	x29, sp
    28f8:	a90153f3 	stp	x19, x20, [sp, #16]
/home/hei/Desktop/optee-qemu/optee_os/lib/libutee/tee_api.c:205
    28fc:	910223f4 	add	x20, sp, #0x88
/home/hei/Desktop/optee-qemu/optee_os/lib/libutee/tee_api.c:197
    2900:	a9025bf5 	stp	x21, x22, [sp, #32]
    2904:	aa0403f6 	mov	x22, x4
    2908:	aa0503f5 	mov	x21, x5
    290c:	a90363f7 	stp	x23, x24, [sp, #48]
    2910:	aa0003f8 	mov	x24, x0
/home/hei/Desktop/optee-qemu/optee_os/lib/libutee/tee_api.c:205
    2914:	9101a3f7 	add	x23, sp, #0x68
/home/hei/Desktop/optee-qemu/optee_os/lib/libutee/tee_api.c:199
    2918:	52800060 	mov	w0, #0x3                   	// #3
/home/hei/Desktop/optee-qemu/optee_os/lib/libutee/tee_api.c:205
    291c:	aa1703e5 	mov	x5, x23
    2920:	910183e4 	add	x4, sp, #0x60
/home/hei/Desktop/optee-qemu/optee_os/lib/libutee/tee_api.c:197
    2924:	a9046bf9 	stp	x25, x26, [sp, #64]
    2928:	2a0103f9 	mov	w25, w1
    292c:	2a0203fa 	mov	w26, w2
    2930:	2a0303e1 	mov	w1, w3
/home/hei/Desktop/optee-qemu/optee_os/lib/libutee/tee_api.c:205
    2934:	aa1603e2 	mov	x2, x22
    2938:	910163e3 	add	x3, sp, #0x58
/home/hei/Desktop/optee-qemu/optee_os/lib/libutee/tee_api.c:199
    293c:	b90057e0 	str	w0, [sp, #84]
/home/hei/Desktop/optee-qemu/optee_os/lib/libutee/tee_api.c:205
    2940:	aa1403e0 	mov	x0, x20
/home/hei/Desktop/optee-qemu/optee_os/lib/libutee/tee_api.c:202
    2944:	a905ffff 	stp	xzr, xzr, [sp, #88]
/home/hei/Desktop/optee-qemu/optee_os/lib/libutee/tee_api.c:203
    2948:	a906ffff 	stp	xzr, xzr, [sp, #104]
    294c:	a907ffff 	stp	xzr, xzr, [sp, #120]
/home/hei/Desktop/optee-qemu/optee_os/lib/libutee/tee_api.c:205
    2950:	97ffff74 	bl	2720 <copy_param.constprop.1>
    2954:	2a0003f3 	mov	w19, w0
/home/hei/Desktop/optee-qemu/optee_os/lib/libutee/tee_api.c:206
    2958:	35000240 	cbnz	w0, 29a0 <TEE_InvokeTACommand+0xb0>
/home/hei/Desktop/optee-qemu/optee_os/lib/libutee/tee_api.c:208
    295c:	910153e4 	add	x4, sp, #0x54
    2960:	aa1403e3 	mov	x3, x20
    2964:	2a1a03e2 	mov	w2, w26
    2968:	2a1903e1 	mov	w1, w25
    296c:	aa1803e0 	mov	x0, x24
    2970:	94000151 	bl	2eb4 <utee_invoke_ta_command>
/home/hei/Desktop/optee-qemu/optee_os/lib/libutee/tee_api.c:211
    2974:	aa1403e2 	mov	x2, x20
/home/hei/Desktop/optee-qemu/optee_os/lib/libutee/tee_api.c:208
    2978:	2a0003f3 	mov	w19, w0
/home/hei/Desktop/optee-qemu/optee_os/lib/libutee/tee_api.c:211
    297c:	aa1703e1 	mov	x1, x23
    2980:	aa1603e0 	mov	x0, x22
    2984:	97ffff09 	bl	25a8 <update_out_param>
/home/hei/Desktop/optee-qemu/optee_os/lib/libutee/tee_api.c:212
    2988:	f9402fe0 	ldr	x0, [sp, #88]
    298c:	b40000a0 	cbz	x0, 29a0 <TEE_InvokeTACommand+0xb0>
/home/hei/Desktop/optee-qemu/optee_os/lib/libutee/tee_api.c:213
    2990:	f94033e1 	ldr	x1, [sp, #96]
    2994:	9400010d 	bl	2dc8 <tee_unmap>
/home/hei/Desktop/optee-qemu/optee_os/lib/libutee/tee_api.c:215
    2998:	34000040 	cbz	w0, 29a0 <TEE_InvokeTACommand+0xb0>
/home/hei/Desktop/optee-qemu/optee_os/lib/libutee/tee_api.c:216
    299c:	940000ca 	bl	2cc4 <TEE_Panic>
/home/hei/Desktop/optee-qemu/optee_os/lib/libutee/tee_api.c:220
    29a0:	b94057e0 	ldr	w0, [sp, #84]
    29a4:	b4000055 	cbz	x21, 29ac <TEE_InvokeTACommand+0xbc>
/home/hei/Desktop/optee-qemu/optee_os/lib/libutee/tee_api.c:221
    29a8:	b90002a0 	str	w0, [x21]
/home/hei/Desktop/optee-qemu/optee_os/lib/libutee/tee_api.c:223
    29ac:	7100101f 	cmp	w0, #0x4
    29b0:	54000140 	b.eq	29d8 <TEE_InvokeTACommand+0xe8>  // b.none
/home/hei/Desktop/optee-qemu/optee_os/lib/libutee/tee_api.c:226
    29b4:	7100027f 	cmp	w19, #0x0
    29b8:	129ffe60 	mov	w0, #0xffff000c            	// #-65524
    29bc:	7a401264 	ccmp	w19, w0, #0x4, ne  // ne = any
    29c0:	540000c0 	b.eq	29d8 <TEE_InvokeTACommand+0xe8>  // b.none
/home/hei/Desktop/optee-qemu/optee_os/lib/libutee/tee_api.c:227
    29c4:	1299fb60 	mov	w0, #0xffff3024            	// #-53212
    29c8:	6b00027f 	cmp	w19, w0
    29cc:	54000060 	b.eq	29d8 <TEE_InvokeTACommand+0xe8>  // b.none
/home/hei/Desktop/optee-qemu/optee_os/lib/libutee/tee_api.c:229
    29d0:	2a1303e0 	mov	w0, w19
    29d4:	940000bc 	bl	2cc4 <TEE_Panic>
/home/hei/Desktop/optee-qemu/optee_os/lib/libutee/tee_api.c:232
    29d8:	2a1303e0 	mov	w0, w19
    29dc:	a94153f3 	ldp	x19, x20, [sp, #16]
    29e0:	a9425bf5 	ldp	x21, x22, [sp, #32]
    29e4:	a94363f7 	ldp	x23, x24, [sp, #48]
    29e8:	a9446bf9 	ldp	x25, x26, [sp, #64]
    29ec:	a8cd7bfd 	ldp	x29, x30, [sp], #208
    29f0:	d65f03c0 	ret

00000000000029f4 <TEE_OpenTASession>:
TEE_OpenTASession():
/home/hei/Desktop/optee-qemu/optee_os/lib/libutee/tee_api.c:148
    29f4:	a9b37bfd 	stp	x29, x30, [sp, #-208]!
    29f8:	910003fd 	mov	x29, sp
    29fc:	a90153f3 	stp	x19, x20, [sp, #16]
/home/hei/Desktop/optee-qemu/optee_os/lib/libutee/tee_api.c:156
    2a00:	910223f4 	add	x20, sp, #0x88
/home/hei/Desktop/optee-qemu/optee_os/lib/libutee/tee_api.c:148
    2a04:	a9025bf5 	stp	x21, x22, [sp, #32]
    2a08:	aa0303f5 	mov	x21, x3
/home/hei/Desktop/optee-qemu/optee_os/lib/libutee/tee_api.c:156
    2a0c:	9101a3f6 	add	x22, sp, #0x68
    2a10:	910163e3 	add	x3, sp, #0x58
/home/hei/Desktop/optee-qemu/optee_os/lib/libutee/tee_api.c:148
    2a14:	a90363f7 	stp	x23, x24, [sp, #48]
    2a18:	aa0003f8 	mov	x24, x0
    2a1c:	aa0403f7 	mov	x23, x4
/home/hei/Desktop/optee-qemu/optee_os/lib/libutee/tee_api.c:156
    2a20:	aa1403e0 	mov	x0, x20
    2a24:	910183e4 	add	x4, sp, #0x60
/home/hei/Desktop/optee-qemu/optee_os/lib/libutee/tee_api.c:148
    2a28:	a9046bf9 	stp	x25, x26, [sp, #64]
    2a2c:	2a0103f9 	mov	w25, w1
    2a30:	aa0503fa 	mov	x26, x5
    2a34:	2a0203e1 	mov	w1, w2
/home/hei/Desktop/optee-qemu/optee_os/lib/libutee/tee_api.c:156
    2a38:	aa1603e5 	mov	x5, x22
    2a3c:	aa1503e2 	mov	x2, x21
/home/hei/Desktop/optee-qemu/optee_os/lib/libutee/tee_api.c:151
    2a40:	b90057ff 	str	wzr, [sp, #84]
/home/hei/Desktop/optee-qemu/optee_os/lib/libutee/tee_api.c:153
    2a44:	a905ffff 	stp	xzr, xzr, [sp, #88]
/home/hei/Desktop/optee-qemu/optee_os/lib/libutee/tee_api.c:154
    2a48:	a906ffff 	stp	xzr, xzr, [sp, #104]
    2a4c:	a907ffff 	stp	xzr, xzr, [sp, #120]
/home/hei/Desktop/optee-qemu/optee_os/lib/libutee/tee_api.c:156
    2a50:	97ffff34 	bl	2720 <copy_param.constprop.1>
/home/hei/Desktop/optee-qemu/optee_os/lib/libutee/tee_api.c:157
    2a54:	350003a0 	cbnz	w0, 2ac8 <TEE_OpenTASession+0xd4>
/home/hei/Desktop/optee-qemu/optee_os/lib/libutee/tee_api.c:159
    2a58:	aa1a03e4 	mov	x4, x26
    2a5c:	910153e3 	add	x3, sp, #0x54
    2a60:	aa1403e2 	mov	x2, x20
    2a64:	2a1903e1 	mov	w1, w25
    2a68:	aa1803e0 	mov	x0, x24
    2a6c:	9400010c 	bl	2e9c <utee_open_ta_session>
/home/hei/Desktop/optee-qemu/optee_os/lib/libutee/tee_api.c:161
    2a70:	aa1403e2 	mov	x2, x20
/home/hei/Desktop/optee-qemu/optee_os/lib/libutee/tee_api.c:159
    2a74:	2a0003f3 	mov	w19, w0
/home/hei/Desktop/optee-qemu/optee_os/lib/libutee/tee_api.c:161
    2a78:	aa1603e1 	mov	x1, x22
    2a7c:	aa1503e0 	mov	x0, x21
    2a80:	97fffeca 	bl	25a8 <update_out_param>
/home/hei/Desktop/optee-qemu/optee_os/lib/libutee/tee_api.c:162
    2a84:	f9402fe0 	ldr	x0, [sp, #88]
    2a88:	b40000a0 	cbz	x0, 2a9c <TEE_OpenTASession+0xa8>
/home/hei/Desktop/optee-qemu/optee_os/lib/libutee/tee_api.c:163
    2a8c:	f94033e1 	ldr	x1, [sp, #96]
    2a90:	940000ce 	bl	2dc8 <tee_unmap>
/home/hei/Desktop/optee-qemu/optee_os/lib/libutee/tee_api.c:165
    2a94:	34000040 	cbz	w0, 2a9c <TEE_OpenTASession+0xa8>
/home/hei/Desktop/optee-qemu/optee_os/lib/libutee/tee_api.c:166
    2a98:	9400008b 	bl	2cc4 <TEE_Panic>
/home/hei/Desktop/optee-qemu/optee_os/lib/libutee/tee_api.c:175
    2a9c:	34000053 	cbz	w19, 2aa4 <TEE_OpenTASession+0xb0>
/home/hei/Desktop/optee-qemu/optee_os/lib/libutee/tee_api.c:176
    2aa0:	b90057ff 	str	wzr, [sp, #84]
/home/hei/Desktop/optee-qemu/optee_os/lib/libutee/tee_api.c:178
    2aa4:	b94057e0 	ldr	w0, [sp, #84]
/home/hei/Desktop/optee-qemu/optee_os/lib/libutee/tee_api.c:180
    2aa8:	a9425bf5 	ldp	x21, x22, [sp, #32]
    2aac:	a9446bf9 	ldp	x25, x26, [sp, #64]
/home/hei/Desktop/optee-qemu/optee_os/lib/libutee/tee_api.c:178
    2ab0:	f90002e0 	str	x0, [x23]
/home/hei/Desktop/optee-qemu/optee_os/lib/libutee/tee_api.c:180
    2ab4:	2a1303e0 	mov	w0, w19
    2ab8:	a94153f3 	ldp	x19, x20, [sp, #16]
    2abc:	a94363f7 	ldp	x23, x24, [sp, #48]
    2ac0:	a8cd7bfd 	ldp	x29, x30, [sp], #208
    2ac4:	d65f03c0 	ret
    2ac8:	2a0003f3 	mov	w19, w0
    2acc:	17fffff5 	b	2aa0 <TEE_OpenTASession+0xac>

0000000000002ad0 <TEE_SetInstanceData>:
TEE_SetInstanceData():
/home/hei/Desktop/optee-qemu/optee_os/lib/libutee/tee_api.c:293
    2ad0:	d0000041 	adrp	x1, c000 <_DYNAMIC>
    2ad4:	f9024820 	str	x0, [x1, #1168]
/home/hei/Desktop/optee-qemu/optee_os/lib/libutee/tee_api.c:294
    2ad8:	d65f03c0 	ret

0000000000002adc <TEE_GetInstanceData>:
TEE_GetInstanceData():
/home/hei/Desktop/optee-qemu/optee_os/lib/libutee/tee_api.c:299
    2adc:	d0000040 	adrp	x0, c000 <_DYNAMIC>
    2ae0:	f9424800 	ldr	x0, [x0, #1168]
    2ae4:	d65f03c0 	ret

0000000000002ae8 <TEE_MemMove>:
TEE_MemMove():
/home/hei/Desktop/optee-qemu/optee_os/lib/libutee/tee_api.c:303
    2ae8:	2a0203e2 	mov	w2, w2
    2aec:	140017eb 	b	8a98 <memmove>

0000000000002af0 <TEE_MemCompare>:
TEE_MemCompare():
/home/hei/Desktop/optee-qemu/optee_os/lib/libutee/tee_api.c:308
    2af0:	2a0203e2 	mov	w2, w2
    2af4:	1400186a 	b	8c9c <consttime_memcmp>

0000000000002af8 <TEE_MemFill>:
TEE_MemFill():
/home/hei/Desktop/optee-qemu/optee_os/lib/libutee/tee_api.c:313
    2af8:	2a0203e2 	mov	w2, w2
    2afc:	17fffae7 	b	1698 <memset>

0000000000002b00 <TEE_GetSystemTime>:
TEE_GetSystemTime():
/home/hei/Desktop/optee-qemu/optee_os/lib/libutee/tee_api.c:319
    2b00:	a9bf7bfd 	stp	x29, x30, [sp, #-16]!
/home/hei/Desktop/optee-qemu/optee_os/lib/libutee/tee_api.c:320
    2b04:	aa0003e1 	mov	x1, x0
    2b08:	d2800000 	mov	x0, #0x0                   	// #0
/home/hei/Desktop/optee-qemu/optee_os/lib/libutee/tee_api.c:319
    2b0c:	910003fd 	mov	x29, sp
/home/hei/Desktop/optee-qemu/optee_os/lib/libutee/tee_api.c:320
    2b10:	940000fb 	bl	2efc <utee_get_time>
/home/hei/Desktop/optee-qemu/optee_os/lib/libutee/tee_api.c:322
    2b14:	34000060 	cbz	w0, 2b20 <TEE_GetSystemTime+0x20>
/home/hei/Desktop/optee-qemu/optee_os/lib/libutee/tee_api.c:324
    2b18:	a8c17bfd 	ldp	x29, x30, [sp], #16
/home/hei/Desktop/optee-qemu/optee_os/lib/libutee/tee_api.c:323
    2b1c:	1400006a 	b	2cc4 <TEE_Panic>
/home/hei/Desktop/optee-qemu/optee_os/lib/libutee/tee_api.c:324
    2b20:	a8c17bfd 	ldp	x29, x30, [sp], #16
    2b24:	d65f03c0 	ret

0000000000002b28 <TEE_Wait>:
TEE_Wait():
/home/hei/Desktop/optee-qemu/optee_os/lib/libutee/tee_api.c:327
    2b28:	a9be7bfd 	stp	x29, x30, [sp, #-32]!
/home/hei/Desktop/optee-qemu/optee_os/lib/libutee/tee_api.c:328
    2b2c:	2a0003e0 	mov	w0, w0
/home/hei/Desktop/optee-qemu/optee_os/lib/libutee/tee_api.c:327
    2b30:	910003fd 	mov	x29, sp
    2b34:	f9000bf3 	str	x19, [sp, #16]
/home/hei/Desktop/optee-qemu/optee_os/lib/libutee/tee_api.c:328
    2b38:	940000ee 	bl	2ef0 <utee_wait>
/home/hei/Desktop/optee-qemu/optee_os/lib/libutee/tee_api.c:330
    2b3c:	7100001f 	cmp	w0, #0x0
    2b40:	129fffa1 	mov	w1, #0xffff0002            	// #-65534
/home/hei/Desktop/optee-qemu/optee_os/lib/libutee/tee_api.c:328
    2b44:	2a0003f3 	mov	w19, w0
/home/hei/Desktop/optee-qemu/optee_os/lib/libutee/tee_api.c:330
    2b48:	7a411004 	ccmp	w0, w1, #0x4, ne  // ne = any
    2b4c:	54000040 	b.eq	2b54 <TEE_Wait+0x2c>  // b.none
/home/hei/Desktop/optee-qemu/optee_os/lib/libutee/tee_api.c:331
    2b50:	9400005d 	bl	2cc4 <TEE_Panic>
/home/hei/Desktop/optee-qemu/optee_os/lib/libutee/tee_api.c:334
    2b54:	2a1303e0 	mov	w0, w19
    2b58:	f9400bf3 	ldr	x19, [sp, #16]
    2b5c:	a8c27bfd 	ldp	x29, x30, [sp], #32
    2b60:	d65f03c0 	ret

0000000000002b64 <TEE_GetTAPersistentTime>:
TEE_GetTAPersistentTime():
/home/hei/Desktop/optee-qemu/optee_os/lib/libutee/tee_api.c:337
    2b64:	a9be7bfd 	stp	x29, x30, [sp, #-32]!
/home/hei/Desktop/optee-qemu/optee_os/lib/libutee/tee_api.c:340
    2b68:	aa0003e1 	mov	x1, x0
/home/hei/Desktop/optee-qemu/optee_os/lib/libutee/tee_api.c:337
    2b6c:	910003fd 	mov	x29, sp
    2b70:	a90153f3 	stp	x19, x20, [sp, #16]
    2b74:	aa0003f4 	mov	x20, x0
/home/hei/Desktop/optee-qemu/optee_os/lib/libutee/tee_api.c:340
    2b78:	d2800020 	mov	x0, #0x1                   	// #1
    2b7c:	940000e0 	bl	2efc <utee_get_time>
/home/hei/Desktop/optee-qemu/optee_os/lib/libutee/tee_api.c:342
    2b80:	7100001f 	cmp	w0, #0x0
/home/hei/Desktop/optee-qemu/optee_os/lib/libutee/tee_api.c:340
    2b84:	2a0003f3 	mov	w19, w0
/home/hei/Desktop/optee-qemu/optee_os/lib/libutee/tee_api.c:342
    2b88:	1a9f07e2 	cset	w2, ne  // ne = any
    2b8c:	1299fe00 	mov	w0, #0xffff300f            	// #-53233
    2b90:	6b00027f 	cmp	w19, w0
    2b94:	1a9f1041 	csel	w1, w2, wzr, ne  // ne = any
    2b98:	34000041 	cbz	w1, 2ba0 <TEE_GetTAPersistentTime+0x3c>
/home/hei/Desktop/optee-qemu/optee_os/lib/libutee/tee_api.c:344
    2b9c:	29007e9f 	stp	wzr, wzr, [x20]
/home/hei/Desktop/optee-qemu/optee_os/lib/libutee/tee_api.c:348
    2ba0:	11402e60 	add	w0, w19, #0xb, lsl #12
/home/hei/Desktop/optee-qemu/optee_os/lib/libutee/tee_api.c:347
    2ba4:	7100005f 	cmp	w2, #0x0
    2ba8:	7a411800 	ccmp	w0, #0x1, #0x0, ne  // ne = any
    2bac:	540000e9 	b.ls	2bc8 <TEE_GetTAPersistentTime+0x64>  // b.plast
/home/hei/Desktop/optee-qemu/optee_os/lib/libutee/tee_api.c:349
    2bb0:	340000c1 	cbz	w1, 2bc8 <TEE_GetTAPersistentTime+0x64>
/home/hei/Desktop/optee-qemu/optee_os/lib/libutee/tee_api.c:350
    2bb4:	129ffe60 	mov	w0, #0xffff000c            	// #-65524
    2bb8:	6b00027f 	cmp	w19, w0
    2bbc:	54000060 	b.eq	2bc8 <TEE_GetTAPersistentTime+0x64>  // b.none
/home/hei/Desktop/optee-qemu/optee_os/lib/libutee/tee_api.c:352
    2bc0:	2a1303e0 	mov	w0, w19
    2bc4:	94000040 	bl	2cc4 <TEE_Panic>
/home/hei/Desktop/optee-qemu/optee_os/lib/libutee/tee_api.c:355
    2bc8:	2a1303e0 	mov	w0, w19
    2bcc:	a94153f3 	ldp	x19, x20, [sp, #16]
    2bd0:	a8c27bfd 	ldp	x29, x30, [sp], #32
    2bd4:	d65f03c0 	ret

0000000000002bd8 <TEE_SetTAPersistentTime>:
TEE_SetTAPersistentTime():
/home/hei/Desktop/optee-qemu/optee_os/lib/libutee/tee_api.c:358
    2bd8:	a9be7bfd 	stp	x29, x30, [sp, #-32]!
    2bdc:	910003fd 	mov	x29, sp
    2be0:	f9000bf3 	str	x19, [sp, #16]
/home/hei/Desktop/optee-qemu/optee_os/lib/libutee/tee_api.c:361
    2be4:	940000c9 	bl	2f08 <utee_set_ta_time>
/home/hei/Desktop/optee-qemu/optee_os/lib/libutee/tee_api.c:363
    2be8:	7100001f 	cmp	w0, #0x0
    2bec:	129ffe61 	mov	w1, #0xffff000c            	// #-65524
/home/hei/Desktop/optee-qemu/optee_os/lib/libutee/tee_api.c:361
    2bf0:	2a0003f3 	mov	w19, w0
/home/hei/Desktop/optee-qemu/optee_os/lib/libutee/tee_api.c:363
    2bf4:	7a411004 	ccmp	w0, w1, #0x4, ne  // ne = any
    2bf8:	540000a0 	b.eq	2c0c <TEE_SetTAPersistentTime+0x34>  // b.none
/home/hei/Desktop/optee-qemu/optee_os/lib/libutee/tee_api.c:364
    2bfc:	1299f7c1 	mov	w1, #0xffff3041            	// #-53183
    2c00:	6b01001f 	cmp	w0, w1
    2c04:	54000040 	b.eq	2c0c <TEE_SetTAPersistentTime+0x34>  // b.none
/home/hei/Desktop/optee-qemu/optee_os/lib/libutee/tee_api.c:366
    2c08:	9400002f 	bl	2cc4 <TEE_Panic>
/home/hei/Desktop/optee-qemu/optee_os/lib/libutee/tee_api.c:369
    2c0c:	2a1303e0 	mov	w0, w19
    2c10:	f9400bf3 	ldr	x19, [sp, #16]
    2c14:	a8c27bfd 	ldp	x29, x30, [sp], #32
    2c18:	d65f03c0 	ret

0000000000002c1c <TEE_GetREETime>:
TEE_GetREETime():
/home/hei/Desktop/optee-qemu/optee_os/lib/libutee/tee_api.c:372
    2c1c:	a9bf7bfd 	stp	x29, x30, [sp, #-16]!
/home/hei/Desktop/optee-qemu/optee_os/lib/libutee/tee_api.c:373
    2c20:	aa0003e1 	mov	x1, x0
    2c24:	d2800040 	mov	x0, #0x2                   	// #2
/home/hei/Desktop/optee-qemu/optee_os/lib/libutee/tee_api.c:372
    2c28:	910003fd 	mov	x29, sp
/home/hei/Desktop/optee-qemu/optee_os/lib/libutee/tee_api.c:373
    2c2c:	940000b4 	bl	2efc <utee_get_time>
/home/hei/Desktop/optee-qemu/optee_os/lib/libutee/tee_api.c:375
    2c30:	34000060 	cbz	w0, 2c3c <TEE_GetREETime+0x20>
/home/hei/Desktop/optee-qemu/optee_os/lib/libutee/tee_api.c:377
    2c34:	a8c17bfd 	ldp	x29, x30, [sp], #16
/home/hei/Desktop/optee-qemu/optee_os/lib/libutee/tee_api.c:376
    2c38:	14000023 	b	2cc4 <TEE_Panic>
/home/hei/Desktop/optee-qemu/optee_os/lib/libutee/tee_api.c:377
    2c3c:	a8c17bfd 	ldp	x29, x30, [sp], #16
    2c40:	d65f03c0 	ret

0000000000002c44 <TEE_Malloc>:
TEE_Malloc():
/home/hei/Desktop/optee-qemu/optee_os/lib/libutee/tee_api.c:381
    2c44:	35000081 	cbnz	w1, 2c54 <TEE_Malloc+0x10>
/home/hei/Desktop/optee-qemu/optee_os/lib/libutee/tee_api.c:382
    2c48:	2a0003e1 	mov	w1, w0
    2c4c:	d2800020 	mov	x0, #0x1                   	// #1
    2c50:	17fff98a 	b	1278 <calloc>
/home/hei/Desktop/optee-qemu/optee_os/lib/libutee/tee_api.c:383
    2c54:	52b00002 	mov	w2, #0x80000000            	// #-2147483648
    2c58:	6b02003f 	cmp	w1, w2
    2c5c:	54000061 	b.ne	2c68 <TEE_Malloc+0x24>  // b.any
/home/hei/Desktop/optee-qemu/optee_os/lib/libutee/tee_api.c:384
    2c60:	2a0003e0 	mov	w0, w0
    2c64:	17fff971 	b	1228 <malloc>
/home/hei/Desktop/optee-qemu/optee_os/lib/libutee/tee_api.c:380
    2c68:	a9bf7bfd 	stp	x29, x30, [sp, #-16]!
    2c6c:	2a0103e5 	mov	w5, w1
/home/hei/Desktop/optee-qemu/optee_os/lib/libutee/tee_api.c:386
    2c70:	52800023 	mov	w3, #0x1                   	// #1
/home/hei/Desktop/optee-qemu/optee_os/lib/libutee/tee_api.c:380
    2c74:	910003fd 	mov	x29, sp
/home/hei/Desktop/optee-qemu/optee_os/lib/libutee/tee_api.c:386
    2c78:	52800022 	mov	w2, #0x1                   	// #1
    2c7c:	52803041 	mov	w1, #0x182                 	// #386
    2c80:	b0000044 	adrp	x4, b000 <__func__.3755+0x98>
    2c84:	90000040 	adrp	x0, a000 <__text_end+0x12f4>
    2c88:	910ad884 	add	x4, x4, #0x2b6
    2c8c:	91226c00 	add	x0, x0, #0x89b
    2c90:	97fff6fa 	bl	878 <trace_printf>
/home/hei/Desktop/optee-qemu/optee_os/lib/libutee/tee_api.c:389
    2c94:	d2800000 	mov	x0, #0x0                   	// #0
    2c98:	a8c17bfd 	ldp	x29, x30, [sp], #16
    2c9c:	d65f03c0 	ret

0000000000002ca0 <TEE_Realloc>:
TEE_Realloc():
/home/hei/Desktop/optee-qemu/optee_os/lib/libutee/tee_api.c:393
    2ca0:	2a0103e1 	mov	w1, w1
    2ca4:	17fff98e 	b	12dc <realloc>

0000000000002ca8 <TEE_Free>:
TEE_Free():
/home/hei/Desktop/optee-qemu/optee_os/lib/libutee/tee_api.c:398
    2ca8:	17fff9a1 	b	132c <free>

0000000000002cac <TEE_CacheClean>:
TEE_CacheClean():
/home/hei/Desktop/optee-qemu/optee_os/lib/libutee/tee_api.c:404
    2cac:	d2800002 	mov	x2, #0x0                   	// #0
    2cb0:	14000111 	b	30f4 <utee_cache_operation>

0000000000002cb4 <TEE_CacheFlush>:
TEE_CacheFlush():
/home/hei/Desktop/optee-qemu/optee_os/lib/libutee/tee_api.c:408
    2cb4:	d2800022 	mov	x2, #0x1                   	// #1
    2cb8:	1400010f 	b	30f4 <utee_cache_operation>

0000000000002cbc <TEE_CacheInvalidate>:
TEE_CacheInvalidate():
/home/hei/Desktop/optee-qemu/optee_os/lib/libutee/tee_api.c:413
    2cbc:	d2800042 	mov	x2, #0x2                   	// #2
    2cc0:	1400010d 	b	30f4 <utee_cache_operation>

0000000000002cc4 <TEE_Panic>:
TEE_Panic():
/home/hei/Desktop/optee-qemu/optee_os/lib/libutee/tee_api_panic.c:12
    2cc4:	2a0003e0 	mov	w0, w0
    2cc8:	14000063 	b	2e54 <utee_panic>

0000000000002ccc <invoke_system_pta>:
invoke_system_pta():
/home/hei/Desktop/optee-qemu/optee_os/lib/libutee/tee_system_pta.c:15
    2ccc:	a9bd7bfd 	stp	x29, x30, [sp, #-48]!
    2cd0:	910003fd 	mov	x29, sp
    2cd4:	a90153f3 	stp	x19, x20, [sp, #16]
    2cd8:	2a0003f4 	mov	w20, w0
/home/hei/Desktop/optee-qemu/optee_os/lib/libutee/tee_system_pta.c:19
    2cdc:	d0000040 	adrp	x0, c000 <_DYNAMIC>
/home/hei/Desktop/optee-qemu/optee_os/lib/libutee/tee_system_pta.c:15
    2ce0:	a9025bf5 	stp	x21, x22, [sp, #32]
    2ce4:	2a0103f5 	mov	w21, w1
    2ce8:	aa0203f6 	mov	x22, x2
/home/hei/Desktop/optee-qemu/optee_os/lib/libutee/tee_system_pta.c:19
    2cec:	f9424c01 	ldr	x1, [x0, #1176]
    2cf0:	aa0003f3 	mov	x19, x0
    2cf4:	b4000161 	cbz	x1, 2d20 <invoke_system_pta+0x54>
/home/hei/Desktop/optee-qemu/optee_os/lib/libutee/tee_system_pta.c:27
    2cf8:	aa1603e4 	mov	x4, x22
    2cfc:	2a1503e3 	mov	w3, w21
    2d00:	2a1403e2 	mov	w2, w20
    2d04:	d2800005 	mov	x5, #0x0                   	// #0
    2d08:	f9424e60 	ldr	x0, [x19, #1176]
    2d0c:	12800001 	mov	w1, #0xffffffff            	// #-1
/home/hei/Desktop/optee-qemu/optee_os/lib/libutee/tee_system_pta.c:29
    2d10:	a94153f3 	ldp	x19, x20, [sp, #16]
    2d14:	a9425bf5 	ldp	x21, x22, [sp, #32]
    2d18:	a8c37bfd 	ldp	x29, x30, [sp], #48
/home/hei/Desktop/optee-qemu/optee_os/lib/libutee/tee_system_pta.c:27
    2d1c:	17fffef5 	b	28f0 <TEE_InvokeTACommand>
    2d20:	91126004 	add	x4, x0, #0x498
/home/hei/Desktop/optee-qemu/optee_os/lib/libutee/tee_system_pta.c:20
    2d24:	d2800005 	mov	x5, #0x0                   	// #0
    2d28:	90000040 	adrp	x0, a000 <__text_end+0x12f4>
    2d2c:	d2800003 	mov	x3, #0x0                   	// #0
    2d30:	52800002 	mov	w2, #0x0                   	// #0
    2d34:	12800001 	mov	w1, #0xffffffff            	// #-1
    2d38:	9122a000 	add	x0, x0, #0x8a8
    2d3c:	97ffff2e 	bl	29f4 <TEE_OpenTASession>
/home/hei/Desktop/optee-qemu/optee_os/lib/libutee/tee_system_pta.c:23
    2d40:	34fffdc0 	cbz	w0, 2cf8 <invoke_system_pta+0x2c>
/home/hei/Desktop/optee-qemu/optee_os/lib/libutee/tee_system_pta.c:29
    2d44:	a94153f3 	ldp	x19, x20, [sp, #16]
    2d48:	a9425bf5 	ldp	x21, x22, [sp, #32]
    2d4c:	a8c37bfd 	ldp	x29, x30, [sp], #48
    2d50:	d65f03c0 	ret

0000000000002d54 <tee_map_zi>:
tee_map_zi():
/home/hei/Desktop/optee-qemu/optee_os/lib/libutee/tee_system_pta.c:32
    2d54:	a9ba7bfd 	stp	x29, x30, [sp, #-96]!
/home/hei/Desktop/optee-qemu/optee_os/lib/libutee/tee_system_pta.c:37
    2d58:	d2800782 	mov	x2, #0x3c                  	// #60
/home/hei/Desktop/optee-qemu/optee_os/lib/libutee/tee_system_pta.c:32
    2d5c:	910003fd 	mov	x29, sp
    2d60:	a90153f3 	stp	x19, x20, [sp, #16]
    2d64:	aa0003f4 	mov	x20, x0
    2d68:	2a0103f3 	mov	w19, w1
/home/hei/Desktop/optee-qemu/optee_os/lib/libutee/tee_system_pta.c:37
    2d6c:	910093e0 	add	x0, sp, #0x24
    2d70:	52800001 	mov	w1, #0x0                   	// #0
    2d74:	97fffa49 	bl	1698 <memset>
/home/hei/Desktop/optee-qemu/optee_os/lib/libutee/tee_system_pta.c:40
    2d78:	b90023f4 	str	w20, [sp, #32]
/home/hei/Desktop/optee-qemu/optee_os/lib/libutee/tee_system_pta.c:41
    2d7c:	f2607e9f 	tst	x20, #0xffffffff00000000
    2d80:	54000060 	b.eq	2d8c <tee_map_zi+0x38>  // b.none
/home/hei/Desktop/optee-qemu/optee_os/lib/libutee/tee_system_pta.c:50
    2d84:	d2800000 	mov	x0, #0x0                   	// #0
    2d88:	1400000d 	b	2dbc <tee_map_zi+0x68>
/home/hei/Desktop/optee-qemu/optee_os/lib/libutee/tee_system_pta.c:43
    2d8c:	340000b3 	cbz	w19, 2da0 <tee_map_zi+0x4c>
    2d90:	7100127f 	cmp	w19, #0x4
    2d94:	54ffff81 	b.ne	2d84 <tee_map_zi+0x30>  // b.any
/home/hei/Desktop/optee-qemu/optee_os/lib/libutee/tee_system_pta.c:47
    2d98:	52800020 	mov	w0, #0x1                   	// #1
    2d9c:	b90027e0 	str	w0, [sp, #36]
/home/hei/Desktop/optee-qemu/optee_os/lib/libutee/tee_system_pta.c:53
    2da0:	910083e2 	add	x2, sp, #0x20
    2da4:	52802621 	mov	w1, #0x131                 	// #305
    2da8:	52800040 	mov	w0, #0x2                   	// #2
    2dac:	97ffffc8 	bl	2ccc <invoke_system_pta>
/home/hei/Desktop/optee-qemu/optee_os/lib/libutee/tee_system_pta.c:54
    2db0:	35fffea0 	cbnz	w0, 2d84 <tee_map_zi+0x30>
reg_pair_to_64():
/home/hei/Desktop/optee-qemu/optee_os/lib/libutils/ext/include/util.h:139
    2db4:	294607e0 	ldp	w0, w1, [sp, #48]
    2db8:	aa008020 	orr	x0, x1, x0, lsl #32
tee_map_zi():
/home/hei/Desktop/optee-qemu/optee_os/lib/libutee/tee_system_pta.c:59
    2dbc:	a94153f3 	ldp	x19, x20, [sp, #16]
    2dc0:	a8c67bfd 	ldp	x29, x30, [sp], #96
    2dc4:	d65f03c0 	ret

0000000000002dc8 <tee_unmap>:
tee_unmap():
/home/hei/Desktop/optee-qemu/optee_os/lib/libutee/tee_system_pta.c:62
    2dc8:	a9b97bfd 	stp	x29, x30, [sp, #-112]!
/home/hei/Desktop/optee-qemu/optee_os/lib/libutee/tee_system_pta.c:68
    2dcc:	d2800782 	mov	x2, #0x3c                  	// #60
/home/hei/Desktop/optee-qemu/optee_os/lib/libutee/tee_system_pta.c:62
    2dd0:	910003fd 	mov	x29, sp
    2dd4:	a90153f3 	stp	x19, x20, [sp, #16]
    2dd8:	aa0003f3 	mov	x19, x0
/home/hei/Desktop/optee-qemu/optee_os/lib/libutee/tee_system_pta.c:68
    2ddc:	9100d3e0 	add	x0, sp, #0x34
/home/hei/Desktop/optee-qemu/optee_os/lib/libutee/tee_system_pta.c:62
    2de0:	f90013f5 	str	x21, [sp, #32]
    2de4:	aa0103f5 	mov	x21, x1
/home/hei/Desktop/optee-qemu/optee_os/lib/libutee/tee_system_pta.c:68
    2de8:	52800001 	mov	w1, #0x0                   	// #0
    2dec:	97fffa2b 	bl	1698 <memset>
reg_pair_from_64():
/home/hei/Desktop/optee-qemu/optee_os/lib/libutils/ext/include/util.h:145
    2df0:	d360fe60 	lsr	x0, x19, #32
tee_unmap():
/home/hei/Desktop/optee-qemu/optee_os/lib/libutee/tee_system_pta.c:73
    2df4:	9100c3e2 	add	x2, sp, #0x30
    2df8:	52800221 	mov	w1, #0x11                  	// #17
/home/hei/Desktop/optee-qemu/optee_os/lib/libutee/tee_system_pta.c:70
    2dfc:	b90033f5 	str	w21, [sp, #48]
reg_pair_from_64():
/home/hei/Desktop/optee-qemu/optee_os/lib/libutils/ext/include/util.h:146
    2e00:	29084fe0 	stp	w0, w19, [sp, #64]
tee_unmap():
/home/hei/Desktop/optee-qemu/optee_os/lib/libutee/tee_system_pta.c:73
    2e04:	52800060 	mov	w0, #0x3                   	// #3
    2e08:	97ffffb1 	bl	2ccc <invoke_system_pta>
    2e0c:	2a0003f4 	mov	w20, w0
/home/hei/Desktop/optee-qemu/optee_os/lib/libutee/tee_system_pta.c:74
    2e10:	34000180 	cbz	w0, 2e40 <tee_unmap+0x78>
/home/hei/Desktop/optee-qemu/optee_os/lib/libutee/tee_system_pta.c:75
    2e14:	90000040 	adrp	x0, a000 <__text_end+0x12f4>
    2e18:	9122a000 	add	x0, x0, #0x8a8
    2e1c:	b0000044 	adrp	x4, b000 <__func__.3755+0x98>
    2e20:	aa1503e6 	mov	x6, x21
    2e24:	aa1303e5 	mov	x5, x19
    2e28:	910b1c84 	add	x4, x4, #0x2c7
    2e2c:	52800023 	mov	w3, #0x1                   	// #1
    2e30:	52800022 	mov	w2, #0x1                   	// #1
    2e34:	52800961 	mov	w1, #0x4b                  	// #75
    2e38:	91004000 	add	x0, x0, #0x10
    2e3c:	97fff68f 	bl	878 <trace_printf>
/home/hei/Desktop/optee-qemu/optee_os/lib/libutee/tee_system_pta.c:78
    2e40:	2a1403e0 	mov	w0, w20
    2e44:	a94153f3 	ldp	x19, x20, [sp, #16]
    2e48:	f94013f5 	ldr	x21, [sp, #32]
    2e4c:	a8c77bfd 	ldp	x29, x30, [sp], #112
    2e50:	d65f03c0 	ret

0000000000002e54 <utee_panic>:
utee_panic():
/home/hei/Desktop/optee-qemu/optee_os/lib/libutee/arch/arm/utee_syscalls_a64.S:41
    2e54:	a9bf7bfd 	stp	x29, x30, [sp, #-16]!
/home/hei/Desktop/optee-qemu/optee_os/lib/libutee/arch/arm/utee_syscalls_a64.S:42
    2e58:	910003e1 	mov	x1, sp
/home/hei/Desktop/optee-qemu/optee_os/lib/libutee/arch/arm/utee_syscalls_a64.S:43
    2e5c:	94000007 	bl	2e78 <__utee_panic>

0000000000002e60 <utee_return>:
utee_return():
/home/hei/Desktop/optee-qemu/optee_os/lib/libutee/arch/arm/utee_syscalls_asm.S:8
    2e60:	d2800008 	mov	x8, #0x0                   	// #0
    2e64:	d4000001 	svc	#0x0
    2e68:	d65f03c0 	ret

0000000000002e6c <utee_log>:
utee_log():
/home/hei/Desktop/optee-qemu/optee_os/lib/libutee/arch/arm/utee_syscalls_asm.S:10
    2e6c:	d2800028 	mov	x8, #0x1                   	// #1
    2e70:	d4000001 	svc	#0x0
    2e74:	d65f03c0 	ret

0000000000002e78 <__utee_panic>:
__utee_panic():
/home/hei/Desktop/optee-qemu/optee_os/lib/libutee/arch/arm/utee_syscalls_asm.S:12
    2e78:	d2800048 	mov	x8, #0x2                   	// #2
    2e7c:	d4000001 	svc	#0x0
    2e80:	d65f03c0 	ret

0000000000002e84 <utee_get_property>:
utee_get_property():
/home/hei/Desktop/optee-qemu/optee_os/lib/libutee/arch/arm/utee_syscalls_asm.S:14
    2e84:	d2800068 	mov	x8, #0x3                   	// #3
    2e88:	d4000001 	svc	#0x0
    2e8c:	d65f03c0 	ret

0000000000002e90 <utee_get_property_name_to_index>:
utee_get_property_name_to_index():
/home/hei/Desktop/optee-qemu/optee_os/lib/libutee/arch/arm/utee_syscalls_asm.S:16
    2e90:	d2800088 	mov	x8, #0x4                   	// #4
    2e94:	d4000001 	svc	#0x0
    2e98:	d65f03c0 	ret

0000000000002e9c <utee_open_ta_session>:
utee_open_ta_session():
/home/hei/Desktop/optee-qemu/optee_os/lib/libutee/arch/arm/utee_syscalls_asm.S:19
    2e9c:	d28000a8 	mov	x8, #0x5                   	// #5
    2ea0:	d4000001 	svc	#0x0
    2ea4:	d65f03c0 	ret

0000000000002ea8 <utee_close_ta_session>:
utee_close_ta_session():
/home/hei/Desktop/optee-qemu/optee_os/lib/libutee/arch/arm/utee_syscalls_asm.S:21
    2ea8:	d28000c8 	mov	x8, #0x6                   	// #6
    2eac:	d4000001 	svc	#0x0
    2eb0:	d65f03c0 	ret

0000000000002eb4 <utee_invoke_ta_command>:
utee_invoke_ta_command():
/home/hei/Desktop/optee-qemu/optee_os/lib/libutee/arch/arm/utee_syscalls_asm.S:23
    2eb4:	d28000e8 	mov	x8, #0x7                   	// #7
    2eb8:	d4000001 	svc	#0x0
    2ebc:	d65f03c0 	ret

0000000000002ec0 <utee_get_cancellation_flag>:
utee_get_cancellation_flag():
/home/hei/Desktop/optee-qemu/optee_os/lib/libutee/arch/arm/utee_syscalls_asm.S:25
    2ec0:	d2800128 	mov	x8, #0x9                   	// #9
    2ec4:	d4000001 	svc	#0x0
    2ec8:	d65f03c0 	ret

0000000000002ecc <utee_check_access_rights>:
utee_check_access_rights():
/home/hei/Desktop/optee-qemu/optee_os/lib/libutee/arch/arm/utee_syscalls_asm.S:28
    2ecc:	d2800108 	mov	x8, #0x8                   	// #8
    2ed0:	d4000001 	svc	#0x0
    2ed4:	d65f03c0 	ret

0000000000002ed8 <utee_unmask_cancellation>:
utee_unmask_cancellation():
/home/hei/Desktop/optee-qemu/optee_os/lib/libutee/arch/arm/utee_syscalls_asm.S:30
    2ed8:	d2800148 	mov	x8, #0xa                   	// #10
    2edc:	d4000001 	svc	#0x0
    2ee0:	d65f03c0 	ret

0000000000002ee4 <utee_mask_cancellation>:
utee_mask_cancellation():
/home/hei/Desktop/optee-qemu/optee_os/lib/libutee/arch/arm/utee_syscalls_asm.S:32
    2ee4:	d2800168 	mov	x8, #0xb                   	// #11
    2ee8:	d4000001 	svc	#0x0
    2eec:	d65f03c0 	ret

0000000000002ef0 <utee_wait>:
utee_wait():
/home/hei/Desktop/optee-qemu/optee_os/lib/libutee/arch/arm/utee_syscalls_asm.S:34
    2ef0:	d2800188 	mov	x8, #0xc                   	// #12
    2ef4:	d4000001 	svc	#0x0
    2ef8:	d65f03c0 	ret

0000000000002efc <utee_get_time>:
utee_get_time():
/home/hei/Desktop/optee-qemu/optee_os/lib/libutee/arch/arm/utee_syscalls_asm.S:36
    2efc:	d28001a8 	mov	x8, #0xd                   	// #13
    2f00:	d4000001 	svc	#0x0
    2f04:	d65f03c0 	ret

0000000000002f08 <utee_set_ta_time>:
utee_set_ta_time():
/home/hei/Desktop/optee-qemu/optee_os/lib/libutee/arch/arm/utee_syscalls_asm.S:38
    2f08:	d28001c8 	mov	x8, #0xe                   	// #14
    2f0c:	d4000001 	svc	#0x0
    2f10:	d65f03c0 	ret

0000000000002f14 <utee_cryp_state_alloc>:
utee_cryp_state_alloc():
/home/hei/Desktop/optee-qemu/optee_os/lib/libutee/arch/arm/utee_syscalls_asm.S:40
    2f14:	d28001e8 	mov	x8, #0xf                   	// #15
    2f18:	d4000001 	svc	#0x0
    2f1c:	d65f03c0 	ret

0000000000002f20 <utee_cryp_state_copy>:
utee_cryp_state_copy():
/home/hei/Desktop/optee-qemu/optee_os/lib/libutee/arch/arm/utee_syscalls_asm.S:42
    2f20:	d2800208 	mov	x8, #0x10                  	// #16
    2f24:	d4000001 	svc	#0x0
    2f28:	d65f03c0 	ret

0000000000002f2c <utee_cryp_state_free>:
utee_cryp_state_free():
/home/hei/Desktop/optee-qemu/optee_os/lib/libutee/arch/arm/utee_syscalls_asm.S:44
    2f2c:	d2800228 	mov	x8, #0x11                  	// #17
    2f30:	d4000001 	svc	#0x0
    2f34:	d65f03c0 	ret

0000000000002f38 <utee_hash_init>:
utee_hash_init():
/home/hei/Desktop/optee-qemu/optee_os/lib/libutee/arch/arm/utee_syscalls_asm.S:46
    2f38:	d2800248 	mov	x8, #0x12                  	// #18
    2f3c:	d4000001 	svc	#0x0
    2f40:	d65f03c0 	ret

0000000000002f44 <utee_hash_update>:
utee_hash_update():
/home/hei/Desktop/optee-qemu/optee_os/lib/libutee/arch/arm/utee_syscalls_asm.S:48
    2f44:	d2800268 	mov	x8, #0x13                  	// #19
    2f48:	d4000001 	svc	#0x0
    2f4c:	d65f03c0 	ret

0000000000002f50 <utee_hash_final>:
utee_hash_final():
/home/hei/Desktop/optee-qemu/optee_os/lib/libutee/arch/arm/utee_syscalls_asm.S:50
    2f50:	d2800288 	mov	x8, #0x14                  	// #20
    2f54:	d4000001 	svc	#0x0
    2f58:	d65f03c0 	ret

0000000000002f5c <utee_cipher_init>:
utee_cipher_init():
/home/hei/Desktop/optee-qemu/optee_os/lib/libutee/arch/arm/utee_syscalls_asm.S:52
    2f5c:	d28002a8 	mov	x8, #0x15                  	// #21
    2f60:	d4000001 	svc	#0x0
    2f64:	d65f03c0 	ret

0000000000002f68 <utee_cipher_update>:
utee_cipher_update():
/home/hei/Desktop/optee-qemu/optee_os/lib/libutee/arch/arm/utee_syscalls_asm.S:54
    2f68:	d28002c8 	mov	x8, #0x16                  	// #22
    2f6c:	d4000001 	svc	#0x0
    2f70:	d65f03c0 	ret

0000000000002f74 <utee_cipher_final>:
utee_cipher_final():
/home/hei/Desktop/optee-qemu/optee_os/lib/libutee/arch/arm/utee_syscalls_asm.S:56
    2f74:	d28002e8 	mov	x8, #0x17                  	// #23
    2f78:	d4000001 	svc	#0x0
    2f7c:	d65f03c0 	ret

0000000000002f80 <utee_cryp_obj_get_info>:
utee_cryp_obj_get_info():
/home/hei/Desktop/optee-qemu/optee_os/lib/libutee/arch/arm/utee_syscalls_asm.S:58
    2f80:	d2800308 	mov	x8, #0x18                  	// #24
    2f84:	d4000001 	svc	#0x0
    2f88:	d65f03c0 	ret

0000000000002f8c <utee_cryp_obj_restrict_usage>:
utee_cryp_obj_restrict_usage():
/home/hei/Desktop/optee-qemu/optee_os/lib/libutee/arch/arm/utee_syscalls_asm.S:60
    2f8c:	d2800328 	mov	x8, #0x19                  	// #25
    2f90:	d4000001 	svc	#0x0
    2f94:	d65f03c0 	ret

0000000000002f98 <utee_cryp_obj_get_attr>:
utee_cryp_obj_get_attr():
/home/hei/Desktop/optee-qemu/optee_os/lib/libutee/arch/arm/utee_syscalls_asm.S:63
    2f98:	d2800348 	mov	x8, #0x1a                  	// #26
    2f9c:	d4000001 	svc	#0x0
    2fa0:	d65f03c0 	ret

0000000000002fa4 <utee_cryp_obj_alloc>:
utee_cryp_obj_alloc():
/home/hei/Desktop/optee-qemu/optee_os/lib/libutee/arch/arm/utee_syscalls_asm.S:65
    2fa4:	d2800368 	mov	x8, #0x1b                  	// #27
    2fa8:	d4000001 	svc	#0x0
    2fac:	d65f03c0 	ret

0000000000002fb0 <utee_cryp_obj_close>:
utee_cryp_obj_close():
/home/hei/Desktop/optee-qemu/optee_os/lib/libutee/arch/arm/utee_syscalls_asm.S:67
    2fb0:	d2800388 	mov	x8, #0x1c                  	// #28
    2fb4:	d4000001 	svc	#0x0
    2fb8:	d65f03c0 	ret

0000000000002fbc <utee_cryp_obj_reset>:
utee_cryp_obj_reset():
/home/hei/Desktop/optee-qemu/optee_os/lib/libutee/arch/arm/utee_syscalls_asm.S:69
    2fbc:	d28003a8 	mov	x8, #0x1d                  	// #29
    2fc0:	d4000001 	svc	#0x0
    2fc4:	d65f03c0 	ret

0000000000002fc8 <utee_cryp_obj_populate>:
utee_cryp_obj_populate():
/home/hei/Desktop/optee-qemu/optee_os/lib/libutee/arch/arm/utee_syscalls_asm.S:71
    2fc8:	d28003c8 	mov	x8, #0x1e                  	// #30
    2fcc:	d4000001 	svc	#0x0
    2fd0:	d65f03c0 	ret

0000000000002fd4 <utee_cryp_obj_copy>:
utee_cryp_obj_copy():
/home/hei/Desktop/optee-qemu/optee_os/lib/libutee/arch/arm/utee_syscalls_asm.S:73
    2fd4:	d28003e8 	mov	x8, #0x1f                  	// #31
    2fd8:	d4000001 	svc	#0x0
    2fdc:	d65f03c0 	ret

0000000000002fe0 <utee_cryp_derive_key>:
utee_cryp_derive_key():
/home/hei/Desktop/optee-qemu/optee_os/lib/libutee/arch/arm/utee_syscalls_asm.S:75
    2fe0:	d2800408 	mov	x8, #0x20                  	// #32
    2fe4:	d4000001 	svc	#0x0
    2fe8:	d65f03c0 	ret

0000000000002fec <utee_cryp_random_number_generate>:
utee_cryp_random_number_generate():
/home/hei/Desktop/optee-qemu/optee_os/lib/libutee/arch/arm/utee_syscalls_asm.S:77
    2fec:	d2800428 	mov	x8, #0x21                  	// #33
    2ff0:	d4000001 	svc	#0x0
    2ff4:	d65f03c0 	ret

0000000000002ff8 <utee_authenc_init>:
utee_authenc_init():
/home/hei/Desktop/optee-qemu/optee_os/lib/libutee/arch/arm/utee_syscalls_asm.S:80
    2ff8:	d2800448 	mov	x8, #0x22                  	// #34
    2ffc:	d4000001 	svc	#0x0
    3000:	d65f03c0 	ret

0000000000003004 <utee_authenc_update_aad>:
utee_authenc_update_aad():
/home/hei/Desktop/optee-qemu/optee_os/lib/libutee/arch/arm/utee_syscalls_asm.S:82
    3004:	d2800468 	mov	x8, #0x23                  	// #35
    3008:	d4000001 	svc	#0x0
    300c:	d65f03c0 	ret

0000000000003010 <utee_authenc_update_payload>:
utee_authenc_update_payload():
/home/hei/Desktop/optee-qemu/optee_os/lib/libutee/arch/arm/utee_syscalls_asm.S:84
    3010:	d2800488 	mov	x8, #0x24                  	// #36
    3014:	d4000001 	svc	#0x0
    3018:	d65f03c0 	ret

000000000000301c <utee_authenc_enc_final>:
utee_authenc_enc_final():
/home/hei/Desktop/optee-qemu/optee_os/lib/libutee/arch/arm/utee_syscalls_asm.S:87
    301c:	d28004a8 	mov	x8, #0x25                  	// #37
    3020:	d4000001 	svc	#0x0
    3024:	d65f03c0 	ret

0000000000003028 <utee_authenc_dec_final>:
utee_authenc_dec_final():
/home/hei/Desktop/optee-qemu/optee_os/lib/libutee/arch/arm/utee_syscalls_asm.S:89
    3028:	d28004c8 	mov	x8, #0x26                  	// #38
    302c:	d4000001 	svc	#0x0
    3030:	d65f03c0 	ret

0000000000003034 <utee_asymm_operate>:
utee_asymm_operate():
/home/hei/Desktop/optee-qemu/optee_os/lib/libutee/arch/arm/utee_syscalls_asm.S:91
    3034:	d28004e8 	mov	x8, #0x27                  	// #39
    3038:	d4000001 	svc	#0x0
    303c:	d65f03c0 	ret

0000000000003040 <utee_asymm_verify>:
utee_asymm_verify():
/home/hei/Desktop/optee-qemu/optee_os/lib/libutee/arch/arm/utee_syscalls_asm.S:93
    3040:	d2800508 	mov	x8, #0x28                  	// #40
    3044:	d4000001 	svc	#0x0
    3048:	d65f03c0 	ret

000000000000304c <utee_storage_obj_open>:
utee_storage_obj_open():
/home/hei/Desktop/optee-qemu/optee_os/lib/libutee/arch/arm/utee_syscalls_asm.S:95
    304c:	d2800528 	mov	x8, #0x29                  	// #41
    3050:	d4000001 	svc	#0x0
    3054:	d65f03c0 	ret

0000000000003058 <utee_storage_obj_create>:
utee_storage_obj_create():
/home/hei/Desktop/optee-qemu/optee_os/lib/libutee/arch/arm/utee_syscalls_asm.S:97
    3058:	d2800548 	mov	x8, #0x2a                  	// #42
    305c:	d4000001 	svc	#0x0
    3060:	d65f03c0 	ret

0000000000003064 <utee_storage_obj_del>:
utee_storage_obj_del():
/home/hei/Desktop/optee-qemu/optee_os/lib/libutee/arch/arm/utee_syscalls_asm.S:99
    3064:	d2800568 	mov	x8, #0x2b                  	// #43
    3068:	d4000001 	svc	#0x0
    306c:	d65f03c0 	ret

0000000000003070 <utee_storage_obj_rename>:
utee_storage_obj_rename():
/home/hei/Desktop/optee-qemu/optee_os/lib/libutee/arch/arm/utee_syscalls_asm.S:101
    3070:	d2800588 	mov	x8, #0x2c                  	// #44
    3074:	d4000001 	svc	#0x0
    3078:	d65f03c0 	ret

000000000000307c <utee_storage_alloc_enum>:
utee_storage_alloc_enum():
/home/hei/Desktop/optee-qemu/optee_os/lib/libutee/arch/arm/utee_syscalls_asm.S:103
    307c:	d28005a8 	mov	x8, #0x2d                  	// #45
    3080:	d4000001 	svc	#0x0
    3084:	d65f03c0 	ret

0000000000003088 <utee_storage_free_enum>:
utee_storage_free_enum():
/home/hei/Desktop/optee-qemu/optee_os/lib/libutee/arch/arm/utee_syscalls_asm.S:105
    3088:	d28005c8 	mov	x8, #0x2e                  	// #46
    308c:	d4000001 	svc	#0x0
    3090:	d65f03c0 	ret

0000000000003094 <utee_storage_reset_enum>:
utee_storage_reset_enum():
/home/hei/Desktop/optee-qemu/optee_os/lib/libutee/arch/arm/utee_syscalls_asm.S:107
    3094:	d28005e8 	mov	x8, #0x2f                  	// #47
    3098:	d4000001 	svc	#0x0
    309c:	d65f03c0 	ret

00000000000030a0 <utee_storage_start_enum>:
utee_storage_start_enum():
/home/hei/Desktop/optee-qemu/optee_os/lib/libutee/arch/arm/utee_syscalls_asm.S:109
    30a0:	d2800608 	mov	x8, #0x30                  	// #48
    30a4:	d4000001 	svc	#0x0
    30a8:	d65f03c0 	ret

00000000000030ac <utee_storage_next_enum>:
utee_storage_next_enum():
/home/hei/Desktop/optee-qemu/optee_os/lib/libutee/arch/arm/utee_syscalls_asm.S:111
    30ac:	d2800628 	mov	x8, #0x31                  	// #49
    30b0:	d4000001 	svc	#0x0
    30b4:	d65f03c0 	ret

00000000000030b8 <utee_storage_obj_read>:
utee_storage_obj_read():
/home/hei/Desktop/optee-qemu/optee_os/lib/libutee/arch/arm/utee_syscalls_asm.S:113
    30b8:	d2800648 	mov	x8, #0x32                  	// #50
    30bc:	d4000001 	svc	#0x0
    30c0:	d65f03c0 	ret

00000000000030c4 <utee_storage_obj_write>:
utee_storage_obj_write():
/home/hei/Desktop/optee-qemu/optee_os/lib/libutee/arch/arm/utee_syscalls_asm.S:115
    30c4:	d2800668 	mov	x8, #0x33                  	// #51
    30c8:	d4000001 	svc	#0x0
    30cc:	d65f03c0 	ret

00000000000030d0 <utee_storage_obj_trunc>:
utee_storage_obj_trunc():
/home/hei/Desktop/optee-qemu/optee_os/lib/libutee/arch/arm/utee_syscalls_asm.S:117
    30d0:	d2800688 	mov	x8, #0x34                  	// #52
    30d4:	d4000001 	svc	#0x0
    30d8:	d65f03c0 	ret

00000000000030dc <utee_storage_obj_seek>:
utee_storage_obj_seek():
/home/hei/Desktop/optee-qemu/optee_os/lib/libutee/arch/arm/utee_syscalls_asm.S:119
    30dc:	d28006a8 	mov	x8, #0x35                  	// #53
    30e0:	d4000001 	svc	#0x0
    30e4:	d65f03c0 	ret

00000000000030e8 <utee_cryp_obj_generate_key>:
utee_cryp_obj_generate_key():
/home/hei/Desktop/optee-qemu/optee_os/lib/libutee/arch/arm/utee_syscalls_asm.S:121
    30e8:	d28006c8 	mov	x8, #0x36                  	// #54
    30ec:	d4000001 	svc	#0x0
    30f0:	d65f03c0 	ret

00000000000030f4 <utee_cache_operation>:
utee_cache_operation():
/home/hei/Desktop/optee-qemu/optee_os/lib/libutee/arch/arm/utee_syscalls_asm.S:124
    30f4:	d28008c8 	mov	x8, #0x46                  	// #70
    30f8:	d4000001 	svc	#0x0
    30fc:	d65f03c0 	ret

0000000000003100 <ta_header_get_session>:
ta_header_get_session():
/home/hei/Desktop/optee-qemu/optee_os/lib/libutee/arch/arm/user_ta_entry.c:65
    3100:	2a0003e1 	mov	w1, w0
/home/hei/Desktop/optee-qemu/optee_os/lib/libutee/arch/arm/user_ta_entry.c:68
    3104:	b0000040 	adrp	x0, c000 <_DYNAMIC>
    3108:	f9423800 	ldr	x0, [x0, #1136]
/home/hei/Desktop/optee-qemu/optee_os/lib/libutee/arch/arm/user_ta_entry.c:68 (discriminator 1)
    310c:	b5000040 	cbnz	x0, 3114 <ta_header_get_session+0x14>
/home/hei/Desktop/optee-qemu/optee_os/lib/libutee/arch/arm/user_ta_entry.c:73
    3110:	d65f03c0 	ret
/home/hei/Desktop/optee-qemu/optee_os/lib/libutee/arch/arm/user_ta_entry.c:69
    3114:	b9400002 	ldr	w2, [x0]
    3118:	6b01005f 	cmp	w2, w1
    311c:	54ffffa0 	b.eq	3110 <ta_header_get_session+0x10>  // b.none
/home/hei/Desktop/optee-qemu/optee_os/lib/libutee/arch/arm/user_ta_entry.c:68 (discriminator 2)
    3120:	f9400800 	ldr	x0, [x0, #16]
    3124:	17fffffa 	b	310c <ta_header_get_session+0xc>

0000000000003128 <to_utee_params>:
to_utee_params():
/home/hei/Desktop/optee-qemu/optee_os/lib/libutee/arch/arm/user_ta_entry.c:129
    3128:	f0000025 	adrp	x5, a000 <__text_end+0x12f4>
    312c:	912310a5 	add	x5, x5, #0x8c4
/home/hei/Desktop/optee-qemu/optee_os/lib/libutee/arch/arm/user_ta_entry.c:127
    3130:	2a0103e3 	mov	w3, w1
    3134:	52800004 	mov	w4, #0x0                   	// #0
    3138:	f8008403 	str	x3, [x0], #8
/home/hei/Desktop/optee-qemu/optee_os/lib/libutee/arch/arm/user_ta_entry.c:129
    313c:	1ac42423 	lsr	w3, w1, w4
    3140:	12000c63 	and	w3, w3, #0xf
    3144:	51000463 	sub	w3, w3, #0x1
    3148:	7100187f 	cmp	w3, #0x6
    314c:	54000268 	b.hi	3198 <to_utee_params+0x70>  // b.pmore
    3150:	386348a3 	ldrb	w3, [x5, w3, uxtw]
    3154:	10000066 	adr	x6, 3160 <to_utee_params+0x38>
    3158:	8b2388c3 	add	x3, x6, w3, sxtb #2
    315c:	d61f0060 	br	x3
/home/hei/Desktop/optee-qemu/optee_os/lib/libutee/arch/arm/user_ta_entry.c:133
    3160:	b9400043 	ldr	w3, [x2]
    3164:	f9000003 	str	x3, [x0]
/home/hei/Desktop/optee-qemu/optee_os/lib/libutee/arch/arm/user_ta_entry.c:134
    3168:	b9400443 	ldr	w3, [x2, #4]
/home/hei/Desktop/optee-qemu/optee_os/lib/libutee/arch/arm/user_ta_entry.c:140
    316c:	f9000403 	str	x3, [x0, #8]
/home/hei/Desktop/optee-qemu/optee_os/lib/libutee/arch/arm/user_ta_entry.c:141
    3170:	11001084 	add	w4, w4, #0x4
    3174:	91004042 	add	x2, x2, #0x10
    3178:	91004000 	add	x0, x0, #0x10
/home/hei/Desktop/optee-qemu/optee_os/lib/libutee/arch/arm/user_ta_entry.c:128 (discriminator 2)
    317c:	7100409f 	cmp	w4, #0x10
    3180:	54fffde1 	b.ne	313c <to_utee_params+0x14>  // b.any
/home/hei/Desktop/optee-qemu/optee_os/lib/libutee/arch/arm/user_ta_entry.c:148
    3184:	d65f03c0 	ret
/home/hei/Desktop/optee-qemu/optee_os/lib/libutee/arch/arm/user_ta_entry.c:139
    3188:	f9400043 	ldr	x3, [x2]
    318c:	f9000003 	str	x3, [x0]
/home/hei/Desktop/optee-qemu/optee_os/lib/libutee/arch/arm/user_ta_entry.c:140
    3190:	b9400843 	ldr	w3, [x2, #8]
    3194:	17fffff6 	b	316c <to_utee_params+0x44>
/home/hei/Desktop/optee-qemu/optee_os/lib/libutee/arch/arm/user_ta_entry.c:144
    3198:	a9007c1f 	stp	xzr, xzr, [x0]
/home/hei/Desktop/optee-qemu/optee_os/lib/libutee/arch/arm/user_ta_entry.c:145
    319c:	17fffff5 	b	3170 <to_utee_params+0x48>

00000000000031a0 <from_utee_params>:
from_utee_params():
/home/hei/Desktop/optee-qemu/optee_os/lib/libutee/arch/arm/user_ta_entry.c:155
    31a0:	f8408446 	ldr	x6, [x2], #8
/home/hei/Desktop/optee-qemu/optee_os/lib/libutee/arch/arm/user_ta_entry.c:161
    31a4:	f0000025 	adrp	x5, a000 <__text_end+0x12f4>
    31a8:	912330a5 	add	x5, x5, #0x8cc
/home/hei/Desktop/optee-qemu/optee_os/lib/libutee/arch/arm/user_ta_entry.c:155
    31ac:	52800004 	mov	w4, #0x0                   	// #0
    31b0:	2a0603e9 	mov	w9, w6
/home/hei/Desktop/optee-qemu/optee_os/lib/libutee/arch/arm/user_ta_entry.c:161
    31b4:	1ac42523 	lsr	w3, w9, w4
    31b8:	12000c63 	and	w3, w3, #0xf
    31bc:	51000463 	sub	w3, w3, #0x1
    31c0:	7100187f 	cmp	w3, #0x6
/home/hei/Desktop/optee-qemu/optee_os/lib/libutee/arch/arm/user_ta_entry.c:159
    31c4:	a9401c48 	ldp	x8, x7, [x2]
/home/hei/Desktop/optee-qemu/optee_os/lib/libutee/arch/arm/user_ta_entry.c:161
    31c8:	540000c8 	b.hi	31e0 <from_utee_params+0x40>  // b.pmore
    31cc:	386348a3 	ldrb	w3, [x5, w3, uxtw]
    31d0:	1000006a 	adr	x10, 31dc <from_utee_params+0x3c>
    31d4:	8b238943 	add	x3, x10, w3, sxtb #2
    31d8:	d61f0060 	br	x3
/home/hei/Desktop/optee-qemu/optee_os/lib/libutee/arch/arm/user_ta_entry.c:166
    31dc:	29001c08 	stp	w8, w7, [x0]
/home/hei/Desktop/optee-qemu/optee_os/lib/libutee/arch/arm/user_ta_entry.c:167
    31e0:	11001084 	add	w4, w4, #0x4
    31e4:	91004042 	add	x2, x2, #0x10
    31e8:	91004000 	add	x0, x0, #0x10
/home/hei/Desktop/optee-qemu/optee_os/lib/libutee/arch/arm/user_ta_entry.c:157 (discriminator 2)
    31ec:	7100409f 	cmp	w4, #0x10
    31f0:	54fffe21 	b.ne	31b4 <from_utee_params+0x14>  // b.any
/home/hei/Desktop/optee-qemu/optee_os/lib/libutee/arch/arm/user_ta_entry.c:180
    31f4:	b9000026 	str	w6, [x1]
/home/hei/Desktop/optee-qemu/optee_os/lib/libutee/arch/arm/user_ta_entry.c:181
    31f8:	d65f03c0 	ret
/home/hei/Desktop/optee-qemu/optee_os/lib/libutee/arch/arm/user_ta_entry.c:171
    31fc:	f9000008 	str	x8, [x0]
/home/hei/Desktop/optee-qemu/optee_os/lib/libutee/arch/arm/user_ta_entry.c:172
    3200:	b9000807 	str	w7, [x0, #8]
/home/hei/Desktop/optee-qemu/optee_os/lib/libutee/arch/arm/user_ta_entry.c:173
    3204:	17fffff7 	b	31e0 <from_utee_params+0x40>

0000000000003208 <ta_header_remove_session>:
ta_header_remove_session():
/home/hei/Desktop/optee-qemu/optee_os/lib/libutee/arch/arm/user_ta_entry.c:102
    3208:	a9be7bfd 	stp	x29, x30, [sp, #-32]!
    320c:	2a0003e2 	mov	w2, w0
    3210:	910003fd 	mov	x29, sp
    3214:	f9000bf3 	str	x19, [sp, #16]
/home/hei/Desktop/optee-qemu/optee_os/lib/libutee/arch/arm/user_ta_entry.c:106
    3218:	b0000053 	adrp	x19, c000 <_DYNAMIC>
    321c:	f9423a60 	ldr	x0, [x19, #1136]
/home/hei/Desktop/optee-qemu/optee_os/lib/libutee/arch/arm/user_ta_entry.c:106 (discriminator 1)
    3220:	b5000080 	cbnz	x0, 3230 <ta_header_remove_session+0x28>
/home/hei/Desktop/optee-qemu/optee_os/lib/libutee/arch/arm/user_ta_entry.c:120
    3224:	f9400bf3 	ldr	x19, [sp, #16]
    3228:	a8c27bfd 	ldp	x29, x30, [sp], #32
    322c:	d65f03c0 	ret
/home/hei/Desktop/optee-qemu/optee_os/lib/libutee/arch/arm/user_ta_entry.c:107
    3230:	b9400003 	ldr	w3, [x0]
    3234:	f9400801 	ldr	x1, [x0, #16]
    3238:	6b02007f 	cmp	w3, w2
    323c:	540002c1 	b.ne	3294 <ta_header_remove_session+0x8c>  // b.any
/home/hei/Desktop/optee-qemu/optee_os/lib/libutee/arch/arm/user_ta_entry.c:108
    3240:	f9400c02 	ldr	x2, [x0, #24]
    3244:	b4000221 	cbz	x1, 3288 <ta_header_remove_session+0x80>
/home/hei/Desktop/optee-qemu/optee_os/lib/libutee/arch/arm/user_ta_entry.c:108 (discriminator 1)
    3248:	f9000c22 	str	x2, [x1, #24]
/home/hei/Desktop/optee-qemu/optee_os/lib/libutee/arch/arm/user_ta_entry.c:108 (discriminator 4)
    324c:	f9400c02 	ldr	x2, [x0, #24]
    3250:	f9000041 	str	x1, [x2]
/home/hei/Desktop/optee-qemu/optee_os/lib/libutee/arch/arm/user_ta_entry.c:109 (discriminator 4)
    3254:	97fffe95 	bl	2ca8 <TEE_Free>
/home/hei/Desktop/optee-qemu/optee_os/lib/libutee/arch/arm/user_ta_entry.c:114 (discriminator 4)
    3258:	f9423a60 	ldr	x0, [x19, #1136]
    325c:	b5fffe40 	cbnz	x0, 3224 <ta_header_remove_session+0x1c>
/home/hei/Desktop/optee-qemu/optee_os/lib/libutee/arch/arm/user_ta_entry.c:112 (discriminator 1)
    3260:	b0000040 	adrp	x0, c000 <_DYNAMIC>
    3264:	52800281 	mov	w1, #0x14                  	// #20
    3268:	f940cc00 	ldr	x0, [x0, #408]
    326c:	b9401400 	ldr	w0, [x0, #20]
    3270:	0a010000 	and	w0, w0, w1
/home/hei/Desktop/optee-qemu/optee_os/lib/libutee/arch/arm/user_ta_entry.c:114 (discriminator 1)
    3274:	6b01001f 	cmp	w0, w1
    3278:	54fffd60 	b.eq	3224 <ta_header_remove_session+0x1c>  // b.none
/home/hei/Desktop/optee-qemu/optee_os/lib/libutee/arch/arm/user_ta_entry.c:120
    327c:	f9400bf3 	ldr	x19, [sp, #16]
    3280:	a8c27bfd 	ldp	x29, x30, [sp], #32
uninit_instance():
/home/hei/Desktop/optee-qemu/optee_os/lib/libutee/arch/arm/user_ta_entry.c:50
    3284:	17fff3a1 	b	108 <TA_DestroyEntryPoint>
ta_header_remove_session():
/home/hei/Desktop/optee-qemu/optee_os/lib/libutee/arch/arm/user_ta_entry.c:108 (discriminator 2)
    3288:	9111c263 	add	x3, x19, #0x470
    328c:	f9000462 	str	x2, [x3, #8]
    3290:	17ffffef 	b	324c <ta_header_remove_session+0x44>
    3294:	aa0103e0 	mov	x0, x1
    3298:	17ffffe2 	b	3220 <ta_header_remove_session+0x18>

000000000000329c <ta_header_save_params.part.0>:
ta_header_save_params():
/home/hei/Desktop/optee-qemu/optee_os/lib/libutee/arch/arm/user_ta_entry.c:61
    329c:	b0000040 	adrp	x0, c000 <_DYNAMIC>
    32a0:	d2800802 	mov	x2, #0x40                  	// #64
    32a4:	52800001 	mov	w1, #0x0                   	// #0
    32a8:	f940c800 	ldr	x0, [x0, #400]
    32ac:	17fff8fb 	b	1698 <memset>

00000000000032b0 <__utee_entry>:
__utee_entry():
/home/hei/Desktop/optee-qemu/optee_os/lib/libutee/arch/arm/user_ta_entry.c:248
    32b0:	a9b77bfd 	stp	x29, x30, [sp, #-144]!
/home/hei/Desktop/optee-qemu/optee_os/lib/libutee/arch/arm/user_ta_entry.c:251
    32b4:	f100041f 	cmp	x0, #0x1
/home/hei/Desktop/optee-qemu/optee_os/lib/libutee/arch/arm/user_ta_entry.c:248
    32b8:	910003fd 	mov	x29, sp
    32bc:	a90153f3 	stp	x19, x20, [sp, #16]
    32c0:	b0000054 	adrp	x20, c000 <_DYNAMIC>
    32c4:	a9025bf5 	stp	x21, x22, [sp, #32]
    32c8:	aa0103f5 	mov	x21, x1
    32cc:	a90363f7 	stp	x23, x24, [sp, #48]
/home/hei/Desktop/optee-qemu/optee_os/lib/libutee/arch/arm/user_ta_entry.c:251
    32d0:	54000a00 	b.eq	3410 <__utee_entry+0x160>  // b.none
    32d4:	aa0203f7 	mov	x23, x2
    32d8:	b40000e0 	cbz	x0, 32f4 <__utee_entry+0x44>
    32dc:	f100081f 	cmp	x0, #0x2
    32e0:	54000aa0 	b.eq	3434 <__utee_entry+0x184>  // b.none
/home/hei/Desktop/optee-qemu/optee_os/lib/libutee/arch/arm/user_ta_entry.c:263
    32e4:	52800000 	mov	w0, #0x0                   	// #0
/home/hei/Desktop/optee-qemu/optee_os/lib/libutee/arch/arm/user_ta_entry.c:262
    32e8:	12800013 	mov	w19, #0xffffffff            	// #-1
/home/hei/Desktop/optee-qemu/optee_os/lib/libutee/arch/arm/user_ta_entry.c:263
    32ec:	97fffe76 	bl	2cc4 <TEE_Panic>
/home/hei/Desktop/optee-qemu/optee_os/lib/libutee/arch/arm/user_ta_entry.c:264
    32f0:	14000019 	b	3354 <__utee_entry+0xa4>
ta_header_add_session():
/home/hei/Desktop/optee-qemu/optee_os/lib/libutee/arch/arm/user_ta_entry.c:77
    32f4:	2a0103e0 	mov	w0, w1
    32f8:	97ffff82 	bl	3100 <ta_header_get_session>
/home/hei/Desktop/optee-qemu/optee_os/lib/libutee/arch/arm/user_ta_entry.c:80
    32fc:	b5000500 	cbnz	x0, 339c <__utee_entry+0xec>
/home/hei/Desktop/optee-qemu/optee_os/lib/libutee/arch/arm/user_ta_entry.c:83
    3300:	900000a0 	adrp	x0, 17000 <ta_heap+0x7b0f>
    3304:	3953c401 	ldrb	w1, [x0, #1265]
    3308:	340000e1 	cbz	w1, 3324 <__utee_entry+0x74>
/home/hei/Desktop/optee-qemu/optee_os/lib/libutee/arch/arm/user_ta_entry.c:90
    330c:	52b00001 	mov	w1, #0x80000000            	// #-2147483648
    3310:	52800400 	mov	w0, #0x20                  	// #32
    3314:	97fffe4c 	bl	2c44 <TEE_Malloc>
/home/hei/Desktop/optee-qemu/optee_os/lib/libutee/arch/arm/user_ta_entry.c:92
    3318:	b5000300 	cbnz	x0, 3378 <__utee_entry+0xc8>
/home/hei/Desktop/optee-qemu/optee_os/lib/libutee/arch/arm/user_ta_entry.c:93
    331c:	129ffe73 	mov	w19, #0xffff000c            	// #-65524
    3320:	1400000d 	b	3354 <__utee_entry+0xa4>
/home/hei/Desktop/optee-qemu/optee_os/lib/libutee/arch/arm/user_ta_entry.c:84
    3324:	52800021 	mov	w1, #0x1                   	// #1
    3328:	3913c401 	strb	w1, [x0, #1265]
init_instance():
/home/hei/Desktop/optee-qemu/optee_os/lib/libutee/arch/arm/user_ta_entry.c:40
    332c:	97fff473 	bl	4f8 <tahead_get_trace_level>
    3330:	97fff4cb 	bl	65c <trace_set_level>
/home/hei/Desktop/optee-qemu/optee_os/lib/libutee/arch/arm/user_ta_entry.c:42
    3334:	f9409a80 	ldr	x0, [x20, #304]
    3338:	f9400001 	ldr	x1, [x0]
    333c:	f940b680 	ldr	x0, [x20, #360]
    3340:	97fff807 	bl	135c <malloc_add_pool>
/home/hei/Desktop/optee-qemu/optee_os/lib/libutee/arch/arm/user_ta_entry.c:43
    3344:	9400025c 	bl	3cb4 <_TEE_MathAPI_Init>
/home/hei/Desktop/optee-qemu/optee_os/lib/libutee/arch/arm/user_ta_entry.c:44
    3348:	97fff354 	bl	98 <TA_CreateEntryPoint>
    334c:	2a0003f3 	mov	w19, w0
ta_header_add_session():
/home/hei/Desktop/optee-qemu/optee_os/lib/libutee/arch/arm/user_ta_entry.c:86
    3350:	34fffde0 	cbz	w0, 330c <__utee_entry+0x5c>
ta_header_save_params():
/home/hei/Desktop/optee-qemu/optee_os/lib/libutee/arch/arm/user_ta_entry.c:56
    3354:	f940be94 	ldr	x20, [x20, #376]
    3358:	b900029f 	str	wzr, [x20]
/home/hei/Desktop/optee-qemu/optee_os/lib/libutee/arch/arm/user_ta_entry.c:58
    335c:	97ffffd0 	bl	329c <ta_header_save_params.part.0>
__utee_entry():
/home/hei/Desktop/optee-qemu/optee_os/lib/libutee/arch/arm/user_ta_entry.c:269
    3360:	2a1303e0 	mov	w0, w19
    3364:	a94153f3 	ldp	x19, x20, [sp, #16]
    3368:	a9425bf5 	ldp	x21, x22, [sp, #32]
    336c:	a94363f7 	ldp	x23, x24, [sp, #48]
    3370:	a8c97bfd 	ldp	x29, x30, [sp], #144
    3374:	d65f03c0 	ret
ta_header_add_session():
/home/hei/Desktop/optee-qemu/optee_os/lib/libutee/arch/arm/user_ta_entry.c:96
    3378:	b0000041 	adrp	x1, c000 <_DYNAMIC>
    337c:	9111c021 	add	x1, x1, #0x470
    3380:	f9400422 	ldr	x2, [x1, #8]
/home/hei/Desktop/optee-qemu/optee_os/lib/libutee/arch/arm/user_ta_entry.c:94
    3384:	b9000015 	str	w21, [x0]
/home/hei/Desktop/optee-qemu/optee_os/lib/libutee/arch/arm/user_ta_entry.c:96
    3388:	a900fc1f 	stp	xzr, xzr, [x0, #8]
    338c:	f9000c02 	str	x2, [x0, #24]
    3390:	f9000040 	str	x0, [x2]
    3394:	91004000 	add	x0, x0, #0x10
    3398:	f9000420 	str	x0, [x1, #8]
entry_open_session():
/home/hei/Desktop/optee-qemu/optee_os/lib/libutee/arch/arm/user_ta_entry.c:195
    339c:	2a1503e0 	mov	w0, w21
    33a0:	97ffff58 	bl	3100 <ta_header_get_session>
    33a4:	aa0003f8 	mov	x24, x0
/home/hei/Desktop/optee-qemu/optee_os/lib/libutee/arch/arm/user_ta_entry.c:196
    33a8:	b40007e0 	cbz	x0, 34a4 <__utee_entry+0x1f4>
/home/hei/Desktop/optee-qemu/optee_os/lib/libutee/arch/arm/user_ta_entry.c:199
    33ac:	910143f6 	add	x22, sp, #0x50
    33b0:	aa1703e2 	mov	x2, x23
    33b4:	910133e1 	add	x1, sp, #0x4c
    33b8:	aa1603e0 	mov	x0, x22
    33bc:	97ffff79 	bl	31a0 <from_utee_params>
/home/hei/Desktop/optee-qemu/optee_os/lib/libutee/arch/arm/user_ta_entry.c:200
    33c0:	b9404ff3 	ldr	w19, [sp, #76]
ta_header_save_params():
/home/hei/Desktop/optee-qemu/optee_os/lib/libutee/arch/arm/user_ta_entry.c:56
    33c4:	f940be80 	ldr	x0, [x20, #376]
/home/hei/Desktop/optee-qemu/optee_os/lib/libutee/arch/arm/user_ta_entry.c:59
    33c8:	d2800802 	mov	x2, #0x40                  	// #64
    33cc:	aa1603e1 	mov	x1, x22
/home/hei/Desktop/optee-qemu/optee_os/lib/libutee/arch/arm/user_ta_entry.c:56
    33d0:	b9000013 	str	w19, [x0]
/home/hei/Desktop/optee-qemu/optee_os/lib/libutee/arch/arm/user_ta_entry.c:59
    33d4:	f940ca80 	ldr	x0, [x20, #400]
    33d8:	97fff45b 	bl	544 <memcpy>
entry_open_session():
/home/hei/Desktop/optee-qemu/optee_os/lib/libutee/arch/arm/user_ta_entry.c:202
    33dc:	91002302 	add	x2, x24, #0x8
    33e0:	aa1603e1 	mov	x1, x22
    33e4:	2a1303e0 	mov	w0, w19
    33e8:	97fff351 	bl	12c <TA_OpenSessionEntryPoint>
/home/hei/Desktop/optee-qemu/optee_os/lib/libutee/arch/arm/user_ta_entry.c:205
    33ec:	b9404fe1 	ldr	w1, [sp, #76]
/home/hei/Desktop/optee-qemu/optee_os/lib/libutee/arch/arm/user_ta_entry.c:202
    33f0:	2a0003f3 	mov	w19, w0
/home/hei/Desktop/optee-qemu/optee_os/lib/libutee/arch/arm/user_ta_entry.c:205
    33f4:	aa1603e2 	mov	x2, x22
    33f8:	aa1703e0 	mov	x0, x23
    33fc:	97ffff4b 	bl	3128 <to_utee_params>
/home/hei/Desktop/optee-qemu/optee_os/lib/libutee/arch/arm/user_ta_entry.c:207
    3400:	34fffab3 	cbz	w19, 3354 <__utee_entry+0xa4>
/home/hei/Desktop/optee-qemu/optee_os/lib/libutee/arch/arm/user_ta_entry.c:208
    3404:	2a1503e0 	mov	w0, w21
    3408:	97ffff80 	bl	3208 <ta_header_remove_session>
    340c:	17ffffd2 	b	3354 <__utee_entry+0xa4>
entry_close_session():
/home/hei/Desktop/optee-qemu/optee_os/lib/libutee/arch/arm/user_ta_entry.c:214
    3410:	2a0103e0 	mov	w0, w1
    3414:	97ffff3b 	bl	3100 <ta_header_get_session>
/home/hei/Desktop/optee-qemu/optee_os/lib/libutee/arch/arm/user_ta_entry.c:216
    3418:	b4000460 	cbz	x0, 34a4 <__utee_entry+0x1f4>
/home/hei/Desktop/optee-qemu/optee_os/lib/libutee/arch/arm/user_ta_entry.c:219
    341c:	f9400400 	ldr	x0, [x0, #8]
/home/hei/Desktop/optee-qemu/optee_os/lib/libutee/arch/arm/user_ta_entry.c:222
    3420:	52800013 	mov	w19, #0x0                   	// #0
/home/hei/Desktop/optee-qemu/optee_os/lib/libutee/arch/arm/user_ta_entry.c:219
    3424:	97fff35e 	bl	19c <TA_CloseSessionEntryPoint>
/home/hei/Desktop/optee-qemu/optee_os/lib/libutee/arch/arm/user_ta_entry.c:221
    3428:	2a1503e0 	mov	w0, w21
    342c:	97ffff77 	bl	3208 <ta_header_remove_session>
/home/hei/Desktop/optee-qemu/optee_os/lib/libutee/arch/arm/user_ta_entry.c:222
    3430:	17ffffc9 	b	3354 <__utee_entry+0xa4>
entry_invoke_command():
/home/hei/Desktop/optee-qemu/optee_os/lib/libutee/arch/arm/user_ta_entry.c:231
    3434:	2a0103e0 	mov	w0, w1
    3438:	97ffff32 	bl	3100 <ta_header_get_session>
    343c:	aa0003f3 	mov	x19, x0
/home/hei/Desktop/optee-qemu/optee_os/lib/libutee/arch/arm/user_ta_entry.c:233
    3440:	b4000320 	cbz	x0, 34a4 <__utee_entry+0x1f4>
/home/hei/Desktop/optee-qemu/optee_os/lib/libutee/arch/arm/user_ta_entry.c:236
    3444:	910143f5 	add	x21, sp, #0x50
    3448:	aa0303f8 	mov	x24, x3
    344c:	aa1703e2 	mov	x2, x23
    3450:	910133e1 	add	x1, sp, #0x4c
    3454:	aa1503e0 	mov	x0, x21
    3458:	97ffff52 	bl	31a0 <from_utee_params>
ta_header_save_params():
/home/hei/Desktop/optee-qemu/optee_os/lib/libutee/arch/arm/user_ta_entry.c:56
    345c:	f940be80 	ldr	x0, [x20, #376]
/home/hei/Desktop/optee-qemu/optee_os/lib/libutee/arch/arm/user_ta_entry.c:59
    3460:	aa1503e1 	mov	x1, x21
entry_invoke_command():
/home/hei/Desktop/optee-qemu/optee_os/lib/libutee/arch/arm/user_ta_entry.c:237
    3464:	b9404ff6 	ldr	w22, [sp, #76]
ta_header_save_params():
/home/hei/Desktop/optee-qemu/optee_os/lib/libutee/arch/arm/user_ta_entry.c:59
    3468:	d2800802 	mov	x2, #0x40                  	// #64
/home/hei/Desktop/optee-qemu/optee_os/lib/libutee/arch/arm/user_ta_entry.c:56
    346c:	b9000016 	str	w22, [x0]
/home/hei/Desktop/optee-qemu/optee_os/lib/libutee/arch/arm/user_ta_entry.c:59
    3470:	f940ca80 	ldr	x0, [x20, #400]
    3474:	97fff434 	bl	544 <memcpy>
entry_invoke_command():
/home/hei/Desktop/optee-qemu/optee_os/lib/libutee/arch/arm/user_ta_entry.c:239
    3478:	f9400660 	ldr	x0, [x19, #8]
    347c:	2a1603e2 	mov	w2, w22
    3480:	2a1803e1 	mov	w1, w24
    3484:	aa1503e3 	mov	x3, x21
    3488:	97fff36e 	bl	240 <TA_InvokeCommandEntryPoint>
    348c:	2a0003f3 	mov	w19, w0
/home/hei/Desktop/optee-qemu/optee_os/lib/libutee/arch/arm/user_ta_entry.c:242
    3490:	b9404fe1 	ldr	w1, [sp, #76]
    3494:	aa1503e2 	mov	x2, x21
    3498:	aa1703e0 	mov	x0, x23
    349c:	97ffff23 	bl	3128 <to_utee_params>
/home/hei/Desktop/optee-qemu/optee_os/lib/libutee/arch/arm/user_ta_entry.c:243
    34a0:	17ffffad 	b	3354 <__utee_entry+0xa4>
entry_close_session():
/home/hei/Desktop/optee-qemu/optee_os/lib/libutee/arch/arm/user_ta_entry.c:217
    34a4:	129fff13 	mov	w19, #0xffff0007            	// #-65529
    34a8:	17ffffab 	b	3354 <__utee_entry+0xa4>

00000000000034ac <api_panic>:
api_panic():
/home/hei/Desktop/optee-qemu/optee_os/lib/libutee/tee_api_arith_mpi.c:19
    34ac:	a9bf7bfd 	stp	x29, x30, [sp, #-16]!
/home/hei/Desktop/optee-qemu/optee_os/lib/libutee/tee_api_arith_mpi.c:20
    34b0:	aa0203e3 	mov	x3, x2
    34b4:	2a0103e2 	mov	w2, w1
    34b8:	aa0003e1 	mov	x1, x0
/home/hei/Desktop/optee-qemu/optee_os/lib/libutee/tee_api_arith_mpi.c:19
    34bc:	910003fd 	mov	x29, sp
/home/hei/Desktop/optee-qemu/optee_os/lib/libutee/tee_api_arith_mpi.c:20
    34c0:	90000040 	adrp	x0, b000 <__func__.3755+0x98>
    34c4:	9110b800 	add	x0, x0, #0x42e
    34c8:	97fffbd1 	bl	240c <printf>
/home/hei/Desktop/optee-qemu/optee_os/lib/libutee/tee_api_arith_mpi.c:21
    34cc:	528c24e0 	mov	w0, #0x6127                	// #24871
    34d0:	72a01620 	movk	w0, #0xb1, lsl #16
    34d4:	97fffdfc 	bl	2cc4 <TEE_Panic>
/home/hei/Desktop/optee-qemu/optee_os/lib/libutee/tee_api_arith_mpi.c:23 (discriminator 1)
    34d8:	14000000 	b	34d8 <api_panic+0x2c>

00000000000034dc <mpi_panic>:
mpi_panic():
/home/hei/Desktop/optee-qemu/optee_os/lib/libutee/tee_api_arith_mpi.c:29
    34dc:	a9bf7bfd 	stp	x29, x30, [sp, #-16]!
/home/hei/Desktop/optee-qemu/optee_os/lib/libutee/tee_api_arith_mpi.c:30
    34e0:	2a0203e3 	mov	w3, w2
    34e4:	2a0103e2 	mov	w2, w1
    34e8:	aa0003e1 	mov	x1, x0
/home/hei/Desktop/optee-qemu/optee_os/lib/libutee/tee_api_arith_mpi.c:29
    34ec:	910003fd 	mov	x29, sp
/home/hei/Desktop/optee-qemu/optee_os/lib/libutee/tee_api_arith_mpi.c:30
    34f0:	90000040 	adrp	x0, b000 <__func__.3755+0x98>
    34f4:	91113800 	add	x0, x0, #0x44e
    34f8:	97fffbc5 	bl	240c <printf>
/home/hei/Desktop/optee-qemu/optee_os/lib/libutee/tee_api_arith_mpi.c:31
    34fc:	528c24e0 	mov	w0, #0x6127                	// #24871
    3500:	72a01620 	movk	w0, #0xb1, lsl #16
    3504:	97fffdf0 	bl	2cc4 <TEE_Panic>
/home/hei/Desktop/optee-qemu/optee_os/lib/libutee/tee_api_arith_mpi.c:33 (discriminator 1)
    3508:	14000000 	b	3508 <mpi_panic+0x2c>

000000000000350c <get_mpi>:
get_mpi():
/home/hei/Desktop/optee-qemu/optee_os/lib/libutee/tee_api_arith_mpi.c:86
    350c:	a9bd7bfd 	stp	x29, x30, [sp, #-48]!
    3510:	910003fd 	mov	x29, sp
    3514:	a90153f3 	stp	x19, x20, [sp, #16]
    3518:	aa0103f4 	mov	x20, x1
    351c:	a9025bf5 	stp	x21, x22, [sp, #32]
    3520:	aa0003f5 	mov	x21, x0
/home/hei/Desktop/optee-qemu/optee_os/lib/libutee/tee_api_arith_mpi.c:101
    3524:	9400079d 	bl	5398 <mbedtls_mpi_init_mempool>
/home/hei/Desktop/optee-qemu/optee_os/lib/libutee/tee_api_arith_mpi.c:103
    3528:	b4000374 	cbz	x20, 3594 <get_mpi+0x88>
/home/hei/Desktop/optee-qemu/optee_os/lib/libutee/tee_api_arith_mpi.c:106
    352c:	79400e93 	ldrh	w19, [x20, #6]
/home/hei/Desktop/optee-qemu/optee_os/lib/libutee/tee_api_arith_mpi.c:105
    3530:	91002296 	add	x22, x20, #0x8
/home/hei/Desktop/optee-qemu/optee_os/lib/libutee/tee_api_arith_mpi.c:109
    3534:	91001281 	add	x1, x20, #0x4
    3538:	b4000073 	cbz	x19, 3544 <get_mpi+0x38>
/home/hei/Desktop/optee-qemu/optee_os/lib/libutee/tee_api_arith_mpi.c:109 (discriminator 1)
    353c:	b8737820 	ldr	w0, [x1, x19, lsl #2]
    3540:	34000140 	cbz	w0, 3568 <get_mpi+0x5c>
/home/hei/Desktop/optee-qemu/optee_os/lib/libutee/tee_api_arith_mpi.c:112
    3544:	aa1303e1 	mov	x1, x19
    3548:	aa1503e0 	mov	x0, x21
    354c:	940007b8 	bl	542c <mbedtls_mpi_grow>
    3550:	34000100 	cbz	w0, 3570 <get_mpi+0x64>
/home/hei/Desktop/optee-qemu/optee_os/lib/libutee/tee_api_arith_mpi.c:112 (discriminator 1)
    3554:	2a0003e2 	mov	w2, w0
    3558:	52800e01 	mov	w1, #0x70                  	// #112
    355c:	90000040 	adrp	x0, b000 <__func__.3755+0x98>
    3560:	910bc400 	add	x0, x0, #0x2f1
    3564:	97ffffde 	bl	34dc <mpi_panic>
/home/hei/Desktop/optee-qemu/optee_os/lib/libutee/tee_api_arith_mpi.c:110
    3568:	d1000673 	sub	x19, x19, #0x1
    356c:	17fffff3 	b	3538 <get_mpi+0x2c>
/home/hei/Desktop/optee-qemu/optee_os/lib/libutee/tee_api_arith_mpi.c:113
    3570:	b9400280 	ldr	w0, [x20]
/home/hei/Desktop/optee-qemu/optee_os/lib/libutee/tee_api_arith_mpi.c:114
    3574:	d37ef662 	lsl	x2, x19, #2
/home/hei/Desktop/optee-qemu/optee_os/lib/libutee/tee_api_arith_mpi.c:113
    3578:	790002a0 	strh	w0, [x21]
/home/hei/Desktop/optee-qemu/optee_os/lib/libutee/tee_api_arith_mpi.c:114
    357c:	aa1603e1 	mov	x1, x22
/home/hei/Desktop/optee-qemu/optee_os/lib/libutee/tee_api_arith_mpi.c:116
    3580:	a94153f3 	ldp	x19, x20, [sp, #16]
/home/hei/Desktop/optee-qemu/optee_os/lib/libutee/tee_api_arith_mpi.c:114
    3584:	f9400aa0 	ldr	x0, [x21, #16]
/home/hei/Desktop/optee-qemu/optee_os/lib/libutee/tee_api_arith_mpi.c:116
    3588:	a9425bf5 	ldp	x21, x22, [sp, #32]
    358c:	a8c37bfd 	ldp	x29, x30, [sp], #48
/home/hei/Desktop/optee-qemu/optee_os/lib/libutee/tee_api_arith_mpi.c:114
    3590:	17fff3ed 	b	544 <memcpy>
/home/hei/Desktop/optee-qemu/optee_os/lib/libutee/tee_api_arith_mpi.c:116
    3594:	a94153f3 	ldp	x19, x20, [sp, #16]
    3598:	a9425bf5 	ldp	x21, x22, [sp, #32]
    359c:	a8c37bfd 	ldp	x29, x30, [sp], #48
    35a0:	d65f03c0 	ret

00000000000035a4 <copy_mpi_to_bigint>:
copy_mpi_to_bigint():
/home/hei/Desktop/optee-qemu/optee_os/lib/libutee/tee_api_arith_mpi.c:61
    35a4:	aa0103e3 	mov	x3, x1
/home/hei/Desktop/optee-qemu/optee_os/lib/libutee/tee_api_arith_mpi.c:63
    35a8:	a9408402 	ldp	x2, x1, [x0, #8]
    35ac:	aa0203e4 	mov	x4, x2
/home/hei/Desktop/optee-qemu/optee_os/lib/libutee/tee_api_arith_mpi.c:66
    35b0:	b40000e4 	cbz	x4, 35cc <copy_mpi_to_bigint+0x28>
/home/hei/Desktop/optee-qemu/optee_os/lib/libutee/tee_api_arith_mpi.c:66 (discriminator 1)
    35b4:	8b040825 	add	x5, x1, x4, lsl #2
    35b8:	b85fc0a5 	ldur	w5, [x5, #-4]
    35bc:	340001e5 	cbz	w5, 35f8 <copy_mpi_to_bigint+0x54>
/home/hei/Desktop/optee-qemu/optee_os/lib/libutee/tee_api_arith_mpi.c:69
    35c0:	79400865 	ldrh	w5, [x3, #4]
    35c4:	eb0400bf 	cmp	x5, x4
    35c8:	540001c3 	b.cc	3600 <copy_mpi_to_bigint+0x5c>  // b.lo, b.ul, b.last
/home/hei/Desktop/optee-qemu/optee_os/lib/libutee/tee_api_arith_mpi.c:61
    35cc:	a9bf7bfd 	stp	x29, x30, [sp, #-16]!
/home/hei/Desktop/optee-qemu/optee_os/lib/libutee/tee_api_arith_mpi.c:74
    35d0:	d37ef442 	lsl	x2, x2, #2
/home/hei/Desktop/optee-qemu/optee_os/lib/libutee/tee_api_arith_mpi.c:61
    35d4:	910003fd 	mov	x29, sp
/home/hei/Desktop/optee-qemu/optee_os/lib/libutee/tee_api_arith_mpi.c:72
    35d8:	79000c64 	strh	w4, [x3, #6]
/home/hei/Desktop/optee-qemu/optee_os/lib/libutee/tee_api_arith_mpi.c:73
    35dc:	79c00004 	ldrsh	w4, [x0]
    35e0:	aa0303e0 	mov	x0, x3
    35e4:	b8008404 	str	w4, [x0], #8
/home/hei/Desktop/optee-qemu/optee_os/lib/libutee/tee_api_arith_mpi.c:74
    35e8:	97fff3d7 	bl	544 <memcpy>
/home/hei/Desktop/optee-qemu/optee_os/lib/libutee/tee_api_arith_mpi.c:76
    35ec:	52800000 	mov	w0, #0x0                   	// #0
/home/hei/Desktop/optee-qemu/optee_os/lib/libutee/tee_api_arith_mpi.c:77
    35f0:	a8c17bfd 	ldp	x29, x30, [sp], #16
    35f4:	d65f03c0 	ret
/home/hei/Desktop/optee-qemu/optee_os/lib/libutee/tee_api_arith_mpi.c:67
    35f8:	d1000484 	sub	x4, x4, #0x1
    35fc:	17ffffed 	b	35b0 <copy_mpi_to_bigint+0xc>
/home/hei/Desktop/optee-qemu/optee_os/lib/libutee/tee_api_arith_mpi.c:70
    3600:	1299fe00 	mov	w0, #0xffff300f            	// #-53233
/home/hei/Desktop/optee-qemu/optee_os/lib/libutee/tee_api_arith_mpi.c:77
    3604:	d65f03c0 	ret

0000000000003608 <bigint_binary>:
bigint_binary():
/home/hei/Desktop/optee-qemu/optee_os/lib/libutee/tee_api_arith_mpi.c:321
    3608:	a9b67bfd 	stp	x29, x30, [sp, #-160]!
    360c:	910003fd 	mov	x29, sp
    3610:	a90153f3 	stp	x19, x20, [sp, #16]
/home/hei/Desktop/optee-qemu/optee_os/lib/libutee/tee_api_arith_mpi.c:328
    3614:	910163f3 	add	x19, sp, #0x58
/home/hei/Desktop/optee-qemu/optee_os/lib/libutee/tee_api_arith_mpi.c:321
    3618:	aa0203f4 	mov	x20, x2
    361c:	a9025bf5 	stp	x21, x22, [sp, #32]
    3620:	aa0003f6 	mov	x22, x0
    3624:	a90363f7 	stp	x23, x24, [sp, #48]
    3628:	9101c3f8 	add	x24, sp, #0x70
    362c:	a9046bf9 	stp	x25, x26, [sp, #64]
    3630:	aa0103f9 	mov	x25, x1
    3634:	aa0303fa 	mov	x26, x3
/home/hei/Desktop/optee-qemu/optee_os/lib/libutee/tee_api_arith_mpi.c:328
    3638:	aa0003e1 	mov	x1, x0
    363c:	aa1303e0 	mov	x0, x19
    3640:	97ffffb3 	bl	350c <get_mpi>
/home/hei/Desktop/optee-qemu/optee_os/lib/libutee/tee_api_arith_mpi.c:330
    3644:	eb1902df 	cmp	x22, x25
    3648:	54000320 	b.eq	36ac <bigint_binary+0xa4>  // b.none
/home/hei/Desktop/optee-qemu/optee_os/lib/libutee/tee_api_arith_mpi.c:325
    364c:	aa1803f5 	mov	x21, x24
/home/hei/Desktop/optee-qemu/optee_os/lib/libutee/tee_api_arith_mpi.c:333
    3650:	aa1903e1 	mov	x1, x25
    3654:	aa1803e0 	mov	x0, x24
    3658:	97ffffad 	bl	350c <get_mpi>
/home/hei/Desktop/optee-qemu/optee_os/lib/libutee/tee_api_arith_mpi.c:335
    365c:	eb1402df 	cmp	x22, x20
    3660:	910223f7 	add	x23, sp, #0x88
    3664:	54000280 	b.eq	36b4 <bigint_binary+0xac>  // b.none
/home/hei/Desktop/optee-qemu/optee_os/lib/libutee/tee_api_arith_mpi.c:337
    3668:	eb14033f 	cmp	x25, x20
    366c:	54000280 	b.eq	36bc <bigint_binary+0xb4>  // b.none
/home/hei/Desktop/optee-qemu/optee_os/lib/libutee/tee_api_arith_mpi.c:340
    3670:	aa1403e1 	mov	x1, x20
/home/hei/Desktop/optee-qemu/optee_os/lib/libutee/tee_api_arith_mpi.c:326
    3674:	aa1703f4 	mov	x20, x23
/home/hei/Desktop/optee-qemu/optee_os/lib/libutee/tee_api_arith_mpi.c:340
    3678:	aa1703e0 	mov	x0, x23
    367c:	97ffffa4 	bl	350c <get_mpi>
/home/hei/Desktop/optee-qemu/optee_os/lib/libutee/tee_api_arith_mpi.c:342
    3680:	aa1403e2 	mov	x2, x20
    3684:	aa1503e1 	mov	x1, x21
    3688:	aa1303e0 	mov	x0, x19
    368c:	d63f0340 	blr	x26
    3690:	340001a0 	cbz	w0, 36c4 <bigint_binary+0xbc>
/home/hei/Desktop/optee-qemu/optee_os/lib/libutee/tee_api_arith_mpi.c:342 (discriminator 1)
    3694:	2a0003e2 	mov	w2, w0
    3698:	52802ac1 	mov	w1, #0x156                 	// #342
/home/hei/Desktop/optee-qemu/optee_os/lib/libutee/tee_api_arith_mpi.c:344 (discriminator 1)
    369c:	90000040 	adrp	x0, b000 <__func__.3755+0x98>
    36a0:	910bc400 	add	x0, x0, #0x2f1
    36a4:	91002000 	add	x0, x0, #0x8
    36a8:	97ffff8d 	bl	34dc <mpi_panic>
/home/hei/Desktop/optee-qemu/optee_os/lib/libutee/tee_api_arith_mpi.c:331
    36ac:	aa1303f5 	mov	x21, x19
    36b0:	17ffffeb 	b	365c <bigint_binary+0x54>
/home/hei/Desktop/optee-qemu/optee_os/lib/libutee/tee_api_arith_mpi.c:336
    36b4:	aa1303f4 	mov	x20, x19
    36b8:	17fffff2 	b	3680 <bigint_binary+0x78>
/home/hei/Desktop/optee-qemu/optee_os/lib/libutee/tee_api_arith_mpi.c:338
    36bc:	aa1503f4 	mov	x20, x21
    36c0:	17fffff0 	b	3680 <bigint_binary+0x78>
/home/hei/Desktop/optee-qemu/optee_os/lib/libutee/tee_api_arith_mpi.c:344
    36c4:	aa1603e1 	mov	x1, x22
    36c8:	aa1303e0 	mov	x0, x19
    36cc:	97ffffb6 	bl	35a4 <copy_mpi_to_bigint>
    36d0:	34000080 	cbz	w0, 36e0 <bigint_binary+0xd8>
/home/hei/Desktop/optee-qemu/optee_os/lib/libutee/tee_api_arith_mpi.c:344 (discriminator 1)
    36d4:	2a0003e2 	mov	w2, w0
    36d8:	52802b01 	mov	w1, #0x158                 	// #344
    36dc:	17fffff0 	b	369c <bigint_binary+0x94>
/home/hei/Desktop/optee-qemu/optee_os/lib/libutee/tee_api_arith_mpi.c:345
    36e0:	aa1303e0 	mov	x0, x19
    36e4:	94000737 	bl	53c0 <mbedtls_mpi_free>
/home/hei/Desktop/optee-qemu/optee_os/lib/libutee/tee_api_arith_mpi.c:346
    36e8:	eb1802bf 	cmp	x21, x24
    36ec:	54000061 	b.ne	36f8 <bigint_binary+0xf0>  // b.any
/home/hei/Desktop/optee-qemu/optee_os/lib/libutee/tee_api_arith_mpi.c:347
    36f0:	aa1503e0 	mov	x0, x21
    36f4:	94000733 	bl	53c0 <mbedtls_mpi_free>
/home/hei/Desktop/optee-qemu/optee_os/lib/libutee/tee_api_arith_mpi.c:348
    36f8:	eb17029f 	cmp	x20, x23
    36fc:	54000061 	b.ne	3708 <bigint_binary+0x100>  // b.any
/home/hei/Desktop/optee-qemu/optee_os/lib/libutee/tee_api_arith_mpi.c:349
    3700:	aa1403e0 	mov	x0, x20
    3704:	9400072f 	bl	53c0 <mbedtls_mpi_free>
/home/hei/Desktop/optee-qemu/optee_os/lib/libutee/tee_api_arith_mpi.c:350
    3708:	a94153f3 	ldp	x19, x20, [sp, #16]
    370c:	a9425bf5 	ldp	x21, x22, [sp, #32]
    3710:	a94363f7 	ldp	x23, x24, [sp, #48]
    3714:	a9446bf9 	ldp	x25, x26, [sp, #64]
    3718:	a8ca7bfd 	ldp	x29, x30, [sp], #160
    371c:	d65f03c0 	ret

0000000000003720 <mpi_is_odd>:
mpi_is_odd():
/home/hei/Desktop/optee-qemu/optee_os/lib/libutee/tee_api_arith_mpi.c:590
    3720:	a9bf7bfd 	stp	x29, x30, [sp, #-16]!
/home/hei/Desktop/optee-qemu/optee_os/lib/libutee/tee_api_arith_mpi.c:591
    3724:	d2800001 	mov	x1, #0x0                   	// #0
/home/hei/Desktop/optee-qemu/optee_os/lib/libutee/tee_api_arith_mpi.c:590
    3728:	910003fd 	mov	x29, sp
/home/hei/Desktop/optee-qemu/optee_os/lib/libutee/tee_api_arith_mpi.c:591
    372c:	9400088e 	bl	5964 <mbedtls_mpi_get_bit>
    3730:	7100001f 	cmp	w0, #0x0
/home/hei/Desktop/optee-qemu/optee_os/lib/libutee/tee_api_arith_mpi.c:592
    3734:	1a9f07e0 	cset	w0, ne  // ne = any
    3738:	a8c17bfd 	ldp	x29, x30, [sp], #16
    373c:	d65f03c0 	ret

0000000000003740 <rng_read>:
rng_read():
/home/hei/Desktop/optee-qemu/optee_os/lib/libutee/tee_api_arith_mpi.c:757
    3740:	a9bf7bfd 	stp	x29, x30, [sp, #-16]!
    3744:	aa0103e0 	mov	x0, x1
/home/hei/Desktop/optee-qemu/optee_os/lib/libutee/tee_api_arith_mpi.c:758
    3748:	aa0203e1 	mov	x1, x2
/home/hei/Desktop/optee-qemu/optee_os/lib/libutee/tee_api_arith_mpi.c:757
    374c:	910003fd 	mov	x29, sp
/home/hei/Desktop/optee-qemu/optee_os/lib/libutee/tee_api_arith_mpi.c:758
    3750:	97fffe27 	bl	2fec <utee_cryp_random_number_generate>
/home/hei/Desktop/optee-qemu/optee_os/lib/libutee/tee_api_arith_mpi.c:759
    3754:	7100001f 	cmp	w0, #0x0
/home/hei/Desktop/optee-qemu/optee_os/lib/libutee/tee_api_arith_mpi.c:761
    3758:	a8c17bfd 	ldp	x29, x30, [sp], #16
    375c:	12800020 	mov	w0, #0xfffffffe            	// #-2
    3760:	1a9f1000 	csel	w0, w0, wzr, ne  // ne = any
    3764:	d65f03c0 	ret

0000000000003768 <mpi_egcd>:
mpi_egcd():
/home/hei/Desktop/optee-qemu/optee_os/lib/libutee/tee_api_arith_mpi.c:605
    3768:	a9ae7bfd 	stp	x29, x30, [sp, #-288]!
    376c:	910003fd 	mov	x29, sp
    3770:	6d0627e8 	stp	d8, d9, [sp, #96]
    3774:	9e670028 	fmov	d8, x1
    3778:	9e670069 	fmov	d9, x3
    377c:	a90363f7 	stp	x23, x24, [sp, #48]
get_mpi():
/home/hei/Desktop/optee-qemu/optee_os/lib/libutee/tee_api_arith_mpi.c:101
    3780:	9101e3f7 	add	x23, sp, #0x78
mpi_egcd():
/home/hei/Desktop/optee-qemu/optee_os/lib/libutee/tee_api_arith_mpi.c:605
    3784:	aa0003f8 	mov	x24, x0
get_mpi():
/home/hei/Desktop/optee-qemu/optee_os/lib/libutee/tee_api_arith_mpi.c:101
    3788:	aa1703e0 	mov	x0, x23
mpi_egcd():
/home/hei/Desktop/optee-qemu/optee_os/lib/libutee/tee_api_arith_mpi.c:605
    378c:	a90153f3 	stp	x19, x20, [sp, #16]
get_mpi():
/home/hei/Desktop/optee-qemu/optee_os/lib/libutee/tee_api_arith_mpi.c:101
    3790:	9102a3f4 	add	x20, sp, #0xa8
mpi_egcd():
/home/hei/Desktop/optee-qemu/optee_os/lib/libutee/tee_api_arith_mpi.c:605
    3794:	a9025bf5 	stp	x21, x22, [sp, #32]
get_mpi():
/home/hei/Desktop/optee-qemu/optee_os/lib/libutee/tee_api_arith_mpi.c:101
    3798:	910243f6 	add	x22, sp, #0x90
    379c:	910303f3 	add	x19, sp, #0xc0
mpi_egcd():
/home/hei/Desktop/optee-qemu/optee_os/lib/libutee/tee_api_arith_mpi.c:605
    37a0:	a9046bf9 	stp	x25, x26, [sp, #64]
get_mpi():
/home/hei/Desktop/optee-qemu/optee_os/lib/libutee/tee_api_arith_mpi.c:101
    37a4:	910363fa 	add	x26, sp, #0xd8
    37a8:	9103c3f9 	add	x25, sp, #0xf0
mpi_egcd():
/home/hei/Desktop/optee-qemu/optee_os/lib/libutee/tee_api_arith_mpi.c:605
    37ac:	a90573fb 	stp	x27, x28, [sp, #80]
    37b0:	aa0403fb 	mov	x27, x4
    37b4:	aa0203fc 	mov	x28, x2
get_mpi():
/home/hei/Desktop/optee-qemu/optee_os/lib/libutee/tee_api_arith_mpi.c:101
    37b8:	940006f8 	bl	5398 <mbedtls_mpi_init_mempool>
    37bc:	910423f5 	add	x21, sp, #0x108
    37c0:	aa1603e0 	mov	x0, x22
    37c4:	940006f5 	bl	5398 <mbedtls_mpi_init_mempool>
    37c8:	aa1403e0 	mov	x0, x20
    37cc:	940006f3 	bl	5398 <mbedtls_mpi_init_mempool>
    37d0:	aa1303e0 	mov	x0, x19
    37d4:	940006f1 	bl	5398 <mbedtls_mpi_init_mempool>
    37d8:	aa1a03e0 	mov	x0, x26
    37dc:	940006ef 	bl	5398 <mbedtls_mpi_init_mempool>
    37e0:	aa1903e0 	mov	x0, x25
    37e4:	940006ed 	bl	5398 <mbedtls_mpi_init_mempool>
    37e8:	aa1503e0 	mov	x0, x21
    37ec:	940006eb 	bl	5398 <mbedtls_mpi_init_mempool>
mpi_egcd():
/home/hei/Desktop/optee-qemu/optee_os/lib/libutee/tee_api_arith_mpi.c:624
    37f0:	52800001 	mov	w1, #0x0                   	// #0
    37f4:	aa1b03e0 	mov	x0, x27
    37f8:	940009ea 	bl	5fa0 <mbedtls_mpi_cmp_int>
    37fc:	35000320 	cbnz	w0, 3860 <mpi_egcd+0xf8>
/home/hei/Desktop/optee-qemu/optee_os/lib/libutee/tee_api_arith_mpi.c:625
    3800:	9e660100 	fmov	x0, d8
    3804:	52800021 	mov	w1, #0x1                   	// #1
    3808:	9400083d 	bl	58fc <mbedtls_mpi_lset>
    380c:	340000e0 	cbz	w0, 3828 <mpi_egcd+0xc0>
/home/hei/Desktop/optee-qemu/optee_os/lib/libutee/tee_api_arith_mpi.c:625 (discriminator 1)
    3810:	2a0003e2 	mov	w2, w0
    3814:	52804e21 	mov	w1, #0x271                 	// #625
/home/hei/Desktop/optee-qemu/optee_os/lib/libutee/tee_api_arith_mpi.c:626 (discriminator 1)
    3818:	90000040 	adrp	x0, b000 <__func__.3755+0x98>
    381c:	910bc400 	add	x0, x0, #0x2f1
    3820:	91005800 	add	x0, x0, #0x16
    3824:	97ffff2e 	bl	34dc <mpi_panic>
/home/hei/Desktop/optee-qemu/optee_os/lib/libutee/tee_api_arith_mpi.c:626
    3828:	52800001 	mov	w1, #0x0                   	// #0
    382c:	aa1c03e0 	mov	x0, x28
    3830:	94000833 	bl	58fc <mbedtls_mpi_lset>
    3834:	34000080 	cbz	w0, 3844 <mpi_egcd+0xdc>
/home/hei/Desktop/optee-qemu/optee_os/lib/libutee/tee_api_arith_mpi.c:626 (discriminator 1)
    3838:	2a0003e2 	mov	w2, w0
    383c:	52804e41 	mov	w1, #0x272                 	// #626
    3840:	17fffff6 	b	3818 <mpi_egcd+0xb0>
/home/hei/Desktop/optee-qemu/optee_os/lib/libutee/tee_api_arith_mpi.c:627
    3844:	9e660121 	fmov	x1, d9
    3848:	aa1803e0 	mov	x0, x24
    384c:	9400077e 	bl	5644 <mbedtls_mpi_copy>
    3850:	34002060 	cbz	w0, 3c5c <mpi_egcd+0x4f4>
/home/hei/Desktop/optee-qemu/optee_os/lib/libutee/tee_api_arith_mpi.c:627 (discriminator 1)
    3854:	2a0003e2 	mov	w2, w0
    3858:	52804e61 	mov	w1, #0x273                 	// #627
    385c:	17ffffef 	b	3818 <mpi_egcd+0xb0>
/home/hei/Desktop/optee-qemu/optee_os/lib/libutee/tee_api_arith_mpi.c:631
    3860:	9e660121 	fmov	x1, d9
    3864:	aa1a03e0 	mov	x0, x26
    3868:	94000777 	bl	5644 <mbedtls_mpi_copy>
    386c:	34000080 	cbz	w0, 387c <mpi_egcd+0x114>
/home/hei/Desktop/optee-qemu/optee_os/lib/libutee/tee_api_arith_mpi.c:631 (discriminator 1)
    3870:	2a0003e2 	mov	w2, w0
    3874:	52804ee1 	mov	w1, #0x277                 	// #631
    3878:	17ffffe8 	b	3818 <mpi_egcd+0xb0>
/home/hei/Desktop/optee-qemu/optee_os/lib/libutee/tee_api_arith_mpi.c:632
    387c:	aa1b03e1 	mov	x1, x27
    3880:	aa1903e0 	mov	x0, x25
/home/hei/Desktop/optee-qemu/optee_os/lib/libutee/tee_api_arith_mpi.c:634
    3884:	5280001b 	mov	w27, #0x0                   	// #0
/home/hei/Desktop/optee-qemu/optee_os/lib/libutee/tee_api_arith_mpi.c:632
    3888:	9400076f 	bl	5644 <mbedtls_mpi_copy>
    388c:	34000160 	cbz	w0, 38b8 <mpi_egcd+0x150>
/home/hei/Desktop/optee-qemu/optee_os/lib/libutee/tee_api_arith_mpi.c:632 (discriminator 1)
    3890:	2a0003e2 	mov	w2, w0
    3894:	52804f01 	mov	w1, #0x278                 	// #632
    3898:	17ffffe0 	b	3818 <mpi_egcd+0xb0>
/home/hei/Desktop/optee-qemu/optee_os/lib/libutee/tee_api_arith_mpi.c:638
    389c:	d2800021 	mov	x1, #0x1                   	// #1
    38a0:	aa1903e0 	mov	x0, x25
    38a4:	94000930 	bl	5d64 <mbedtls_mpi_shift_r>
    38a8:	34000080 	cbz	w0, 38b8 <mpi_egcd+0x150>
/home/hei/Desktop/optee-qemu/optee_os/lib/libutee/tee_api_arith_mpi.c:638 (discriminator 1)
    38ac:	2a0003e2 	mov	w2, w0
    38b0:	52804fc1 	mov	w1, #0x27e                 	// #638
    38b4:	17ffffd9 	b	3818 <mpi_egcd+0xb0>
mpi_is_even():
/home/hei/Desktop/optee-qemu/optee_os/lib/libutee/tee_api_arith_mpi.c:596
    38b8:	aa1a03e0 	mov	x0, x26
    38bc:	97ffff99 	bl	3720 <mpi_is_odd>
mpi_egcd():
/home/hei/Desktop/optee-qemu/optee_os/lib/libutee/tee_api_arith_mpi.c:635
    38c0:	72001c1f 	tst	w0, #0xff
    38c4:	54000100 	b.eq	38e4 <mpi_egcd+0x17c>  // b.none
/home/hei/Desktop/optee-qemu/optee_os/lib/libutee/tee_api_arith_mpi.c:641
    38c8:	aa1a03e1 	mov	x1, x26
    38cc:	aa1503e0 	mov	x0, x21
    38d0:	9400075d 	bl	5644 <mbedtls_mpi_copy>
    38d4:	34000200 	cbz	w0, 3914 <mpi_egcd+0x1ac>
/home/hei/Desktop/optee-qemu/optee_os/lib/libutee/tee_api_arith_mpi.c:641 (discriminator 1)
    38d8:	2a0003e2 	mov	w2, w0
    38dc:	52805021 	mov	w1, #0x281                 	// #641
    38e0:	17ffffce 	b	3818 <mpi_egcd+0xb0>
mpi_is_even():
/home/hei/Desktop/optee-qemu/optee_os/lib/libutee/tee_api_arith_mpi.c:596
    38e4:	aa1903e0 	mov	x0, x25
    38e8:	97ffff8e 	bl	3720 <mpi_is_odd>
mpi_egcd():
/home/hei/Desktop/optee-qemu/optee_os/lib/libutee/tee_api_arith_mpi.c:635
    38ec:	72001c1f 	tst	w0, #0xff
    38f0:	54fffec1 	b.ne	38c8 <mpi_egcd+0x160>  // b.any
/home/hei/Desktop/optee-qemu/optee_os/lib/libutee/tee_api_arith_mpi.c:636
    38f4:	1100077b 	add	w27, w27, #0x1
/home/hei/Desktop/optee-qemu/optee_os/lib/libutee/tee_api_arith_mpi.c:637
    38f8:	d2800021 	mov	x1, #0x1                   	// #1
    38fc:	aa1a03e0 	mov	x0, x26
    3900:	94000919 	bl	5d64 <mbedtls_mpi_shift_r>
    3904:	34fffcc0 	cbz	w0, 389c <mpi_egcd+0x134>
/home/hei/Desktop/optee-qemu/optee_os/lib/libutee/tee_api_arith_mpi.c:637 (discriminator 1)
    3908:	2a0003e2 	mov	w2, w0
    390c:	52804fa1 	mov	w1, #0x27d                 	// #637
    3910:	17ffffc2 	b	3818 <mpi_egcd+0xb0>
/home/hei/Desktop/optee-qemu/optee_os/lib/libutee/tee_api_arith_mpi.c:642
    3914:	aa1903e1 	mov	x1, x25
    3918:	aa1803e0 	mov	x0, x24
    391c:	9400074a 	bl	5644 <mbedtls_mpi_copy>
    3920:	34000080 	cbz	w0, 3930 <mpi_egcd+0x1c8>
/home/hei/Desktop/optee-qemu/optee_os/lib/libutee/tee_api_arith_mpi.c:642 (discriminator 1)
    3924:	2a0003e2 	mov	w2, w0
    3928:	52805041 	mov	w1, #0x282                 	// #642
    392c:	17ffffbb 	b	3818 <mpi_egcd+0xb0>
/home/hei/Desktop/optee-qemu/optee_os/lib/libutee/tee_api_arith_mpi.c:643
    3930:	52800021 	mov	w1, #0x1                   	// #1
    3934:	aa1703e0 	mov	x0, x23
    3938:	940007f1 	bl	58fc <mbedtls_mpi_lset>
    393c:	34000080 	cbz	w0, 394c <mpi_egcd+0x1e4>
/home/hei/Desktop/optee-qemu/optee_os/lib/libutee/tee_api_arith_mpi.c:643 (discriminator 1)
    3940:	2a0003e2 	mov	w2, w0
    3944:	52805061 	mov	w1, #0x283                 	// #643
    3948:	17ffffb4 	b	3818 <mpi_egcd+0xb0>
/home/hei/Desktop/optee-qemu/optee_os/lib/libutee/tee_api_arith_mpi.c:644
    394c:	52800001 	mov	w1, #0x0                   	// #0
    3950:	aa1603e0 	mov	x0, x22
    3954:	940007ea 	bl	58fc <mbedtls_mpi_lset>
    3958:	34000080 	cbz	w0, 3968 <mpi_egcd+0x200>
/home/hei/Desktop/optee-qemu/optee_os/lib/libutee/tee_api_arith_mpi.c:644 (discriminator 1)
    395c:	2a0003e2 	mov	w2, w0
    3960:	52805081 	mov	w1, #0x284                 	// #644
    3964:	17ffffad 	b	3818 <mpi_egcd+0xb0>
/home/hei/Desktop/optee-qemu/optee_os/lib/libutee/tee_api_arith_mpi.c:645
    3968:	52800001 	mov	w1, #0x0                   	// #0
    396c:	aa1403e0 	mov	x0, x20
    3970:	940007e3 	bl	58fc <mbedtls_mpi_lset>
    3974:	34000080 	cbz	w0, 3984 <mpi_egcd+0x21c>
/home/hei/Desktop/optee-qemu/optee_os/lib/libutee/tee_api_arith_mpi.c:645 (discriminator 1)
    3978:	2a0003e2 	mov	w2, w0
    397c:	528050a1 	mov	w1, #0x285                 	// #645
    3980:	17ffffa6 	b	3818 <mpi_egcd+0xb0>
/home/hei/Desktop/optee-qemu/optee_os/lib/libutee/tee_api_arith_mpi.c:646
    3984:	52800021 	mov	w1, #0x1                   	// #1
    3988:	aa1303e0 	mov	x0, x19
    398c:	940007dc 	bl	58fc <mbedtls_mpi_lset>
    3990:	34001340 	cbz	w0, 3bf8 <mpi_egcd+0x490>
/home/hei/Desktop/optee-qemu/optee_os/lib/libutee/tee_api_arith_mpi.c:646 (discriminator 1)
    3994:	2a0003e2 	mov	w2, w0
    3998:	528050c1 	mov	w1, #0x286                 	// #646
    399c:	17ffff9f 	b	3818 <mpi_egcd+0xb0>
/home/hei/Desktop/optee-qemu/optee_os/lib/libutee/tee_api_arith_mpi.c:650
    39a0:	d2800021 	mov	x1, #0x1                   	// #1
    39a4:	aa1503e0 	mov	x0, x21
    39a8:	940008ef 	bl	5d64 <mbedtls_mpi_shift_r>
    39ac:	34000080 	cbz	w0, 39bc <mpi_egcd+0x254>
/home/hei/Desktop/optee-qemu/optee_os/lib/libutee/tee_api_arith_mpi.c:650 (discriminator 1)
    39b0:	2a0003e2 	mov	w2, w0
    39b4:	52805141 	mov	w1, #0x28a                 	// #650
    39b8:	17ffff98 	b	3818 <mpi_egcd+0xb0>
/home/hei/Desktop/optee-qemu/optee_os/lib/libutee/tee_api_arith_mpi.c:651
    39bc:	aa1703e0 	mov	x0, x23
    39c0:	97ffff58 	bl	3720 <mpi_is_odd>
    39c4:	72001c1f 	tst	w0, #0xff
    39c8:	54000120 	b.eq	39ec <mpi_egcd+0x284>  // b.none
/home/hei/Desktop/optee-qemu/optee_os/lib/libutee/tee_api_arith_mpi.c:652
    39cc:	aa1903e2 	mov	x2, x25
    39d0:	aa1703e1 	mov	x1, x23
    39d4:	aa1703e0 	mov	x0, x23
    39d8:	94000a02 	bl	61e0 <mbedtls_mpi_add_mpi>
    39dc:	340001e0 	cbz	w0, 3a18 <mpi_egcd+0x2b0>
/home/hei/Desktop/optee-qemu/optee_os/lib/libutee/tee_api_arith_mpi.c:652 (discriminator 1)
    39e0:	2a0003e2 	mov	w2, w0
    39e4:	52805181 	mov	w1, #0x28c                 	// #652
    39e8:	17ffff8c 	b	3818 <mpi_egcd+0xb0>
/home/hei/Desktop/optee-qemu/optee_os/lib/libutee/tee_api_arith_mpi.c:651 (discriminator 1)
    39ec:	aa1603e0 	mov	x0, x22
    39f0:	97ffff4c 	bl	3720 <mpi_is_odd>
    39f4:	72001c1f 	tst	w0, #0xff
    39f8:	54fffea1 	b.ne	39cc <mpi_egcd+0x264>  // b.any
/home/hei/Desktop/optee-qemu/optee_os/lib/libutee/tee_api_arith_mpi.c:655
    39fc:	d2800021 	mov	x1, #0x1                   	// #1
    3a00:	aa1703e0 	mov	x0, x23
    3a04:	940008d8 	bl	5d64 <mbedtls_mpi_shift_r>
    3a08:	34000180 	cbz	w0, 3a38 <mpi_egcd+0x2d0>
/home/hei/Desktop/optee-qemu/optee_os/lib/libutee/tee_api_arith_mpi.c:655 (discriminator 1)
    3a0c:	2a0003e2 	mov	w2, w0
    3a10:	528051e1 	mov	w1, #0x28f                 	// #655
    3a14:	17ffff81 	b	3818 <mpi_egcd+0xb0>
/home/hei/Desktop/optee-qemu/optee_os/lib/libutee/tee_api_arith_mpi.c:653
    3a18:	aa1a03e2 	mov	x2, x26
    3a1c:	aa1603e1 	mov	x1, x22
    3a20:	aa1603e0 	mov	x0, x22
    3a24:	94000a11 	bl	6268 <mbedtls_mpi_sub_mpi>
    3a28:	34fffea0 	cbz	w0, 39fc <mpi_egcd+0x294>
/home/hei/Desktop/optee-qemu/optee_os/lib/libutee/tee_api_arith_mpi.c:653 (discriminator 1)
    3a2c:	2a0003e2 	mov	w2, w0
    3a30:	528051a1 	mov	w1, #0x28d                 	// #653
    3a34:	17ffff79 	b	3818 <mpi_egcd+0xb0>
/home/hei/Desktop/optee-qemu/optee_os/lib/libutee/tee_api_arith_mpi.c:656
    3a38:	d2800021 	mov	x1, #0x1                   	// #1
    3a3c:	aa1603e0 	mov	x0, x22
    3a40:	940008c9 	bl	5d64 <mbedtls_mpi_shift_r>
    3a44:	34000080 	cbz	w0, 3a54 <mpi_egcd+0x2ec>
/home/hei/Desktop/optee-qemu/optee_os/lib/libutee/tee_api_arith_mpi.c:656 (discriminator 1)
    3a48:	2a0003e2 	mov	w2, w0
    3a4c:	52805201 	mov	w1, #0x290                 	// #656
    3a50:	17ffff72 	b	3818 <mpi_egcd+0xb0>
mpi_is_even():
/home/hei/Desktop/optee-qemu/optee_os/lib/libutee/tee_api_arith_mpi.c:596
    3a54:	aa1503e0 	mov	x0, x21
    3a58:	97ffff32 	bl	3720 <mpi_is_odd>
mpi_egcd():
/home/hei/Desktop/optee-qemu/optee_os/lib/libutee/tee_api_arith_mpi.c:649
    3a5c:	72001c1f 	tst	w0, #0xff
    3a60:	54fffa00 	b.eq	39a0 <mpi_egcd+0x238>  // b.none
mpi_is_even():
/home/hei/Desktop/optee-qemu/optee_os/lib/libutee/tee_api_arith_mpi.c:596
    3a64:	aa1803e0 	mov	x0, x24
    3a68:	97ffff2e 	bl	3720 <mpi_is_odd>
mpi_egcd():
/home/hei/Desktop/optee-qemu/optee_os/lib/libutee/tee_api_arith_mpi.c:659
    3a6c:	72001c1f 	tst	w0, #0xff
    3a70:	540001a0 	b.eq	3aa4 <mpi_egcd+0x33c>  // b.none
/home/hei/Desktop/optee-qemu/optee_os/lib/libutee/tee_api_arith_mpi.c:670
    3a74:	aa1803e1 	mov	x1, x24
    3a78:	aa1503e0 	mov	x0, x21
    3a7c:	94000913 	bl	5ec8 <mbedtls_mpi_cmp_mpi>
    3a80:	37f808c0 	tbnz	w0, #31, 3b98 <mpi_egcd+0x430>
/home/hei/Desktop/optee-qemu/optee_os/lib/libutee/tee_api_arith_mpi.c:671
    3a84:	aa1803e2 	mov	x2, x24
    3a88:	aa1503e1 	mov	x1, x21
    3a8c:	aa1503e0 	mov	x0, x21
    3a90:	940009f6 	bl	6268 <mbedtls_mpi_sub_mpi>
    3a94:	34000620 	cbz	w0, 3b58 <mpi_egcd+0x3f0>
/home/hei/Desktop/optee-qemu/optee_os/lib/libutee/tee_api_arith_mpi.c:671 (discriminator 1)
    3a98:	2a0003e2 	mov	w2, w0
    3a9c:	528053e1 	mov	w1, #0x29f                 	// #671
    3aa0:	17ffff5e 	b	3818 <mpi_egcd+0xb0>
/home/hei/Desktop/optee-qemu/optee_os/lib/libutee/tee_api_arith_mpi.c:660
    3aa4:	d2800021 	mov	x1, #0x1                   	// #1
    3aa8:	aa1803e0 	mov	x0, x24
    3aac:	940008ae 	bl	5d64 <mbedtls_mpi_shift_r>
    3ab0:	34000080 	cbz	w0, 3ac0 <mpi_egcd+0x358>
/home/hei/Desktop/optee-qemu/optee_os/lib/libutee/tee_api_arith_mpi.c:660 (discriminator 1)
    3ab4:	2a0003e2 	mov	w2, w0
    3ab8:	52805281 	mov	w1, #0x294                 	// #660
    3abc:	17ffff57 	b	3818 <mpi_egcd+0xb0>
/home/hei/Desktop/optee-qemu/optee_os/lib/libutee/tee_api_arith_mpi.c:661
    3ac0:	aa1403e0 	mov	x0, x20
    3ac4:	97ffff17 	bl	3720 <mpi_is_odd>
    3ac8:	72001c1f 	tst	w0, #0xff
    3acc:	54000120 	b.eq	3af0 <mpi_egcd+0x388>  // b.none
/home/hei/Desktop/optee-qemu/optee_os/lib/libutee/tee_api_arith_mpi.c:662
    3ad0:	aa1903e2 	mov	x2, x25
    3ad4:	aa1403e1 	mov	x1, x20
    3ad8:	aa1403e0 	mov	x0, x20
    3adc:	940009c1 	bl	61e0 <mbedtls_mpi_add_mpi>
    3ae0:	340001e0 	cbz	w0, 3b1c <mpi_egcd+0x3b4>
/home/hei/Desktop/optee-qemu/optee_os/lib/libutee/tee_api_arith_mpi.c:662 (discriminator 1)
    3ae4:	2a0003e2 	mov	w2, w0
    3ae8:	528052c1 	mov	w1, #0x296                 	// #662
    3aec:	17ffff4b 	b	3818 <mpi_egcd+0xb0>
/home/hei/Desktop/optee-qemu/optee_os/lib/libutee/tee_api_arith_mpi.c:661 (discriminator 1)
    3af0:	aa1303e0 	mov	x0, x19
    3af4:	97ffff0b 	bl	3720 <mpi_is_odd>
    3af8:	72001c1f 	tst	w0, #0xff
    3afc:	54fffea1 	b.ne	3ad0 <mpi_egcd+0x368>  // b.any
/home/hei/Desktop/optee-qemu/optee_os/lib/libutee/tee_api_arith_mpi.c:665
    3b00:	d2800021 	mov	x1, #0x1                   	// #1
    3b04:	aa1403e0 	mov	x0, x20
    3b08:	94000897 	bl	5d64 <mbedtls_mpi_shift_r>
    3b0c:	34000180 	cbz	w0, 3b3c <mpi_egcd+0x3d4>
/home/hei/Desktop/optee-qemu/optee_os/lib/libutee/tee_api_arith_mpi.c:665 (discriminator 1)
    3b10:	2a0003e2 	mov	w2, w0
    3b14:	52805321 	mov	w1, #0x299                 	// #665
    3b18:	17ffff40 	b	3818 <mpi_egcd+0xb0>
/home/hei/Desktop/optee-qemu/optee_os/lib/libutee/tee_api_arith_mpi.c:663
    3b1c:	aa1a03e2 	mov	x2, x26
    3b20:	aa1303e1 	mov	x1, x19
    3b24:	aa1303e0 	mov	x0, x19
    3b28:	940009d0 	bl	6268 <mbedtls_mpi_sub_mpi>
    3b2c:	34fffea0 	cbz	w0, 3b00 <mpi_egcd+0x398>
/home/hei/Desktop/optee-qemu/optee_os/lib/libutee/tee_api_arith_mpi.c:663 (discriminator 1)
    3b30:	2a0003e2 	mov	w2, w0
    3b34:	528052e1 	mov	w1, #0x297                 	// #663
    3b38:	17ffff38 	b	3818 <mpi_egcd+0xb0>
/home/hei/Desktop/optee-qemu/optee_os/lib/libutee/tee_api_arith_mpi.c:666
    3b3c:	d2800021 	mov	x1, #0x1                   	// #1
    3b40:	aa1303e0 	mov	x0, x19
    3b44:	94000888 	bl	5d64 <mbedtls_mpi_shift_r>
    3b48:	34fff8e0 	cbz	w0, 3a64 <mpi_egcd+0x2fc>
/home/hei/Desktop/optee-qemu/optee_os/lib/libutee/tee_api_arith_mpi.c:666 (discriminator 1)
    3b4c:	2a0003e2 	mov	w2, w0
    3b50:	52805341 	mov	w1, #0x29a                 	// #666
    3b54:	17ffff31 	b	3818 <mpi_egcd+0xb0>
/home/hei/Desktop/optee-qemu/optee_os/lib/libutee/tee_api_arith_mpi.c:672
    3b58:	aa1403e2 	mov	x2, x20
    3b5c:	aa1703e1 	mov	x1, x23
    3b60:	aa1703e0 	mov	x0, x23
    3b64:	940009c1 	bl	6268 <mbedtls_mpi_sub_mpi>
    3b68:	34000080 	cbz	w0, 3b78 <mpi_egcd+0x410>
/home/hei/Desktop/optee-qemu/optee_os/lib/libutee/tee_api_arith_mpi.c:672 (discriminator 1)
    3b6c:	2a0003e2 	mov	w2, w0
    3b70:	52805401 	mov	w1, #0x2a0                 	// #672
    3b74:	17ffff29 	b	3818 <mpi_egcd+0xb0>
/home/hei/Desktop/optee-qemu/optee_os/lib/libutee/tee_api_arith_mpi.c:673
    3b78:	aa1303e2 	mov	x2, x19
    3b7c:	aa1603e1 	mov	x1, x22
    3b80:	aa1603e0 	mov	x0, x22
    3b84:	940009b9 	bl	6268 <mbedtls_mpi_sub_mpi>
    3b88:	34000380 	cbz	w0, 3bf8 <mpi_egcd+0x490>
/home/hei/Desktop/optee-qemu/optee_os/lib/libutee/tee_api_arith_mpi.c:673 (discriminator 1)
    3b8c:	2a0003e2 	mov	w2, w0
    3b90:	52805421 	mov	w1, #0x2a1                 	// #673
    3b94:	17ffff21 	b	3818 <mpi_egcd+0xb0>
/home/hei/Desktop/optee-qemu/optee_os/lib/libutee/tee_api_arith_mpi.c:675
    3b98:	aa1503e2 	mov	x2, x21
    3b9c:	aa1803e1 	mov	x1, x24
    3ba0:	aa1803e0 	mov	x0, x24
    3ba4:	940009b1 	bl	6268 <mbedtls_mpi_sub_mpi>
    3ba8:	34000080 	cbz	w0, 3bb8 <mpi_egcd+0x450>
/home/hei/Desktop/optee-qemu/optee_os/lib/libutee/tee_api_arith_mpi.c:675 (discriminator 1)
    3bac:	2a0003e2 	mov	w2, w0
    3bb0:	52805461 	mov	w1, #0x2a3                 	// #675
    3bb4:	17ffff19 	b	3818 <mpi_egcd+0xb0>
/home/hei/Desktop/optee-qemu/optee_os/lib/libutee/tee_api_arith_mpi.c:676
    3bb8:	aa1703e2 	mov	x2, x23
    3bbc:	aa1403e1 	mov	x1, x20
    3bc0:	aa1403e0 	mov	x0, x20
    3bc4:	940009a9 	bl	6268 <mbedtls_mpi_sub_mpi>
    3bc8:	34000080 	cbz	w0, 3bd8 <mpi_egcd+0x470>
/home/hei/Desktop/optee-qemu/optee_os/lib/libutee/tee_api_arith_mpi.c:676 (discriminator 1)
    3bcc:	2a0003e2 	mov	w2, w0
    3bd0:	52805481 	mov	w1, #0x2a4                 	// #676
    3bd4:	17ffff11 	b	3818 <mpi_egcd+0xb0>
/home/hei/Desktop/optee-qemu/optee_os/lib/libutee/tee_api_arith_mpi.c:677
    3bd8:	aa1603e2 	mov	x2, x22
    3bdc:	aa1303e1 	mov	x1, x19
    3be0:	aa1303e0 	mov	x0, x19
    3be4:	940009a1 	bl	6268 <mbedtls_mpi_sub_mpi>
    3be8:	34000080 	cbz	w0, 3bf8 <mpi_egcd+0x490>
/home/hei/Desktop/optee-qemu/optee_os/lib/libutee/tee_api_arith_mpi.c:677 (discriminator 1)
    3bec:	2a0003e2 	mov	w2, w0
    3bf0:	528054a1 	mov	w1, #0x2a5                 	// #677
    3bf4:	17ffff09 	b	3818 <mpi_egcd+0xb0>
/home/hei/Desktop/optee-qemu/optee_os/lib/libutee/tee_api_arith_mpi.c:648
    3bf8:	52800001 	mov	w1, #0x0                   	// #0
    3bfc:	aa1503e0 	mov	x0, x21
    3c00:	940008e8 	bl	5fa0 <mbedtls_mpi_cmp_int>
    3c04:	35fff280 	cbnz	w0, 3a54 <mpi_egcd+0x2ec>
/home/hei/Desktop/optee-qemu/optee_os/lib/libutee/tee_api_arith_mpi.c:681
    3c08:	9e660100 	fmov	x0, d8
    3c0c:	aa1403e1 	mov	x1, x20
    3c10:	9400068d 	bl	5644 <mbedtls_mpi_copy>
    3c14:	34000080 	cbz	w0, 3c24 <mpi_egcd+0x4bc>
/home/hei/Desktop/optee-qemu/optee_os/lib/libutee/tee_api_arith_mpi.c:681 (discriminator 1)
    3c18:	2a0003e2 	mov	w2, w0
    3c1c:	52805521 	mov	w1, #0x2a9                 	// #681
    3c20:	17fffefe 	b	3818 <mpi_egcd+0xb0>
/home/hei/Desktop/optee-qemu/optee_os/lib/libutee/tee_api_arith_mpi.c:682
    3c24:	aa1303e1 	mov	x1, x19
    3c28:	aa1c03e0 	mov	x0, x28
    3c2c:	94000686 	bl	5644 <mbedtls_mpi_copy>
    3c30:	34000080 	cbz	w0, 3c40 <mpi_egcd+0x4d8>
/home/hei/Desktop/optee-qemu/optee_os/lib/libutee/tee_api_arith_mpi.c:682 (discriminator 1)
    3c34:	2a0003e2 	mov	w2, w0
    3c38:	52805541 	mov	w1, #0x2aa                 	// #682
    3c3c:	17fffef7 	b	3818 <mpi_egcd+0xb0>
/home/hei/Desktop/optee-qemu/optee_os/lib/libutee/tee_api_arith_mpi.c:683
    3c40:	2a1b03e1 	mov	w1, w27
    3c44:	aa1803e0 	mov	x0, x24
    3c48:	94000807 	bl	5c64 <mbedtls_mpi_shift_l>
    3c4c:	34000080 	cbz	w0, 3c5c <mpi_egcd+0x4f4>
/home/hei/Desktop/optee-qemu/optee_os/lib/libutee/tee_api_arith_mpi.c:683 (discriminator 1)
    3c50:	2a0003e2 	mov	w2, w0
    3c54:	52805561 	mov	w1, #0x2ab                 	// #683
    3c58:	17fffef0 	b	3818 <mpi_egcd+0xb0>
/home/hei/Desktop/optee-qemu/optee_os/lib/libutee/tee_api_arith_mpi.c:686
    3c5c:	aa1703e0 	mov	x0, x23
    3c60:	940005d8 	bl	53c0 <mbedtls_mpi_free>
/home/hei/Desktop/optee-qemu/optee_os/lib/libutee/tee_api_arith_mpi.c:687
    3c64:	aa1603e0 	mov	x0, x22
    3c68:	940005d6 	bl	53c0 <mbedtls_mpi_free>
/home/hei/Desktop/optee-qemu/optee_os/lib/libutee/tee_api_arith_mpi.c:688
    3c6c:	aa1403e0 	mov	x0, x20
    3c70:	940005d4 	bl	53c0 <mbedtls_mpi_free>
/home/hei/Desktop/optee-qemu/optee_os/lib/libutee/tee_api_arith_mpi.c:689
    3c74:	aa1303e0 	mov	x0, x19
    3c78:	940005d2 	bl	53c0 <mbedtls_mpi_free>
/home/hei/Desktop/optee-qemu/optee_os/lib/libutee/tee_api_arith_mpi.c:690
    3c7c:	aa1a03e0 	mov	x0, x26
    3c80:	940005d0 	bl	53c0 <mbedtls_mpi_free>
/home/hei/Desktop/optee-qemu/optee_os/lib/libutee/tee_api_arith_mpi.c:691
    3c84:	aa1903e0 	mov	x0, x25
    3c88:	940005ce 	bl	53c0 <mbedtls_mpi_free>
/home/hei/Desktop/optee-qemu/optee_os/lib/libutee/tee_api_arith_mpi.c:692
    3c8c:	aa1503e0 	mov	x0, x21
    3c90:	940005cc 	bl	53c0 <mbedtls_mpi_free>
/home/hei/Desktop/optee-qemu/optee_os/lib/libutee/tee_api_arith_mpi.c:693
    3c94:	a94153f3 	ldp	x19, x20, [sp, #16]
    3c98:	a9425bf5 	ldp	x21, x22, [sp, #32]
    3c9c:	a94363f7 	ldp	x23, x24, [sp, #48]
    3ca0:	a9446bf9 	ldp	x25, x26, [sp, #64]
    3ca4:	a94573fb 	ldp	x27, x28, [sp, #80]
    3ca8:	6d4627e8 	ldp	d8, d9, [sp, #96]
    3cac:	a8d27bfd 	ldp	x29, x30, [sp], #288
    3cb0:	d65f03c0 	ret

0000000000003cb4 <_TEE_MathAPI_Init>:
_TEE_MathAPI_Init():
/home/hei/Desktop/optee-qemu/optee_os/lib/libutee/tee_api_arith_mpi.c:44
    3cb4:	a9bf7bfd 	stp	x29, x30, [sp, #-16]!
/home/hei/Desktop/optee-qemu/optee_os/lib/libutee/tee_api_arith_mpi.c:47
    3cb8:	d2860001 	mov	x1, #0x3000                	// #12288
    3cbc:	d2800002 	mov	x2, #0x0                   	// #0
/home/hei/Desktop/optee-qemu/optee_os/lib/libutee/tee_api_arith_mpi.c:44
    3cc0:	910003fd 	mov	x29, sp
/home/hei/Desktop/optee-qemu/optee_os/lib/libutee/tee_api_arith_mpi.c:47
    3cc4:	b0000040 	adrp	x0, c000 <_DYNAMIC>
    3cc8:	9113a000 	add	x0, x0, #0x4e8
    3ccc:	9400138a 	bl	8af4 <mempool_alloc_pool>
    3cd0:	b0000041 	adrp	x1, c000 <_DYNAMIC>
    3cd4:	f940d021 	ldr	x1, [x1, #416]
    3cd8:	f9000020 	str	x0, [x1]
/home/hei/Desktop/optee-qemu/optee_os/lib/libutee/tee_api_arith_mpi.c:48
    3cdc:	b5000100 	cbnz	x0, 3cfc <_TEE_MathAPI_Init+0x48>
/home/hei/Desktop/optee-qemu/optee_os/lib/libutee/tee_api_arith_mpi.c:49
    3ce0:	90000040 	adrp	x0, b000 <__func__.3755+0x98>
    3ce4:	910bc400 	add	x0, x0, #0x2f1
    3ce8:	90000042 	adrp	x2, b000 <__func__.3755+0x98>
    3cec:	52800621 	mov	w1, #0x31                  	// #49
    3cf0:	9111cc42 	add	x2, x2, #0x473
    3cf4:	91007c00 	add	x0, x0, #0x1f
    3cf8:	97fffded 	bl	34ac <api_panic>
/home/hei/Desktop/optee-qemu/optee_os/lib/libutee/tee_api_arith_mpi.c:50
    3cfc:	a8c17bfd 	ldp	x29, x30, [sp], #16
    3d00:	d65f03c0 	ret

0000000000003d04 <TEE_BigIntInit>:
TEE_BigIntInit():
/home/hei/Desktop/optee-qemu/optee_os/lib/libutee/tee_api_arith_mpi.c:120
    3d04:	11007c22 	add	w2, w1, #0x1f
/home/hei/Desktop/optee-qemu/optee_os/lib/libutee/tee_api_arith_mpi.c:119
    3d08:	a9be7bfd 	stp	x29, x30, [sp, #-32]!
/home/hei/Desktop/optee-qemu/optee_os/lib/libutee/tee_api_arith_mpi.c:120
    3d0c:	53057c42 	lsr	w2, w2, #5
/home/hei/Desktop/optee-qemu/optee_os/lib/libutee/tee_api_arith_mpi.c:119
    3d10:	910003fd 	mov	x29, sp
/home/hei/Desktop/optee-qemu/optee_os/lib/libutee/tee_api_arith_mpi.c:120
    3d14:	11000842 	add	w2, w2, #0x2
/home/hei/Desktop/optee-qemu/optee_os/lib/libutee/tee_api_arith_mpi.c:119
    3d18:	f9000bf3 	str	x19, [sp, #16]
    3d1c:	2a0103f3 	mov	w19, w1
/home/hei/Desktop/optee-qemu/optee_os/lib/libutee/tee_api_arith_mpi.c:120
    3d20:	d37e6c42 	ubfiz	x2, x2, #2, #28
    3d24:	52800001 	mov	w1, #0x0                   	// #0
    3d28:	97fff65c 	bl	1698 <memset>
    3d2c:	aa0003e3 	mov	x3, x0
/home/hei/Desktop/optee-qemu/optee_os/lib/libutee/tee_api_arith_mpi.c:125
    3d30:	52800020 	mov	w0, #0x1                   	// #1
/home/hei/Desktop/optee-qemu/optee_os/lib/libutee/tee_api_arith_mpi.c:126
    3d34:	51000a73 	sub	w19, w19, #0x2
/home/hei/Desktop/optee-qemu/optee_os/lib/libutee/tee_api_arith_mpi.c:125
    3d38:	b9000060 	str	w0, [x3]
/home/hei/Desktop/optee-qemu/optee_os/lib/libutee/tee_api_arith_mpi.c:126
    3d3c:	5284e200 	mov	w0, #0x2710                	// #10000
    3d40:	6b00027f 	cmp	w19, w0
    3d44:	54000109 	b.ls	3d64 <TEE_BigIntInit+0x60>  // b.plast
/home/hei/Desktop/optee-qemu/optee_os/lib/libutee/tee_api_arith_mpi.c:127
    3d48:	90000040 	adrp	x0, b000 <__func__.3755+0x98>
    3d4c:	910bc400 	add	x0, x0, #0x2f1
    3d50:	90000042 	adrp	x2, b000 <__func__.3755+0x98>
    3d54:	52800fe1 	mov	w1, #0x7f                  	// #127
    3d58:	91125042 	add	x2, x2, #0x494
    3d5c:	9100c400 	add	x0, x0, #0x31
    3d60:	97fffdd3 	bl	34ac <api_panic>
/home/hei/Desktop/optee-qemu/optee_os/lib/libutee/tee_api_arith_mpi.c:128
    3d64:	79000873 	strh	w19, [x3, #4]
/home/hei/Desktop/optee-qemu/optee_os/lib/libutee/tee_api_arith_mpi.c:129
    3d68:	f9400bf3 	ldr	x19, [sp, #16]
    3d6c:	a8c27bfd 	ldp	x29, x30, [sp], #32
    3d70:	d65f03c0 	ret

0000000000003d74 <TEE_BigIntConvertFromOctetString>:
TEE_BigIntConvertFromOctetString():
/home/hei/Desktop/optee-qemu/optee_os/lib/libutee/tee_api_arith_mpi.c:134
    3d74:	a9ba7bfd 	stp	x29, x30, [sp, #-96]!
    3d78:	910003fd 	mov	x29, sp
    3d7c:	a90153f3 	stp	x19, x20, [sp, #16]
get_mpi():
/home/hei/Desktop/optee-qemu/optee_os/lib/libutee/tee_api_arith_mpi.c:101
    3d80:	910123f3 	add	x19, sp, #0x48
TEE_BigIntConvertFromOctetString():
/home/hei/Desktop/optee-qemu/optee_os/lib/libutee/tee_api_arith_mpi.c:134
    3d84:	2a0303f4 	mov	w20, w3
    3d88:	a9025bf5 	stp	x21, x22, [sp, #32]
    3d8c:	2a0203f6 	mov	w22, w2
    3d90:	aa0003f5 	mov	x21, x0
get_mpi():
/home/hei/Desktop/optee-qemu/optee_os/lib/libutee/tee_api_arith_mpi.c:101
    3d94:	aa1303e0 	mov	x0, x19
TEE_BigIntConvertFromOctetString():
/home/hei/Desktop/optee-qemu/optee_os/lib/libutee/tee_api_arith_mpi.c:134
    3d98:	f9001fe1 	str	x1, [sp, #56]
get_mpi():
/home/hei/Desktop/optee-qemu/optee_os/lib/libutee/tee_api_arith_mpi.c:101
    3d9c:	9400057f 	bl	5398 <mbedtls_mpi_init_mempool>
TEE_BigIntConvertFromOctetString():
/home/hei/Desktop/optee-qemu/optee_os/lib/libutee/tee_api_arith_mpi.c:140
    3da0:	f9401fe1 	ldr	x1, [sp, #56]
    3da4:	2a1603e2 	mov	w2, w22
    3da8:	aa1303e0 	mov	x0, x19
    3dac:	9400074f 	bl	5ae8 <mbedtls_mpi_read_binary>
    3db0:	350001e0 	cbnz	w0, 3dec <TEE_BigIntConvertFromOctetString+0x78>
/home/hei/Desktop/optee-qemu/optee_os/lib/libutee/tee_api_arith_mpi.c:145
    3db4:	36f80074 	tbz	w20, #31, 3dc0 <TEE_BigIntConvertFromOctetString+0x4c>
/home/hei/Desktop/optee-qemu/optee_os/lib/libutee/tee_api_arith_mpi.c:146
    3db8:	12800000 	mov	w0, #0xffffffff            	// #-1
    3dbc:	790093e0 	strh	w0, [sp, #72]
/home/hei/Desktop/optee-qemu/optee_os/lib/libutee/tee_api_arith_mpi.c:149
    3dc0:	aa1503e1 	mov	x1, x21
    3dc4:	aa1303e0 	mov	x0, x19
    3dc8:	97fffdf7 	bl	35a4 <copy_mpi_to_bigint>
    3dcc:	2a0003f4 	mov	w20, w0
/home/hei/Desktop/optee-qemu/optee_os/lib/libutee/tee_api_arith_mpi.c:151
    3dd0:	aa1303e0 	mov	x0, x19
    3dd4:	9400057b 	bl	53c0 <mbedtls_mpi_free>
/home/hei/Desktop/optee-qemu/optee_os/lib/libutee/tee_api_arith_mpi.c:154
    3dd8:	2a1403e0 	mov	w0, w20
    3ddc:	a94153f3 	ldp	x19, x20, [sp, #16]
    3de0:	a9425bf5 	ldp	x21, x22, [sp, #32]
    3de4:	a8c67bfd 	ldp	x29, x30, [sp], #96
    3de8:	d65f03c0 	ret
/home/hei/Desktop/optee-qemu/optee_os/lib/libutee/tee_api_arith_mpi.c:145
    3dec:	36f80074 	tbz	w20, #31, 3df8 <TEE_BigIntConvertFromOctetString+0x84>
/home/hei/Desktop/optee-qemu/optee_os/lib/libutee/tee_api_arith_mpi.c:146
    3df0:	12800000 	mov	w0, #0xffffffff            	// #-1
    3df4:	790093e0 	strh	w0, [sp, #72]
/home/hei/Desktop/optee-qemu/optee_os/lib/libutee/tee_api_arith_mpi.c:141
    3df8:	1299fe14 	mov	w20, #0xffff300f            	// #-53233
    3dfc:	17fffff5 	b	3dd0 <TEE_BigIntConvertFromOctetString+0x5c>

0000000000003e00 <TEE_BigIntConvertToOctetString>:
TEE_BigIntConvertToOctetString():
/home/hei/Desktop/optee-qemu/optee_os/lib/libutee/tee_api_arith_mpi.c:158
    3e00:	a9bb7bfd 	stp	x29, x30, [sp, #-80]!
    3e04:	910003fd 	mov	x29, sp
    3e08:	a9025bf5 	stp	x21, x22, [sp, #32]
    3e0c:	aa0103f6 	mov	x22, x1
/home/hei/Desktop/optee-qemu/optee_os/lib/libutee/tee_api_arith_mpi.c:163
    3e10:	aa0203e1 	mov	x1, x2
/home/hei/Desktop/optee-qemu/optee_os/lib/libutee/tee_api_arith_mpi.c:158
    3e14:	a90153f3 	stp	x19, x20, [sp, #16]
/home/hei/Desktop/optee-qemu/optee_os/lib/libutee/tee_api_arith_mpi.c:163
    3e18:	9100e3f3 	add	x19, sp, #0x38
/home/hei/Desktop/optee-qemu/optee_os/lib/libutee/tee_api_arith_mpi.c:158
    3e1c:	aa0003f5 	mov	x21, x0
/home/hei/Desktop/optee-qemu/optee_os/lib/libutee/tee_api_arith_mpi.c:163
    3e20:	aa1303e0 	mov	x0, x19
    3e24:	97fffdba 	bl	350c <get_mpi>
/home/hei/Desktop/optee-qemu/optee_os/lib/libutee/tee_api_arith_mpi.c:165
    3e28:	aa1303e0 	mov	x0, x19
    3e2c:	94000728 	bl	5acc <mbedtls_mpi_size>
    3e30:	aa0003f4 	mov	x20, x0
/home/hei/Desktop/optee-qemu/optee_os/lib/libutee/tee_api_arith_mpi.c:166
    3e34:	b94002c0 	ldr	w0, [x22]
    3e38:	eb14001f 	cmp	x0, x20
    3e3c:	540001a3 	b.cc	3e70 <TEE_BigIntConvertToOctetString+0x70>  // b.lo, b.ul, b.last
/home/hei/Desktop/optee-qemu/optee_os/lib/libutee/tee_api_arith_mpi.c:167
    3e40:	aa1503e1 	mov	x1, x21
    3e44:	aa1403e2 	mov	x2, x20
    3e48:	aa1303e0 	mov	x0, x19
/home/hei/Desktop/optee-qemu/optee_os/lib/libutee/tee_api_arith_mpi.c:159
    3e4c:	52800015 	mov	w21, #0x0                   	// #0
/home/hei/Desktop/optee-qemu/optee_os/lib/libutee/tee_api_arith_mpi.c:167
    3e50:	94000754 	bl	5ba0 <mbedtls_mpi_write_binary>
    3e54:	34000100 	cbz	w0, 3e74 <TEE_BigIntConvertToOctetString+0x74>
/home/hei/Desktop/optee-qemu/optee_os/lib/libutee/tee_api_arith_mpi.c:167 (discriminator 1)
    3e58:	2a0003e2 	mov	w2, w0
    3e5c:	90000040 	adrp	x0, b000 <__func__.3755+0x98>
    3e60:	910bc400 	add	x0, x0, #0x2f1
    3e64:	528014e1 	mov	w1, #0xa7                  	// #167
    3e68:	91010000 	add	x0, x0, #0x40
    3e6c:	97fffd9c 	bl	34dc <mpi_panic>
/home/hei/Desktop/optee-qemu/optee_os/lib/libutee/tee_api_arith_mpi.c:169
    3e70:	129ffdf5 	mov	w21, #0xffff0010            	// #-65520
/home/hei/Desktop/optee-qemu/optee_os/lib/libutee/tee_api_arith_mpi.c:171
    3e74:	b90002d4 	str	w20, [x22]
/home/hei/Desktop/optee-qemu/optee_os/lib/libutee/tee_api_arith_mpi.c:173
    3e78:	aa1303e0 	mov	x0, x19
    3e7c:	94000551 	bl	53c0 <mbedtls_mpi_free>
/home/hei/Desktop/optee-qemu/optee_os/lib/libutee/tee_api_arith_mpi.c:176
    3e80:	2a1503e0 	mov	w0, w21
    3e84:	a94153f3 	ldp	x19, x20, [sp, #16]
    3e88:	a9425bf5 	ldp	x21, x22, [sp, #32]
    3e8c:	a8c57bfd 	ldp	x29, x30, [sp], #80
    3e90:	d65f03c0 	ret

0000000000003e94 <TEE_BigIntConvertFromS32>:
TEE_BigIntConvertFromS32():
/home/hei/Desktop/optee-qemu/optee_os/lib/libutee/tee_api_arith_mpi.c:179
    3e94:	a9bb7bfd 	stp	x29, x30, [sp, #-80]!
    3e98:	910003fd 	mov	x29, sp
    3e9c:	a90153f3 	stp	x19, x20, [sp, #16]
/home/hei/Desktop/optee-qemu/optee_os/lib/libutee/tee_api_arith_mpi.c:182
    3ea0:	9100e3f3 	add	x19, sp, #0x38
/home/hei/Desktop/optee-qemu/optee_os/lib/libutee/tee_api_arith_mpi.c:179
    3ea4:	aa0003f4 	mov	x20, x0
    3ea8:	f90013f5 	str	x21, [sp, #32]
    3eac:	2a0103f5 	mov	w21, w1
/home/hei/Desktop/optee-qemu/optee_os/lib/libutee/tee_api_arith_mpi.c:182
    3eb0:	aa0003e1 	mov	x1, x0
    3eb4:	aa1303e0 	mov	x0, x19
    3eb8:	97fffd95 	bl	350c <get_mpi>
/home/hei/Desktop/optee-qemu/optee_os/lib/libutee/tee_api_arith_mpi.c:184
    3ebc:	2a1503e1 	mov	w1, w21
    3ec0:	aa1303e0 	mov	x0, x19
    3ec4:	9400068e 	bl	58fc <mbedtls_mpi_lset>
    3ec8:	340000e0 	cbz	w0, 3ee4 <TEE_BigIntConvertFromS32+0x50>
/home/hei/Desktop/optee-qemu/optee_os/lib/libutee/tee_api_arith_mpi.c:184 (discriminator 1)
    3ecc:	2a0003e2 	mov	w2, w0
    3ed0:	52801701 	mov	w1, #0xb8                  	// #184
/home/hei/Desktop/optee-qemu/optee_os/lib/libutee/tee_api_arith_mpi.c:186 (discriminator 1)
    3ed4:	90000040 	adrp	x0, b000 <__func__.3755+0x98>
    3ed8:	910bc400 	add	x0, x0, #0x2f1
    3edc:	91017c00 	add	x0, x0, #0x5f
    3ee0:	97fffd7f 	bl	34dc <mpi_panic>
/home/hei/Desktop/optee-qemu/optee_os/lib/libutee/tee_api_arith_mpi.c:186
    3ee4:	aa1403e1 	mov	x1, x20
    3ee8:	aa1303e0 	mov	x0, x19
    3eec:	97fffdae 	bl	35a4 <copy_mpi_to_bigint>
    3ef0:	34000080 	cbz	w0, 3f00 <TEE_BigIntConvertFromS32+0x6c>
/home/hei/Desktop/optee-qemu/optee_os/lib/libutee/tee_api_arith_mpi.c:186 (discriminator 1)
    3ef4:	2a0003e2 	mov	w2, w0
    3ef8:	52801741 	mov	w1, #0xba                  	// #186
    3efc:	17fffff6 	b	3ed4 <TEE_BigIntConvertFromS32+0x40>
/home/hei/Desktop/optee-qemu/optee_os/lib/libutee/tee_api_arith_mpi.c:187
    3f00:	aa1303e0 	mov	x0, x19
    3f04:	9400052f 	bl	53c0 <mbedtls_mpi_free>
/home/hei/Desktop/optee-qemu/optee_os/lib/libutee/tee_api_arith_mpi.c:188
    3f08:	a94153f3 	ldp	x19, x20, [sp, #16]
    3f0c:	f94013f5 	ldr	x21, [sp, #32]
    3f10:	a8c57bfd 	ldp	x29, x30, [sp], #80
    3f14:	d65f03c0 	ret

0000000000003f18 <TEE_BigIntConvertToS32>:
TEE_BigIntConvertToS32():
/home/hei/Desktop/optee-qemu/optee_os/lib/libutee/tee_api_arith_mpi.c:191
    3f18:	a9bc7bfd 	stp	x29, x30, [sp, #-64]!
    3f1c:	910003fd 	mov	x29, sp
    3f20:	a90153f3 	stp	x19, x20, [sp, #16]
/home/hei/Desktop/optee-qemu/optee_os/lib/libutee/tee_api_arith_mpi.c:196
    3f24:	9100a3f3 	add	x19, sp, #0x28
/home/hei/Desktop/optee-qemu/optee_os/lib/libutee/tee_api_arith_mpi.c:191
    3f28:	aa0003f4 	mov	x20, x0
/home/hei/Desktop/optee-qemu/optee_os/lib/libutee/tee_api_arith_mpi.c:196
    3f2c:	aa1303e0 	mov	x0, x19
    3f30:	97fffd77 	bl	350c <get_mpi>
/home/hei/Desktop/optee-qemu/optee_os/lib/libutee/tee_api_arith_mpi.c:198
    3f34:	d2800082 	mov	x2, #0x4                   	// #4
    3f38:	910093e1 	add	x1, sp, #0x24
    3f3c:	aa1303e0 	mov	x0, x19
    3f40:	94000718 	bl	5ba0 <mbedtls_mpi_write_binary>
    3f44:	34000100 	cbz	w0, 3f64 <TEE_BigIntConvertToS32+0x4c>
/home/hei/Desktop/optee-qemu/optee_os/lib/libutee/tee_api_arith_mpi.c:199
    3f48:	1299fe14 	mov	w20, #0xffff300f            	// #-53233
/home/hei/Desktop/optee-qemu/optee_os/lib/libutee/tee_api_arith_mpi.c:212
    3f4c:	aa1303e0 	mov	x0, x19
    3f50:	9400051c 	bl	53c0 <mbedtls_mpi_free>
/home/hei/Desktop/optee-qemu/optee_os/lib/libutee/tee_api_arith_mpi.c:215
    3f54:	2a1403e0 	mov	w0, w20
    3f58:	a94153f3 	ldp	x19, x20, [sp, #16]
    3f5c:	a8c47bfd 	ldp	x29, x30, [sp], #64
    3f60:	d65f03c0 	ret
/home/hei/Desktop/optee-qemu/optee_os/lib/libutee/tee_api_arith_mpi.c:203
    3f64:	b94027e1 	ldr	w1, [sp, #36]
    3f68:	79c053e0 	ldrsh	w0, [sp, #40]
    3f6c:	5ac00821 	rev	w1, w1
    3f70:	7100001f 	cmp	w0, #0x0
    3f74:	2a0103e0 	mov	w0, w1
    3f78:	540000cd 	b.le	3f90 <TEE_BigIntConvertToS32+0x78>
/home/hei/Desktop/optee-qemu/optee_os/lib/libutee/tee_api_arith_mpi.c:204
    3f7c:	eb21c01f 	cmp	x0, w1, sxtw
    3f80:	b9000281 	str	w1, [x20]
/home/hei/Desktop/optee-qemu/optee_os/lib/libutee/tee_api_arith_mpi.c:207
    3f84:	54fffe21 	b.ne	3f48 <TEE_BigIntConvertToS32+0x30>  // b.any
/home/hei/Desktop/optee-qemu/optee_os/lib/libutee/tee_api_arith_mpi.c:192
    3f88:	52800014 	mov	w20, #0x0                   	// #0
    3f8c:	17fffff0 	b	3f4c <TEE_BigIntConvertToS32+0x34>
/home/hei/Desktop/optee-qemu/optee_os/lib/libutee/tee_api_arith_mpi.c:207
    3f90:	cb0003e0 	neg	x0, x0
    3f94:	b9000280 	str	w0, [x20]
    3f98:	eb20c01f 	cmp	x0, w0, sxtw
    3f9c:	17fffffa 	b	3f84 <TEE_BigIntConvertToS32+0x6c>

0000000000003fa0 <TEE_BigIntCmp>:
TEE_BigIntCmp():
/home/hei/Desktop/optee-qemu/optee_os/lib/libutee/tee_api_arith_mpi.c:218
    3fa0:	a9ba7bfd 	stp	x29, x30, [sp, #-96]!
    3fa4:	910003fd 	mov	x29, sp
    3fa8:	a90153f3 	stp	x19, x20, [sp, #16]
/home/hei/Desktop/optee-qemu/optee_os/lib/libutee/tee_api_arith_mpi.c:223
    3fac:	9100c3f4 	add	x20, sp, #0x30
/home/hei/Desktop/optee-qemu/optee_os/lib/libutee/tee_api_arith_mpi.c:224
    3fb0:	910123f3 	add	x19, sp, #0x48
/home/hei/Desktop/optee-qemu/optee_os/lib/libutee/tee_api_arith_mpi.c:218
    3fb4:	f90013f5 	str	x21, [sp, #32]
    3fb8:	aa0103f5 	mov	x21, x1
/home/hei/Desktop/optee-qemu/optee_os/lib/libutee/tee_api_arith_mpi.c:223
    3fbc:	aa0003e1 	mov	x1, x0
    3fc0:	aa1403e0 	mov	x0, x20
    3fc4:	97fffd52 	bl	350c <get_mpi>
/home/hei/Desktop/optee-qemu/optee_os/lib/libutee/tee_api_arith_mpi.c:224
    3fc8:	aa1503e1 	mov	x1, x21
    3fcc:	aa1303e0 	mov	x0, x19
    3fd0:	97fffd4f 	bl	350c <get_mpi>
/home/hei/Desktop/optee-qemu/optee_os/lib/libutee/tee_api_arith_mpi.c:226
    3fd4:	aa1303e1 	mov	x1, x19
    3fd8:	aa1403e0 	mov	x0, x20
    3fdc:	940007bb 	bl	5ec8 <mbedtls_mpi_cmp_mpi>
    3fe0:	2a0003f5 	mov	w21, w0
/home/hei/Desktop/optee-qemu/optee_os/lib/libutee/tee_api_arith_mpi.c:228
    3fe4:	aa1403e0 	mov	x0, x20
    3fe8:	940004f6 	bl	53c0 <mbedtls_mpi_free>
/home/hei/Desktop/optee-qemu/optee_os/lib/libutee/tee_api_arith_mpi.c:229
    3fec:	aa1303e0 	mov	x0, x19
    3ff0:	940004f4 	bl	53c0 <mbedtls_mpi_free>
/home/hei/Desktop/optee-qemu/optee_os/lib/libutee/tee_api_arith_mpi.c:232
    3ff4:	2a1503e0 	mov	w0, w21
    3ff8:	a94153f3 	ldp	x19, x20, [sp, #16]
    3ffc:	f94013f5 	ldr	x21, [sp, #32]
    4000:	a8c67bfd 	ldp	x29, x30, [sp], #96
    4004:	d65f03c0 	ret

0000000000004008 <TEE_BigIntCmpS32>:
TEE_BigIntCmpS32():
/home/hei/Desktop/optee-qemu/optee_os/lib/libutee/tee_api_arith_mpi.c:235
    4008:	a9bc7bfd 	stp	x29, x30, [sp, #-64]!
    400c:	910003fd 	mov	x29, sp
    4010:	a90153f3 	stp	x19, x20, [sp, #16]
/home/hei/Desktop/optee-qemu/optee_os/lib/libutee/tee_api_arith_mpi.c:239
    4014:	9100a3f3 	add	x19, sp, #0x28
/home/hei/Desktop/optee-qemu/optee_os/lib/libutee/tee_api_arith_mpi.c:235
    4018:	2a0103f4 	mov	w20, w1
/home/hei/Desktop/optee-qemu/optee_os/lib/libutee/tee_api_arith_mpi.c:239
    401c:	aa0003e1 	mov	x1, x0
    4020:	aa1303e0 	mov	x0, x19
    4024:	97fffd3a 	bl	350c <get_mpi>
/home/hei/Desktop/optee-qemu/optee_os/lib/libutee/tee_api_arith_mpi.c:241
    4028:	2a1403e1 	mov	w1, w20
    402c:	aa1303e0 	mov	x0, x19
    4030:	940007dc 	bl	5fa0 <mbedtls_mpi_cmp_int>
    4034:	2a0003f4 	mov	w20, w0
/home/hei/Desktop/optee-qemu/optee_os/lib/libutee/tee_api_arith_mpi.c:243
    4038:	aa1303e0 	mov	x0, x19
    403c:	940004e1 	bl	53c0 <mbedtls_mpi_free>
/home/hei/Desktop/optee-qemu/optee_os/lib/libutee/tee_api_arith_mpi.c:246
    4040:	2a1403e0 	mov	w0, w20
    4044:	a94153f3 	ldp	x19, x20, [sp, #16]
    4048:	a8c47bfd 	ldp	x29, x30, [sp], #64
    404c:	d65f03c0 	ret

0000000000004050 <bigint_binary_mod>:
bigint_binary_mod():
/home/hei/Desktop/optee-qemu/optee_os/lib/libutee/tee_api_arith_mpi.c:356
    4050:	a9b27bfd 	stp	x29, x30, [sp, #-224]!
    4054:	910003fd 	mov	x29, sp
    4058:	a90153f3 	stp	x19, x20, [sp, #16]
    405c:	aa0203f4 	mov	x20, x2
    4060:	a9025bf5 	stp	x21, x22, [sp, #32]
    4064:	aa0103f6 	mov	x22, x1
    4068:	aa0303f5 	mov	x21, x3
/home/hei/Desktop/optee-qemu/optee_os/lib/libutee/tee_api_arith_mpi.c:357
    406c:	52800041 	mov	w1, #0x2                   	// #2
/home/hei/Desktop/optee-qemu/optee_os/lib/libutee/tee_api_arith_mpi.c:356
    4070:	a90363f7 	stp	x23, x24, [sp, #48]
    4074:	aa0003f7 	mov	x23, x0
/home/hei/Desktop/optee-qemu/optee_os/lib/libutee/tee_api_arith_mpi.c:357
    4078:	aa0303e0 	mov	x0, x3
/home/hei/Desktop/optee-qemu/optee_os/lib/libutee/tee_api_arith_mpi.c:356
    407c:	a9046bf9 	stp	x25, x26, [sp, #64]
    4080:	f9002bfb 	str	x27, [sp, #80]
    4084:	aa0403fb 	mov	x27, x4
/home/hei/Desktop/optee-qemu/optee_os/lib/libutee/tee_api_arith_mpi.c:357
    4088:	97ffffe0 	bl	4008 <TEE_BigIntCmpS32>
    408c:	36f80100 	tbz	w0, #31, 40ac <bigint_binary_mod+0x5c>
/home/hei/Desktop/optee-qemu/optee_os/lib/libutee/tee_api_arith_mpi.c:358
    4090:	f0000020 	adrp	x0, b000 <__func__.3755+0x98>
    4094:	910bc400 	add	x0, x0, #0x2f1
    4098:	f0000022 	adrp	x2, b000 <__func__.3755+0x98>
    409c:	52802cc1 	mov	w1, #0x166                 	// #358
    40a0:	91129442 	add	x2, x2, #0x4a5
    40a4:	9101e000 	add	x0, x0, #0x78
    40a8:	97fffd01 	bl	34ac <api_panic>
/home/hei/Desktop/optee-qemu/optee_os/lib/libutee/tee_api_arith_mpi.c:368
    40ac:	9101a3f3 	add	x19, sp, #0x68
    40b0:	aa1703e1 	mov	x1, x23
    40b4:	aa1303e0 	mov	x0, x19
/home/hei/Desktop/optee-qemu/optee_os/lib/libutee/tee_api_arith_mpi.c:369
    40b8:	9102c3fa 	add	x26, sp, #0xb0
/home/hei/Desktop/optee-qemu/optee_os/lib/libutee/tee_api_arith_mpi.c:368
    40bc:	97fffd14 	bl	350c <get_mpi>
/home/hei/Desktop/optee-qemu/optee_os/lib/libutee/tee_api_arith_mpi.c:369
    40c0:	910203f9 	add	x25, sp, #0x80
    40c4:	aa1503e1 	mov	x1, x21
    40c8:	aa1a03e0 	mov	x0, x26
    40cc:	97fffd10 	bl	350c <get_mpi>
/home/hei/Desktop/optee-qemu/optee_os/lib/libutee/tee_api_arith_mpi.c:371
    40d0:	eb1602ff 	cmp	x23, x22
    40d4:	54000380 	b.eq	4144 <bigint_binary_mod+0xf4>  // b.none
/home/hei/Desktop/optee-qemu/optee_os/lib/libutee/tee_api_arith_mpi.c:364
    40d8:	aa1903f5 	mov	x21, x25
/home/hei/Desktop/optee-qemu/optee_os/lib/libutee/tee_api_arith_mpi.c:374
    40dc:	aa1603e1 	mov	x1, x22
    40e0:	aa1903e0 	mov	x0, x25
    40e4:	97fffd0a 	bl	350c <get_mpi>
/home/hei/Desktop/optee-qemu/optee_os/lib/libutee/tee_api_arith_mpi.c:376
    40e8:	eb1402ff 	cmp	x23, x20
    40ec:	910263f8 	add	x24, sp, #0x98
    40f0:	540002e0 	b.eq	414c <bigint_binary_mod+0xfc>  // b.none
/home/hei/Desktop/optee-qemu/optee_os/lib/libutee/tee_api_arith_mpi.c:378
    40f4:	eb1402df 	cmp	x22, x20
    40f8:	540002e0 	b.eq	4154 <bigint_binary_mod+0x104>  // b.none
/home/hei/Desktop/optee-qemu/optee_os/lib/libutee/tee_api_arith_mpi.c:381
    40fc:	aa1403e1 	mov	x1, x20
/home/hei/Desktop/optee-qemu/optee_os/lib/libutee/tee_api_arith_mpi.c:365
    4100:	aa1803f4 	mov	x20, x24
/home/hei/Desktop/optee-qemu/optee_os/lib/libutee/tee_api_arith_mpi.c:381
    4104:	aa1803e0 	mov	x0, x24
    4108:	97fffd01 	bl	350c <get_mpi>
get_mpi():
/home/hei/Desktop/optee-qemu/optee_os/lib/libutee/tee_api_arith_mpi.c:101
    410c:	910323f6 	add	x22, sp, #0xc8
    4110:	aa1603e0 	mov	x0, x22
    4114:	940004a1 	bl	5398 <mbedtls_mpi_init_mempool>
bigint_binary_mod():
/home/hei/Desktop/optee-qemu/optee_os/lib/libutee/tee_api_arith_mpi.c:385
    4118:	aa1403e2 	mov	x2, x20
    411c:	aa1503e1 	mov	x1, x21
    4120:	aa1603e0 	mov	x0, x22
    4124:	d63f0360 	blr	x27
    4128:	340001a0 	cbz	w0, 415c <bigint_binary_mod+0x10c>
/home/hei/Desktop/optee-qemu/optee_os/lib/libutee/tee_api_arith_mpi.c:385 (discriminator 1)
    412c:	2a0003e2 	mov	w2, w0
    4130:	52803021 	mov	w1, #0x181                 	// #385
/home/hei/Desktop/optee-qemu/optee_os/lib/libutee/tee_api_arith_mpi.c:386 (discriminator 1)
    4134:	f0000020 	adrp	x0, b000 <__func__.3755+0x98>
    4138:	910bc400 	add	x0, x0, #0x2f1
    413c:	9101e000 	add	x0, x0, #0x78
    4140:	97fffce7 	bl	34dc <mpi_panic>
/home/hei/Desktop/optee-qemu/optee_os/lib/libutee/tee_api_arith_mpi.c:372
    4144:	aa1303f5 	mov	x21, x19
    4148:	17ffffe8 	b	40e8 <bigint_binary_mod+0x98>
/home/hei/Desktop/optee-qemu/optee_os/lib/libutee/tee_api_arith_mpi.c:377
    414c:	aa1303f4 	mov	x20, x19
    4150:	17ffffef 	b	410c <bigint_binary_mod+0xbc>
/home/hei/Desktop/optee-qemu/optee_os/lib/libutee/tee_api_arith_mpi.c:379
    4154:	aa1503f4 	mov	x20, x21
    4158:	17ffffed 	b	410c <bigint_binary_mod+0xbc>
/home/hei/Desktop/optee-qemu/optee_os/lib/libutee/tee_api_arith_mpi.c:386
    415c:	aa1a03e2 	mov	x2, x26
    4160:	aa1603e1 	mov	x1, x22
    4164:	aa1303e0 	mov	x0, x19
    4168:	94000ab8 	bl	6c48 <mbedtls_mpi_mod_mpi>
    416c:	34000080 	cbz	w0, 417c <bigint_binary_mod+0x12c>
/home/hei/Desktop/optee-qemu/optee_os/lib/libutee/tee_api_arith_mpi.c:386 (discriminator 1)
    4170:	2a0003e2 	mov	w2, w0
    4174:	52803041 	mov	w1, #0x182                 	// #386
    4178:	17ffffef 	b	4134 <bigint_binary_mod+0xe4>
/home/hei/Desktop/optee-qemu/optee_os/lib/libutee/tee_api_arith_mpi.c:388
    417c:	aa1703e1 	mov	x1, x23
    4180:	aa1303e0 	mov	x0, x19
    4184:	97fffd08 	bl	35a4 <copy_mpi_to_bigint>
    4188:	34000080 	cbz	w0, 4198 <bigint_binary_mod+0x148>
/home/hei/Desktop/optee-qemu/optee_os/lib/libutee/tee_api_arith_mpi.c:388 (discriminator 1)
    418c:	2a0003e2 	mov	w2, w0
    4190:	52803081 	mov	w1, #0x184                 	// #388
    4194:	17ffffe8 	b	4134 <bigint_binary_mod+0xe4>
/home/hei/Desktop/optee-qemu/optee_os/lib/libutee/tee_api_arith_mpi.c:389
    4198:	aa1303e0 	mov	x0, x19
    419c:	94000489 	bl	53c0 <mbedtls_mpi_free>
/home/hei/Desktop/optee-qemu/optee_os/lib/libutee/tee_api_arith_mpi.c:390
    41a0:	eb1902bf 	cmp	x21, x25
    41a4:	54000061 	b.ne	41b0 <bigint_binary_mod+0x160>  // b.any
/home/hei/Desktop/optee-qemu/optee_os/lib/libutee/tee_api_arith_mpi.c:391
    41a8:	aa1503e0 	mov	x0, x21
    41ac:	94000485 	bl	53c0 <mbedtls_mpi_free>
/home/hei/Desktop/optee-qemu/optee_os/lib/libutee/tee_api_arith_mpi.c:392
    41b0:	eb18029f 	cmp	x20, x24
    41b4:	54000061 	b.ne	41c0 <bigint_binary_mod+0x170>  // b.any
/home/hei/Desktop/optee-qemu/optee_os/lib/libutee/tee_api_arith_mpi.c:393
    41b8:	aa1403e0 	mov	x0, x20
    41bc:	94000481 	bl	53c0 <mbedtls_mpi_free>
/home/hei/Desktop/optee-qemu/optee_os/lib/libutee/tee_api_arith_mpi.c:394
    41c0:	aa1603e0 	mov	x0, x22
    41c4:	9400047f 	bl	53c0 <mbedtls_mpi_free>
/home/hei/Desktop/optee-qemu/optee_os/lib/libutee/tee_api_arith_mpi.c:395
    41c8:	a94153f3 	ldp	x19, x20, [sp, #16]
    41cc:	a9425bf5 	ldp	x21, x22, [sp, #32]
    41d0:	a94363f7 	ldp	x23, x24, [sp, #48]
    41d4:	a9446bf9 	ldp	x25, x26, [sp, #64]
    41d8:	f9402bfb 	ldr	x27, [sp, #80]
    41dc:	a8ce7bfd 	ldp	x29, x30, [sp], #224
    41e0:	d65f03c0 	ret

00000000000041e4 <TEE_BigIntShiftRight>:
TEE_BigIntShiftRight():
/home/hei/Desktop/optee-qemu/optee_os/lib/libutee/tee_api_arith_mpi.c:249
    41e4:	a9b77bfd 	stp	x29, x30, [sp, #-144]!
    41e8:	910003fd 	mov	x29, sp
    41ec:	a90153f3 	stp	x19, x20, [sp, #16]
/home/hei/Desktop/optee-qemu/optee_os/lib/libutee/tee_api_arith_mpi.c:253
    41f0:	910123f3 	add	x19, sp, #0x48
/home/hei/Desktop/optee-qemu/optee_os/lib/libutee/tee_api_arith_mpi.c:249
    41f4:	a9025bf5 	stp	x21, x22, [sp, #32]
    41f8:	aa0003f6 	mov	x22, x0
    41fc:	aa0103f5 	mov	x21, x1
/home/hei/Desktop/optee-qemu/optee_os/lib/libutee/tee_api_arith_mpi.c:253
    4200:	aa0003e1 	mov	x1, x0
    4204:	aa1303e0 	mov	x0, x19
/home/hei/Desktop/optee-qemu/optee_os/lib/libutee/tee_api_arith_mpi.c:249
    4208:	f9001bf7 	str	x23, [sp, #48]
    420c:	aa0203f7 	mov	x23, x2
/home/hei/Desktop/optee-qemu/optee_os/lib/libutee/tee_api_arith_mpi.c:253
    4210:	97fffcbf 	bl	350c <get_mpi>
/home/hei/Desktop/optee-qemu/optee_os/lib/libutee/tee_api_arith_mpi.c:255
    4214:	eb1502df 	cmp	x22, x21
    4218:	54000161 	b.ne	4244 <TEE_BigIntShiftRight+0x60>  // b.any
/home/hei/Desktop/optee-qemu/optee_os/lib/libutee/tee_api_arith_mpi.c:256
    421c:	aa1703e1 	mov	x1, x23
    4220:	aa1303e0 	mov	x0, x19
    4224:	940006d0 	bl	5d64 <mbedtls_mpi_shift_r>
    4228:	34000780 	cbz	w0, 4318 <TEE_BigIntShiftRight+0x134>
/home/hei/Desktop/optee-qemu/optee_os/lib/libutee/tee_api_arith_mpi.c:256 (discriminator 1)
    422c:	2a0003e2 	mov	w2, w0
    4230:	52802001 	mov	w1, #0x100                 	// #256
/home/hei/Desktop/optee-qemu/optee_os/lib/libutee/tee_api_arith_mpi.c:263 (discriminator 1)
    4234:	f0000020 	adrp	x0, b000 <__func__.3755+0x98>
    4238:	910bc400 	add	x0, x0, #0x2f1
    423c:	91022800 	add	x0, x0, #0x8a
    4240:	97fffca7 	bl	34dc <mpi_panic>
/home/hei/Desktop/optee-qemu/optee_os/lib/libutee/tee_api_arith_mpi.c:260
    4244:	aa1503e1 	mov	x1, x21
    4248:	910183f4 	add	x20, sp, #0x60
    424c:	aa1403e0 	mov	x0, x20
    4250:	97fffcaf 	bl	350c <get_mpi>
/home/hei/Desktop/optee-qemu/optee_os/lib/libutee/tee_api_arith_mpi.c:262
    4254:	aa1303e0 	mov	x0, x19
    4258:	9400061d 	bl	5acc <mbedtls_mpi_size>
    425c:	aa0003f5 	mov	x21, x0
    4260:	aa1403e0 	mov	x0, x20
    4264:	9400061a 	bl	5acc <mbedtls_mpi_size>
    4268:	eb0002bf 	cmp	x21, x0
    426c:	540001e3 	b.cc	42a8 <TEE_BigIntShiftRight+0xc4>  // b.lo, b.ul, b.last
/home/hei/Desktop/optee-qemu/optee_os/lib/libutee/tee_api_arith_mpi.c:263
    4270:	aa1403e1 	mov	x1, x20
    4274:	aa1303e0 	mov	x0, x19
    4278:	940004f3 	bl	5644 <mbedtls_mpi_copy>
    427c:	34000080 	cbz	w0, 428c <TEE_BigIntShiftRight+0xa8>
/home/hei/Desktop/optee-qemu/optee_os/lib/libutee/tee_api_arith_mpi.c:263 (discriminator 1)
    4280:	2a0003e2 	mov	w2, w0
    4284:	528020e1 	mov	w1, #0x107                 	// #263
    4288:	17ffffeb 	b	4234 <TEE_BigIntShiftRight+0x50>
/home/hei/Desktop/optee-qemu/optee_os/lib/libutee/tee_api_arith_mpi.c:264
    428c:	aa1703e1 	mov	x1, x23
    4290:	aa1303e0 	mov	x0, x19
    4294:	940006b4 	bl	5d64 <mbedtls_mpi_shift_r>
    4298:	340003c0 	cbz	w0, 4310 <TEE_BigIntShiftRight+0x12c>
/home/hei/Desktop/optee-qemu/optee_os/lib/libutee/tee_api_arith_mpi.c:264 (discriminator 1)
    429c:	2a0003e2 	mov	w2, w0
    42a0:	52802101 	mov	w1, #0x108                 	// #264
    42a4:	17ffffe4 	b	4234 <TEE_BigIntShiftRight+0x50>
get_mpi():
/home/hei/Desktop/optee-qemu/optee_os/lib/libutee/tee_api_arith_mpi.c:101
    42a8:	9101e3f5 	add	x21, sp, #0x78
    42ac:	aa1503e0 	mov	x0, x21
    42b0:	9400043a 	bl	5398 <mbedtls_mpi_init_mempool>
TEE_BigIntShiftRight():
/home/hei/Desktop/optee-qemu/optee_os/lib/libutee/tee_api_arith_mpi.c:275
    42b4:	aa1403e1 	mov	x1, x20
    42b8:	aa1503e0 	mov	x0, x21
    42bc:	940004e2 	bl	5644 <mbedtls_mpi_copy>
    42c0:	34000080 	cbz	w0, 42d0 <TEE_BigIntShiftRight+0xec>
/home/hei/Desktop/optee-qemu/optee_os/lib/libutee/tee_api_arith_mpi.c:275 (discriminator 1)
    42c4:	2a0003e2 	mov	w2, w0
    42c8:	52802261 	mov	w1, #0x113                 	// #275
    42cc:	17ffffda 	b	4234 <TEE_BigIntShiftRight+0x50>
/home/hei/Desktop/optee-qemu/optee_os/lib/libutee/tee_api_arith_mpi.c:276
    42d0:	aa1703e1 	mov	x1, x23
    42d4:	aa1503e0 	mov	x0, x21
    42d8:	940006a3 	bl	5d64 <mbedtls_mpi_shift_r>
    42dc:	34000080 	cbz	w0, 42ec <TEE_BigIntShiftRight+0x108>
/home/hei/Desktop/optee-qemu/optee_os/lib/libutee/tee_api_arith_mpi.c:276 (discriminator 1)
    42e0:	2a0003e2 	mov	w2, w0
    42e4:	52802281 	mov	w1, #0x114                 	// #276
    42e8:	17ffffd3 	b	4234 <TEE_BigIntShiftRight+0x50>
/home/hei/Desktop/optee-qemu/optee_os/lib/libutee/tee_api_arith_mpi.c:277
    42ec:	aa1503e1 	mov	x1, x21
    42f0:	aa1303e0 	mov	x0, x19
    42f4:	940004d4 	bl	5644 <mbedtls_mpi_copy>
    42f8:	34000080 	cbz	w0, 4308 <TEE_BigIntShiftRight+0x124>
/home/hei/Desktop/optee-qemu/optee_os/lib/libutee/tee_api_arith_mpi.c:277 (discriminator 1)
    42fc:	2a0003e2 	mov	w2, w0
    4300:	528022a1 	mov	w1, #0x115                 	// #277
    4304:	17ffffcc 	b	4234 <TEE_BigIntShiftRight+0x50>
/home/hei/Desktop/optee-qemu/optee_os/lib/libutee/tee_api_arith_mpi.c:279
    4308:	aa1503e0 	mov	x0, x21
    430c:	9400042d 	bl	53c0 <mbedtls_mpi_free>
/home/hei/Desktop/optee-qemu/optee_os/lib/libutee/tee_api_arith_mpi.c:282
    4310:	aa1403e0 	mov	x0, x20
    4314:	9400042b 	bl	53c0 <mbedtls_mpi_free>
/home/hei/Desktop/optee-qemu/optee_os/lib/libutee/tee_api_arith_mpi.c:285
    4318:	aa1603e1 	mov	x1, x22
    431c:	aa1303e0 	mov	x0, x19
    4320:	97fffca1 	bl	35a4 <copy_mpi_to_bigint>
    4324:	34000080 	cbz	w0, 4334 <TEE_BigIntShiftRight+0x150>
/home/hei/Desktop/optee-qemu/optee_os/lib/libutee/tee_api_arith_mpi.c:285 (discriminator 1)
    4328:	2a0003e2 	mov	w2, w0
    432c:	528023a1 	mov	w1, #0x11d                 	// #285
    4330:	17ffffc1 	b	4234 <TEE_BigIntShiftRight+0x50>
/home/hei/Desktop/optee-qemu/optee_os/lib/libutee/tee_api_arith_mpi.c:286
    4334:	aa1303e0 	mov	x0, x19
    4338:	94000422 	bl	53c0 <mbedtls_mpi_free>
/home/hei/Desktop/optee-qemu/optee_os/lib/libutee/tee_api_arith_mpi.c:287
    433c:	a94153f3 	ldp	x19, x20, [sp, #16]
    4340:	a9425bf5 	ldp	x21, x22, [sp, #32]
    4344:	f9401bf7 	ldr	x23, [sp, #48]
    4348:	a8c97bfd 	ldp	x29, x30, [sp], #144
    434c:	d65f03c0 	ret

0000000000004350 <TEE_BigIntGetBit>:
TEE_BigIntGetBit():
/home/hei/Desktop/optee-qemu/optee_os/lib/libutee/tee_api_arith_mpi.c:290
    4350:	a9bc7bfd 	stp	x29, x30, [sp, #-64]!
    4354:	910003fd 	mov	x29, sp
    4358:	a90153f3 	stp	x19, x20, [sp, #16]
/home/hei/Desktop/optee-qemu/optee_os/lib/libutee/tee_api_arith_mpi.c:294
    435c:	9100a3f3 	add	x19, sp, #0x28
/home/hei/Desktop/optee-qemu/optee_os/lib/libutee/tee_api_arith_mpi.c:290
    4360:	2a0103f4 	mov	w20, w1
/home/hei/Desktop/optee-qemu/optee_os/lib/libutee/tee_api_arith_mpi.c:294
    4364:	aa0003e1 	mov	x1, x0
    4368:	aa1303e0 	mov	x0, x19
    436c:	97fffc68 	bl	350c <get_mpi>
/home/hei/Desktop/optee-qemu/optee_os/lib/libutee/tee_api_arith_mpi.c:296
    4370:	2a1403e1 	mov	w1, w20
    4374:	aa1303e0 	mov	x0, x19
    4378:	9400057b 	bl	5964 <mbedtls_mpi_get_bit>
    437c:	2a0003f4 	mov	w20, w0
/home/hei/Desktop/optee-qemu/optee_os/lib/libutee/tee_api_arith_mpi.c:298
    4380:	aa1303e0 	mov	x0, x19
    4384:	9400040f 	bl	53c0 <mbedtls_mpi_free>
/home/hei/Desktop/optee-qemu/optee_os/lib/libutee/tee_api_arith_mpi.c:296
    4388:	7100029f 	cmp	w20, #0x0
/home/hei/Desktop/optee-qemu/optee_os/lib/libutee/tee_api_arith_mpi.c:301
    438c:	1a9f07e0 	cset	w0, ne  // ne = any
    4390:	a94153f3 	ldp	x19, x20, [sp, #16]
    4394:	a8c47bfd 	ldp	x29, x30, [sp], #64
    4398:	d65f03c0 	ret

000000000000439c <TEE_BigIntGetBitCount>:
TEE_BigIntGetBitCount():
/home/hei/Desktop/optee-qemu/optee_os/lib/libutee/tee_api_arith_mpi.c:304
    439c:	a9bc7bfd 	stp	x29, x30, [sp, #-64]!
/home/hei/Desktop/optee-qemu/optee_os/lib/libutee/tee_api_arith_mpi.c:308
    43a0:	aa0003e1 	mov	x1, x0
/home/hei/Desktop/optee-qemu/optee_os/lib/libutee/tee_api_arith_mpi.c:304
    43a4:	910003fd 	mov	x29, sp
    43a8:	a90153f3 	stp	x19, x20, [sp, #16]
/home/hei/Desktop/optee-qemu/optee_os/lib/libutee/tee_api_arith_mpi.c:308
    43ac:	9100a3f3 	add	x19, sp, #0x28
    43b0:	aa1303e0 	mov	x0, x19
    43b4:	97fffc56 	bl	350c <get_mpi>
/home/hei/Desktop/optee-qemu/optee_os/lib/libutee/tee_api_arith_mpi.c:310
    43b8:	aa1303e0 	mov	x0, x19
    43bc:	940005ad 	bl	5a70 <mbedtls_mpi_bitlen>
    43c0:	aa0003f4 	mov	x20, x0
/home/hei/Desktop/optee-qemu/optee_os/lib/libutee/tee_api_arith_mpi.c:312
    43c4:	aa1303e0 	mov	x0, x19
    43c8:	940003fe 	bl	53c0 <mbedtls_mpi_free>
/home/hei/Desktop/optee-qemu/optee_os/lib/libutee/tee_api_arith_mpi.c:315
    43cc:	2a1403e0 	mov	w0, w20
    43d0:	a94153f3 	ldp	x19, x20, [sp, #16]
    43d4:	a8c47bfd 	ldp	x29, x30, [sp], #64
    43d8:	d65f03c0 	ret

00000000000043dc <TEE_BigIntAdd>:
TEE_BigIntAdd():
/home/hei/Desktop/optee-qemu/optee_os/lib/libutee/tee_api_arith_mpi.c:400
    43dc:	90000043 	adrp	x3, c000 <_DYNAMIC>
    43e0:	f940b063 	ldr	x3, [x3, #352]
    43e4:	17fffc89 	b	3608 <bigint_binary>

00000000000043e8 <TEE_BigIntSub>:
TEE_BigIntSub():
/home/hei/Desktop/optee-qemu/optee_os/lib/libutee/tee_api_arith_mpi.c:406
    43e8:	90000043 	adrp	x3, c000 <_DYNAMIC>
    43ec:	f940b863 	ldr	x3, [x3, #368]
    43f0:	17fffc86 	b	3608 <bigint_binary>

00000000000043f4 <TEE_BigIntNeg>:
TEE_BigIntNeg():
/home/hei/Desktop/optee-qemu/optee_os/lib/libutee/tee_api_arith_mpi.c:410
    43f4:	a9ba7bfd 	stp	x29, x30, [sp, #-96]!
    43f8:	910003fd 	mov	x29, sp
    43fc:	a90153f3 	stp	x19, x20, [sp, #16]
/home/hei/Desktop/optee-qemu/optee_os/lib/libutee/tee_api_arith_mpi.c:413
    4400:	9100c3f3 	add	x19, sp, #0x30
/home/hei/Desktop/optee-qemu/optee_os/lib/libutee/tee_api_arith_mpi.c:410
    4404:	aa0003f4 	mov	x20, x0
    4408:	a9025bf5 	stp	x21, x22, [sp, #32]
    440c:	aa0103f6 	mov	x22, x1
/home/hei/Desktop/optee-qemu/optee_os/lib/libutee/tee_api_arith_mpi.c:413
    4410:	aa0003e1 	mov	x1, x0
    4414:	aa1303e0 	mov	x0, x19
    4418:	97fffc3d 	bl	350c <get_mpi>
/home/hei/Desktop/optee-qemu/optee_os/lib/libutee/tee_api_arith_mpi.c:415
    441c:	eb16029f 	cmp	x20, x22
    4420:	54000220 	b.eq	4464 <TEE_BigIntNeg+0x70>  // b.none
/home/hei/Desktop/optee-qemu/optee_os/lib/libutee/tee_api_arith_mpi.c:418
    4424:	910123f5 	add	x21, sp, #0x48
    4428:	aa1603e1 	mov	x1, x22
    442c:	aa1503e0 	mov	x0, x21
    4430:	97fffc37 	bl	350c <get_mpi>
/home/hei/Desktop/optee-qemu/optee_os/lib/libutee/tee_api_arith_mpi.c:420
    4434:	aa1503e1 	mov	x1, x21
    4438:	aa1303e0 	mov	x0, x19
    443c:	94000482 	bl	5644 <mbedtls_mpi_copy>
    4440:	340000e0 	cbz	w0, 445c <TEE_BigIntNeg+0x68>
/home/hei/Desktop/optee-qemu/optee_os/lib/libutee/tee_api_arith_mpi.c:420 (discriminator 1)
    4444:	2a0003e2 	mov	w2, w0
    4448:	52803481 	mov	w1, #0x1a4                 	// #420
/home/hei/Desktop/optee-qemu/optee_os/lib/libutee/tee_api_arith_mpi.c:427 (discriminator 1)
    444c:	f0000020 	adrp	x0, b000 <__func__.3755+0x98>
    4450:	910bc400 	add	x0, x0, #0x2f1
    4454:	91027c00 	add	x0, x0, #0x9f
    4458:	97fffc21 	bl	34dc <mpi_panic>
/home/hei/Desktop/optee-qemu/optee_os/lib/libutee/tee_api_arith_mpi.c:422
    445c:	aa1503e0 	mov	x0, x21
    4460:	940003d8 	bl	53c0 <mbedtls_mpi_free>
/home/hei/Desktop/optee-qemu/optee_os/lib/libutee/tee_api_arith_mpi.c:425
    4464:	794063e0 	ldrh	w0, [sp, #48]
/home/hei/Desktop/optee-qemu/optee_os/lib/libutee/tee_api_arith_mpi.c:427
    4468:	aa1403e1 	mov	x1, x20
/home/hei/Desktop/optee-qemu/optee_os/lib/libutee/tee_api_arith_mpi.c:425
    446c:	4b0003e0 	neg	w0, w0
    4470:	790063e0 	strh	w0, [sp, #48]
/home/hei/Desktop/optee-qemu/optee_os/lib/libutee/tee_api_arith_mpi.c:427
    4474:	aa1303e0 	mov	x0, x19
    4478:	97fffc4b 	bl	35a4 <copy_mpi_to_bigint>
    447c:	34000080 	cbz	w0, 448c <TEE_BigIntNeg+0x98>
/home/hei/Desktop/optee-qemu/optee_os/lib/libutee/tee_api_arith_mpi.c:427 (discriminator 1)
    4480:	2a0003e2 	mov	w2, w0
    4484:	52803561 	mov	w1, #0x1ab                 	// #427
    4488:	17fffff1 	b	444c <TEE_BigIntNeg+0x58>
/home/hei/Desktop/optee-qemu/optee_os/lib/libutee/tee_api_arith_mpi.c:428
    448c:	aa1303e0 	mov	x0, x19
    4490:	940003cc 	bl	53c0 <mbedtls_mpi_free>
/home/hei/Desktop/optee-qemu/optee_os/lib/libutee/tee_api_arith_mpi.c:429
    4494:	a94153f3 	ldp	x19, x20, [sp, #16]
    4498:	a9425bf5 	ldp	x21, x22, [sp, #32]
    449c:	a8c67bfd 	ldp	x29, x30, [sp], #96
    44a0:	d65f03c0 	ret

00000000000044a4 <TEE_BigIntMul>:
TEE_BigIntMul():
/home/hei/Desktop/optee-qemu/optee_os/lib/libutee/tee_api_arith_mpi.c:433
    44a4:	a9ba7bfd 	stp	x29, x30, [sp, #-96]!
    44a8:	910003fd 	mov	x29, sp
    44ac:	a90153f3 	stp	x19, x20, [sp, #16]
    44b0:	a9025bf5 	stp	x21, x22, [sp, #32]
/home/hei/Desktop/optee-qemu/optee_os/lib/libutee/tee_api_arith_mpi.c:440
    44b4:	90000056 	adrp	x22, c000 <_DYNAMIC>
    44b8:	aa1603f5 	mov	x21, x22
/home/hei/Desktop/optee-qemu/optee_os/lib/libutee/tee_api_arith_mpi.c:433
    44bc:	a90363f7 	stp	x23, x24, [sp, #48]
    44c0:	aa0203f8 	mov	x24, x2
    44c4:	aa0103f7 	mov	x23, x1
    44c8:	f90023f9 	str	x25, [sp, #64]
    44cc:	aa0003f9 	mov	x25, x0
/home/hei/Desktop/optee-qemu/optee_os/lib/libutee/tee_api_arith_mpi.c:434
    44d0:	aa0103e0 	mov	x0, x1
    44d4:	97ffffb2 	bl	439c <TEE_BigIntGetBitCount>
    44d8:	2a0003f3 	mov	w19, w0
/home/hei/Desktop/optee-qemu/optee_os/lib/libutee/tee_api_arith_mpi.c:435
    44dc:	aa1803e0 	mov	x0, x24
    44e0:	97ffffaf 	bl	439c <TEE_BigIntGetBitCount>
    44e4:	2a0003e0 	mov	w0, w0
/home/hei/Desktop/optee-qemu/optee_os/lib/libutee/tee_api_arith_mpi.c:436
    44e8:	91007c00 	add	x0, x0, #0x1f
    44ec:	91007e73 	add	x19, x19, #0x1f
/home/hei/Desktop/optee-qemu/optee_os/lib/libutee/tee_api_arith_mpi.c:437
    44f0:	f9002bff 	str	xzr, [sp, #80]
/home/hei/Desktop/optee-qemu/optee_os/lib/libutee/tee_api_arith_mpi.c:436
    44f4:	d345fc00 	lsr	x0, x0, #5
/home/hei/Desktop/optee-qemu/optee_os/lib/libutee/tee_api_arith_mpi.c:437
    44f8:	b9005bff 	str	wzr, [sp, #88]
/home/hei/Desktop/optee-qemu/optee_os/lib/libutee/tee_api_arith_mpi.c:436
    44fc:	8b531413 	add	x19, x0, x19, lsr #5
/home/hei/Desktop/optee-qemu/optee_os/lib/libutee/tee_api_arith_mpi.c:440
    4500:	f940d2c0 	ldr	x0, [x22, #416]
/home/hei/Desktop/optee-qemu/optee_os/lib/libutee/tee_api_arith_mpi.c:436
    4504:	91001273 	add	x19, x19, #0x4
/home/hei/Desktop/optee-qemu/optee_os/lib/libutee/tee_api_arith_mpi.c:440
    4508:	d37ef661 	lsl	x1, x19, #2
    450c:	f9400000 	ldr	x0, [x0]
    4510:	94001193 	bl	8b5c <mempool_alloc>
    4514:	aa0003f4 	mov	x20, x0
/home/hei/Desktop/optee-qemu/optee_os/lib/libutee/tee_api_arith_mpi.c:441
    4518:	b5000060 	cbnz	x0, 4524 <TEE_BigIntMul+0x80>
/home/hei/Desktop/optee-qemu/optee_os/lib/libutee/tee_api_arith_mpi.c:442
    451c:	129ffe60 	mov	w0, #0xffff000c            	// #-65524
    4520:	97fff9e9 	bl	2cc4 <TEE_Panic>
/home/hei/Desktop/optee-qemu/optee_os/lib/libutee/tee_api_arith_mpi.c:444
    4524:	2a1303e1 	mov	w1, w19
    4528:	aa1403e0 	mov	x0, x20
/home/hei/Desktop/optee-qemu/optee_os/lib/libutee/tee_api_arith_mpi.c:445
    452c:	910143f3 	add	x19, sp, #0x50
/home/hei/Desktop/optee-qemu/optee_os/lib/libutee/tee_api_arith_mpi.c:444
    4530:	97fffdf5 	bl	3d04 <TEE_BigIntInit>
/home/hei/Desktop/optee-qemu/optee_os/lib/libutee/tee_api_arith_mpi.c:445
    4534:	aa1303e0 	mov	x0, x19
    4538:	52800061 	mov	w1, #0x3                   	// #3
    453c:	97fffdf2 	bl	3d04 <TEE_BigIntInit>
/home/hei/Desktop/optee-qemu/optee_os/lib/libutee/tee_api_arith_mpi.c:447
    4540:	f940aea3 	ldr	x3, [x21, #344]
    4544:	aa1803e2 	mov	x2, x24
    4548:	aa1703e1 	mov	x1, x23
    454c:	aa1403e0 	mov	x0, x20
    4550:	97fffc2e 	bl	3608 <bigint_binary>
/home/hei/Desktop/optee-qemu/optee_os/lib/libutee/tee_api_arith_mpi.c:449
    4554:	aa1303e2 	mov	x2, x19
    4558:	aa1403e1 	mov	x1, x20
    455c:	aa1903e0 	mov	x0, x25
    4560:	97ffff9f 	bl	43dc <TEE_BigIntAdd>
/home/hei/Desktop/optee-qemu/optee_os/lib/libutee/tee_api_arith_mpi.c:451
    4564:	f940d2b5 	ldr	x21, [x21, #416]
    4568:	aa1403e1 	mov	x1, x20
    456c:	f94002a0 	ldr	x0, [x21]
    4570:	940011ba 	bl	8c58 <mempool_free>
/home/hei/Desktop/optee-qemu/optee_os/lib/libutee/tee_api_arith_mpi.c:452
    4574:	a94153f3 	ldp	x19, x20, [sp, #16]
    4578:	a9425bf5 	ldp	x21, x22, [sp, #32]
    457c:	a94363f7 	ldp	x23, x24, [sp, #48]
    4580:	f94023f9 	ldr	x25, [sp, #64]
    4584:	a8c67bfd 	ldp	x29, x30, [sp], #96
    4588:	d65f03c0 	ret

000000000000458c <TEE_BigIntSquare>:
TEE_BigIntSquare():
/home/hei/Desktop/optee-qemu/optee_os/lib/libutee/tee_api_arith_mpi.c:456
    458c:	aa0103e2 	mov	x2, x1
    4590:	17ffffc5 	b	44a4 <TEE_BigIntMul>

0000000000004594 <TEE_BigIntDiv>:
TEE_BigIntDiv():
/home/hei/Desktop/optee-qemu/optee_os/lib/libutee/tee_api_arith_mpi.c:461
    4594:	a9b47bfd 	stp	x29, x30, [sp, #-192]!
    4598:	910003fd 	mov	x29, sp
    459c:	a9025bf5 	stp	x21, x22, [sp, #32]
/home/hei/Desktop/optee-qemu/optee_os/lib/libutee/tee_api_arith_mpi.c:469
    45a0:	910183f6 	add	x22, sp, #0x60
/home/hei/Desktop/optee-qemu/optee_os/lib/libutee/tee_api_arith_mpi.c:470
    45a4:	9101e3f5 	add	x21, sp, #0x78
/home/hei/Desktop/optee-qemu/optee_os/lib/libutee/tee_api_arith_mpi.c:461
    45a8:	a90153f3 	stp	x19, x20, [sp, #16]
    45ac:	aa0303f3 	mov	x19, x3
    45b0:	a90363f7 	stp	x23, x24, [sp, #48]
    45b4:	aa0003f8 	mov	x24, x0
    45b8:	aa0103f7 	mov	x23, x1
/home/hei/Desktop/optee-qemu/optee_os/lib/libutee/tee_api_arith_mpi.c:469
    45bc:	aa0003e1 	mov	x1, x0
    45c0:	aa1603e0 	mov	x0, x22
/home/hei/Desktop/optee-qemu/optee_os/lib/libutee/tee_api_arith_mpi.c:461
    45c4:	a9046bf9 	stp	x25, x26, [sp, #64]
    45c8:	aa0203f9 	mov	x25, x2
    45cc:	f9002bfb 	str	x27, [sp, #80]
/home/hei/Desktop/optee-qemu/optee_os/lib/libutee/tee_api_arith_mpi.c:469
    45d0:	97fffbcf 	bl	350c <get_mpi>
/home/hei/Desktop/optee-qemu/optee_os/lib/libutee/tee_api_arith_mpi.c:470
    45d4:	aa1703e1 	mov	x1, x23
    45d8:	aa1503e0 	mov	x0, x21
    45dc:	97fffbcc 	bl	350c <get_mpi>
/home/hei/Desktop/optee-qemu/optee_os/lib/libutee/tee_api_arith_mpi.c:472
    45e0:	910243fb 	add	x27, sp, #0x90
    45e4:	eb19031f 	cmp	x24, x25
    45e8:	540003c0 	b.eq	4660 <TEE_BigIntDiv+0xcc>  // b.none
/home/hei/Desktop/optee-qemu/optee_os/lib/libutee/tee_api_arith_mpi.c:474
    45ec:	eb1902ff 	cmp	x23, x25
    45f0:	540003c0 	b.eq	4668 <TEE_BigIntDiv+0xd4>  // b.none
/home/hei/Desktop/optee-qemu/optee_os/lib/libutee/tee_api_arith_mpi.c:466
    45f4:	aa1b03f4 	mov	x20, x27
/home/hei/Desktop/optee-qemu/optee_os/lib/libutee/tee_api_arith_mpi.c:477
    45f8:	aa1903e1 	mov	x1, x25
    45fc:	aa1b03e0 	mov	x0, x27
    4600:	97fffbc3 	bl	350c <get_mpi>
/home/hei/Desktop/optee-qemu/optee_os/lib/libutee/tee_api_arith_mpi.c:479
    4604:	eb13031f 	cmp	x24, x19
    4608:	9102a3fa 	add	x26, sp, #0xa8
    460c:	54000320 	b.eq	4670 <TEE_BigIntDiv+0xdc>  // b.none
/home/hei/Desktop/optee-qemu/optee_os/lib/libutee/tee_api_arith_mpi.c:481
    4610:	eb1302ff 	cmp	x23, x19
    4614:	54000320 	b.eq	4678 <TEE_BigIntDiv+0xe4>  // b.none
/home/hei/Desktop/optee-qemu/optee_os/lib/libutee/tee_api_arith_mpi.c:483
    4618:	eb13033f 	cmp	x25, x19
    461c:	54000320 	b.eq	4680 <TEE_BigIntDiv+0xec>  // b.none
/home/hei/Desktop/optee-qemu/optee_os/lib/libutee/tee_api_arith_mpi.c:486
    4620:	aa1303e1 	mov	x1, x19
/home/hei/Desktop/optee-qemu/optee_os/lib/libutee/tee_api_arith_mpi.c:467
    4624:	aa1a03f3 	mov	x19, x26
/home/hei/Desktop/optee-qemu/optee_os/lib/libutee/tee_api_arith_mpi.c:486
    4628:	aa1a03e0 	mov	x0, x26
    462c:	97fffbb8 	bl	350c <get_mpi>
/home/hei/Desktop/optee-qemu/optee_os/lib/libutee/tee_api_arith_mpi.c:488
    4630:	aa1303e3 	mov	x3, x19
    4634:	aa1403e2 	mov	x2, x20
    4638:	aa1503e1 	mov	x1, x21
    463c:	aa1603e0 	mov	x0, x22
    4640:	94000827 	bl	66dc <mbedtls_mpi_div_mpi>
    4644:	34000220 	cbz	w0, 4688 <TEE_BigIntDiv+0xf4>
/home/hei/Desktop/optee-qemu/optee_os/lib/libutee/tee_api_arith_mpi.c:488 (discriminator 1)
    4648:	2a0003e2 	mov	w2, w0
    464c:	52803d01 	mov	w1, #0x1e8                 	// #488
/home/hei/Desktop/optee-qemu/optee_os/lib/libutee/tee_api_arith_mpi.c:490 (discriminator 1)
    4650:	f0000020 	adrp	x0, b000 <__func__.3755+0x98>
    4654:	910bc400 	add	x0, x0, #0x2f1
    4658:	9102b400 	add	x0, x0, #0xad
    465c:	97fffba0 	bl	34dc <mpi_panic>
/home/hei/Desktop/optee-qemu/optee_os/lib/libutee/tee_api_arith_mpi.c:473
    4660:	aa1603f4 	mov	x20, x22
    4664:	17ffffe8 	b	4604 <TEE_BigIntDiv+0x70>
/home/hei/Desktop/optee-qemu/optee_os/lib/libutee/tee_api_arith_mpi.c:475
    4668:	aa1503f4 	mov	x20, x21
    466c:	17ffffe6 	b	4604 <TEE_BigIntDiv+0x70>
/home/hei/Desktop/optee-qemu/optee_os/lib/libutee/tee_api_arith_mpi.c:480
    4670:	aa1603f3 	mov	x19, x22
    4674:	17ffffef 	b	4630 <TEE_BigIntDiv+0x9c>
/home/hei/Desktop/optee-qemu/optee_os/lib/libutee/tee_api_arith_mpi.c:482
    4678:	aa1503f3 	mov	x19, x21
    467c:	17ffffed 	b	4630 <TEE_BigIntDiv+0x9c>
/home/hei/Desktop/optee-qemu/optee_os/lib/libutee/tee_api_arith_mpi.c:484
    4680:	aa1403f3 	mov	x19, x20
    4684:	17ffffeb 	b	4630 <TEE_BigIntDiv+0x9c>
/home/hei/Desktop/optee-qemu/optee_os/lib/libutee/tee_api_arith_mpi.c:490
    4688:	aa1803e1 	mov	x1, x24
    468c:	aa1603e0 	mov	x0, x22
    4690:	97fffbc5 	bl	35a4 <copy_mpi_to_bigint>
    4694:	34000080 	cbz	w0, 46a4 <TEE_BigIntDiv+0x110>
/home/hei/Desktop/optee-qemu/optee_os/lib/libutee/tee_api_arith_mpi.c:490 (discriminator 1)
    4698:	2a0003e2 	mov	w2, w0
    469c:	52803d41 	mov	w1, #0x1ea                 	// #490
    46a0:	17ffffec 	b	4650 <TEE_BigIntDiv+0xbc>
/home/hei/Desktop/optee-qemu/optee_os/lib/libutee/tee_api_arith_mpi.c:491
    46a4:	aa1703e1 	mov	x1, x23
    46a8:	aa1503e0 	mov	x0, x21
    46ac:	97fffbbe 	bl	35a4 <copy_mpi_to_bigint>
    46b0:	34000080 	cbz	w0, 46c0 <TEE_BigIntDiv+0x12c>
/home/hei/Desktop/optee-qemu/optee_os/lib/libutee/tee_api_arith_mpi.c:491 (discriminator 1)
    46b4:	2a0003e2 	mov	w2, w0
    46b8:	52803d61 	mov	w1, #0x1eb                 	// #491
    46bc:	17ffffe5 	b	4650 <TEE_BigIntDiv+0xbc>
/home/hei/Desktop/optee-qemu/optee_os/lib/libutee/tee_api_arith_mpi.c:492
    46c0:	aa1603e0 	mov	x0, x22
    46c4:	9400033f 	bl	53c0 <mbedtls_mpi_free>
/home/hei/Desktop/optee-qemu/optee_os/lib/libutee/tee_api_arith_mpi.c:493
    46c8:	aa1503e0 	mov	x0, x21
    46cc:	9400033d 	bl	53c0 <mbedtls_mpi_free>
/home/hei/Desktop/optee-qemu/optee_os/lib/libutee/tee_api_arith_mpi.c:494
    46d0:	eb1b029f 	cmp	x20, x27
    46d4:	54000061 	b.ne	46e0 <TEE_BigIntDiv+0x14c>  // b.any
/home/hei/Desktop/optee-qemu/optee_os/lib/libutee/tee_api_arith_mpi.c:495
    46d8:	aa1403e0 	mov	x0, x20
    46dc:	94000339 	bl	53c0 <mbedtls_mpi_free>
/home/hei/Desktop/optee-qemu/optee_os/lib/libutee/tee_api_arith_mpi.c:496
    46e0:	eb1a027f 	cmp	x19, x26
    46e4:	54000061 	b.ne	46f0 <TEE_BigIntDiv+0x15c>  // b.any
/home/hei/Desktop/optee-qemu/optee_os/lib/libutee/tee_api_arith_mpi.c:497
    46e8:	aa1303e0 	mov	x0, x19
    46ec:	94000335 	bl	53c0 <mbedtls_mpi_free>
/home/hei/Desktop/optee-qemu/optee_os/lib/libutee/tee_api_arith_mpi.c:498
    46f0:	a94153f3 	ldp	x19, x20, [sp, #16]
    46f4:	a9425bf5 	ldp	x21, x22, [sp, #32]
    46f8:	a94363f7 	ldp	x23, x24, [sp, #48]
    46fc:	a9446bf9 	ldp	x25, x26, [sp, #64]
    4700:	f9402bfb 	ldr	x27, [sp, #80]
    4704:	a8cc7bfd 	ldp	x29, x30, [sp], #192
    4708:	d65f03c0 	ret

000000000000470c <TEE_BigIntMod>:
TEE_BigIntMod():
/home/hei/Desktop/optee-qemu/optee_os/lib/libutee/tee_api_arith_mpi.c:501
    470c:	a9bd7bfd 	stp	x29, x30, [sp, #-48]!
    4710:	910003fd 	mov	x29, sp
    4714:	a90153f3 	stp	x19, x20, [sp, #16]
    4718:	aa0003f3 	mov	x19, x0
    471c:	aa0103f4 	mov	x20, x1
/home/hei/Desktop/optee-qemu/optee_os/lib/libutee/tee_api_arith_mpi.c:502
    4720:	aa0203e0 	mov	x0, x2
    4724:	52800041 	mov	w1, #0x2                   	// #2
    4728:	f90017e2 	str	x2, [sp, #40]
    472c:	97fffe37 	bl	4008 <TEE_BigIntCmpS32>
    4730:	f94017e2 	ldr	x2, [sp, #40]
    4734:	36f80100 	tbz	w0, #31, 4754 <TEE_BigIntMod+0x48>
/home/hei/Desktop/optee-qemu/optee_os/lib/libutee/tee_api_arith_mpi.c:503
    4738:	f0000020 	adrp	x0, b000 <__func__.3755+0x98>
    473c:	910bc400 	add	x0, x0, #0x2f1
    4740:	f0000022 	adrp	x2, b000 <__func__.3755+0x98>
    4744:	52803ee1 	mov	w1, #0x1f7                 	// #503
    4748:	91129442 	add	x2, x2, #0x4a5
    474c:	9102ec00 	add	x0, x0, #0xbb
    4750:	97fffb57 	bl	34ac <api_panic>
/home/hei/Desktop/optee-qemu/optee_os/lib/libutee/tee_api_arith_mpi.c:505
    4754:	90000043 	adrp	x3, c000 <_DYNAMIC>
    4758:	aa1403e1 	mov	x1, x20
    475c:	aa1303e0 	mov	x0, x19
    4760:	f940c063 	ldr	x3, [x3, #384]
/home/hei/Desktop/optee-qemu/optee_os/lib/libutee/tee_api_arith_mpi.c:506
    4764:	a94153f3 	ldp	x19, x20, [sp, #16]
    4768:	a8c37bfd 	ldp	x29, x30, [sp], #48
/home/hei/Desktop/optee-qemu/optee_os/lib/libutee/tee_api_arith_mpi.c:505
    476c:	17fffba7 	b	3608 <bigint_binary>

0000000000004770 <TEE_BigIntAddMod>:
TEE_BigIntAddMod():
/home/hei/Desktop/optee-qemu/optee_os/lib/libutee/tee_api_arith_mpi.c:511
    4770:	90000044 	adrp	x4, c000 <_DYNAMIC>
    4774:	f940b084 	ldr	x4, [x4, #352]
    4778:	17fffe36 	b	4050 <bigint_binary_mod>

000000000000477c <TEE_BigIntSubMod>:
TEE_BigIntSubMod():
/home/hei/Desktop/optee-qemu/optee_os/lib/libutee/tee_api_arith_mpi.c:517
    477c:	90000044 	adrp	x4, c000 <_DYNAMIC>
    4780:	f940b884 	ldr	x4, [x4, #368]
    4784:	17fffe33 	b	4050 <bigint_binary_mod>

0000000000004788 <TEE_BigIntMulMod>:
TEE_BigIntMulMod():
/home/hei/Desktop/optee-qemu/optee_os/lib/libutee/tee_api_arith_mpi.c:523
    4788:	90000044 	adrp	x4, c000 <_DYNAMIC>
    478c:	f940ac84 	ldr	x4, [x4, #344]
    4790:	17fffe30 	b	4050 <bigint_binary_mod>

0000000000004794 <TEE_BigIntSquareMod>:
TEE_BigIntSquareMod():
/home/hei/Desktop/optee-qemu/optee_os/lib/libutee/tee_api_arith_mpi.c:529
    4794:	aa0203e3 	mov	x3, x2
    4798:	aa0103e2 	mov	x2, x1
    479c:	17fffffb 	b	4788 <TEE_BigIntMulMod>

00000000000047a0 <TEE_BigIntInvMod>:
TEE_BigIntInvMod():
/home/hei/Desktop/optee-qemu/optee_os/lib/libutee/tee_api_arith_mpi.c:534
    47a0:	a9b77bfd 	stp	x29, x30, [sp, #-144]!
    47a4:	910003fd 	mov	x29, sp
    47a8:	a90153f3 	stp	x19, x20, [sp, #16]
    47ac:	aa0103f4 	mov	x20, x1
/home/hei/Desktop/optee-qemu/optee_os/lib/libutee/tee_api_arith_mpi.c:535
    47b0:	52800041 	mov	w1, #0x2                   	// #2
/home/hei/Desktop/optee-qemu/optee_os/lib/libutee/tee_api_arith_mpi.c:534
    47b4:	a9025bf5 	stp	x21, x22, [sp, #32]
    47b8:	aa0203f5 	mov	x21, x2
    47bc:	f9001bf7 	str	x23, [sp, #48]
    47c0:	aa0003f7 	mov	x23, x0
/home/hei/Desktop/optee-qemu/optee_os/lib/libutee/tee_api_arith_mpi.c:535
    47c4:	aa0203e0 	mov	x0, x2
    47c8:	97fffe10 	bl	4008 <TEE_BigIntCmpS32>
    47cc:	36f80100 	tbz	w0, #31, 47ec <TEE_BigIntInvMod+0x4c>
/home/hei/Desktop/optee-qemu/optee_os/lib/libutee/tee_api_arith_mpi.c:536
    47d0:	f0000020 	adrp	x0, b000 <__func__.3755+0x98>
    47d4:	910bc400 	add	x0, x0, #0x2f1
    47d8:	f0000022 	adrp	x2, b000 <__func__.3755+0x98>
    47dc:	52804301 	mov	w1, #0x218                 	// #536
    47e0:	9112e842 	add	x2, x2, #0x4ba
    47e4:	91032400 	add	x0, x0, #0xc9
    47e8:	97fffb31 	bl	34ac <api_panic>
/home/hei/Desktop/optee-qemu/optee_os/lib/libutee/tee_api_arith_mpi.c:535 (discriminator 1)
    47ec:	52800001 	mov	w1, #0x0                   	// #0
    47f0:	aa1403e0 	mov	x0, x20
    47f4:	97fffe05 	bl	4008 <TEE_BigIntCmpS32>
    47f8:	34fffec0 	cbz	w0, 47d0 <TEE_BigIntInvMod+0x30>
/home/hei/Desktop/optee-qemu/optee_os/lib/libutee/tee_api_arith_mpi.c:543
    47fc:	910123f3 	add	x19, sp, #0x48
    4800:	aa1703e1 	mov	x1, x23
    4804:	aa1303e0 	mov	x0, x19
/home/hei/Desktop/optee-qemu/optee_os/lib/libutee/tee_api_arith_mpi.c:544
    4808:	9101e3f6 	add	x22, sp, #0x78
/home/hei/Desktop/optee-qemu/optee_os/lib/libutee/tee_api_arith_mpi.c:543
    480c:	97fffb40 	bl	350c <get_mpi>
/home/hei/Desktop/optee-qemu/optee_os/lib/libutee/tee_api_arith_mpi.c:544
    4810:	aa1503e1 	mov	x1, x21
    4814:	aa1603e0 	mov	x0, x22
    4818:	97fffb3d 	bl	350c <get_mpi>
/home/hei/Desktop/optee-qemu/optee_os/lib/libutee/tee_api_arith_mpi.c:546
    481c:	910183f5 	add	x21, sp, #0x60
    4820:	eb17029f 	cmp	x20, x23
    4824:	54000200 	b.eq	4864 <TEE_BigIntInvMod+0xc4>  // b.none
/home/hei/Desktop/optee-qemu/optee_os/lib/libutee/tee_api_arith_mpi.c:549
    4828:	aa1403e1 	mov	x1, x20
/home/hei/Desktop/optee-qemu/optee_os/lib/libutee/tee_api_arith_mpi.c:541
    482c:	aa1503f4 	mov	x20, x21
/home/hei/Desktop/optee-qemu/optee_os/lib/libutee/tee_api_arith_mpi.c:549
    4830:	aa1503e0 	mov	x0, x21
    4834:	97fffb36 	bl	350c <get_mpi>
/home/hei/Desktop/optee-qemu/optee_os/lib/libutee/tee_api_arith_mpi.c:551
    4838:	aa1603e2 	mov	x2, x22
    483c:	aa1403e1 	mov	x1, x20
    4840:	aa1303e0 	mov	x0, x19
    4844:	94000d67 	bl	7de0 <mbedtls_mpi_inv_mod>
    4848:	34000120 	cbz	w0, 486c <TEE_BigIntInvMod+0xcc>
/home/hei/Desktop/optee-qemu/optee_os/lib/libutee/tee_api_arith_mpi.c:551 (discriminator 1)
    484c:	2a0003e2 	mov	w2, w0
    4850:	528044e1 	mov	w1, #0x227                 	// #551
/home/hei/Desktop/optee-qemu/optee_os/lib/libutee/tee_api_arith_mpi.c:553 (discriminator 1)
    4854:	f0000020 	adrp	x0, b000 <__func__.3755+0x98>
    4858:	910bc400 	add	x0, x0, #0x2f1
    485c:	91032400 	add	x0, x0, #0xc9
    4860:	97fffb1f 	bl	34dc <mpi_panic>
/home/hei/Desktop/optee-qemu/optee_os/lib/libutee/tee_api_arith_mpi.c:547
    4864:	aa1303f4 	mov	x20, x19
    4868:	17fffff4 	b	4838 <TEE_BigIntInvMod+0x98>
/home/hei/Desktop/optee-qemu/optee_os/lib/libutee/tee_api_arith_mpi.c:553
    486c:	aa1703e1 	mov	x1, x23
    4870:	aa1303e0 	mov	x0, x19
    4874:	97fffb4c 	bl	35a4 <copy_mpi_to_bigint>
    4878:	34000080 	cbz	w0, 4888 <TEE_BigIntInvMod+0xe8>
/home/hei/Desktop/optee-qemu/optee_os/lib/libutee/tee_api_arith_mpi.c:553 (discriminator 1)
    487c:	2a0003e2 	mov	w2, w0
    4880:	52804521 	mov	w1, #0x229                 	// #553
    4884:	17fffff4 	b	4854 <TEE_BigIntInvMod+0xb4>
/home/hei/Desktop/optee-qemu/optee_os/lib/libutee/tee_api_arith_mpi.c:554
    4888:	aa1303e0 	mov	x0, x19
    488c:	940002cd 	bl	53c0 <mbedtls_mpi_free>
/home/hei/Desktop/optee-qemu/optee_os/lib/libutee/tee_api_arith_mpi.c:555
    4890:	aa1603e0 	mov	x0, x22
    4894:	940002cb 	bl	53c0 <mbedtls_mpi_free>
/home/hei/Desktop/optee-qemu/optee_os/lib/libutee/tee_api_arith_mpi.c:556
    4898:	eb15029f 	cmp	x20, x21
    489c:	54000061 	b.ne	48a8 <TEE_BigIntInvMod+0x108>  // b.any
/home/hei/Desktop/optee-qemu/optee_os/lib/libutee/tee_api_arith_mpi.c:557
    48a0:	aa1403e0 	mov	x0, x20
    48a4:	940002c7 	bl	53c0 <mbedtls_mpi_free>
/home/hei/Desktop/optee-qemu/optee_os/lib/libutee/tee_api_arith_mpi.c:558
    48a8:	a94153f3 	ldp	x19, x20, [sp, #16]
    48ac:	a9425bf5 	ldp	x21, x22, [sp, #32]
    48b0:	f9401bf7 	ldr	x23, [sp, #48]
    48b4:	a8c97bfd 	ldp	x29, x30, [sp], #144
    48b8:	d65f03c0 	ret

00000000000048bc <TEE_BigIntRelativePrime>:
TEE_BigIntRelativePrime():
/home/hei/Desktop/optee-qemu/optee_os/lib/libutee/tee_api_arith_mpi.c:561
    48bc:	a9b77bfd 	stp	x29, x30, [sp, #-144]!
    48c0:	910003fd 	mov	x29, sp
    48c4:	a90153f3 	stp	x19, x20, [sp, #16]
/home/hei/Desktop/optee-qemu/optee_os/lib/libutee/tee_api_arith_mpi.c:568
    48c8:	910123f4 	add	x20, sp, #0x48
/home/hei/Desktop/optee-qemu/optee_os/lib/libutee/tee_api_arith_mpi.c:561
    48cc:	aa0003f3 	mov	x19, x0
    48d0:	a9025bf5 	stp	x21, x22, [sp, #32]
    48d4:	aa0103f5 	mov	x21, x1
/home/hei/Desktop/optee-qemu/optee_os/lib/libutee/tee_api_arith_mpi.c:568
    48d8:	aa0003e1 	mov	x1, x0
    48dc:	aa1403e0 	mov	x0, x20
/home/hei/Desktop/optee-qemu/optee_os/lib/libutee/tee_api_arith_mpi.c:561
    48e0:	f9001bf7 	str	x23, [sp, #48]
/home/hei/Desktop/optee-qemu/optee_os/lib/libutee/tee_api_arith_mpi.c:568
    48e4:	97fffb0a 	bl	350c <get_mpi>
/home/hei/Desktop/optee-qemu/optee_os/lib/libutee/tee_api_arith_mpi.c:570
    48e8:	eb15027f 	cmp	x19, x21
    48ec:	910183f3 	add	x19, sp, #0x60
    48f0:	54000260 	b.eq	493c <TEE_BigIntRelativePrime+0x80>  // b.none
/home/hei/Desktop/optee-qemu/optee_os/lib/libutee/tee_api_arith_mpi.c:565
    48f4:	aa1303f6 	mov	x22, x19
/home/hei/Desktop/optee-qemu/optee_os/lib/libutee/tee_api_arith_mpi.c:573
    48f8:	aa1503e1 	mov	x1, x21
    48fc:	aa1303e0 	mov	x0, x19
    4900:	97fffb03 	bl	350c <get_mpi>
get_mpi():
/home/hei/Desktop/optee-qemu/optee_os/lib/libutee/tee_api_arith_mpi.c:101
    4904:	9101e3f5 	add	x21, sp, #0x78
    4908:	aa1503e0 	mov	x0, x21
    490c:	940002a3 	bl	5398 <mbedtls_mpi_init_mempool>
TEE_BigIntRelativePrime():
/home/hei/Desktop/optee-qemu/optee_os/lib/libutee/tee_api_arith_mpi.c:577
    4910:	aa1303e2 	mov	x2, x19
    4914:	aa1403e1 	mov	x1, x20
    4918:	aa1503e0 	mov	x0, x21
    491c:	94000bff 	bl	7918 <mbedtls_mpi_gcd>
    4920:	34000120 	cbz	w0, 4944 <TEE_BigIntRelativePrime+0x88>
/home/hei/Desktop/optee-qemu/optee_os/lib/libutee/tee_api_arith_mpi.c:577 (discriminator 1)
    4924:	2a0003e2 	mov	w2, w0
    4928:	f0000020 	adrp	x0, b000 <__func__.3755+0x98>
    492c:	910bc400 	add	x0, x0, #0x2f1
    4930:	52804821 	mov	w1, #0x241                 	// #577
    4934:	91036800 	add	x0, x0, #0xda
    4938:	97fffae9 	bl	34dc <mpi_panic>
/home/hei/Desktop/optee-qemu/optee_os/lib/libutee/tee_api_arith_mpi.c:571
    493c:	aa1403f6 	mov	x22, x20
    4940:	17fffff1 	b	4904 <TEE_BigIntRelativePrime+0x48>
/home/hei/Desktop/optee-qemu/optee_os/lib/libutee/tee_api_arith_mpi.c:579
    4944:	52800021 	mov	w1, #0x1                   	// #1
    4948:	aa1503e0 	mov	x0, x21
    494c:	94000595 	bl	5fa0 <mbedtls_mpi_cmp_int>
    4950:	7100001f 	cmp	w0, #0x0
    4954:	1a9f17f7 	cset	w23, eq  // eq = none
/home/hei/Desktop/optee-qemu/optee_os/lib/libutee/tee_api_arith_mpi.c:581
    4958:	aa1503e0 	mov	x0, x21
    495c:	94000299 	bl	53c0 <mbedtls_mpi_free>
/home/hei/Desktop/optee-qemu/optee_os/lib/libutee/tee_api_arith_mpi.c:582
    4960:	aa1403e0 	mov	x0, x20
    4964:	94000297 	bl	53c0 <mbedtls_mpi_free>
/home/hei/Desktop/optee-qemu/optee_os/lib/libutee/tee_api_arith_mpi.c:583
    4968:	eb1302df 	cmp	x22, x19
    496c:	54000061 	b.ne	4978 <TEE_BigIntRelativePrime+0xbc>  // b.any
/home/hei/Desktop/optee-qemu/optee_os/lib/libutee/tee_api_arith_mpi.c:584
    4970:	aa1603e0 	mov	x0, x22
    4974:	94000293 	bl	53c0 <mbedtls_mpi_free>
/home/hei/Desktop/optee-qemu/optee_os/lib/libutee/tee_api_arith_mpi.c:587
    4978:	2a1703e0 	mov	w0, w23
    497c:	a94153f3 	ldp	x19, x20, [sp, #16]
    4980:	a9425bf5 	ldp	x21, x22, [sp, #32]
    4984:	f9401bf7 	ldr	x23, [sp, #48]
    4988:	a8c97bfd 	ldp	x29, x30, [sp], #144
    498c:	d65f03c0 	ret

0000000000004990 <TEE_BigIntComputeExtendedGcd>:
TEE_BigIntComputeExtendedGcd():
/home/hei/Desktop/optee-qemu/optee_os/lib/libutee/tee_api_arith_mpi.c:698
    4990:	a9b17bfd 	stp	x29, x30, [sp, #-240]!
    4994:	910003fd 	mov	x29, sp
    4998:	a9025bf5 	stp	x21, x22, [sp, #32]
/home/hei/Desktop/optee-qemu/optee_os/lib/libutee/tee_api_arith_mpi.c:704
    499c:	9101e3f5 	add	x21, sp, #0x78
/home/hei/Desktop/optee-qemu/optee_os/lib/libutee/tee_api_arith_mpi.c:698
    49a0:	aa0303f6 	mov	x22, x3
    49a4:	a90153f3 	stp	x19, x20, [sp, #16]
    49a8:	aa0403f3 	mov	x19, x4
/home/hei/Desktop/optee-qemu/optee_os/lib/libutee/tee_api_arith_mpi.c:705
    49ac:	910243f4 	add	x20, sp, #0x90
/home/hei/Desktop/optee-qemu/optee_os/lib/libutee/tee_api_arith_mpi.c:698
    49b0:	a90363f7 	stp	x23, x24, [sp, #48]
    49b4:	9102a3f8 	add	x24, sp, #0xa8
    49b8:	a9046bf9 	stp	x25, x26, [sp, #64]
    49bc:	aa0203fa 	mov	x26, x2
    49c0:	aa0003f9 	mov	x25, x0
    49c4:	a90573fb 	stp	x27, x28, [sp, #80]
    49c8:	aa0103fb 	mov	x27, x1
/home/hei/Desktop/optee-qemu/optee_os/lib/libutee/tee_api_arith_mpi.c:704
    49cc:	aa0003e1 	mov	x1, x0
    49d0:	aa1503e0 	mov	x0, x21
    49d4:	97ffface 	bl	350c <get_mpi>
/home/hei/Desktop/optee-qemu/optee_os/lib/libutee/tee_api_arith_mpi.c:705
    49d8:	aa1603e1 	mov	x1, x22
    49dc:	aa1403e0 	mov	x0, x20
    49e0:	97fffacb 	bl	350c <get_mpi>
/home/hei/Desktop/optee-qemu/optee_os/lib/libutee/tee_api_arith_mpi.c:707
    49e4:	eb1302df 	cmp	x22, x19
    49e8:	54000260 	b.eq	4a34 <TEE_BigIntComputeExtendedGcd+0xa4>  // b.none
/home/hei/Desktop/optee-qemu/optee_os/lib/libutee/tee_api_arith_mpi.c:710
    49ec:	aa1303e1 	mov	x1, x19
/home/hei/Desktop/optee-qemu/optee_os/lib/libutee/tee_api_arith_mpi.c:702
    49f0:	aa1803f3 	mov	x19, x24
/home/hei/Desktop/optee-qemu/optee_os/lib/libutee/tee_api_arith_mpi.c:710
    49f4:	aa1803e0 	mov	x0, x24
    49f8:	97fffac5 	bl	350c <get_mpi>
/home/hei/Desktop/optee-qemu/optee_os/lib/libutee/tee_api_arith_mpi.c:712
    49fc:	aa1a0360 	orr	x0, x27, x26
    4a00:	b50001e0 	cbnz	x0, 4a3c <TEE_BigIntComputeExtendedGcd+0xac>
/home/hei/Desktop/optee-qemu/optee_os/lib/libutee/tee_api_arith_mpi.c:713
    4a04:	b4000b79 	cbz	x25, 4b70 <TEE_BigIntComputeExtendedGcd+0x1e0>
/home/hei/Desktop/optee-qemu/optee_os/lib/libutee/tee_api_arith_mpi.c:714
    4a08:	aa1303e2 	mov	x2, x19
    4a0c:	aa1403e1 	mov	x1, x20
    4a10:	aa1503e0 	mov	x0, x21
    4a14:	94000bc1 	bl	7918 <mbedtls_mpi_gcd>
    4a18:	34000ac0 	cbz	w0, 4b70 <TEE_BigIntComputeExtendedGcd+0x1e0>
/home/hei/Desktop/optee-qemu/optee_os/lib/libutee/tee_api_arith_mpi.c:714 (discriminator 1)
    4a1c:	2a0003e2 	mov	w2, w0
    4a20:	52805961 	mov	w1, #0x2cb                 	// #715
/home/hei/Desktop/optee-qemu/optee_os/lib/libutee/tee_api_arith_mpi.c:731 (discriminator 1)
    4a24:	f0000020 	adrp	x0, b000 <__func__.3755+0x98>
    4a28:	910bc400 	add	x0, x0, #0x2f1
    4a2c:	9103c800 	add	x0, x0, #0xf2
    4a30:	97fffaab 	bl	34dc <mpi_panic>
/home/hei/Desktop/optee-qemu/optee_os/lib/libutee/tee_api_arith_mpi.c:708
    4a34:	aa1403f3 	mov	x19, x20
    4a38:	17fffff1 	b	49fc <TEE_BigIntComputeExtendedGcd+0x6c>
/home/hei/Desktop/optee-qemu/optee_os/lib/libutee/tee_api_arith_mpi.c:720
    4a3c:	39c00260 	ldrsb	w0, [x19]
/home/hei/Desktop/optee-qemu/optee_os/lib/libutee/tee_api_arith_mpi.c:726
    4a40:	910303f7 	add	x23, sp, #0xc0
/home/hei/Desktop/optee-qemu/optee_os/lib/libutee/tee_api_arith_mpi.c:719
    4a44:	39c243fc 	ldrsb	w28, [sp, #144]
/home/hei/Desktop/optee-qemu/optee_os/lib/libutee/tee_api_arith_mpi.c:726
    4a48:	aa1b03e1 	mov	x1, x27
/home/hei/Desktop/optee-qemu/optee_os/lib/libutee/tee_api_arith_mpi.c:720
    4a4c:	b9006fe0 	str	w0, [sp, #108]
/home/hei/Desktop/optee-qemu/optee_os/lib/libutee/tee_api_arith_mpi.c:723
    4a50:	52800020 	mov	w0, #0x1                   	// #1
    4a54:	790123e0 	strh	w0, [sp, #144]
/home/hei/Desktop/optee-qemu/optee_os/lib/libutee/tee_api_arith_mpi.c:727
    4a58:	910363f6 	add	x22, sp, #0xd8
/home/hei/Desktop/optee-qemu/optee_os/lib/libutee/tee_api_arith_mpi.c:724
    4a5c:	79000260 	strh	w0, [x19]
/home/hei/Desktop/optee-qemu/optee_os/lib/libutee/tee_api_arith_mpi.c:726
    4a60:	aa1703e0 	mov	x0, x23
    4a64:	97fffaaa 	bl	350c <get_mpi>
/home/hei/Desktop/optee-qemu/optee_os/lib/libutee/tee_api_arith_mpi.c:727
    4a68:	aa1a03e1 	mov	x1, x26
    4a6c:	aa1603e0 	mov	x0, x22
    4a70:	97fffaa7 	bl	350c <get_mpi>
/home/hei/Desktop/optee-qemu/optee_os/lib/libutee/tee_api_arith_mpi.c:729
    4a74:	aa1303e1 	mov	x1, x19
    4a78:	aa1403e0 	mov	x0, x20
    4a7c:	940004ec 	bl	5e2c <mbedtls_mpi_cmp_abs>
/home/hei/Desktop/optee-qemu/optee_os/lib/libutee/tee_api_arith_mpi.c:730
    4a80:	7100001f 	cmp	w0, #0x0
    4a84:	540002c1 	b.ne	4adc <TEE_BigIntComputeExtendedGcd+0x14c>  // b.any
/home/hei/Desktop/optee-qemu/optee_os/lib/libutee/tee_api_arith_mpi.c:731
    4a88:	aa1403e1 	mov	x1, x20
    4a8c:	aa1503e0 	mov	x0, x21
    4a90:	940002ed 	bl	5644 <mbedtls_mpi_copy>
    4a94:	34000080 	cbz	w0, 4aa4 <TEE_BigIntComputeExtendedGcd+0x114>
/home/hei/Desktop/optee-qemu/optee_os/lib/libutee/tee_api_arith_mpi.c:731 (discriminator 1)
    4a98:	2a0003e2 	mov	w2, w0
    4a9c:	52805b61 	mov	w1, #0x2db                 	// #731
    4aa0:	17ffffe1 	b	4a24 <TEE_BigIntComputeExtendedGcd+0x94>
/home/hei/Desktop/optee-qemu/optee_os/lib/libutee/tee_api_arith_mpi.c:732
    4aa4:	52800021 	mov	w1, #0x1                   	// #1
    4aa8:	aa1703e0 	mov	x0, x23
    4aac:	94000394 	bl	58fc <mbedtls_mpi_lset>
    4ab0:	34000080 	cbz	w0, 4ac0 <TEE_BigIntComputeExtendedGcd+0x130>
/home/hei/Desktop/optee-qemu/optee_os/lib/libutee/tee_api_arith_mpi.c:732 (discriminator 1)
    4ab4:	2a0003e2 	mov	w2, w0
    4ab8:	52805b81 	mov	w1, #0x2dc                 	// #732
    4abc:	17ffffda 	b	4a24 <TEE_BigIntComputeExtendedGcd+0x94>
/home/hei/Desktop/optee-qemu/optee_os/lib/libutee/tee_api_arith_mpi.c:733
    4ac0:	52800001 	mov	w1, #0x0                   	// #0
    4ac4:	aa1603e0 	mov	x0, x22
    4ac8:	9400038d 	bl	58fc <mbedtls_mpi_lset>
    4acc:	34000160 	cbz	w0, 4af8 <TEE_BigIntComputeExtendedGcd+0x168>
/home/hei/Desktop/optee-qemu/optee_os/lib/libutee/tee_api_arith_mpi.c:733 (discriminator 1)
    4ad0:	2a0003e2 	mov	w2, w0
    4ad4:	52805ba1 	mov	w1, #0x2dd                 	// #733
    4ad8:	17ffffd3 	b	4a24 <TEE_BigIntComputeExtendedGcd+0x94>
/home/hei/Desktop/optee-qemu/optee_os/lib/libutee/tee_api_arith_mpi.c:734
    4adc:	540002ad 	b.le	4b30 <TEE_BigIntComputeExtendedGcd+0x1a0>
/home/hei/Desktop/optee-qemu/optee_os/lib/libutee/tee_api_arith_mpi.c:735
    4ae0:	aa1303e4 	mov	x4, x19
    4ae4:	aa1403e3 	mov	x3, x20
    4ae8:	aa1603e2 	mov	x2, x22
    4aec:	aa1703e1 	mov	x1, x23
/home/hei/Desktop/optee-qemu/optee_os/lib/libutee/tee_api_arith_mpi.c:737
    4af0:	aa1503e0 	mov	x0, x21
    4af4:	97fffb1d 	bl	3768 <mpi_egcd>
/home/hei/Desktop/optee-qemu/optee_os/lib/libutee/tee_api_arith_mpi.c:740
    4af8:	794183e0 	ldrh	w0, [sp, #192]
/home/hei/Desktop/optee-qemu/optee_os/lib/libutee/tee_api_arith_mpi.c:741
    4afc:	b9406fe1 	ldr	w1, [sp, #108]
/home/hei/Desktop/optee-qemu/optee_os/lib/libutee/tee_api_arith_mpi.c:740
    4b00:	1b007f9c 	mul	w28, w28, w0
/home/hei/Desktop/optee-qemu/optee_os/lib/libutee/tee_api_arith_mpi.c:741
    4b04:	7941b3e0 	ldrh	w0, [sp, #216]
/home/hei/Desktop/optee-qemu/optee_os/lib/libutee/tee_api_arith_mpi.c:740
    4b08:	790183fc 	strh	w28, [sp, #192]
/home/hei/Desktop/optee-qemu/optee_os/lib/libutee/tee_api_arith_mpi.c:741
    4b0c:	1b007c20 	mul	w0, w1, w0
/home/hei/Desktop/optee-qemu/optee_os/lib/libutee/tee_api_arith_mpi.c:743
    4b10:	aa1b03e1 	mov	x1, x27
/home/hei/Desktop/optee-qemu/optee_os/lib/libutee/tee_api_arith_mpi.c:741
    4b14:	7901b3e0 	strh	w0, [sp, #216]
/home/hei/Desktop/optee-qemu/optee_os/lib/libutee/tee_api_arith_mpi.c:743
    4b18:	aa1703e0 	mov	x0, x23
    4b1c:	97fffaa2 	bl	35a4 <copy_mpi_to_bigint>
    4b20:	34000120 	cbz	w0, 4b44 <TEE_BigIntComputeExtendedGcd+0x1b4>
/home/hei/Desktop/optee-qemu/optee_os/lib/libutee/tee_api_arith_mpi.c:743 (discriminator 1)
    4b24:	2a0003e2 	mov	w2, w0
    4b28:	52805ce1 	mov	w1, #0x2e7                 	// #743
    4b2c:	17ffffbe 	b	4a24 <TEE_BigIntComputeExtendedGcd+0x94>
/home/hei/Desktop/optee-qemu/optee_os/lib/libutee/tee_api_arith_mpi.c:737
    4b30:	aa1403e4 	mov	x4, x20
    4b34:	aa1303e3 	mov	x3, x19
    4b38:	aa1703e2 	mov	x2, x23
    4b3c:	aa1603e1 	mov	x1, x22
    4b40:	17ffffec 	b	4af0 <TEE_BigIntComputeExtendedGcd+0x160>
/home/hei/Desktop/optee-qemu/optee_os/lib/libutee/tee_api_arith_mpi.c:744
    4b44:	aa1a03e1 	mov	x1, x26
    4b48:	aa1603e0 	mov	x0, x22
    4b4c:	97fffa96 	bl	35a4 <copy_mpi_to_bigint>
    4b50:	34000080 	cbz	w0, 4b60 <TEE_BigIntComputeExtendedGcd+0x1d0>
/home/hei/Desktop/optee-qemu/optee_os/lib/libutee/tee_api_arith_mpi.c:744 (discriminator 1)
    4b54:	2a0003e2 	mov	w2, w0
    4b58:	52805d01 	mov	w1, #0x2e8                 	// #744
    4b5c:	17ffffb2 	b	4a24 <TEE_BigIntComputeExtendedGcd+0x94>
/home/hei/Desktop/optee-qemu/optee_os/lib/libutee/tee_api_arith_mpi.c:745
    4b60:	aa1703e0 	mov	x0, x23
    4b64:	94000217 	bl	53c0 <mbedtls_mpi_free>
/home/hei/Desktop/optee-qemu/optee_os/lib/libutee/tee_api_arith_mpi.c:746
    4b68:	aa1603e0 	mov	x0, x22
    4b6c:	94000215 	bl	53c0 <mbedtls_mpi_free>
/home/hei/Desktop/optee-qemu/optee_os/lib/libutee/tee_api_arith_mpi.c:749
    4b70:	aa1903e1 	mov	x1, x25
    4b74:	aa1503e0 	mov	x0, x21
    4b78:	97fffa8b 	bl	35a4 <copy_mpi_to_bigint>
    4b7c:	34000080 	cbz	w0, 4b8c <TEE_BigIntComputeExtendedGcd+0x1fc>
/home/hei/Desktop/optee-qemu/optee_os/lib/libutee/tee_api_arith_mpi.c:749 (discriminator 1)
    4b80:	2a0003e2 	mov	w2, w0
    4b84:	52805da1 	mov	w1, #0x2ed                 	// #749
    4b88:	17ffffa7 	b	4a24 <TEE_BigIntComputeExtendedGcd+0x94>
/home/hei/Desktop/optee-qemu/optee_os/lib/libutee/tee_api_arith_mpi.c:750
    4b8c:	aa1503e0 	mov	x0, x21
    4b90:	9400020c 	bl	53c0 <mbedtls_mpi_free>
/home/hei/Desktop/optee-qemu/optee_os/lib/libutee/tee_api_arith_mpi.c:751
    4b94:	aa1403e0 	mov	x0, x20
    4b98:	9400020a 	bl	53c0 <mbedtls_mpi_free>
/home/hei/Desktop/optee-qemu/optee_os/lib/libutee/tee_api_arith_mpi.c:752
    4b9c:	eb18027f 	cmp	x19, x24
    4ba0:	54000061 	b.ne	4bac <TEE_BigIntComputeExtendedGcd+0x21c>  // b.any
/home/hei/Desktop/optee-qemu/optee_os/lib/libutee/tee_api_arith_mpi.c:753
    4ba4:	aa1303e0 	mov	x0, x19
    4ba8:	94000206 	bl	53c0 <mbedtls_mpi_free>
/home/hei/Desktop/optee-qemu/optee_os/lib/libutee/tee_api_arith_mpi.c:754
    4bac:	a94153f3 	ldp	x19, x20, [sp, #16]
    4bb0:	a9425bf5 	ldp	x21, x22, [sp, #32]
    4bb4:	a94363f7 	ldp	x23, x24, [sp, #48]
    4bb8:	a9446bf9 	ldp	x25, x26, [sp, #64]
    4bbc:	a94573fb 	ldp	x27, x28, [sp, #80]
    4bc0:	a8cf7bfd 	ldp	x29, x30, [sp], #240
    4bc4:	d65f03c0 	ret

0000000000004bc8 <TEE_BigIntIsProbablePrime>:
TEE_BigIntIsProbablePrime():
/home/hei/Desktop/optee-qemu/optee_os/lib/libutee/tee_api_arith_mpi.c:765
    4bc8:	a9bc7bfd 	stp	x29, x30, [sp, #-64]!
/home/hei/Desktop/optee-qemu/optee_os/lib/libutee/tee_api_arith_mpi.c:769
    4bcc:	aa0003e1 	mov	x1, x0
/home/hei/Desktop/optee-qemu/optee_os/lib/libutee/tee_api_arith_mpi.c:765
    4bd0:	910003fd 	mov	x29, sp
    4bd4:	a90153f3 	stp	x19, x20, [sp, #16]
/home/hei/Desktop/optee-qemu/optee_os/lib/libutee/tee_api_arith_mpi.c:769
    4bd8:	9100a3f3 	add	x19, sp, #0x28
    4bdc:	aa1303e0 	mov	x0, x19
    4be0:	97fffa4b 	bl	350c <get_mpi>
/home/hei/Desktop/optee-qemu/optee_os/lib/libutee/tee_api_arith_mpi.c:771
    4be4:	f0ffffe1 	adrp	x1, 3000 <utee_authenc_init+0x8>
    4be8:	911d0021 	add	x1, x1, #0x740
    4bec:	d2800002 	mov	x2, #0x0                   	// #0
    4bf0:	aa1303e0 	mov	x0, x19
    4bf4:	94000db3 	bl	82c0 <mbedtls_mpi_is_prime>
    4bf8:	2a0003f4 	mov	w20, w0
/home/hei/Desktop/optee-qemu/optee_os/lib/libutee/tee_api_arith_mpi.c:773
    4bfc:	aa1303e0 	mov	x0, x19
    4c00:	940001f0 	bl	53c0 <mbedtls_mpi_free>
/home/hei/Desktop/optee-qemu/optee_os/lib/libutee/tee_api_arith_mpi.c:775
    4c04:	7100029f 	cmp	w20, #0x0
/home/hei/Desktop/optee-qemu/optee_os/lib/libutee/tee_api_arith_mpi.c:779
    4c08:	1a9f17e0 	cset	w0, eq  // eq = none
    4c0c:	a94153f3 	ldp	x19, x20, [sp, #16]
    4c10:	a8c47bfd 	ldp	x29, x30, [sp], #64
    4c14:	d65f03c0 	ret

0000000000004c18 <TEE_BigIntInitFMM>:
TEE_BigIntInitFMM():
/home/hei/Desktop/optee-qemu/optee_os/lib/libutee/tee_api_arith_mpi.c:791
    4c18:	17fffc3b 	b	3d04 <TEE_BigIntInit>

0000000000004c1c <TEE_BigIntInitFMMContext>:
TEE_BigIntInitFMMContext():
/home/hei/Desktop/optee-qemu/optee_os/lib/libutee/tee_api_arith_mpi.c:798
    4c1c:	d65f03c0 	ret

0000000000004c20 <TEE_BigIntFMMSizeInU32>:
TEE_BigIntFMMSizeInU32():
/home/hei/Desktop/optee-qemu/optee_os/lib/libutee/tee_api_arith_mpi.c:802
    4c20:	11007c00 	add	w0, w0, #0x1f
    4c24:	53057c00 	lsr	w0, w0, #5
/home/hei/Desktop/optee-qemu/optee_os/lib/libutee/tee_api_arith_mpi.c:803
    4c28:	11000800 	add	w0, w0, #0x2
    4c2c:	d65f03c0 	ret

0000000000004c30 <TEE_BigIntFMMContextSizeInU32>:
TEE_BigIntFMMContextSizeInU32():
/home/hei/Desktop/optee-qemu/optee_os/lib/libutee/tee_api_arith_mpi.c:809
    4c30:	52800020 	mov	w0, #0x1                   	// #1
    4c34:	d65f03c0 	ret

0000000000004c38 <TEE_BigIntConvertToFMM>:
TEE_BigIntConvertToFMM():
/home/hei/Desktop/optee-qemu/optee_os/lib/libutee/tee_api_arith_mpi.c:815
    4c38:	17fffeb5 	b	470c <TEE_BigIntMod>

0000000000004c3c <TEE_BigIntConvertFromFMM>:
TEE_BigIntConvertFromFMM():
/home/hei/Desktop/optee-qemu/optee_os/lib/libutee/tee_api_arith_mpi.c:821
    4c3c:	a9ba7bfd 	stp	x29, x30, [sp, #-96]!
    4c40:	910003fd 	mov	x29, sp
    4c44:	a90153f3 	stp	x19, x20, [sp, #16]
/home/hei/Desktop/optee-qemu/optee_os/lib/libutee/tee_api_arith_mpi.c:825
    4c48:	9100c3f3 	add	x19, sp, #0x30
/home/hei/Desktop/optee-qemu/optee_os/lib/libutee/tee_api_arith_mpi.c:826
    4c4c:	910123f4 	add	x20, sp, #0x48
/home/hei/Desktop/optee-qemu/optee_os/lib/libutee/tee_api_arith_mpi.c:821
    4c50:	a9025bf5 	stp	x21, x22, [sp, #32]
    4c54:	aa0103f6 	mov	x22, x1
    4c58:	aa0003f5 	mov	x21, x0
/home/hei/Desktop/optee-qemu/optee_os/lib/libutee/tee_api_arith_mpi.c:825
    4c5c:	aa0003e1 	mov	x1, x0
    4c60:	aa1303e0 	mov	x0, x19
    4c64:	97fffa2a 	bl	350c <get_mpi>
/home/hei/Desktop/optee-qemu/optee_os/lib/libutee/tee_api_arith_mpi.c:826
    4c68:	aa1603e1 	mov	x1, x22
    4c6c:	aa1403e0 	mov	x0, x20
    4c70:	97fffa27 	bl	350c <get_mpi>
/home/hei/Desktop/optee-qemu/optee_os/lib/libutee/tee_api_arith_mpi.c:828
    4c74:	aa1403e1 	mov	x1, x20
    4c78:	aa1303e0 	mov	x0, x19
    4c7c:	94000272 	bl	5644 <mbedtls_mpi_copy>
    4c80:	340000e0 	cbz	w0, 4c9c <TEE_BigIntConvertFromFMM+0x60>
/home/hei/Desktop/optee-qemu/optee_os/lib/libutee/tee_api_arith_mpi.c:828 (discriminator 1)
    4c84:	2a0003e2 	mov	w2, w0
    4c88:	52806781 	mov	w1, #0x33c                 	// #828
/home/hei/Desktop/optee-qemu/optee_os/lib/libutee/tee_api_arith_mpi.c:830 (discriminator 1)
    4c8c:	f0000020 	adrp	x0, b000 <__func__.3755+0x98>
    4c90:	910bc400 	add	x0, x0, #0x2f1
    4c94:	91043c00 	add	x0, x0, #0x10f
    4c98:	97fffa11 	bl	34dc <mpi_panic>
/home/hei/Desktop/optee-qemu/optee_os/lib/libutee/tee_api_arith_mpi.c:830
    4c9c:	aa1503e1 	mov	x1, x21
    4ca0:	aa1303e0 	mov	x0, x19
    4ca4:	97fffa40 	bl	35a4 <copy_mpi_to_bigint>
    4ca8:	34000080 	cbz	w0, 4cb8 <TEE_BigIntConvertFromFMM+0x7c>
/home/hei/Desktop/optee-qemu/optee_os/lib/libutee/tee_api_arith_mpi.c:830 (discriminator 1)
    4cac:	2a0003e2 	mov	w2, w0
    4cb0:	528067c1 	mov	w1, #0x33e                 	// #830
    4cb4:	17fffff6 	b	4c8c <TEE_BigIntConvertFromFMM+0x50>
/home/hei/Desktop/optee-qemu/optee_os/lib/libutee/tee_api_arith_mpi.c:831
    4cb8:	aa1303e0 	mov	x0, x19
    4cbc:	940001c1 	bl	53c0 <mbedtls_mpi_free>
/home/hei/Desktop/optee-qemu/optee_os/lib/libutee/tee_api_arith_mpi.c:832
    4cc0:	aa1403e0 	mov	x0, x20
    4cc4:	940001bf 	bl	53c0 <mbedtls_mpi_free>
/home/hei/Desktop/optee-qemu/optee_os/lib/libutee/tee_api_arith_mpi.c:833
    4cc8:	a94153f3 	ldp	x19, x20, [sp, #16]
    4ccc:	a9425bf5 	ldp	x21, x22, [sp, #32]
    4cd0:	a8c67bfd 	ldp	x29, x30, [sp], #96
    4cd4:	d65f03c0 	ret

0000000000004cd8 <TEE_BigIntComputeFMM>:
TEE_BigIntComputeFMM():
/home/hei/Desktop/optee-qemu/optee_os/lib/libutee/tee_api_arith_mpi.c:838
    4cd8:	a9b37bfd 	stp	x29, x30, [sp, #-208]!
    4cdc:	910003fd 	mov	x29, sp
    4ce0:	a90153f3 	stp	x19, x20, [sp, #16]
/home/hei/Desktop/optee-qemu/optee_os/lib/libutee/tee_api_arith_mpi.c:845
    4ce4:	910163f3 	add	x19, sp, #0x58
/home/hei/Desktop/optee-qemu/optee_os/lib/libutee/tee_api_arith_mpi.c:838
    4ce8:	aa0103f4 	mov	x20, x1
/home/hei/Desktop/optee-qemu/optee_os/lib/libutee/tee_api_arith_mpi.c:845
    4cec:	aa0003e1 	mov	x1, x0
/home/hei/Desktop/optee-qemu/optee_os/lib/libutee/tee_api_arith_mpi.c:838
    4cf0:	a9025bf5 	stp	x21, x22, [sp, #32]
/home/hei/Desktop/optee-qemu/optee_os/lib/libutee/tee_api_arith_mpi.c:846
    4cf4:	9101c3f5 	add	x21, sp, #0x70
/home/hei/Desktop/optee-qemu/optee_os/lib/libutee/tee_api_arith_mpi.c:838
    4cf8:	a90363f7 	stp	x23, x24, [sp, #48]
    4cfc:	aa0003f8 	mov	x24, x0
/home/hei/Desktop/optee-qemu/optee_os/lib/libutee/tee_api_arith_mpi.c:845
    4d00:	aa1303e0 	mov	x0, x19
/home/hei/Desktop/optee-qemu/optee_os/lib/libutee/tee_api_arith_mpi.c:838
    4d04:	a9040be3 	stp	x3, x2, [sp, #64]
/home/hei/Desktop/optee-qemu/optee_os/lib/libutee/tee_api_arith_mpi.c:845
    4d08:	97fffa01 	bl	350c <get_mpi>
/home/hei/Desktop/optee-qemu/optee_os/lib/libutee/tee_api_arith_mpi.c:846
    4d0c:	aa1403e1 	mov	x1, x20
    4d10:	aa1503e0 	mov	x0, x21
    4d14:	97fff9fe 	bl	350c <get_mpi>
/home/hei/Desktop/optee-qemu/optee_os/lib/libutee/tee_api_arith_mpi.c:847
    4d18:	f94027e2 	ldr	x2, [sp, #72]
    4d1c:	910223f6 	add	x22, sp, #0x88
    4d20:	aa1603e0 	mov	x0, x22
/home/hei/Desktop/optee-qemu/optee_os/lib/libutee/tee_api_arith_mpi.c:848
    4d24:	910283f7 	add	x23, sp, #0xa0
/home/hei/Desktop/optee-qemu/optee_os/lib/libutee/tee_api_arith_mpi.c:847
    4d28:	aa0203e1 	mov	x1, x2
get_mpi():
/home/hei/Desktop/optee-qemu/optee_os/lib/libutee/tee_api_arith_mpi.c:101
    4d2c:	9102e3f4 	add	x20, sp, #0xb8
TEE_BigIntComputeFMM():
/home/hei/Desktop/optee-qemu/optee_os/lib/libutee/tee_api_arith_mpi.c:847
    4d30:	97fff9f7 	bl	350c <get_mpi>
/home/hei/Desktop/optee-qemu/optee_os/lib/libutee/tee_api_arith_mpi.c:848
    4d34:	f94023e3 	ldr	x3, [sp, #64]
    4d38:	aa1703e0 	mov	x0, x23
    4d3c:	aa0303e1 	mov	x1, x3
    4d40:	97fff9f3 	bl	350c <get_mpi>
get_mpi():
/home/hei/Desktop/optee-qemu/optee_os/lib/libutee/tee_api_arith_mpi.c:101
    4d44:	aa1403e0 	mov	x0, x20
    4d48:	94000194 	bl	5398 <mbedtls_mpi_init_mempool>
TEE_BigIntComputeFMM():
/home/hei/Desktop/optee-qemu/optee_os/lib/libutee/tee_api_arith_mpi.c:851
    4d4c:	aa1603e2 	mov	x2, x22
    4d50:	aa1503e1 	mov	x1, x21
    4d54:	aa1403e0 	mov	x0, x20
    4d58:	94000587 	bl	6374 <mbedtls_mpi_mul_mpi>
    4d5c:	340000e0 	cbz	w0, 4d78 <TEE_BigIntComputeFMM+0xa0>
/home/hei/Desktop/optee-qemu/optee_os/lib/libutee/tee_api_arith_mpi.c:851 (discriminator 1)
    4d60:	2a0003e2 	mov	w2, w0
    4d64:	52806a61 	mov	w1, #0x353                 	// #851
/home/hei/Desktop/optee-qemu/optee_os/lib/libutee/tee_api_arith_mpi.c:852 (discriminator 1)
    4d68:	f0000020 	adrp	x0, b000 <__func__.3755+0x98>
    4d6c:	910bc400 	add	x0, x0, #0x2f1
    4d70:	9104a000 	add	x0, x0, #0x128
    4d74:	97fff9da 	bl	34dc <mpi_panic>
/home/hei/Desktop/optee-qemu/optee_os/lib/libutee/tee_api_arith_mpi.c:852
    4d78:	aa1703e2 	mov	x2, x23
    4d7c:	aa1403e1 	mov	x1, x20
    4d80:	aa1303e0 	mov	x0, x19
    4d84:	940007b1 	bl	6c48 <mbedtls_mpi_mod_mpi>
    4d88:	34000080 	cbz	w0, 4d98 <TEE_BigIntComputeFMM+0xc0>
/home/hei/Desktop/optee-qemu/optee_os/lib/libutee/tee_api_arith_mpi.c:852 (discriminator 1)
    4d8c:	2a0003e2 	mov	w2, w0
    4d90:	52806a81 	mov	w1, #0x354                 	// #852
    4d94:	17fffff5 	b	4d68 <TEE_BigIntComputeFMM+0x90>
/home/hei/Desktop/optee-qemu/optee_os/lib/libutee/tee_api_arith_mpi.c:854
    4d98:	aa1403e0 	mov	x0, x20
    4d9c:	94000189 	bl	53c0 <mbedtls_mpi_free>
/home/hei/Desktop/optee-qemu/optee_os/lib/libutee/tee_api_arith_mpi.c:855
    4da0:	aa1703e0 	mov	x0, x23
    4da4:	94000187 	bl	53c0 <mbedtls_mpi_free>
/home/hei/Desktop/optee-qemu/optee_os/lib/libutee/tee_api_arith_mpi.c:856
    4da8:	aa1603e0 	mov	x0, x22
    4dac:	94000185 	bl	53c0 <mbedtls_mpi_free>
/home/hei/Desktop/optee-qemu/optee_os/lib/libutee/tee_api_arith_mpi.c:857
    4db0:	aa1503e0 	mov	x0, x21
    4db4:	94000183 	bl	53c0 <mbedtls_mpi_free>
/home/hei/Desktop/optee-qemu/optee_os/lib/libutee/tee_api_arith_mpi.c:858
    4db8:	aa1803e1 	mov	x1, x24
    4dbc:	aa1303e0 	mov	x0, x19
    4dc0:	97fff9f9 	bl	35a4 <copy_mpi_to_bigint>
    4dc4:	34000080 	cbz	w0, 4dd4 <TEE_BigIntComputeFMM+0xfc>
/home/hei/Desktop/optee-qemu/optee_os/lib/libutee/tee_api_arith_mpi.c:858 (discriminator 1)
    4dc8:	2a0003e2 	mov	w2, w0
    4dcc:	52806b41 	mov	w1, #0x35a                 	// #858
    4dd0:	17ffffe6 	b	4d68 <TEE_BigIntComputeFMM+0x90>
/home/hei/Desktop/optee-qemu/optee_os/lib/libutee/tee_api_arith_mpi.c:859
    4dd4:	aa1303e0 	mov	x0, x19
    4dd8:	9400017a 	bl	53c0 <mbedtls_mpi_free>
/home/hei/Desktop/optee-qemu/optee_os/lib/libutee/tee_api_arith_mpi.c:860
    4ddc:	a94153f3 	ldp	x19, x20, [sp, #16]
    4de0:	a9425bf5 	ldp	x21, x22, [sp, #32]
    4de4:	a94363f7 	ldp	x23, x24, [sp, #48]
    4de8:	a8cd7bfd 	ldp	x29, x30, [sp], #208
    4dec:	d65f03c0 	ret

0000000000004df0 <mpi_get_digit>:
mpi_get_digit():
/home/hei/Desktop/optee-qemu/optee_os/lib/libmbedtls/mbedtls/library/bignum.c:489
    4df0:	12001c42 	and	w2, w2, #0xff
/home/hei/Desktop/optee-qemu/optee_os/lib/libmbedtls/mbedtls/library/bignum.c:492
    4df4:	5100c043 	sub	w3, w2, #0x30
    4df8:	12001c64 	and	w4, w3, #0xff
    4dfc:	7100249f 	cmp	w4, #0x9
    4e00:	540000e8 	b.hi	4e1c <mpi_get_digit+0x2c>  // b.pmore
/home/hei/Desktop/optee-qemu/optee_os/lib/libmbedtls/mbedtls/library/bignum.c:492 (discriminator 1)
    4e04:	b9000003 	str	w3, [x0]
/home/hei/Desktop/optee-qemu/optee_os/lib/libmbedtls/mbedtls/library/bignum.c:496
    4e08:	b9400000 	ldr	w0, [x0]
/home/hei/Desktop/optee-qemu/optee_os/lib/libmbedtls/mbedtls/library/bignum.c:497
    4e0c:	6b01001f 	cmp	w0, w1
/home/hei/Desktop/optee-qemu/optee_os/lib/libmbedtls/mbedtls/library/bignum.c:500
    4e10:	128000a0 	mov	w0, #0xfffffffa            	// #-6
    4e14:	1a9f2000 	csel	w0, w0, wzr, cs  // cs = hs, nlast
    4e18:	d65f03c0 	ret
/home/hei/Desktop/optee-qemu/optee_os/lib/libmbedtls/mbedtls/library/bignum.c:493
    4e1c:	51010443 	sub	w3, w2, #0x41
    4e20:	12001c63 	and	w3, w3, #0xff
    4e24:	7100147f 	cmp	w3, #0x5
    4e28:	54000088 	b.hi	4e38 <mpi_get_digit+0x48>  // b.pmore
/home/hei/Desktop/optee-qemu/optee_os/lib/libmbedtls/mbedtls/library/bignum.c:493 (discriminator 1)
    4e2c:	5100dc42 	sub	w2, w2, #0x37
/home/hei/Desktop/optee-qemu/optee_os/lib/libmbedtls/mbedtls/library/bignum.c:494
    4e30:	b9000002 	str	w2, [x0]
    4e34:	17fffff5 	b	4e08 <mpi_get_digit+0x18>
    4e38:	51018443 	sub	w3, w2, #0x61
    4e3c:	51015c42 	sub	w2, w2, #0x57
    4e40:	12001c63 	and	w3, w3, #0xff
    4e44:	7100187f 	cmp	w3, #0x6
    4e48:	52801fe3 	mov	w3, #0xff                  	// #255
    4e4c:	1a833042 	csel	w2, w2, w3, cc  // cc = lo, ul, last
    4e50:	17fffff8 	b	4e30 <mpi_get_digit+0x40>

0000000000004e54 <mpi_sub_hlp>:
mpi_sub_hlp():
/home/hei/Desktop/optee-qemu/optee_os/lib/libmbedtls/mbedtls/library/bignum.c:1089
    4e54:	52800005 	mov	w5, #0x0                   	// #0
    4e58:	d2800003 	mov	x3, #0x0                   	// #0
/home/hei/Desktop/optee-qemu/optee_os/lib/libmbedtls/mbedtls/library/bignum.c:1089 (discriminator 1)
    4e5c:	eb00007f 	cmp	x3, x0
    4e60:	54000081 	b.ne	4e70 <mpi_sub_hlp+0x1c>  // b.any
    4e64:	8b030843 	add	x3, x2, x3, lsl #2
/home/hei/Desktop/optee-qemu/optee_os/lib/libmbedtls/mbedtls/library/bignum.c:1095
    4e68:	350001c5 	cbnz	w5, 4ea0 <mpi_sub_hlp+0x4c>
/home/hei/Desktop/optee-qemu/optee_os/lib/libmbedtls/mbedtls/library/bignum.c:1100
    4e6c:	d65f03c0 	ret
/home/hei/Desktop/optee-qemu/optee_os/lib/libmbedtls/mbedtls/library/bignum.c:1091 (discriminator 3)
    4e70:	b8637844 	ldr	w4, [x2, x3, lsl #2]
    4e74:	6b05009f 	cmp	w4, w5
    4e78:	4b050084 	sub	w4, w4, w5
    4e7c:	b8237844 	str	w4, [x2, x3, lsl #2]
    4e80:	1a9f27e7 	cset	w7, cc  // cc = lo, ul, last
/home/hei/Desktop/optee-qemu/optee_os/lib/libmbedtls/mbedtls/library/bignum.c:1092 (discriminator 3)
    4e84:	b8637826 	ldr	w6, [x1, x3, lsl #2]
    4e88:	6b06009f 	cmp	w4, w6
    4e8c:	4b060084 	sub	w4, w4, w6
    4e90:	1a8724e5 	cinc	w5, w7, cc  // cc = lo, ul, last
    4e94:	b8237844 	str	w4, [x2, x3, lsl #2]
/home/hei/Desktop/optee-qemu/optee_os/lib/libmbedtls/mbedtls/library/bignum.c:1089 (discriminator 3)
    4e98:	91000463 	add	x3, x3, #0x1
    4e9c:	17fffff0 	b	4e5c <mpi_sub_hlp+0x8>
/home/hei/Desktop/optee-qemu/optee_os/lib/libmbedtls/mbedtls/library/bignum.c:1097
    4ea0:	b9400060 	ldr	w0, [x3]
    4ea4:	6b050005 	subs	w5, w0, w5
    4ea8:	b8004465 	str	w5, [x3], #4
/home/hei/Desktop/optee-qemu/optee_os/lib/libmbedtls/mbedtls/library/bignum.c:1098
    4eac:	1a9f27e5 	cset	w5, cc  // cc = lo, ul, last
    4eb0:	17ffffee 	b	4e68 <mpi_sub_hlp+0x14>

0000000000004eb4 <mpi_mul_hlp>:
mpi_mul_hlp():
/home/hei/Desktop/optee-qemu/optee_os/lib/libmbedtls/mbedtls/library/bignum.c:1284
    4eb4:	aa0203e4 	mov	x4, x2
    4eb8:	aa0103e6 	mov	x6, x1
    4ebc:	aa0003e8 	mov	x8, x0
/home/hei/Desktop/optee-qemu/optee_os/lib/libmbedtls/mbedtls/library/bignum.c:1267
    4ec0:	52800005 	mov	w5, #0x0                   	// #0
/home/hei/Desktop/optee-qemu/optee_os/lib/libmbedtls/mbedtls/library/bignum.c:1284 (discriminator 1)
    4ec4:	f1003d1f 	cmp	x8, #0xf
    4ec8:	b940008a 	ldr	w10, [x4]
    4ecc:	54000dc8 	b.hi	5084 <mpi_mul_hlp+0x1d0>  // b.pmore
    4ed0:	d344fc07 	lsr	x7, x0, #4
    4ed4:	928001e4 	mov	x4, #0xfffffffffffffff0    	// #-16
    4ed8:	9b0400e0 	madd	x0, x7, x4, x0
    4edc:	d37ae4e7 	lsl	x7, x7, #6
    4ee0:	8b070026 	add	x6, x1, x7
    4ee4:	8b070044 	add	x4, x2, x7
/home/hei/Desktop/optee-qemu/optee_os/lib/libmbedtls/mbedtls/library/bignum.c:1299
    4ee8:	f1001c1f 	cmp	x0, #0x7
    4eec:	54000b69 	b.ls	5058 <mpi_mul_hlp+0x1a4>  // b.plast
/home/hei/Desktop/optee-qemu/optee_os/lib/libmbedtls/mbedtls/library/bignum.c:1302
    4ef0:	b8676821 	ldr	w1, [x1, x7]
/home/hei/Desktop/optee-qemu/optee_os/lib/libmbedtls/mbedtls/library/bignum.c:1299
    4ef4:	d1002000 	sub	x0, x0, #0x8
/home/hei/Desktop/optee-qemu/optee_os/lib/libmbedtls/mbedtls/library/bignum.c:1306
    4ef8:	910080c6 	add	x6, x6, #0x20
    4efc:	91008084 	add	x4, x4, #0x20
/home/hei/Desktop/optee-qemu/optee_os/lib/libmbedtls/mbedtls/library/bignum.c:1302
    4f00:	9ba17c61 	umull	x1, w3, w1
    4f04:	d360fc28 	lsr	x8, x1, #32
    4f08:	0b0100a1 	add	w1, w5, w1
    4f0c:	6b0100bf 	cmp	w5, w1
    4f10:	0b010141 	add	w1, w10, w1
    4f14:	b8276841 	str	w1, [x2, x7]
    4f18:	1a889508 	cinc	w8, w8, hi  // hi = pmore
    4f1c:	6b01015f 	cmp	w10, w1
    4f20:	b85e40c1 	ldur	w1, [x6, #-28]
    4f24:	1a889508 	cinc	w8, w8, hi  // hi = pmore
    4f28:	b85e4082 	ldur	w2, [x4, #-28]
    4f2c:	9ba17c61 	umull	x1, w3, w1
    4f30:	d360fc25 	lsr	x5, x1, #32
    4f34:	0b010101 	add	w1, w8, w1
    4f38:	6b01011f 	cmp	w8, w1
    4f3c:	0b020021 	add	w1, w1, w2
    4f40:	b81e4081 	stur	w1, [x4, #-28]
    4f44:	1a8594a5 	cinc	w5, w5, hi  // hi = pmore
    4f48:	6b01005f 	cmp	w2, w1
/home/hei/Desktop/optee-qemu/optee_os/lib/libmbedtls/mbedtls/library/bignum.c:1303
    4f4c:	b85e80c1 	ldur	w1, [x6, #-24]
/home/hei/Desktop/optee-qemu/optee_os/lib/libmbedtls/mbedtls/library/bignum.c:1302
    4f50:	1a8594a5 	cinc	w5, w5, hi  // hi = pmore
/home/hei/Desktop/optee-qemu/optee_os/lib/libmbedtls/mbedtls/library/bignum.c:1303
    4f54:	9ba17c61 	umull	x1, w3, w1
    4f58:	d360fc22 	lsr	x2, x1, #32
    4f5c:	0b0100a1 	add	w1, w5, w1
    4f60:	6b0100bf 	cmp	w5, w1
    4f64:	b85e8085 	ldur	w5, [x4, #-24]
    4f68:	1a829442 	cinc	w2, w2, hi  // hi = pmore
    4f6c:	0b050021 	add	w1, w1, w5
    4f70:	b81e8081 	stur	w1, [x4, #-24]
    4f74:	6b0100bf 	cmp	w5, w1
    4f78:	b85ec0c1 	ldur	w1, [x6, #-20]
    4f7c:	1a829442 	cinc	w2, w2, hi  // hi = pmore
    4f80:	9ba17c61 	umull	x1, w3, w1
    4f84:	d360fc25 	lsr	x5, x1, #32
    4f88:	0b010041 	add	w1, w2, w1
    4f8c:	6b01005f 	cmp	w2, w1
    4f90:	b85ec082 	ldur	w2, [x4, #-20]
    4f94:	1a8594a5 	cinc	w5, w5, hi  // hi = pmore
    4f98:	0b020021 	add	w1, w1, w2
    4f9c:	b81ec081 	stur	w1, [x4, #-20]
    4fa0:	6b01005f 	cmp	w2, w1
/home/hei/Desktop/optee-qemu/optee_os/lib/libmbedtls/mbedtls/library/bignum.c:1305
    4fa4:	b85f00c1 	ldur	w1, [x6, #-16]
/home/hei/Desktop/optee-qemu/optee_os/lib/libmbedtls/mbedtls/library/bignum.c:1303
    4fa8:	1a8594a5 	cinc	w5, w5, hi  // hi = pmore
/home/hei/Desktop/optee-qemu/optee_os/lib/libmbedtls/mbedtls/library/bignum.c:1305
    4fac:	9ba17c61 	umull	x1, w3, w1
    4fb0:	d360fc22 	lsr	x2, x1, #32
    4fb4:	0b0100a1 	add	w1, w5, w1
    4fb8:	6b0100bf 	cmp	w5, w1
    4fbc:	b85f0085 	ldur	w5, [x4, #-16]
    4fc0:	1a829442 	cinc	w2, w2, hi  // hi = pmore
    4fc4:	0b050021 	add	w1, w1, w5
    4fc8:	b81f0081 	stur	w1, [x4, #-16]
    4fcc:	6b0100bf 	cmp	w5, w1
    4fd0:	b85f40c1 	ldur	w1, [x6, #-12]
    4fd4:	1a829442 	cinc	w2, w2, hi  // hi = pmore
    4fd8:	9ba17c61 	umull	x1, w3, w1
    4fdc:	d360fc25 	lsr	x5, x1, #32
    4fe0:	0b010041 	add	w1, w2, w1
    4fe4:	6b01005f 	cmp	w2, w1
    4fe8:	b85f4082 	ldur	w2, [x4, #-12]
    4fec:	1a8594a5 	cinc	w5, w5, hi  // hi = pmore
    4ff0:	0b020021 	add	w1, w1, w2
    4ff4:	b81f4081 	stur	w1, [x4, #-12]
    4ff8:	6b01005f 	cmp	w2, w1
/home/hei/Desktop/optee-qemu/optee_os/lib/libmbedtls/mbedtls/library/bignum.c:1306
    4ffc:	b85f80c1 	ldur	w1, [x6, #-8]
/home/hei/Desktop/optee-qemu/optee_os/lib/libmbedtls/mbedtls/library/bignum.c:1305
    5000:	1a8594a5 	cinc	w5, w5, hi  // hi = pmore
/home/hei/Desktop/optee-qemu/optee_os/lib/libmbedtls/mbedtls/library/bignum.c:1306
    5004:	9ba17c61 	umull	x1, w3, w1
    5008:	d360fc22 	lsr	x2, x1, #32
    500c:	0b0100a1 	add	w1, w5, w1
    5010:	6b0100bf 	cmp	w5, w1
    5014:	b85f8085 	ldur	w5, [x4, #-8]
    5018:	1a829442 	cinc	w2, w2, hi  // hi = pmore
    501c:	0b050021 	add	w1, w1, w5
    5020:	b81f8081 	stur	w1, [x4, #-8]
    5024:	6b0100bf 	cmp	w5, w1
    5028:	b85fc0c1 	ldur	w1, [x6, #-4]
    502c:	1a829442 	cinc	w2, w2, hi  // hi = pmore
    5030:	9ba17c61 	umull	x1, w3, w1
    5034:	d360fc25 	lsr	x5, x1, #32
    5038:	0b010041 	add	w1, w2, w1
    503c:	6b01005f 	cmp	w2, w1
    5040:	b85fc082 	ldur	w2, [x4, #-4]
    5044:	1a8594a5 	cinc	w5, w5, hi  // hi = pmore
    5048:	0b020021 	add	w1, w1, w2
    504c:	b81fc081 	stur	w1, [x4, #-4]
    5050:	6b01005f 	cmp	w2, w1
    5054:	1a8594a5 	cinc	w5, w5, hi  // hi = pmore
/home/hei/Desktop/optee-qemu/optee_os/lib/libmbedtls/mbedtls/library/bignum.c:1306 (discriminator 1)
    5058:	d2800001 	mov	x1, #0x0                   	// #0
    505c:	b8617888 	ldr	w8, [x4, x1, lsl #2]
/home/hei/Desktop/optee-qemu/optee_os/lib/libmbedtls/mbedtls/library/bignum.c:1310 (discriminator 1)
    5060:	eb00003f 	cmp	x1, x0
    5064:	54001761 	b.ne	5350 <mpi_mul_hlp+0x49c>  // b.any
    5068:	8b010884 	add	x4, x4, x1, lsl #2
/home/hei/Desktop/optee-qemu/optee_os/lib/libmbedtls/mbedtls/library/bignum.c:1321 (discriminator 1)
    506c:	b9400080 	ldr	w0, [x4]
    5070:	0b0000a0 	add	w0, w5, w0
    5074:	b8004480 	str	w0, [x4], #4
/home/hei/Desktop/optee-qemu/optee_os/lib/libmbedtls/mbedtls/library/bignum.c:1323 (discriminator 1)
    5078:	6b05001f 	cmp	w0, w5
    507c:	54001823 	b.cc	5380 <mpi_mul_hlp+0x4cc>  // b.lo, b.ul, b.last
/home/hei/Desktop/optee-qemu/optee_os/lib/libmbedtls/mbedtls/library/bignum.c:1324
    5080:	d65f03c0 	ret
/home/hei/Desktop/optee-qemu/optee_os/lib/libmbedtls/mbedtls/library/bignum.c:1287 (discriminator 2)
    5084:	b94000c7 	ldr	w7, [x6]
    5088:	910100c6 	add	x6, x6, #0x40
    508c:	91010084 	add	x4, x4, #0x40
/home/hei/Desktop/optee-qemu/optee_os/lib/libmbedtls/mbedtls/library/bignum.c:1284 (discriminator 2)
    5090:	d1004108 	sub	x8, x8, #0x10
/home/hei/Desktop/optee-qemu/optee_os/lib/libmbedtls/mbedtls/library/bignum.c:1287 (discriminator 2)
    5094:	9ba77c67 	umull	x7, w3, w7
    5098:	d360fce9 	lsr	x9, x7, #32
    509c:	0b0700a7 	add	w7, w5, w7
    50a0:	6b0700bf 	cmp	w5, w7
    50a4:	0b0a00e5 	add	w5, w7, w10
    50a8:	b81c0085 	stur	w5, [x4, #-64]
    50ac:	1a899529 	cinc	w9, w9, hi  // hi = pmore
    50b0:	6b0a00bf 	cmp	w5, w10
    50b4:	b85c40c5 	ldur	w5, [x6, #-60]
    50b8:	1a892529 	cinc	w9, w9, cc  // cc = lo, ul, last
    50bc:	9ba57c65 	umull	x5, w3, w5
    50c0:	d360fca7 	lsr	x7, x5, #32
    50c4:	0b050125 	add	w5, w9, w5
    50c8:	6b05013f 	cmp	w9, w5
    50cc:	b85c4089 	ldur	w9, [x4, #-60]
    50d0:	1a8794e7 	cinc	w7, w7, hi  // hi = pmore
    50d4:	0b050125 	add	w5, w9, w5
    50d8:	b81c4085 	stur	w5, [x4, #-60]
    50dc:	6b05013f 	cmp	w9, w5
/home/hei/Desktop/optee-qemu/optee_os/lib/libmbedtls/mbedtls/library/bignum.c:1288 (discriminator 2)
    50e0:	b85c80c5 	ldur	w5, [x6, #-56]
/home/hei/Desktop/optee-qemu/optee_os/lib/libmbedtls/mbedtls/library/bignum.c:1287 (discriminator 2)
    50e4:	1a8794e7 	cinc	w7, w7, hi  // hi = pmore
/home/hei/Desktop/optee-qemu/optee_os/lib/libmbedtls/mbedtls/library/bignum.c:1288 (discriminator 2)
    50e8:	9ba57c65 	umull	x5, w3, w5
    50ec:	d360fca9 	lsr	x9, x5, #32
    50f0:	0b0500e5 	add	w5, w7, w5
    50f4:	6b0500ff 	cmp	w7, w5
    50f8:	b85c8087 	ldur	w7, [x4, #-56]
    50fc:	1a899529 	cinc	w9, w9, hi  // hi = pmore
    5100:	0b0500e5 	add	w5, w7, w5
    5104:	b81c8085 	stur	w5, [x4, #-56]
    5108:	6b0500ff 	cmp	w7, w5
    510c:	b85cc0c5 	ldur	w5, [x6, #-52]
    5110:	1a899529 	cinc	w9, w9, hi  // hi = pmore
    5114:	9ba57c65 	umull	x5, w3, w5
    5118:	d360fca7 	lsr	x7, x5, #32
    511c:	0b050125 	add	w5, w9, w5
    5120:	6b05013f 	cmp	w9, w5
    5124:	b85cc089 	ldur	w9, [x4, #-52]
    5128:	1a8794e7 	cinc	w7, w7, hi  // hi = pmore
    512c:	0b050125 	add	w5, w9, w5
    5130:	b81cc085 	stur	w5, [x4, #-52]
    5134:	6b05013f 	cmp	w9, w5
/home/hei/Desktop/optee-qemu/optee_os/lib/libmbedtls/mbedtls/library/bignum.c:1289 (discriminator 2)
    5138:	b85d00c5 	ldur	w5, [x6, #-48]
/home/hei/Desktop/optee-qemu/optee_os/lib/libmbedtls/mbedtls/library/bignum.c:1288 (discriminator 2)
    513c:	1a8794e7 	cinc	w7, w7, hi  // hi = pmore
/home/hei/Desktop/optee-qemu/optee_os/lib/libmbedtls/mbedtls/library/bignum.c:1289 (discriminator 2)
    5140:	9ba57c65 	umull	x5, w3, w5
    5144:	d360fca9 	lsr	x9, x5, #32
    5148:	0b0500e5 	add	w5, w7, w5
    514c:	6b0500ff 	cmp	w7, w5
    5150:	b85d0087 	ldur	w7, [x4, #-48]
    5154:	1a899529 	cinc	w9, w9, hi  // hi = pmore
    5158:	0b0500e5 	add	w5, w7, w5
    515c:	b81d0085 	stur	w5, [x4, #-48]
    5160:	6b0500ff 	cmp	w7, w5
    5164:	b85d40c5 	ldur	w5, [x6, #-44]
    5168:	1a899529 	cinc	w9, w9, hi  // hi = pmore
    516c:	9ba57c65 	umull	x5, w3, w5
    5170:	d360fca7 	lsr	x7, x5, #32
    5174:	0b050125 	add	w5, w9, w5
    5178:	6b05013f 	cmp	w9, w5
    517c:	b85d4089 	ldur	w9, [x4, #-44]
    5180:	1a8794e7 	cinc	w7, w7, hi  // hi = pmore
    5184:	0b050125 	add	w5, w9, w5
    5188:	b81d4085 	stur	w5, [x4, #-44]
    518c:	6b05013f 	cmp	w9, w5
/home/hei/Desktop/optee-qemu/optee_os/lib/libmbedtls/mbedtls/library/bignum.c:1290 (discriminator 2)
    5190:	b85d80c5 	ldur	w5, [x6, #-40]
/home/hei/Desktop/optee-qemu/optee_os/lib/libmbedtls/mbedtls/library/bignum.c:1289 (discriminator 2)
    5194:	1a8794e7 	cinc	w7, w7, hi  // hi = pmore
/home/hei/Desktop/optee-qemu/optee_os/lib/libmbedtls/mbedtls/library/bignum.c:1290 (discriminator 2)
    5198:	9ba57c65 	umull	x5, w3, w5
    519c:	d360fca9 	lsr	x9, x5, #32
    51a0:	0b0500e5 	add	w5, w7, w5
    51a4:	6b0500ff 	cmp	w7, w5
    51a8:	b85d8087 	ldur	w7, [x4, #-40]
    51ac:	1a899529 	cinc	w9, w9, hi  // hi = pmore
    51b0:	0b0500e5 	add	w5, w7, w5
    51b4:	b81d8085 	stur	w5, [x4, #-40]
    51b8:	6b0500ff 	cmp	w7, w5
    51bc:	b85dc0c5 	ldur	w5, [x6, #-36]
    51c0:	1a899529 	cinc	w9, w9, hi  // hi = pmore
    51c4:	9ba57c65 	umull	x5, w3, w5
    51c8:	d360fca7 	lsr	x7, x5, #32
    51cc:	0b050125 	add	w5, w9, w5
    51d0:	6b05013f 	cmp	w9, w5
    51d4:	b85dc089 	ldur	w9, [x4, #-36]
    51d8:	1a8794e7 	cinc	w7, w7, hi  // hi = pmore
    51dc:	0b050125 	add	w5, w9, w5
    51e0:	b81dc085 	stur	w5, [x4, #-36]
    51e4:	6b05013f 	cmp	w9, w5
/home/hei/Desktop/optee-qemu/optee_os/lib/libmbedtls/mbedtls/library/bignum.c:1292 (discriminator 2)
    51e8:	b85e00c5 	ldur	w5, [x6, #-32]
/home/hei/Desktop/optee-qemu/optee_os/lib/libmbedtls/mbedtls/library/bignum.c:1290 (discriminator 2)
    51ec:	1a8794e7 	cinc	w7, w7, hi  // hi = pmore
/home/hei/Desktop/optee-qemu/optee_os/lib/libmbedtls/mbedtls/library/bignum.c:1292 (discriminator 2)
    51f0:	9ba57c65 	umull	x5, w3, w5
    51f4:	d360fca9 	lsr	x9, x5, #32
    51f8:	0b0500e5 	add	w5, w7, w5
    51fc:	6b0500ff 	cmp	w7, w5
    5200:	b85e0087 	ldur	w7, [x4, #-32]
    5204:	1a899529 	cinc	w9, w9, hi  // hi = pmore
    5208:	0b0500e5 	add	w5, w7, w5
    520c:	b81e0085 	stur	w5, [x4, #-32]
    5210:	6b0500ff 	cmp	w7, w5
    5214:	b85e40c5 	ldur	w5, [x6, #-28]
    5218:	1a899529 	cinc	w9, w9, hi  // hi = pmore
    521c:	9ba57c65 	umull	x5, w3, w5
    5220:	d360fca7 	lsr	x7, x5, #32
    5224:	0b050125 	add	w5, w9, w5
    5228:	6b05013f 	cmp	w9, w5
    522c:	b85e4089 	ldur	w9, [x4, #-28]
    5230:	1a8794e7 	cinc	w7, w7, hi  // hi = pmore
    5234:	0b050125 	add	w5, w9, w5
    5238:	b81e4085 	stur	w5, [x4, #-28]
    523c:	6b05013f 	cmp	w9, w5
/home/hei/Desktop/optee-qemu/optee_os/lib/libmbedtls/mbedtls/library/bignum.c:1293 (discriminator 2)
    5240:	b85e80c5 	ldur	w5, [x6, #-24]
/home/hei/Desktop/optee-qemu/optee_os/lib/libmbedtls/mbedtls/library/bignum.c:1292 (discriminator 2)
    5244:	1a8794e7 	cinc	w7, w7, hi  // hi = pmore
/home/hei/Desktop/optee-qemu/optee_os/lib/libmbedtls/mbedtls/library/bignum.c:1293 (discriminator 2)
    5248:	9ba57c65 	umull	x5, w3, w5
    524c:	d360fca9 	lsr	x9, x5, #32
    5250:	0b0500e5 	add	w5, w7, w5
    5254:	6b0500ff 	cmp	w7, w5
    5258:	b85e8087 	ldur	w7, [x4, #-24]
    525c:	1a899529 	cinc	w9, w9, hi  // hi = pmore
    5260:	0b0500e5 	add	w5, w7, w5
    5264:	b81e8085 	stur	w5, [x4, #-24]
    5268:	6b0500ff 	cmp	w7, w5
    526c:	b85ec0c5 	ldur	w5, [x6, #-20]
    5270:	1a899529 	cinc	w9, w9, hi  // hi = pmore
    5274:	9ba57c65 	umull	x5, w3, w5
    5278:	d360fca7 	lsr	x7, x5, #32
    527c:	0b050125 	add	w5, w9, w5
    5280:	6b05013f 	cmp	w9, w5
    5284:	b85ec089 	ldur	w9, [x4, #-20]
    5288:	1a8794e7 	cinc	w7, w7, hi  // hi = pmore
    528c:	0b050125 	add	w5, w9, w5
    5290:	b81ec085 	stur	w5, [x4, #-20]
    5294:	6b05013f 	cmp	w9, w5
/home/hei/Desktop/optee-qemu/optee_os/lib/libmbedtls/mbedtls/library/bignum.c:1294 (discriminator 2)
    5298:	b85f00c5 	ldur	w5, [x6, #-16]
/home/hei/Desktop/optee-qemu/optee_os/lib/libmbedtls/mbedtls/library/bignum.c:1293 (discriminator 2)
    529c:	1a8794e7 	cinc	w7, w7, hi  // hi = pmore
/home/hei/Desktop/optee-qemu/optee_os/lib/libmbedtls/mbedtls/library/bignum.c:1294 (discriminator 2)
    52a0:	9ba57c65 	umull	x5, w3, w5
    52a4:	d360fca9 	lsr	x9, x5, #32
    52a8:	0b0500e5 	add	w5, w7, w5
    52ac:	6b0500ff 	cmp	w7, w5
    52b0:	b85f0087 	ldur	w7, [x4, #-16]
    52b4:	1a899529 	cinc	w9, w9, hi  // hi = pmore
    52b8:	0b0500e5 	add	w5, w7, w5
    52bc:	b81f0085 	stur	w5, [x4, #-16]
    52c0:	6b0500ff 	cmp	w7, w5
    52c4:	b85f40c5 	ldur	w5, [x6, #-12]
    52c8:	1a899529 	cinc	w9, w9, hi  // hi = pmore
    52cc:	9ba57c65 	umull	x5, w3, w5
    52d0:	d360fca7 	lsr	x7, x5, #32
    52d4:	0b050125 	add	w5, w9, w5
    52d8:	6b05013f 	cmp	w9, w5
    52dc:	b85f4089 	ldur	w9, [x4, #-12]
    52e0:	1a8794e7 	cinc	w7, w7, hi  // hi = pmore
    52e4:	0b050125 	add	w5, w9, w5
    52e8:	b81f4085 	stur	w5, [x4, #-12]
    52ec:	6b05013f 	cmp	w9, w5
/home/hei/Desktop/optee-qemu/optee_os/lib/libmbedtls/mbedtls/library/bignum.c:1295 (discriminator 2)
    52f0:	b85f80c5 	ldur	w5, [x6, #-8]
/home/hei/Desktop/optee-qemu/optee_os/lib/libmbedtls/mbedtls/library/bignum.c:1294 (discriminator 2)
    52f4:	1a8794e7 	cinc	w7, w7, hi  // hi = pmore
/home/hei/Desktop/optee-qemu/optee_os/lib/libmbedtls/mbedtls/library/bignum.c:1295 (discriminator 2)
    52f8:	9ba57c65 	umull	x5, w3, w5
    52fc:	d360fca9 	lsr	x9, x5, #32
    5300:	0b0500e5 	add	w5, w7, w5
    5304:	6b0500ff 	cmp	w7, w5
    5308:	b85f8087 	ldur	w7, [x4, #-8]
    530c:	1a899529 	cinc	w9, w9, hi  // hi = pmore
    5310:	0b0500e5 	add	w5, w7, w5
    5314:	b81f8085 	stur	w5, [x4, #-8]
    5318:	6b0500ff 	cmp	w7, w5
    531c:	b85fc0c7 	ldur	w7, [x6, #-4]
    5320:	1a899529 	cinc	w9, w9, hi  // hi = pmore
    5324:	9ba77c67 	umull	x7, w3, w7
    5328:	d360fce5 	lsr	x5, x7, #32
    532c:	0b070127 	add	w7, w9, w7
    5330:	6b07013f 	cmp	w9, w7
    5334:	b85fc089 	ldur	w9, [x4, #-4]
    5338:	1a8594a5 	cinc	w5, w5, hi  // hi = pmore
    533c:	0b070127 	add	w7, w9, w7
    5340:	b81fc087 	stur	w7, [x4, #-4]
    5344:	6b07013f 	cmp	w9, w7
    5348:	1a8594a5 	cinc	w5, w5, hi  // hi = pmore
    534c:	17fffede 	b	4ec4 <mpi_mul_hlp+0x10>
/home/hei/Desktop/optee-qemu/optee_os/lib/libmbedtls/mbedtls/library/bignum.c:1313 (discriminator 2)
    5350:	b86178c2 	ldr	w2, [x6, x1, lsl #2]
    5354:	9ba27c62 	umull	x2, w3, w2
    5358:	d360fc47 	lsr	x7, x2, #32
    535c:	0b0200a2 	add	w2, w5, w2
    5360:	6b0200bf 	cmp	w5, w2
    5364:	0b020102 	add	w2, w8, w2
    5368:	1a8794e5 	cinc	w5, w7, hi  // hi = pmore
    536c:	6b02011f 	cmp	w8, w2
    5370:	1a8594a5 	cinc	w5, w5, hi  // hi = pmore
    5374:	b8217882 	str	w2, [x4, x1, lsl #2]
    5378:	91000421 	add	x1, x1, #0x1
    537c:	17ffff38 	b	505c <mpi_mul_hlp+0x1a8>
/home/hei/Desktop/optee-qemu/optee_os/lib/libmbedtls/mbedtls/library/bignum.c:1321
    5380:	52800025 	mov	w5, #0x1                   	// #1
    5384:	17ffff3a 	b	506c <mpi_mul_hlp+0x1b8>

0000000000005388 <mbedtls_mpi_init>:
mpi_init():
/home/hei/Desktop/optee-qemu/optee_os/lib/libmbedtls/mbedtls/library/bignum.c:98
    5388:	52800021 	mov	w1, #0x1                   	// #1
    538c:	b9000001 	str	w1, [x0]
/home/hei/Desktop/optee-qemu/optee_os/lib/libmbedtls/mbedtls/library/bignum.c:101
    5390:	a900fc1f 	stp	xzr, xzr, [x0, #8]
mbedtls_mpi_init():
/home/hei/Desktop/optee-qemu/optee_os/lib/libmbedtls/mbedtls/library/bignum.c:107
    5394:	d65f03c0 	ret

0000000000005398 <mbedtls_mpi_init_mempool>:
mbedtls_mpi_init_mempool():
/home/hei/Desktop/optee-qemu/optee_os/lib/libmbedtls/mbedtls/library/bignum.c:111
    5398:	f0000021 	adrp	x1, c000 <_DYNAMIC>
mpi_init():
/home/hei/Desktop/optee-qemu/optee_os/lib/libmbedtls/mbedtls/library/bignum.c:98
    539c:	52800022 	mov	w2, #0x1                   	// #1
/home/hei/Desktop/optee-qemu/optee_os/lib/libmbedtls/mbedtls/library/bignum.c:101
    53a0:	a900fc1f 	stp	xzr, xzr, [x0, #8]
mbedtls_mpi_init_mempool():
/home/hei/Desktop/optee-qemu/optee_os/lib/libmbedtls/mbedtls/library/bignum.c:111
    53a4:	f940d021 	ldr	x1, [x1, #416]
    53a8:	f9400021 	ldr	x1, [x1]
mpi_init():
/home/hei/Desktop/optee-qemu/optee_os/lib/libmbedtls/mbedtls/library/bignum.c:98
    53ac:	79000002 	strh	w2, [x0]
mbedtls_mpi_init_mempool():
/home/hei/Desktop/optee-qemu/optee_os/lib/libmbedtls/mbedtls/library/bignum.c:111
    53b0:	f100003f 	cmp	x1, #0x0
    53b4:	1a9f07e1 	cset	w1, ne  // ne = any
mpi_init():
/home/hei/Desktop/optee-qemu/optee_os/lib/libmbedtls/mbedtls/library/bignum.c:99
    53b8:	79000401 	strh	w1, [x0, #2]
mbedtls_mpi_init_mempool():
/home/hei/Desktop/optee-qemu/optee_os/lib/libmbedtls/mbedtls/library/bignum.c:112
    53bc:	d65f03c0 	ret

00000000000053c0 <mbedtls_mpi_free>:
mbedtls_mpi_free():
/home/hei/Desktop/optee-qemu/optee_os/lib/libmbedtls/mbedtls/library/bignum.c:119
    53c0:	b4000340 	cbz	x0, 5428 <mbedtls_mpi_free+0x68>
/home/hei/Desktop/optee-qemu/optee_os/lib/libmbedtls/mbedtls/library/bignum.c:118
    53c4:	a9be7bfd 	stp	x29, x30, [sp, #-32]!
    53c8:	910003fd 	mov	x29, sp
    53cc:	f9000bf3 	str	x19, [sp, #16]
    53d0:	aa0003f3 	mov	x19, x0
/home/hei/Desktop/optee-qemu/optee_os/lib/libmbedtls/mbedtls/library/bignum.c:122
    53d4:	f9400800 	ldr	x0, [x0, #16]
    53d8:	b4000160 	cbz	x0, 5404 <mbedtls_mpi_free+0x44>
mbedtls_mpi_zeroize():
/home/hei/Desktop/optee-qemu/optee_os/lib/libmbedtls/mbedtls/library/bignum.c:88
    53dc:	f9400661 	ldr	x1, [x19, #8]
    53e0:	d37ef421 	lsl	x1, x1, #2
    53e4:	94000d75 	bl	89b8 <mbedtls_platform_zeroize>
mbedtls_mpi_free():
/home/hei/Desktop/optee-qemu/optee_os/lib/libmbedtls/mbedtls/library/bignum.c:125
    53e8:	79c00660 	ldrsh	w0, [x19, #2]
    53ec:	34000180 	cbz	w0, 541c <mbedtls_mpi_free+0x5c>
/home/hei/Desktop/optee-qemu/optee_os/lib/libmbedtls/mbedtls/library/bignum.c:126
    53f0:	f0000020 	adrp	x0, c000 <_DYNAMIC>
    53f4:	f9400a61 	ldr	x1, [x19, #16]
    53f8:	f940d000 	ldr	x0, [x0, #416]
    53fc:	f9400000 	ldr	x0, [x0]
    5400:	94000e16 	bl	8c58 <mempool_free>
/home/hei/Desktop/optee-qemu/optee_os/lib/libmbedtls/mbedtls/library/bignum.c:131
    5404:	52800020 	mov	w0, #0x1                   	// #1
    5408:	79000260 	strh	w0, [x19]
/home/hei/Desktop/optee-qemu/optee_os/lib/libmbedtls/mbedtls/library/bignum.c:133
    540c:	a900fe7f 	stp	xzr, xzr, [x19, #8]
/home/hei/Desktop/optee-qemu/optee_os/lib/libmbedtls/mbedtls/library/bignum.c:134
    5410:	f9400bf3 	ldr	x19, [sp, #16]
    5414:	a8c27bfd 	ldp	x29, x30, [sp], #32
    5418:	d65f03c0 	ret
/home/hei/Desktop/optee-qemu/optee_os/lib/libmbedtls/mbedtls/library/bignum.c:128
    541c:	f9400a60 	ldr	x0, [x19, #16]
    5420:	97ffefc3 	bl	132c <free>
    5424:	17fffff8 	b	5404 <mbedtls_mpi_free+0x44>
    5428:	d65f03c0 	ret

000000000000542c <mbedtls_mpi_grow>:
mbedtls_mpi_grow():
/home/hei/Desktop/optee-qemu/optee_os/lib/libmbedtls/mbedtls/library/bignum.c:144
    542c:	d284e202 	mov	x2, #0x2710                	// #10000
    5430:	eb02003f 	cmp	x1, x2
    5434:	54000069 	b.ls	5440 <mbedtls_mpi_grow+0x14>  // b.plast
/home/hei/Desktop/optee-qemu/optee_os/lib/libmbedtls/mbedtls/library/bignum.c:145
    5438:	128001e0 	mov	w0, #0xfffffff0            	// #-16
/home/hei/Desktop/optee-qemu/optee_os/lib/libmbedtls/mbedtls/library/bignum.c:178
    543c:	d65f03c0 	ret
/home/hei/Desktop/optee-qemu/optee_os/lib/libmbedtls/mbedtls/library/bignum.c:147
    5440:	f9400402 	ldr	x2, [x0, #8]
    5444:	eb01005f 	cmp	x2, x1
    5448:	540006a2 	b.cs	551c <mbedtls_mpi_grow+0xf0>  // b.hs, b.nlast
/home/hei/Desktop/optee-qemu/optee_os/lib/libmbedtls/mbedtls/library/bignum.c:140
    544c:	a9bc7bfd 	stp	x29, x30, [sp, #-64]!
    5450:	910003fd 	mov	x29, sp
    5454:	a90153f3 	stp	x19, x20, [sp, #16]
    5458:	aa0003f3 	mov	x19, x0
/home/hei/Desktop/optee-qemu/optee_os/lib/libmbedtls/mbedtls/library/bignum.c:149
    545c:	79c00400 	ldrsh	w0, [x0, #2]
/home/hei/Desktop/optee-qemu/optee_os/lib/libmbedtls/mbedtls/library/bignum.c:140
    5460:	f90013f5 	str	x21, [sp, #32]
    5464:	aa0103f4 	mov	x20, x1
/home/hei/Desktop/optee-qemu/optee_os/lib/libmbedtls/mbedtls/library/bignum.c:149
    5468:	34000400 	cbz	w0, 54e8 <mbedtls_mpi_grow+0xbc>
/home/hei/Desktop/optee-qemu/optee_os/lib/libmbedtls/mbedtls/library/bignum.c:151
    546c:	f0000020 	adrp	x0, c000 <_DYNAMIC>
    5470:	d37ef422 	lsl	x2, x1, #2
    5474:	aa0203e1 	mov	x1, x2
    5478:	f9001fe2 	str	x2, [sp, #56]
    547c:	f940d000 	ldr	x0, [x0, #416]
    5480:	f9400000 	ldr	x0, [x0]
    5484:	94000db6 	bl	8b5c <mempool_alloc>
    5488:	aa0003f5 	mov	x21, x0
/home/hei/Desktop/optee-qemu/optee_os/lib/libmbedtls/mbedtls/library/bignum.c:152
    548c:	b4000380 	cbz	x0, 54fc <mbedtls_mpi_grow+0xd0>
/home/hei/Desktop/optee-qemu/optee_os/lib/libmbedtls/mbedtls/library/bignum.c:154
    5490:	f9401fe2 	ldr	x2, [sp, #56]
    5494:	52800001 	mov	w1, #0x0                   	// #0
    5498:	97fff080 	bl	1698 <memset>
/home/hei/Desktop/optee-qemu/optee_os/lib/libmbedtls/mbedtls/library/bignum.c:163
    549c:	f9400a61 	ldr	x1, [x19, #16]
    54a0:	b40001e1 	cbz	x1, 54dc <mbedtls_mpi_grow+0xb0>
/home/hei/Desktop/optee-qemu/optee_os/lib/libmbedtls/mbedtls/library/bignum.c:165
    54a4:	f9400662 	ldr	x2, [x19, #8]
    54a8:	aa1503e0 	mov	x0, x21
    54ac:	d37ef442 	lsl	x2, x2, #2
    54b0:	97ffec25 	bl	544 <memcpy>
mbedtls_mpi_zeroize():
/home/hei/Desktop/optee-qemu/optee_os/lib/libmbedtls/mbedtls/library/bignum.c:88
    54b4:	a9408261 	ldp	x1, x0, [x19, #8]
    54b8:	d37ef421 	lsl	x1, x1, #2
    54bc:	94000d3f 	bl	89b8 <mbedtls_platform_zeroize>
mbedtls_mpi_grow():
/home/hei/Desktop/optee-qemu/optee_os/lib/libmbedtls/mbedtls/library/bignum.c:167
    54c0:	79c00660 	ldrsh	w0, [x19, #2]
    54c4:	34000260 	cbz	w0, 5510 <mbedtls_mpi_grow+0xe4>
/home/hei/Desktop/optee-qemu/optee_os/lib/libmbedtls/mbedtls/library/bignum.c:168
    54c8:	f0000020 	adrp	x0, c000 <_DYNAMIC>
    54cc:	f9400a61 	ldr	x1, [x19, #16]
    54d0:	f940d000 	ldr	x0, [x0, #416]
    54d4:	f9400000 	ldr	x0, [x0]
    54d8:	94000de0 	bl	8c58 <mempool_free>
/home/hei/Desktop/optee-qemu/optee_os/lib/libmbedtls/mbedtls/library/bignum.c:177
    54dc:	52800000 	mov	w0, #0x0                   	// #0
/home/hei/Desktop/optee-qemu/optee_os/lib/libmbedtls/mbedtls/library/bignum.c:174
    54e0:	a900d674 	stp	x20, x21, [x19, #8]
    54e4:	14000007 	b	5500 <mbedtls_mpi_grow+0xd4>
/home/hei/Desktop/optee-qemu/optee_os/lib/libmbedtls/mbedtls/library/bignum.c:158
    54e8:	d2800081 	mov	x1, #0x4                   	// #4
    54ec:	aa1403e0 	mov	x0, x20
    54f0:	97ffef62 	bl	1278 <calloc>
    54f4:	aa0003f5 	mov	x21, x0
/home/hei/Desktop/optee-qemu/optee_os/lib/libmbedtls/mbedtls/library/bignum.c:159
    54f8:	b5fffd20 	cbnz	x0, 549c <mbedtls_mpi_grow+0x70>
/home/hei/Desktop/optee-qemu/optee_os/lib/libmbedtls/mbedtls/library/bignum.c:145
    54fc:	128001e0 	mov	w0, #0xfffffff0            	// #-16
/home/hei/Desktop/optee-qemu/optee_os/lib/libmbedtls/mbedtls/library/bignum.c:178
    5500:	a94153f3 	ldp	x19, x20, [sp, #16]
    5504:	f94013f5 	ldr	x21, [sp, #32]
    5508:	a8c47bfd 	ldp	x29, x30, [sp], #64
    550c:	d65f03c0 	ret
/home/hei/Desktop/optee-qemu/optee_os/lib/libmbedtls/mbedtls/library/bignum.c:170
    5510:	f9400a60 	ldr	x0, [x19, #16]
    5514:	97ffef86 	bl	132c <free>
    5518:	17fffff1 	b	54dc <mbedtls_mpi_grow+0xb0>
/home/hei/Desktop/optee-qemu/optee_os/lib/libmbedtls/mbedtls/library/bignum.c:177
    551c:	52800000 	mov	w0, #0x0                   	// #0
    5520:	d65f03c0 	ret

0000000000005524 <mbedtls_mpi_shrink>:
mbedtls_mpi_shrink():
/home/hei/Desktop/optee-qemu/optee_os/lib/libmbedtls/mbedtls/library/bignum.c:190
    5524:	d284e203 	mov	x3, #0x2710                	// #10000
    5528:	eb03003f 	cmp	x1, x3
    552c:	54000069 	b.ls	5538 <mbedtls_mpi_shrink+0x14>  // b.plast
/home/hei/Desktop/optee-qemu/optee_os/lib/libmbedtls/mbedtls/library/bignum.c:191
    5530:	128001e0 	mov	w0, #0xfffffff0            	// #-16
/home/hei/Desktop/optee-qemu/optee_os/lib/libmbedtls/mbedtls/library/bignum.c:233
    5534:	d65f03c0 	ret
/home/hei/Desktop/optee-qemu/optee_os/lib/libmbedtls/mbedtls/library/bignum.c:185
    5538:	a9bd7bfd 	stp	x29, x30, [sp, #-48]!
    553c:	aa0103e2 	mov	x2, x1
    5540:	910003fd 	mov	x29, sp
/home/hei/Desktop/optee-qemu/optee_os/lib/libmbedtls/mbedtls/library/bignum.c:194
    5544:	f9400403 	ldr	x3, [x0, #8]
/home/hei/Desktop/optee-qemu/optee_os/lib/libmbedtls/mbedtls/library/bignum.c:185
    5548:	a90153f3 	stp	x19, x20, [sp, #16]
    554c:	a9025bf5 	stp	x21, x22, [sp, #32]
/home/hei/Desktop/optee-qemu/optee_os/lib/libmbedtls/mbedtls/library/bignum.c:194
    5550:	eb01007f 	cmp	x3, x1
    5554:	aa0003f5 	mov	x21, x0
    5558:	540000a8 	b.hi	556c <mbedtls_mpi_shrink+0x48>  // b.pmore
/home/hei/Desktop/optee-qemu/optee_os/lib/libmbedtls/mbedtls/library/bignum.c:233
    555c:	a94153f3 	ldp	x19, x20, [sp, #16]
    5560:	a9425bf5 	ldp	x21, x22, [sp, #32]
    5564:	a8c37bfd 	ldp	x29, x30, [sp], #48
/home/hei/Desktop/optee-qemu/optee_os/lib/libmbedtls/mbedtls/library/bignum.c:195
    5568:	17ffffb1 	b	542c <mbedtls_mpi_grow>
/home/hei/Desktop/optee-qemu/optee_os/lib/libmbedtls/mbedtls/library/bignum.c:197
    556c:	d1000461 	sub	x1, x3, #0x1
/home/hei/Desktop/optee-qemu/optee_os/lib/libmbedtls/mbedtls/library/bignum.c:197 (discriminator 1)
    5570:	b5000481 	cbnz	x1, 5600 <mbedtls_mpi_shrink+0xdc>
/home/hei/Desktop/optee-qemu/optee_os/lib/libmbedtls/mbedtls/library/bignum.c:200
    5574:	91000421 	add	x1, x1, #0x1
    5578:	aa0203e0 	mov	x0, x2
/home/hei/Desktop/optee-qemu/optee_os/lib/libmbedtls/mbedtls/library/bignum.c:202
    557c:	eb01005f 	cmp	x2, x1
    5580:	9a812054 	csel	x20, x2, x1, cs  // cs = hs, nlast
/home/hei/Desktop/optee-qemu/optee_os/lib/libmbedtls/mbedtls/library/bignum.c:205
    5584:	79c006a1 	ldrsh	w1, [x21, #2]
    5588:	34000461 	cbz	w1, 5614 <mbedtls_mpi_shrink+0xf0>
/home/hei/Desktop/optee-qemu/optee_os/lib/libmbedtls/mbedtls/library/bignum.c:207
    558c:	f0000020 	adrp	x0, c000 <_DYNAMIC>
    5590:	d37ef453 	lsl	x19, x2, #2
    5594:	aa1303e1 	mov	x1, x19
    5598:	f940d000 	ldr	x0, [x0, #416]
    559c:	f9400000 	ldr	x0, [x0]
    55a0:	94000d6f 	bl	8b5c <mempool_alloc>
    55a4:	aa0003f6 	mov	x22, x0
/home/hei/Desktop/optee-qemu/optee_os/lib/libmbedtls/mbedtls/library/bignum.c:208
    55a8:	b40003e0 	cbz	x0, 5624 <mbedtls_mpi_shrink+0x100>
/home/hei/Desktop/optee-qemu/optee_os/lib/libmbedtls/mbedtls/library/bignum.c:210
    55ac:	aa1303e2 	mov	x2, x19
    55b0:	52800001 	mov	w1, #0x0                   	// #0
    55b4:	97fff039 	bl	1698 <memset>
/home/hei/Desktop/optee-qemu/optee_os/lib/libmbedtls/mbedtls/library/bignum.c:219
    55b8:	f9400aa1 	ldr	x1, [x21, #16]
    55bc:	b40001c1 	cbz	x1, 55f4 <mbedtls_mpi_shrink+0xd0>
/home/hei/Desktop/optee-qemu/optee_os/lib/libmbedtls/mbedtls/library/bignum.c:221
    55c0:	d37ef682 	lsl	x2, x20, #2
    55c4:	aa1603e0 	mov	x0, x22
    55c8:	97ffebdf 	bl	544 <memcpy>
mbedtls_mpi_zeroize():
/home/hei/Desktop/optee-qemu/optee_os/lib/libmbedtls/mbedtls/library/bignum.c:88
    55cc:	a94082a1 	ldp	x1, x0, [x21, #8]
    55d0:	d37ef421 	lsl	x1, x1, #2
    55d4:	94000cf9 	bl	89b8 <mbedtls_platform_zeroize>
mbedtls_mpi_shrink():
/home/hei/Desktop/optee-qemu/optee_os/lib/libmbedtls/mbedtls/library/bignum.c:223
    55d8:	79c006a0 	ldrsh	w0, [x21, #2]
    55dc:	340002e0 	cbz	w0, 5638 <mbedtls_mpi_shrink+0x114>
/home/hei/Desktop/optee-qemu/optee_os/lib/libmbedtls/mbedtls/library/bignum.c:224
    55e0:	f0000020 	adrp	x0, c000 <_DYNAMIC>
    55e4:	f9400aa1 	ldr	x1, [x21, #16]
    55e8:	f940d000 	ldr	x0, [x0, #416]
    55ec:	f9400000 	ldr	x0, [x0]
    55f0:	94000d9a 	bl	8c58 <mempool_free>
/home/hei/Desktop/optee-qemu/optee_os/lib/libmbedtls/mbedtls/library/bignum.c:232
    55f4:	52800000 	mov	w0, #0x0                   	// #0
/home/hei/Desktop/optee-qemu/optee_os/lib/libmbedtls/mbedtls/library/bignum.c:230
    55f8:	a900dab4 	stp	x20, x22, [x21, #8]
/home/hei/Desktop/optee-qemu/optee_os/lib/libmbedtls/mbedtls/library/bignum.c:232
    55fc:	1400000b 	b	5628 <mbedtls_mpi_shrink+0x104>
/home/hei/Desktop/optee-qemu/optee_os/lib/libmbedtls/mbedtls/library/bignum.c:198
    5600:	f9400aa0 	ldr	x0, [x21, #16]
    5604:	b8617800 	ldr	w0, [x0, x1, lsl #2]
    5608:	35fffb60 	cbnz	w0, 5574 <mbedtls_mpi_shrink+0x50>
/home/hei/Desktop/optee-qemu/optee_os/lib/libmbedtls/mbedtls/library/bignum.c:197 (discriminator 2)
    560c:	d1000421 	sub	x1, x1, #0x1
    5610:	17ffffd8 	b	5570 <mbedtls_mpi_shrink+0x4c>
/home/hei/Desktop/optee-qemu/optee_os/lib/libmbedtls/mbedtls/library/bignum.c:214
    5614:	d2800081 	mov	x1, #0x4                   	// #4
    5618:	97ffef18 	bl	1278 <calloc>
    561c:	aa0003f6 	mov	x22, x0
/home/hei/Desktop/optee-qemu/optee_os/lib/libmbedtls/mbedtls/library/bignum.c:215
    5620:	b5fffcc0 	cbnz	x0, 55b8 <mbedtls_mpi_shrink+0x94>
/home/hei/Desktop/optee-qemu/optee_os/lib/libmbedtls/mbedtls/library/bignum.c:191
    5624:	128001e0 	mov	w0, #0xfffffff0            	// #-16
/home/hei/Desktop/optee-qemu/optee_os/lib/libmbedtls/mbedtls/library/bignum.c:233
    5628:	a94153f3 	ldp	x19, x20, [sp, #16]
    562c:	a9425bf5 	ldp	x21, x22, [sp, #32]
    5630:	a8c37bfd 	ldp	x29, x30, [sp], #48
    5634:	d65f03c0 	ret
/home/hei/Desktop/optee-qemu/optee_os/lib/libmbedtls/mbedtls/library/bignum.c:226
    5638:	f9400aa0 	ldr	x0, [x21, #16]
    563c:	97ffef3c 	bl	132c <free>
    5640:	17ffffed 	b	55f4 <mbedtls_mpi_shrink+0xd0>

0000000000005644 <mbedtls_mpi_copy>:
mbedtls_mpi_copy():
/home/hei/Desktop/optee-qemu/optee_os/lib/libmbedtls/mbedtls/library/bignum.c:245
    5644:	eb01001f 	cmp	x0, x1
    5648:	54000540 	b.eq	56f0 <mbedtls_mpi_copy+0xac>  // b.none
/home/hei/Desktop/optee-qemu/optee_os/lib/libmbedtls/mbedtls/library/bignum.c:239
    564c:	a9bd7bfd 	stp	x29, x30, [sp, #-48]!
    5650:	910003fd 	mov	x29, sp
    5654:	f90013f5 	str	x21, [sp, #32]
    5658:	aa0103f5 	mov	x21, x1
/home/hei/Desktop/optee-qemu/optee_os/lib/libmbedtls/mbedtls/library/bignum.c:248
    565c:	f9400821 	ldr	x1, [x1, #16]
/home/hei/Desktop/optee-qemu/optee_os/lib/libmbedtls/mbedtls/library/bignum.c:239
    5660:	a90153f3 	stp	x19, x20, [sp, #16]
/home/hei/Desktop/optee-qemu/optee_os/lib/libmbedtls/mbedtls/library/bignum.c:248
    5664:	b5000081 	cbnz	x1, 5674 <mbedtls_mpi_copy+0x30>
/home/hei/Desktop/optee-qemu/optee_os/lib/libmbedtls/mbedtls/library/bignum.c:250
    5668:	97ffff56 	bl	53c0 <mbedtls_mpi_free>
/home/hei/Desktop/optee-qemu/optee_os/lib/libmbedtls/mbedtls/library/bignum.c:270
    566c:	52800000 	mov	w0, #0x0                   	// #0
    5670:	14000011 	b	56b4 <mbedtls_mpi_copy+0x70>
/home/hei/Desktop/optee-qemu/optee_os/lib/libmbedtls/mbedtls/library/bignum.c:254
    5674:	f94006b3 	ldr	x19, [x21, #8]
    5678:	aa0003f4 	mov	x20, x0
/home/hei/Desktop/optee-qemu/optee_os/lib/libmbedtls/mbedtls/library/bignum.c:254 (discriminator 2)
    567c:	d1000673 	sub	x19, x19, #0x1
    5680:	b4000073 	cbz	x19, 568c <mbedtls_mpi_copy+0x48>
/home/hei/Desktop/optee-qemu/optee_os/lib/libmbedtls/mbedtls/library/bignum.c:255
    5684:	b8737820 	ldr	w0, [x1, x19, lsl #2]
    5688:	34ffffa0 	cbz	w0, 567c <mbedtls_mpi_copy+0x38>
/home/hei/Desktop/optee-qemu/optee_os/lib/libmbedtls/mbedtls/library/bignum.c:259
    568c:	79c002a0 	ldrsh	w0, [x21]
/home/hei/Desktop/optee-qemu/optee_os/lib/libmbedtls/mbedtls/library/bignum.c:257
    5690:	91000673 	add	x19, x19, #0x1
/home/hei/Desktop/optee-qemu/optee_os/lib/libmbedtls/mbedtls/library/bignum.c:261
    5694:	f9400682 	ldr	x2, [x20, #8]
/home/hei/Desktop/optee-qemu/optee_os/lib/libmbedtls/mbedtls/library/bignum.c:259
    5698:	79000280 	strh	w0, [x20]
/home/hei/Desktop/optee-qemu/optee_os/lib/libmbedtls/mbedtls/library/bignum.c:261
    569c:	eb13005f 	cmp	x2, x19
    56a0:	54000122 	b.cs	56c4 <mbedtls_mpi_copy+0x80>  // b.hs, b.nlast
/home/hei/Desktop/optee-qemu/optee_os/lib/libmbedtls/mbedtls/library/bignum.c:263
    56a4:	aa1303e1 	mov	x1, x19
    56a8:	aa1403e0 	mov	x0, x20
    56ac:	97ffff60 	bl	542c <mbedtls_mpi_grow>
    56b0:	34000160 	cbz	w0, 56dc <mbedtls_mpi_copy+0x98>
/home/hei/Desktop/optee-qemu/optee_os/lib/libmbedtls/mbedtls/library/bignum.c:275
    56b4:	a94153f3 	ldp	x19, x20, [sp, #16]
    56b8:	f94013f5 	ldr	x21, [sp, #32]
    56bc:	a8c37bfd 	ldp	x29, x30, [sp], #48
    56c0:	d65f03c0 	ret
/home/hei/Desktop/optee-qemu/optee_os/lib/libmbedtls/mbedtls/library/bignum.c:267
    56c4:	f9400a80 	ldr	x0, [x20, #16]
    56c8:	cb130042 	sub	x2, x2, x19
    56cc:	52800001 	mov	w1, #0x0                   	// #0
    56d0:	d37ef442 	lsl	x2, x2, #2
    56d4:	8b130800 	add	x0, x0, x19, lsl #2
    56d8:	97ffeff0 	bl	1698 <memset>
/home/hei/Desktop/optee-qemu/optee_os/lib/libmbedtls/mbedtls/library/bignum.c:270
    56dc:	f9400a80 	ldr	x0, [x20, #16]
    56e0:	d37ef662 	lsl	x2, x19, #2
    56e4:	f9400aa1 	ldr	x1, [x21, #16]
    56e8:	97ffeb97 	bl	544 <memcpy>
    56ec:	17ffffe0 	b	566c <mbedtls_mpi_copy+0x28>
/home/hei/Desktop/optee-qemu/optee_os/lib/libmbedtls/mbedtls/library/bignum.c:246
    56f0:	52800000 	mov	w0, #0x0                   	// #0
/home/hei/Desktop/optee-qemu/optee_os/lib/libmbedtls/mbedtls/library/bignum.c:275
    56f4:	d65f03c0 	ret

00000000000056f8 <mbedtls_mpi_swap>:
mbedtls_mpi_swap():
/home/hei/Desktop/optee-qemu/optee_os/lib/libmbedtls/mbedtls/library/bignum.c:281
    56f8:	a9bb7bfd 	stp	x29, x30, [sp, #-80]!
    56fc:	910003fd 	mov	x29, sp
    5700:	a90153f3 	stp	x19, x20, [sp, #16]
/home/hei/Desktop/optee-qemu/optee_os/lib/libmbedtls/mbedtls/library/bignum.c:286
    5704:	9100e3f3 	add	x19, sp, #0x38
    5708:	d2800314 	mov	x20, #0x18                  	// #24
    570c:	aa1403e2 	mov	x2, x20
/home/hei/Desktop/optee-qemu/optee_os/lib/libmbedtls/mbedtls/library/bignum.c:281
    5710:	a9025bf5 	stp	x21, x22, [sp, #32]
    5714:	aa0103f5 	mov	x21, x1
    5718:	aa0003f6 	mov	x22, x0
/home/hei/Desktop/optee-qemu/optee_os/lib/libmbedtls/mbedtls/library/bignum.c:286
    571c:	aa0003e1 	mov	x1, x0
    5720:	aa1303e0 	mov	x0, x19
    5724:	97ffeb88 	bl	544 <memcpy>
/home/hei/Desktop/optee-qemu/optee_os/lib/libmbedtls/mbedtls/library/bignum.c:287
    5728:	aa1403e2 	mov	x2, x20
    572c:	aa1503e1 	mov	x1, x21
    5730:	aa1603e0 	mov	x0, x22
    5734:	97ffeb84 	bl	544 <memcpy>
/home/hei/Desktop/optee-qemu/optee_os/lib/libmbedtls/mbedtls/library/bignum.c:288
    5738:	aa1403e2 	mov	x2, x20
    573c:	aa1303e1 	mov	x1, x19
    5740:	aa1503e0 	mov	x0, x21
    5744:	97ffeb80 	bl	544 <memcpy>
/home/hei/Desktop/optee-qemu/optee_os/lib/libmbedtls/mbedtls/library/bignum.c:289
    5748:	a94153f3 	ldp	x19, x20, [sp, #16]
    574c:	a9425bf5 	ldp	x21, x22, [sp, #32]
    5750:	a8c57bfd 	ldp	x29, x30, [sp], #80
    5754:	d65f03c0 	ret

0000000000005758 <mbedtls_mpi_safe_cond_assign>:
mbedtls_mpi_safe_cond_assign():
/home/hei/Desktop/optee-qemu/optee_os/lib/libmbedtls/mbedtls/library/bignum.c:297
    5758:	a9bd7bfd 	stp	x29, x30, [sp, #-48]!
    575c:	910003fd 	mov	x29, sp
    5760:	f90013f5 	str	x21, [sp, #32]
    5764:	aa0103f5 	mov	x21, x1
/home/hei/Desktop/optee-qemu/optee_os/lib/libmbedtls/mbedtls/library/bignum.c:306
    5768:	f9400421 	ldr	x1, [x1, #8]
/home/hei/Desktop/optee-qemu/optee_os/lib/libmbedtls/mbedtls/library/bignum.c:297
    576c:	a90153f3 	stp	x19, x20, [sp, #16]
    5770:	aa0003f4 	mov	x20, x0
    5774:	12001c53 	and	w19, w2, #0xff
/home/hei/Desktop/optee-qemu/optee_os/lib/libmbedtls/mbedtls/library/bignum.c:306
    5778:	97ffff2d 	bl	542c <mbedtls_mpi_grow>
    577c:	35000240 	cbnz	w0, 57c4 <mbedtls_mpi_safe_cond_assign+0x6c>
/home/hei/Desktop/optee-qemu/optee_os/lib/libmbedtls/mbedtls/library/bignum.c:304
    5780:	4b1303e2 	neg	w2, w19
/home/hei/Desktop/optee-qemu/optee_os/lib/libmbedtls/mbedtls/library/bignum.c:308
    5784:	794002a4 	ldrh	w4, [x21]
/home/hei/Desktop/optee-qemu/optee_os/lib/libmbedtls/mbedtls/library/bignum.c:304
    5788:	2a020262 	orr	w2, w19, w2
/home/hei/Desktop/optee-qemu/optee_os/lib/libmbedtls/mbedtls/library/bignum.c:308
    578c:	79400281 	ldrh	w1, [x20]
    5790:	52800023 	mov	w3, #0x1                   	// #1
/home/hei/Desktop/optee-qemu/optee_os/lib/libmbedtls/mbedtls/library/bignum.c:304
    5794:	d3471c42 	ubfx	x2, x2, #7, #1
/home/hei/Desktop/optee-qemu/optee_os/lib/libmbedtls/mbedtls/library/bignum.c:308
    5798:	4b020063 	sub	w3, w3, w2
/home/hei/Desktop/optee-qemu/optee_os/lib/libmbedtls/mbedtls/library/bignum.c:310
    579c:	f94006a8 	ldr	x8, [x21, #8]
/home/hei/Desktop/optee-qemu/optee_os/lib/libmbedtls/mbedtls/library/bignum.c:308
    57a0:	1b047c44 	mul	w4, w2, w4
    57a4:	1b011061 	madd	w1, w3, w1, w4
    57a8:	79000281 	strh	w1, [x20]
/home/hei/Desktop/optee-qemu/optee_os/lib/libmbedtls/mbedtls/library/bignum.c:310
    57ac:	d2800001 	mov	x1, #0x0                   	// #0
/home/hei/Desktop/optee-qemu/optee_os/lib/libmbedtls/mbedtls/library/bignum.c:310 (discriminator 1)
    57b0:	eb01011f 	cmp	x8, x1
    57b4:	54000101 	b.ne	57d4 <mbedtls_mpi_safe_cond_assign+0x7c>  // b.any
/home/hei/Desktop/optee-qemu/optee_os/lib/libmbedtls/mbedtls/library/bignum.c:313
    57b8:	f9400686 	ldr	x6, [x20, #8]
/home/hei/Desktop/optee-qemu/optee_os/lib/libmbedtls/mbedtls/library/bignum.c:313 (discriminator 1)
    57bc:	eb0100df 	cmp	x6, x1
    57c0:	540001e8 	b.hi	57fc <mbedtls_mpi_safe_cond_assign+0xa4>  // b.pmore
/home/hei/Desktop/optee-qemu/optee_os/lib/libmbedtls/mbedtls/library/bignum.c:318
    57c4:	a94153f3 	ldp	x19, x20, [sp, #16]
    57c8:	f94013f5 	ldr	x21, [sp, #32]
    57cc:	a8c37bfd 	ldp	x29, x30, [sp], #48
    57d0:	d65f03c0 	ret
/home/hei/Desktop/optee-qemu/optee_os/lib/libmbedtls/mbedtls/library/bignum.c:311 (discriminator 3)
    57d4:	f9400a87 	ldr	x7, [x20, #16]
    57d8:	d37ef424 	lsl	x4, x1, #2
    57dc:	f9400aa5 	ldr	x5, [x21, #16]
/home/hei/Desktop/optee-qemu/optee_os/lib/libmbedtls/mbedtls/library/bignum.c:310 (discriminator 3)
    57e0:	91000421 	add	x1, x1, #0x1
/home/hei/Desktop/optee-qemu/optee_os/lib/libmbedtls/mbedtls/library/bignum.c:311 (discriminator 3)
    57e4:	b86468e6 	ldr	w6, [x7, x4]
    57e8:	b86468a5 	ldr	w5, [x5, x4]
    57ec:	1b067c66 	mul	w6, w3, w6
    57f0:	1b051845 	madd	w5, w2, w5, w6
    57f4:	b82468e5 	str	w5, [x7, x4]
    57f8:	17ffffee 	b	57b0 <mbedtls_mpi_safe_cond_assign+0x58>
/home/hei/Desktop/optee-qemu/optee_os/lib/libmbedtls/mbedtls/library/bignum.c:314 (discriminator 2)
    57fc:	f9400a85 	ldr	x5, [x20, #16]
    5800:	d37ef424 	lsl	x4, x1, #2
/home/hei/Desktop/optee-qemu/optee_os/lib/libmbedtls/mbedtls/library/bignum.c:313 (discriminator 2)
    5804:	91000421 	add	x1, x1, #0x1
/home/hei/Desktop/optee-qemu/optee_os/lib/libmbedtls/mbedtls/library/bignum.c:314 (discriminator 2)
    5808:	b86468a2 	ldr	w2, [x5, x4]
    580c:	1b037c42 	mul	w2, w2, w3
    5810:	b82468a2 	str	w2, [x5, x4]
    5814:	17ffffea 	b	57bc <mbedtls_mpi_safe_cond_assign+0x64>

0000000000005818 <mbedtls_mpi_safe_cond_swap>:
mbedtls_mpi_safe_cond_swap():
/home/hei/Desktop/optee-qemu/optee_os/lib/libmbedtls/mbedtls/library/bignum.c:334
    5818:	eb01001f 	cmp	x0, x1
    581c:	54000061 	b.ne	5828 <mbedtls_mpi_safe_cond_swap+0x10>  // b.any
/home/hei/Desktop/optee-qemu/optee_os/lib/libmbedtls/mbedtls/library/bignum.c:335
    5820:	52800000 	mov	w0, #0x0                   	// #0
/home/hei/Desktop/optee-qemu/optee_os/lib/libmbedtls/mbedtls/library/bignum.c:357
    5824:	d65f03c0 	ret
/home/hei/Desktop/optee-qemu/optee_os/lib/libmbedtls/mbedtls/library/bignum.c:327
    5828:	a9bd7bfd 	stp	x29, x30, [sp, #-48]!
    582c:	910003fd 	mov	x29, sp
    5830:	a90153f3 	stp	x19, x20, [sp, #16]
    5834:	aa0103f4 	mov	x20, x1
/home/hei/Desktop/optee-qemu/optee_os/lib/libmbedtls/mbedtls/library/bignum.c:338
    5838:	12001c53 	and	w19, w2, #0xff
/home/hei/Desktop/optee-qemu/optee_os/lib/libmbedtls/mbedtls/library/bignum.c:340
    583c:	f9400421 	ldr	x1, [x1, #8]
/home/hei/Desktop/optee-qemu/optee_os/lib/libmbedtls/mbedtls/library/bignum.c:327
    5840:	f90013f5 	str	x21, [sp, #32]
    5844:	aa0003f5 	mov	x21, x0
/home/hei/Desktop/optee-qemu/optee_os/lib/libmbedtls/mbedtls/library/bignum.c:340
    5848:	97fffef9 	bl	542c <mbedtls_mpi_grow>
    584c:	35000340 	cbnz	w0, 58b4 <mbedtls_mpi_safe_cond_swap+0x9c>
/home/hei/Desktop/optee-qemu/optee_os/lib/libmbedtls/mbedtls/library/bignum.c:341
    5850:	f94006a1 	ldr	x1, [x21, #8]
    5854:	aa1403e0 	mov	x0, x20
    5858:	97fffef5 	bl	542c <mbedtls_mpi_grow>
    585c:	350002c0 	cbnz	w0, 58b4 <mbedtls_mpi_safe_cond_swap+0x9c>
/home/hei/Desktop/optee-qemu/optee_os/lib/libmbedtls/mbedtls/library/bignum.c:338
    5860:	4b1303e2 	neg	w2, w19
/home/hei/Desktop/optee-qemu/optee_os/lib/libmbedtls/mbedtls/library/bignum.c:344
    5864:	794002a3 	ldrh	w3, [x21]
/home/hei/Desktop/optee-qemu/optee_os/lib/libmbedtls/mbedtls/library/bignum.c:338
    5868:	2a020262 	orr	w2, w19, w2
/home/hei/Desktop/optee-qemu/optee_os/lib/libmbedtls/mbedtls/library/bignum.c:344
    586c:	52800020 	mov	w0, #0x1                   	// #1
    5870:	79400284 	ldrh	w4, [x20]
/home/hei/Desktop/optee-qemu/optee_os/lib/libmbedtls/mbedtls/library/bignum.c:338
    5874:	d3471c42 	ubfx	x2, x2, #7, #1
/home/hei/Desktop/optee-qemu/optee_os/lib/libmbedtls/mbedtls/library/bignum.c:344
    5878:	4b020000 	sub	w0, w0, w2
    587c:	12003c45 	and	w5, w2, #0xffff
    5880:	12003c01 	and	w1, w0, #0xffff
/home/hei/Desktop/optee-qemu/optee_os/lib/libmbedtls/mbedtls/library/bignum.c:348
    5884:	f94006a8 	ldr	x8, [x21, #8]
/home/hei/Desktop/optee-qemu/optee_os/lib/libmbedtls/mbedtls/library/bignum.c:344
    5888:	1b017c66 	mul	w6, w3, w1
    588c:	1b0418a4 	madd	w4, w5, w4, w6
    5890:	790002a4 	strh	w4, [x21]
/home/hei/Desktop/optee-qemu/optee_os/lib/libmbedtls/mbedtls/library/bignum.c:345
    5894:	1b057c63 	mul	w3, w3, w5
    5898:	79400284 	ldrh	w4, [x20]
    589c:	1b040c21 	madd	w1, w1, w4, w3
/home/hei/Desktop/optee-qemu/optee_os/lib/libmbedtls/mbedtls/library/bignum.c:348
    58a0:	d2800003 	mov	x3, #0x0                   	// #0
/home/hei/Desktop/optee-qemu/optee_os/lib/libmbedtls/mbedtls/library/bignum.c:345
    58a4:	79000281 	strh	w1, [x20]
/home/hei/Desktop/optee-qemu/optee_os/lib/libmbedtls/mbedtls/library/bignum.c:348 (discriminator 1)
    58a8:	eb03011f 	cmp	x8, x3
    58ac:	540000c1 	b.ne	58c4 <mbedtls_mpi_safe_cond_swap+0xac>  // b.any
/home/hei/Desktop/optee-qemu/optee_os/lib/libmbedtls/mbedtls/library/bignum.c:335
    58b0:	52800000 	mov	w0, #0x0                   	// #0
/home/hei/Desktop/optee-qemu/optee_os/lib/libmbedtls/mbedtls/library/bignum.c:357
    58b4:	a94153f3 	ldp	x19, x20, [sp, #16]
    58b8:	f94013f5 	ldr	x21, [sp, #32]
    58bc:	a8c37bfd 	ldp	x29, x30, [sp], #48
    58c0:	d65f03c0 	ret
/home/hei/Desktop/optee-qemu/optee_os/lib/libmbedtls/mbedtls/library/bignum.c:350 (discriminator 3)
    58c4:	f9400aa7 	ldr	x7, [x21, #16]
    58c8:	d37ef461 	lsl	x1, x3, #2
/home/hei/Desktop/optee-qemu/optee_os/lib/libmbedtls/mbedtls/library/bignum.c:351 (discriminator 3)
    58cc:	f9400a85 	ldr	x5, [x20, #16]
/home/hei/Desktop/optee-qemu/optee_os/lib/libmbedtls/mbedtls/library/bignum.c:348 (discriminator 3)
    58d0:	91000463 	add	x3, x3, #0x1
/home/hei/Desktop/optee-qemu/optee_os/lib/libmbedtls/mbedtls/library/bignum.c:350 (discriminator 3)
    58d4:	b86168e4 	ldr	w4, [x7, x1]
/home/hei/Desktop/optee-qemu/optee_os/lib/libmbedtls/mbedtls/library/bignum.c:351 (discriminator 3)
    58d8:	b86168a6 	ldr	w6, [x5, x1]
    58dc:	1b047c09 	mul	w9, w0, w4
/home/hei/Desktop/optee-qemu/optee_os/lib/libmbedtls/mbedtls/library/bignum.c:352 (discriminator 3)
    58e0:	1b047c44 	mul	w4, w2, w4
/home/hei/Desktop/optee-qemu/optee_os/lib/libmbedtls/mbedtls/library/bignum.c:351 (discriminator 3)
    58e4:	1b062446 	madd	w6, w2, w6, w9
    58e8:	b82168e6 	str	w6, [x7, x1]
/home/hei/Desktop/optee-qemu/optee_os/lib/libmbedtls/mbedtls/library/bignum.c:352 (discriminator 3)
    58ec:	b86168a6 	ldr	w6, [x5, x1]
    58f0:	1b061004 	madd	w4, w0, w6, w4
    58f4:	b82168a4 	str	w4, [x5, x1]
    58f8:	17ffffec 	b	58a8 <mbedtls_mpi_safe_cond_swap+0x90>

00000000000058fc <mbedtls_mpi_lset>:
mbedtls_mpi_lset():
/home/hei/Desktop/optee-qemu/optee_os/lib/libmbedtls/mbedtls/library/bignum.c:363
    58fc:	a9bd7bfd 	stp	x29, x30, [sp, #-48]!
    5900:	910003fd 	mov	x29, sp
    5904:	a90153f3 	stp	x19, x20, [sp, #16]
    5908:	aa0003f3 	mov	x19, x0
    590c:	2a0103f4 	mov	w20, w1
/home/hei/Desktop/optee-qemu/optee_os/lib/libmbedtls/mbedtls/library/bignum.c:367
    5910:	d2800021 	mov	x1, #0x1                   	// #1
/home/hei/Desktop/optee-qemu/optee_os/lib/libmbedtls/mbedtls/library/bignum.c:363
    5914:	f90013f5 	str	x21, [sp, #32]
/home/hei/Desktop/optee-qemu/optee_os/lib/libmbedtls/mbedtls/library/bignum.c:367
    5918:	97fffec5 	bl	542c <mbedtls_mpi_grow>
    591c:	2a0003f5 	mov	w21, w0
    5920:	35000180 	cbnz	w0, 5950 <mbedtls_mpi_lset+0x54>
/home/hei/Desktop/optee-qemu/optee_os/lib/libmbedtls/mbedtls/library/bignum.c:368
    5924:	a9408262 	ldp	x2, x0, [x19, #8]
    5928:	52800001 	mov	w1, #0x0                   	// #0
    592c:	d37ef442 	lsl	x2, x2, #2
    5930:	97ffef5a 	bl	1698 <memset>
/home/hei/Desktop/optee-qemu/optee_os/lib/libmbedtls/mbedtls/library/bignum.c:370
    5934:	f9400a60 	ldr	x0, [x19, #16]
    5938:	7100029f 	cmp	w20, #0x0
    593c:	5a94a681 	cneg	w1, w20, lt  // lt = tstop
    5940:	b9000001 	str	w1, [x0]
/home/hei/Desktop/optee-qemu/optee_os/lib/libmbedtls/mbedtls/library/bignum.c:371
    5944:	52800020 	mov	w0, #0x1                   	// #1
    5948:	5a80a400 	cneg	w0, w0, lt  // lt = tstop
    594c:	79000260 	strh	w0, [x19]
/home/hei/Desktop/optee-qemu/optee_os/lib/libmbedtls/mbedtls/library/bignum.c:376
    5950:	2a1503e0 	mov	w0, w21
    5954:	a94153f3 	ldp	x19, x20, [sp, #16]
    5958:	f94013f5 	ldr	x21, [sp, #32]
    595c:	a8c37bfd 	ldp	x29, x30, [sp], #48
    5960:	d65f03c0 	ret

0000000000005964 <mbedtls_mpi_get_bit>:
mbedtls_mpi_get_bit():
/home/hei/Desktop/optee-qemu/optee_os/lib/libmbedtls/mbedtls/library/bignum.c:385
    5964:	f9400402 	ldr	x2, [x0, #8]
    5968:	eb02143f 	cmp	x1, x2, lsl #5
    596c:	540000e2 	b.cs	5988 <mbedtls_mpi_get_bit+0x24>  // b.hs, b.nlast
/home/hei/Desktop/optee-qemu/optee_os/lib/libmbedtls/mbedtls/library/bignum.c:388
    5970:	f9400800 	ldr	x0, [x0, #16]
    5974:	d345fc22 	lsr	x2, x1, #5
    5978:	b8627800 	ldr	w0, [x0, x2, lsl #2]
    597c:	1ac12400 	lsr	w0, w0, w1
    5980:	12000000 	and	w0, w0, #0x1
/home/hei/Desktop/optee-qemu/optee_os/lib/libmbedtls/mbedtls/library/bignum.c:389
    5984:	d65f03c0 	ret
/home/hei/Desktop/optee-qemu/optee_os/lib/libmbedtls/mbedtls/library/bignum.c:386
    5988:	52800000 	mov	w0, #0x0                   	// #0
    598c:	17fffffe 	b	5984 <mbedtls_mpi_get_bit+0x20>

0000000000005990 <mbedtls_mpi_set_bit>:
mbedtls_mpi_set_bit():
/home/hei/Desktop/optee-qemu/optee_os/lib/libmbedtls/mbedtls/library/bignum.c:399
    5990:	a9bd7bfd 	stp	x29, x30, [sp, #-48]!
    5994:	910003fd 	mov	x29, sp
    5998:	a90153f3 	stp	x19, x20, [sp, #16]
    599c:	a9025bf5 	stp	x21, x22, [sp, #32]
    59a0:	12001c55 	and	w21, w2, #0xff
/home/hei/Desktop/optee-qemu/optee_os/lib/libmbedtls/mbedtls/library/bignum.c:405
    59a4:	710006bf 	cmp	w21, #0x1
    59a8:	54000368 	b.hi	5a14 <mbedtls_mpi_set_bit+0x84>  // b.pmore
    59ac:	aa0103f3 	mov	x19, x1
/home/hei/Desktop/optee-qemu/optee_os/lib/libmbedtls/mbedtls/library/bignum.c:408
    59b0:	d345fc34 	lsr	x20, x1, #5
    59b4:	f9400401 	ldr	x1, [x0, #8]
    59b8:	aa0003f6 	mov	x22, x0
    59bc:	eb01167f 	cmp	x19, x1, lsl #5
    59c0:	540001a2 	b.cs	59f4 <mbedtls_mpi_set_bit+0x64>  // b.hs, b.nlast
/home/hei/Desktop/optee-qemu/optee_os/lib/libmbedtls/mbedtls/library/bignum.c:416
    59c4:	f9400ac3 	ldr	x3, [x22, #16]
    59c8:	d37ef694 	lsl	x20, x20, #2
/home/hei/Desktop/optee-qemu/optee_os/lib/libmbedtls/mbedtls/library/bignum.c:402
    59cc:	92401273 	and	x19, x19, #0x1f
/home/hei/Desktop/optee-qemu/optee_os/lib/libmbedtls/mbedtls/library/bignum.c:416
    59d0:	52800020 	mov	w0, #0x1                   	// #1
    59d4:	1ad32001 	lsl	w1, w0, w19
    59d8:	b8746860 	ldr	w0, [x3, x20]
/home/hei/Desktop/optee-qemu/optee_os/lib/libmbedtls/mbedtls/library/bignum.c:417
    59dc:	1ad322b3 	lsl	w19, w21, w19
/home/hei/Desktop/optee-qemu/optee_os/lib/libmbedtls/mbedtls/library/bignum.c:416
    59e0:	0a210000 	bic	w0, w0, w1
/home/hei/Desktop/optee-qemu/optee_os/lib/libmbedtls/mbedtls/library/bignum.c:417
    59e4:	2a130000 	orr	w0, w0, w19
    59e8:	b8346860 	str	w0, [x3, x20]
/home/hei/Desktop/optee-qemu/optee_os/lib/libmbedtls/mbedtls/library/bignum.c:411
    59ec:	52800000 	mov	w0, #0x0                   	// #0
    59f0:	14000005 	b	5a04 <mbedtls_mpi_set_bit+0x74>
/home/hei/Desktop/optee-qemu/optee_os/lib/libmbedtls/mbedtls/library/bignum.c:410
    59f4:	34ffffd5 	cbz	w21, 59ec <mbedtls_mpi_set_bit+0x5c>
/home/hei/Desktop/optee-qemu/optee_os/lib/libmbedtls/mbedtls/library/bignum.c:413
    59f8:	91000681 	add	x1, x20, #0x1
    59fc:	97fffe8c 	bl	542c <mbedtls_mpi_grow>
    5a00:	34fffe20 	cbz	w0, 59c4 <mbedtls_mpi_set_bit+0x34>
/home/hei/Desktop/optee-qemu/optee_os/lib/libmbedtls/mbedtls/library/bignum.c:422
    5a04:	a94153f3 	ldp	x19, x20, [sp, #16]
    5a08:	a9425bf5 	ldp	x21, x22, [sp, #32]
    5a0c:	a8c37bfd 	ldp	x29, x30, [sp], #48
    5a10:	d65f03c0 	ret
/home/hei/Desktop/optee-qemu/optee_os/lib/libmbedtls/mbedtls/library/bignum.c:406
    5a14:	12800060 	mov	w0, #0xfffffffc            	// #-4
    5a18:	17fffffb 	b	5a04 <mbedtls_mpi_set_bit+0x74>

0000000000005a1c <mbedtls_mpi_lsb>:
mbedtls_mpi_lsb():
/home/hei/Desktop/optee-qemu/optee_os/lib/libmbedtls/mbedtls/library/bignum.c:432
    5a1c:	f9400405 	ldr	x5, [x0, #8]
/home/hei/Desktop/optee-qemu/optee_os/lib/libmbedtls/mbedtls/library/bignum.c:428
    5a20:	aa0003e4 	mov	x4, x0
/home/hei/Desktop/optee-qemu/optee_os/lib/libmbedtls/mbedtls/library/bignum.c:429
    5a24:	d2800003 	mov	x3, #0x0                   	// #0
/home/hei/Desktop/optee-qemu/optee_os/lib/libmbedtls/mbedtls/library/bignum.c:432
    5a28:	d2800002 	mov	x2, #0x0                   	// #0
/home/hei/Desktop/optee-qemu/optee_os/lib/libmbedtls/mbedtls/library/bignum.c:432 (discriminator 1)
    5a2c:	eb0200bf 	cmp	x5, x2
    5a30:	54000061 	b.ne	5a3c <mbedtls_mpi_lsb+0x20>  // b.any
/home/hei/Desktop/optee-qemu/optee_os/lib/libmbedtls/mbedtls/library/bignum.c:437
    5a34:	d2800000 	mov	x0, #0x0                   	// #0
/home/hei/Desktop/optee-qemu/optee_os/lib/libmbedtls/mbedtls/library/bignum.c:438
    5a38:	d65f03c0 	ret
/home/hei/Desktop/optee-qemu/optee_os/lib/libmbedtls/mbedtls/library/bignum.c:434
    5a3c:	f9400880 	ldr	x0, [x4, #16]
/home/hei/Desktop/optee-qemu/optee_os/lib/libmbedtls/mbedtls/library/bignum.c:433
    5a40:	d2800001 	mov	x1, #0x0                   	// #0
/home/hei/Desktop/optee-qemu/optee_os/lib/libmbedtls/mbedtls/library/bignum.c:434
    5a44:	b8627806 	ldr	w6, [x0, x2, lsl #2]
    5a48:	8b010060 	add	x0, x3, x1
    5a4c:	1ac124c7 	lsr	w7, w6, w1
    5a50:	3707ff47 	tbnz	w7, #0, 5a38 <mbedtls_mpi_lsb+0x1c>
/home/hei/Desktop/optee-qemu/optee_os/lib/libmbedtls/mbedtls/library/bignum.c:433 (discriminator 2)
    5a54:	91000421 	add	x1, x1, #0x1
    5a58:	8b010060 	add	x0, x3, x1
    5a5c:	f100803f 	cmp	x1, #0x20
    5a60:	54ffff41 	b.ne	5a48 <mbedtls_mpi_lsb+0x2c>  // b.any
/home/hei/Desktop/optee-qemu/optee_os/lib/libmbedtls/mbedtls/library/bignum.c:432 (discriminator 2)
    5a64:	91000442 	add	x2, x2, #0x1
/home/hei/Desktop/optee-qemu/optee_os/lib/libmbedtls/mbedtls/library/bignum.c:433 (discriminator 2)
    5a68:	aa0003e3 	mov	x3, x0
    5a6c:	17fffff0 	b	5a2c <mbedtls_mpi_lsb+0x10>

0000000000005a70 <mbedtls_mpi_bitlen>:
mbedtls_mpi_bitlen():
/home/hei/Desktop/optee-qemu/optee_os/lib/libmbedtls/mbedtls/library/bignum.c:465
    5a70:	f9400401 	ldr	x1, [x0, #8]
    5a74:	b4000201 	cbz	x1, 5ab4 <mbedtls_mpi_bitlen+0x44>
/home/hei/Desktop/optee-qemu/optee_os/lib/libmbedtls/mbedtls/library/bignum.c:468
    5a78:	f9400800 	ldr	x0, [x0, #16]
    5a7c:	d1000421 	sub	x1, x1, #0x1
/home/hei/Desktop/optee-qemu/optee_os/lib/libmbedtls/mbedtls/library/bignum.c:468 (discriminator 1)
    5a80:	b50001e1 	cbnz	x1, 5abc <mbedtls_mpi_bitlen+0x4c>
/home/hei/Desktop/optee-qemu/optee_os/lib/libmbedtls/mbedtls/library/bignum.c:472
    5a84:	b8617803 	ldr	w3, [x0, x1, lsl #2]
mbedtls_clz():
/home/hei/Desktop/optee-qemu/optee_os/lib/libmbedtls/mbedtls/library/bignum.c:446
    5a88:	52b00002 	mov	w2, #0x80000000            	// #-2147483648
/home/hei/Desktop/optee-qemu/optee_os/lib/libmbedtls/mbedtls/library/bignum.c:448
    5a8c:	d2800000 	mov	x0, #0x0                   	// #0
/home/hei/Desktop/optee-qemu/optee_os/lib/libmbedtls/mbedtls/library/bignum.c:450
    5a90:	6a02007f 	tst	w3, w2
    5a94:	540000a1 	b.ne	5aa8 <mbedtls_mpi_bitlen+0x38>  // b.any
/home/hei/Desktop/optee-qemu/optee_os/lib/libmbedtls/mbedtls/library/bignum.c:448
    5a98:	91000400 	add	x0, x0, #0x1
/home/hei/Desktop/optee-qemu/optee_os/lib/libmbedtls/mbedtls/library/bignum.c:452
    5a9c:	53017c42 	lsr	w2, w2, #1
/home/hei/Desktop/optee-qemu/optee_os/lib/libmbedtls/mbedtls/library/bignum.c:448
    5aa0:	f100801f 	cmp	x0, #0x20
    5aa4:	54ffff61 	b.ne	5a90 <mbedtls_mpi_bitlen+0x20>  // b.any
mbedtls_mpi_bitlen():
/home/hei/Desktop/optee-qemu/optee_os/lib/libmbedtls/mbedtls/library/bignum.c:474
    5aa8:	91000421 	add	x1, x1, #0x1
    5aac:	d37be821 	lsl	x1, x1, #5
    5ab0:	cb000021 	sub	x1, x1, x0
/home/hei/Desktop/optee-qemu/optee_os/lib/libmbedtls/mbedtls/library/bignum.c:475
    5ab4:	aa0103e0 	mov	x0, x1
    5ab8:	d65f03c0 	ret
/home/hei/Desktop/optee-qemu/optee_os/lib/libmbedtls/mbedtls/library/bignum.c:469
    5abc:	b8617802 	ldr	w2, [x0, x1, lsl #2]
    5ac0:	35fffe22 	cbnz	w2, 5a84 <mbedtls_mpi_bitlen+0x14>
/home/hei/Desktop/optee-qemu/optee_os/lib/libmbedtls/mbedtls/library/bignum.c:468 (discriminator 2)
    5ac4:	d1000421 	sub	x1, x1, #0x1
    5ac8:	17ffffee 	b	5a80 <mbedtls_mpi_bitlen+0x10>

0000000000005acc <mbedtls_mpi_size>:
mbedtls_mpi_size():
/home/hei/Desktop/optee-qemu/optee_os/lib/libmbedtls/mbedtls/library/bignum.c:481
    5acc:	a9bf7bfd 	stp	x29, x30, [sp, #-16]!
    5ad0:	910003fd 	mov	x29, sp
/home/hei/Desktop/optee-qemu/optee_os/lib/libmbedtls/mbedtls/library/bignum.c:482
    5ad4:	97ffffe7 	bl	5a70 <mbedtls_mpi_bitlen>
    5ad8:	91001c00 	add	x0, x0, #0x7
/home/hei/Desktop/optee-qemu/optee_os/lib/libmbedtls/mbedtls/library/bignum.c:483
    5adc:	a8c17bfd 	ldp	x29, x30, [sp], #16
    5ae0:	d343fc00 	lsr	x0, x0, #3
    5ae4:	d65f03c0 	ret

0000000000005ae8 <mbedtls_mpi_read_binary>:
mbedtls_mpi_read_binary():
/home/hei/Desktop/optee-qemu/optee_os/lib/libmbedtls/mbedtls/library/bignum.c:769
    5ae8:	a9bc7bfd 	stp	x29, x30, [sp, #-64]!
/home/hei/Desktop/optee-qemu/optee_os/lib/libmbedtls/mbedtls/library/bignum.c:772
    5aec:	f240045f 	tst	x2, #0x3
/home/hei/Desktop/optee-qemu/optee_os/lib/libmbedtls/mbedtls/library/bignum.c:769
    5af0:	910003fd 	mov	x29, sp
    5af4:	a9025bf5 	stp	x21, x22, [sp, #32]
    5af8:	aa0103f6 	mov	x22, x1
/home/hei/Desktop/optee-qemu/optee_os/lib/libmbedtls/mbedtls/library/bignum.c:772
    5afc:	d342fc55 	lsr	x21, x2, #2
/home/hei/Desktop/optee-qemu/optee_os/lib/libmbedtls/mbedtls/library/bignum.c:778
    5b00:	f9400401 	ldr	x1, [x0, #8]
/home/hei/Desktop/optee-qemu/optee_os/lib/libmbedtls/mbedtls/library/bignum.c:769
    5b04:	a90153f3 	stp	x19, x20, [sp, #16]
/home/hei/Desktop/optee-qemu/optee_os/lib/libmbedtls/mbedtls/library/bignum.c:772
    5b08:	9a9506b5 	cinc	x21, x21, ne  // ne = any
/home/hei/Desktop/optee-qemu/optee_os/lib/libmbedtls/mbedtls/library/bignum.c:769
    5b0c:	f9001bf7 	str	x23, [sp, #48]
    5b10:	aa0003f3 	mov	x19, x0
    5b14:	aa0203f4 	mov	x20, x2
/home/hei/Desktop/optee-qemu/optee_os/lib/libmbedtls/mbedtls/library/bignum.c:778
    5b18:	eb15003f 	cmp	x1, x21
    5b1c:	54000241 	b.ne	5b64 <mbedtls_mpi_read_binary+0x7c>  // b.any
/home/hei/Desktop/optee-qemu/optee_os/lib/libmbedtls/mbedtls/library/bignum.c:787
    5b20:	52800001 	mov	w1, #0x0                   	// #0
    5b24:	aa1303e0 	mov	x0, x19
    5b28:	97ffff75 	bl	58fc <mbedtls_mpi_lset>
    5b2c:	35000300 	cbnz	w0, 5b8c <mbedtls_mpi_read_binary+0xa4>
/home/hei/Desktop/optee-qemu/optee_os/lib/libmbedtls/mbedtls/library/bignum.c:789
    5b30:	d2800001 	mov	x1, #0x0                   	// #0
    5b34:	b40002d4 	cbz	x20, 5b8c <mbedtls_mpi_read_binary+0xa4>
/home/hei/Desktop/optee-qemu/optee_os/lib/libmbedtls/mbedtls/library/bignum.c:790
    5b38:	d1000694 	sub	x20, x20, #0x1
    5b3c:	927ef424 	and	x4, x1, #0xfffffffffffffffc
    5b40:	f9400a65 	ldr	x5, [x19, #16]
    5b44:	531d0423 	ubfiz	w3, w1, #3, #2
    5b48:	38746ac2 	ldrb	w2, [x22, x20]
/home/hei/Desktop/optee-qemu/optee_os/lib/libmbedtls/mbedtls/library/bignum.c:789
    5b4c:	91000421 	add	x1, x1, #0x1
/home/hei/Desktop/optee-qemu/optee_os/lib/libmbedtls/mbedtls/library/bignum.c:790
    5b50:	1ac32043 	lsl	w3, w2, w3
    5b54:	b86468a2 	ldr	w2, [x5, x4]
    5b58:	2a030042 	orr	w2, w2, w3
    5b5c:	b82468a2 	str	w2, [x5, x4]
    5b60:	17fffff5 	b	5b34 <mbedtls_mpi_read_binary+0x4c>
/home/hei/Desktop/optee-qemu/optee_os/lib/libmbedtls/mbedtls/library/bignum.c:780
    5b64:	79c00417 	ldrsh	w23, [x0, #2]
/home/hei/Desktop/optee-qemu/optee_os/lib/libmbedtls/mbedtls/library/bignum.c:782
    5b68:	97fffe16 	bl	53c0 <mbedtls_mpi_free>
mpi_init():
/home/hei/Desktop/optee-qemu/optee_os/lib/libmbedtls/mbedtls/library/bignum.c:98
    5b6c:	52800020 	mov	w0, #0x1                   	// #1
    5b70:	79000260 	strh	w0, [x19]
/home/hei/Desktop/optee-qemu/optee_os/lib/libmbedtls/mbedtls/library/bignum.c:99
    5b74:	79000677 	strh	w23, [x19, #2]
mbedtls_mpi_read_binary():
/home/hei/Desktop/optee-qemu/optee_os/lib/libmbedtls/mbedtls/library/bignum.c:784
    5b78:	aa1503e1 	mov	x1, x21
mpi_init():
/home/hei/Desktop/optee-qemu/optee_os/lib/libmbedtls/mbedtls/library/bignum.c:101
    5b7c:	a900fe7f 	stp	xzr, xzr, [x19, #8]
mbedtls_mpi_read_binary():
/home/hei/Desktop/optee-qemu/optee_os/lib/libmbedtls/mbedtls/library/bignum.c:784
    5b80:	aa1303e0 	mov	x0, x19
    5b84:	97fffe2a 	bl	542c <mbedtls_mpi_grow>
    5b88:	34fffcc0 	cbz	w0, 5b20 <mbedtls_mpi_read_binary+0x38>
/home/hei/Desktop/optee-qemu/optee_os/lib/libmbedtls/mbedtls/library/bignum.c:795
    5b8c:	a94153f3 	ldp	x19, x20, [sp, #16]
    5b90:	a9425bf5 	ldp	x21, x22, [sp, #32]
    5b94:	f9401bf7 	ldr	x23, [sp, #48]
    5b98:	a8c47bfd 	ldp	x29, x30, [sp], #64
    5b9c:	d65f03c0 	ret

0000000000005ba0 <mbedtls_mpi_write_binary>:
mbedtls_mpi_write_binary():
/home/hei/Desktop/optee-qemu/optee_os/lib/libmbedtls/mbedtls/library/bignum.c:802
    5ba0:	a9bd7bfd 	stp	x29, x30, [sp, #-48]!
    5ba4:	910003fd 	mov	x29, sp
    5ba8:	a90153f3 	stp	x19, x20, [sp, #16]
    5bac:	aa0003f4 	mov	x20, x0
    5bb0:	aa0103e0 	mov	x0, x1
/home/hei/Desktop/optee-qemu/optee_os/lib/libmbedtls/mbedtls/library/bignum.c:811
    5bb4:	f9400693 	ldr	x19, [x20, #8]
/home/hei/Desktop/optee-qemu/optee_os/lib/libmbedtls/mbedtls/library/bignum.c:802
    5bb8:	f90013f5 	str	x21, [sp, #32]
/home/hei/Desktop/optee-qemu/optee_os/lib/libmbedtls/mbedtls/library/bignum.c:811
    5bbc:	d37ef673 	lsl	x19, x19, #2
/home/hei/Desktop/optee-qemu/optee_os/lib/libmbedtls/mbedtls/library/bignum.c:813
    5bc0:	eb02027f 	cmp	x19, x2
    5bc4:	54000382 	b.cs	5c34 <mbedtls_mpi_write_binary+0x94>  // b.hs, b.nlast
/home/hei/Desktop/optee-qemu/optee_os/lib/libmbedtls/mbedtls/library/bignum.c:821
    5bc8:	cb130042 	sub	x2, x2, x19
    5bcc:	8b020035 	add	x21, x1, x2
/home/hei/Desktop/optee-qemu/optee_os/lib/libmbedtls/mbedtls/library/bignum.c:822
    5bd0:	52800001 	mov	w1, #0x0                   	// #0
    5bd4:	97ffeeb1 	bl	1698 <memset>
/home/hei/Desktop/optee-qemu/optee_os/lib/libmbedtls/mbedtls/library/bignum.c:821
    5bd8:	aa1503e0 	mov	x0, x21
    5bdc:	aa1303e2 	mov	x2, x19
/home/hei/Desktop/optee-qemu/optee_os/lib/libmbedtls/mbedtls/library/bignum.c:837
    5be0:	8b020000 	add	x0, x0, x2
    5be4:	d2800001 	mov	x1, #0x0                   	// #0
    5be8:	d1000400 	sub	x0, x0, #0x1
/home/hei/Desktop/optee-qemu/optee_os/lib/libmbedtls/mbedtls/library/bignum.c:837 (discriminator 1)
    5bec:	eb01005f 	cmp	x2, x1
    5bf0:	54000261 	b.ne	5c3c <mbedtls_mpi_write_binary+0x9c>  // b.any
/home/hei/Desktop/optee-qemu/optee_os/lib/libmbedtls/mbedtls/library/bignum.c:840
    5bf4:	52800000 	mov	w0, #0x0                   	// #0
/home/hei/Desktop/optee-qemu/optee_os/lib/libmbedtls/mbedtls/library/bignum.c:841
    5bf8:	a94153f3 	ldp	x19, x20, [sp, #16]
    5bfc:	f94013f5 	ldr	x21, [sp, #32]
    5c00:	a8c37bfd 	ldp	x29, x30, [sp], #48
    5c04:	d65f03c0 	ret
/home/hei/Desktop/optee-qemu/optee_os/lib/libmbedtls/mbedtls/library/bignum.c:832
    5c08:	f9400a85 	ldr	x5, [x20, #16]
    5c0c:	927ef424 	and	x4, x1, #0xfffffffffffffffc
    5c10:	531d0423 	ubfiz	w3, w1, #3, #2
    5c14:	b86468a4 	ldr	w4, [x5, x4]
    5c18:	1ac32483 	lsr	w3, w4, w3
    5c1c:	12001c63 	and	w3, w3, #0xff
    5c20:	350001e3 	cbnz	w3, 5c5c <mbedtls_mpi_write_binary+0xbc>
/home/hei/Desktop/optee-qemu/optee_os/lib/libmbedtls/mbedtls/library/bignum.c:830 (discriminator 2)
    5c24:	91000421 	add	x1, x1, #0x1
/home/hei/Desktop/optee-qemu/optee_os/lib/libmbedtls/mbedtls/library/bignum.c:830 (discriminator 1)
    5c28:	eb13003f 	cmp	x1, x19
    5c2c:	54fffee1 	b.ne	5c08 <mbedtls_mpi_write_binary+0x68>  // b.any
    5c30:	17ffffec 	b	5be0 <mbedtls_mpi_write_binary+0x40>
    5c34:	aa0203e1 	mov	x1, x2
    5c38:	17fffffc 	b	5c28 <mbedtls_mpi_write_binary+0x88>
/home/hei/Desktop/optee-qemu/optee_os/lib/libmbedtls/mbedtls/library/bignum.c:838 (discriminator 3)
    5c3c:	f9400a85 	ldr	x5, [x20, #16]
    5c40:	927ef423 	and	x3, x1, #0xfffffffffffffffc
    5c44:	531d0424 	ubfiz	w4, w1, #3, #2
/home/hei/Desktop/optee-qemu/optee_os/lib/libmbedtls/mbedtls/library/bignum.c:837 (discriminator 3)
    5c48:	91000421 	add	x1, x1, #0x1
/home/hei/Desktop/optee-qemu/optee_os/lib/libmbedtls/mbedtls/library/bignum.c:838 (discriminator 3)
    5c4c:	b86368a3 	ldr	w3, [x5, x3]
    5c50:	1ac42463 	lsr	w3, w3, w4
    5c54:	39000003 	strb	w3, [x0]
    5c58:	17ffffe4 	b	5be8 <mbedtls_mpi_write_binary+0x48>
/home/hei/Desktop/optee-qemu/optee_os/lib/libmbedtls/mbedtls/library/bignum.c:833
    5c5c:	128000e0 	mov	w0, #0xfffffff8            	// #-8
    5c60:	17ffffe6 	b	5bf8 <mbedtls_mpi_write_binary+0x58>

0000000000005c64 <mbedtls_mpi_shift_l>:
mbedtls_mpi_shift_l():
/home/hei/Desktop/optee-qemu/optee_os/lib/libmbedtls/mbedtls/library/bignum.c:847
    5c64:	a9bd7bfd 	stp	x29, x30, [sp, #-48]!
    5c68:	910003fd 	mov	x29, sp
    5c6c:	a90153f3 	stp	x19, x20, [sp, #16]
    5c70:	aa0003f3 	mov	x19, x0
/home/hei/Desktop/optee-qemu/optee_os/lib/libmbedtls/mbedtls/library/bignum.c:853
    5c74:	d345fc34 	lsr	x20, x1, #5
/home/hei/Desktop/optee-qemu/optee_os/lib/libmbedtls/mbedtls/library/bignum.c:847
    5c78:	a9025bf5 	stp	x21, x22, [sp, #32]
    5c7c:	aa0103f5 	mov	x21, x1
/home/hei/Desktop/optee-qemu/optee_os/lib/libmbedtls/mbedtls/library/bignum.c:854
    5c80:	92401036 	and	x22, x1, #0x1f
/home/hei/Desktop/optee-qemu/optee_os/lib/libmbedtls/mbedtls/library/bignum.c:856
    5c84:	97ffff7b 	bl	5a70 <mbedtls_mpi_bitlen>
    5c88:	8b150000 	add	x0, x0, x21
/home/hei/Desktop/optee-qemu/optee_os/lib/libmbedtls/mbedtls/library/bignum.c:858
    5c8c:	f9400661 	ldr	x1, [x19, #8]
    5c90:	eb01141f 	cmp	x0, x1, lsl #5
    5c94:	540000c8 	b.hi	5cac <mbedtls_mpi_shift_l+0x48>  // b.pmore
/home/hei/Desktop/optee-qemu/optee_os/lib/libmbedtls/mbedtls/library/bignum.c:866
    5c98:	f1007ebf 	cmp	x21, #0x1f
    5c9c:	540001c8 	b.hi	5cd4 <mbedtls_mpi_shift_l+0x70>  // b.pmore
/home/hei/Desktop/optee-qemu/optee_os/lib/libmbedtls/mbedtls/library/bignum.c:878
    5ca0:	b5000456 	cbnz	x22, 5d28 <mbedtls_mpi_shift_l+0xc4>
/home/hei/Desktop/optee-qemu/optee_os/lib/libmbedtls/mbedtls/library/bignum.c:861
    5ca4:	52800000 	mov	w0, #0x0                   	// #0
    5ca8:	14000007 	b	5cc4 <mbedtls_mpi_shift_l+0x60>
/home/hei/Desktop/optee-qemu/optee_os/lib/libmbedtls/mbedtls/library/bignum.c:859
    5cac:	f240101f 	tst	x0, #0x1f
    5cb0:	d345fc00 	lsr	x0, x0, #5
    5cb4:	9a800401 	cinc	x1, x0, ne  // ne = any
    5cb8:	aa1303e0 	mov	x0, x19
    5cbc:	97fffddc 	bl	542c <mbedtls_mpi_grow>
    5cc0:	34fffec0 	cbz	w0, 5c98 <mbedtls_mpi_shift_l+0x34>
/home/hei/Desktop/optee-qemu/optee_os/lib/libmbedtls/mbedtls/library/bignum.c:892
    5cc4:	a94153f3 	ldp	x19, x20, [sp, #16]
    5cc8:	a9425bf5 	ldp	x21, x22, [sp, #32]
    5ccc:	a8c37bfd 	ldp	x29, x30, [sp], #48
    5cd0:	d65f03c0 	ret
/home/hei/Desktop/optee-qemu/optee_os/lib/libmbedtls/mbedtls/library/bignum.c:868
    5cd4:	f9400660 	ldr	x0, [x19, #8]
    5cd8:	92800062 	mov	x2, #0xfffffffffffffffc    	// #-4
    5cdc:	9b027e82 	mul	x2, x20, x2
    5ce0:	d37ef401 	lsl	x1, x0, #2
    5ce4:	d1001021 	sub	x1, x1, #0x4
/home/hei/Desktop/optee-qemu/optee_os/lib/libmbedtls/mbedtls/library/bignum.c:868 (discriminator 1)
    5ce8:	eb14001f 	cmp	x0, x20
    5cec:	54000108 	b.hi	5d0c <mbedtls_mpi_shift_l+0xa8>  // b.pmore
    5cf0:	d37ef400 	lsl	x0, x0, #2
    5cf4:	d1001000 	sub	x0, x0, #0x4
/home/hei/Desktop/optee-qemu/optee_os/lib/libmbedtls/mbedtls/library/bignum.c:871 (discriminator 2)
    5cf8:	b100101f 	cmn	x0, #0x4
    5cfc:	54fffd20 	b.eq	5ca0 <mbedtls_mpi_shift_l+0x3c>  // b.none
/home/hei/Desktop/optee-qemu/optee_os/lib/libmbedtls/mbedtls/library/bignum.c:872 (discriminator 2)
    5d00:	f9400a61 	ldr	x1, [x19, #16]
    5d04:	b820683f 	str	wzr, [x1, x0]
    5d08:	17fffffb 	b	5cf4 <mbedtls_mpi_shift_l+0x90>
/home/hei/Desktop/optee-qemu/optee_os/lib/libmbedtls/mbedtls/library/bignum.c:869 (discriminator 3)
    5d0c:	f9400a63 	ldr	x3, [x19, #16]
/home/hei/Desktop/optee-qemu/optee_os/lib/libmbedtls/mbedtls/library/bignum.c:868 (discriminator 3)
    5d10:	d1000400 	sub	x0, x0, #0x1
/home/hei/Desktop/optee-qemu/optee_os/lib/libmbedtls/mbedtls/library/bignum.c:869 (discriminator 3)
    5d14:	8b010064 	add	x4, x3, x1
    5d18:	b8626884 	ldr	w4, [x4, x2]
    5d1c:	b8216864 	str	w4, [x3, x1]
    5d20:	d1001021 	sub	x1, x1, #0x4
    5d24:	17fffff1 	b	5ce8 <mbedtls_mpi_shift_l+0x84>
/home/hei/Desktop/optee-qemu/optee_os/lib/libmbedtls/mbedtls/library/bignum.c:880
    5d28:	f9400666 	ldr	x6, [x19, #8]
/home/hei/Desktop/optee-qemu/optee_os/lib/libmbedtls/mbedtls/library/bignum.c:882
    5d2c:	52800400 	mov	w0, #0x20                  	// #32
    5d30:	4b160000 	sub	w0, w0, w22
/home/hei/Desktop/optee-qemu/optee_os/lib/libmbedtls/mbedtls/library/bignum.c:850
    5d34:	52800002 	mov	w2, #0x0                   	// #0
/home/hei/Desktop/optee-qemu/optee_os/lib/libmbedtls/mbedtls/library/bignum.c:880 (discriminator 1)
    5d38:	eb1400df 	cmp	x6, x20
    5d3c:	54fffb49 	b.ls	5ca4 <mbedtls_mpi_shift_l+0x40>  // b.plast
/home/hei/Desktop/optee-qemu/optee_os/lib/libmbedtls/mbedtls/library/bignum.c:882 (discriminator 3)
    5d40:	f9400a65 	ldr	x5, [x19, #16]
    5d44:	d37ef684 	lsl	x4, x20, #2
/home/hei/Desktop/optee-qemu/optee_os/lib/libmbedtls/mbedtls/library/bignum.c:880 (discriminator 3)
    5d48:	91000694 	add	x20, x20, #0x1
/home/hei/Desktop/optee-qemu/optee_os/lib/libmbedtls/mbedtls/library/bignum.c:882 (discriminator 3)
    5d4c:	b86468a3 	ldr	w3, [x5, x4]
/home/hei/Desktop/optee-qemu/optee_os/lib/libmbedtls/mbedtls/library/bignum.c:883 (discriminator 3)
    5d50:	1ad62061 	lsl	w1, w3, w22
/home/hei/Desktop/optee-qemu/optee_os/lib/libmbedtls/mbedtls/library/bignum.c:884 (discriminator 3)
    5d54:	2a020021 	orr	w1, w1, w2
/home/hei/Desktop/optee-qemu/optee_os/lib/libmbedtls/mbedtls/library/bignum.c:882 (discriminator 3)
    5d58:	1ac02462 	lsr	w2, w3, w0
/home/hei/Desktop/optee-qemu/optee_os/lib/libmbedtls/mbedtls/library/bignum.c:884 (discriminator 3)
    5d5c:	b82468a1 	str	w1, [x5, x4]
/home/hei/Desktop/optee-qemu/optee_os/lib/libmbedtls/mbedtls/library/bignum.c:885 (discriminator 3)
    5d60:	17fffff6 	b	5d38 <mbedtls_mpi_shift_l+0xd4>

0000000000005d64 <mbedtls_mpi_shift_r>:
mbedtls_mpi_shift_r():
/home/hei/Desktop/optee-qemu/optee_os/lib/libmbedtls/mbedtls/library/bignum.c:906
    5d64:	f9400402 	ldr	x2, [x0, #8]
/home/hei/Desktop/optee-qemu/optee_os/lib/libmbedtls/mbedtls/library/bignum.c:903
    5d68:	d345fc25 	lsr	x5, x1, #5
/home/hei/Desktop/optee-qemu/optee_os/lib/libmbedtls/mbedtls/library/bignum.c:904
    5d6c:	92401023 	and	x3, x1, #0x1f
/home/hei/Desktop/optee-qemu/optee_os/lib/libmbedtls/mbedtls/library/bignum.c:906
    5d70:	eb05005f 	cmp	x2, x5
    5d74:	54000063 	b.cc	5d80 <mbedtls_mpi_shift_r+0x1c>  // b.lo, b.ul, b.last
/home/hei/Desktop/optee-qemu/optee_os/lib/libmbedtls/mbedtls/library/bignum.c:906 (discriminator 1)
    5d78:	54000081 	b.ne	5d88 <mbedtls_mpi_shift_r+0x24>  // b.any
/home/hei/Desktop/optee-qemu/optee_os/lib/libmbedtls/mbedtls/library/bignum.c:906 (discriminator 2)
    5d7c:	b4000503 	cbz	x3, 5e1c <mbedtls_mpi_shift_r+0xb8>
/home/hei/Desktop/optee-qemu/optee_os/lib/libmbedtls/mbedtls/library/bignum.c:907
    5d80:	52800001 	mov	w1, #0x0                   	// #0
    5d84:	17fffede 	b	58fc <mbedtls_mpi_lset>
/home/hei/Desktop/optee-qemu/optee_os/lib/libmbedtls/mbedtls/library/bignum.c:912
    5d88:	f1007c3f 	cmp	x1, #0x1f
    5d8c:	54000109 	b.ls	5dac <mbedtls_mpi_shift_r+0x48>  // b.plast
    5d90:	d37ef4a6 	lsl	x6, x5, #2
    5d94:	d2800004 	mov	x4, #0x0                   	// #0
/home/hei/Desktop/optee-qemu/optee_os/lib/libmbedtls/mbedtls/library/bignum.c:914 (discriminator 1)
    5d98:	cb050041 	sub	x1, x2, x5
    5d9c:	eb04003f 	cmp	x1, x4
    5da0:	540000c8 	b.hi	5db8 <mbedtls_mpi_shift_r+0x54>  // b.pmore
/home/hei/Desktop/optee-qemu/optee_os/lib/libmbedtls/mbedtls/library/bignum.c:917 (discriminator 1)
    5da4:	eb01005f 	cmp	x2, x1
    5da8:	54000148 	b.hi	5dd0 <mbedtls_mpi_shift_r+0x6c>  // b.pmore
/home/hei/Desktop/optee-qemu/optee_os/lib/libmbedtls/mbedtls/library/bignum.c:924
    5dac:	b5000303 	cbnz	x3, 5e0c <mbedtls_mpi_shift_r+0xa8>
/home/hei/Desktop/optee-qemu/optee_os/lib/libmbedtls/mbedtls/library/bignum.c:936
    5db0:	52800000 	mov	w0, #0x0                   	// #0
    5db4:	d65f03c0 	ret
/home/hei/Desktop/optee-qemu/optee_os/lib/libmbedtls/mbedtls/library/bignum.c:915 (discriminator 3)
    5db8:	f9400801 	ldr	x1, [x0, #16]
    5dbc:	b8666827 	ldr	w7, [x1, x6]
    5dc0:	910010c6 	add	x6, x6, #0x4
    5dc4:	b8247827 	str	w7, [x1, x4, lsl #2]
/home/hei/Desktop/optee-qemu/optee_os/lib/libmbedtls/mbedtls/library/bignum.c:914 (discriminator 3)
    5dc8:	91000484 	add	x4, x4, #0x1
    5dcc:	17fffff3 	b	5d98 <mbedtls_mpi_shift_r+0x34>
/home/hei/Desktop/optee-qemu/optee_os/lib/libmbedtls/mbedtls/library/bignum.c:918 (discriminator 2)
    5dd0:	f9400804 	ldr	x4, [x0, #16]
    5dd4:	b821789f 	str	wzr, [x4, x1, lsl #2]
/home/hei/Desktop/optee-qemu/optee_os/lib/libmbedtls/mbedtls/library/bignum.c:917 (discriminator 2)
    5dd8:	91000421 	add	x1, x1, #0x1
    5ddc:	17fffff2 	b	5da4 <mbedtls_mpi_shift_r+0x40>
/home/hei/Desktop/optee-qemu/optee_os/lib/libmbedtls/mbedtls/library/bignum.c:928 (discriminator 3)
    5de0:	f9400808 	ldr	x8, [x0, #16]
    5de4:	d37ef447 	lsl	x7, x2, #2
    5de8:	b8676906 	ldr	w6, [x8, x7]
/home/hei/Desktop/optee-qemu/optee_os/lib/libmbedtls/mbedtls/library/bignum.c:929 (discriminator 3)
    5dec:	1ac324c4 	lsr	w4, w6, w3
/home/hei/Desktop/optee-qemu/optee_os/lib/libmbedtls/mbedtls/library/bignum.c:930 (discriminator 3)
    5df0:	2a050084 	orr	w4, w4, w5
/home/hei/Desktop/optee-qemu/optee_os/lib/libmbedtls/mbedtls/library/bignum.c:928 (discriminator 3)
    5df4:	1ac120c5 	lsl	w5, w6, w1
/home/hei/Desktop/optee-qemu/optee_os/lib/libmbedtls/mbedtls/library/bignum.c:930 (discriminator 3)
    5df8:	b8276904 	str	w4, [x8, x7]
/home/hei/Desktop/optee-qemu/optee_os/lib/libmbedtls/mbedtls/library/bignum.c:931 (discriminator 3)
    5dfc:	d1000442 	sub	x2, x2, #0x1
/home/hei/Desktop/optee-qemu/optee_os/lib/libmbedtls/mbedtls/library/bignum.c:926 (discriminator 1)
    5e00:	b100045f 	cmn	x2, #0x1
    5e04:	54fffee1 	b.ne	5de0 <mbedtls_mpi_shift_r+0x7c>  // b.any
    5e08:	17ffffea 	b	5db0 <mbedtls_mpi_shift_r+0x4c>
/home/hei/Desktop/optee-qemu/optee_os/lib/libmbedtls/mbedtls/library/bignum.c:928
    5e0c:	52800401 	mov	w1, #0x20                  	// #32
/home/hei/Desktop/optee-qemu/optee_os/lib/libmbedtls/mbedtls/library/bignum.c:900
    5e10:	52800005 	mov	w5, #0x0                   	// #0
/home/hei/Desktop/optee-qemu/optee_os/lib/libmbedtls/mbedtls/library/bignum.c:928
    5e14:	4b030021 	sub	w1, w1, w3
    5e18:	17fffff9 	b	5dfc <mbedtls_mpi_shift_r+0x98>
/home/hei/Desktop/optee-qemu/optee_os/lib/libmbedtls/mbedtls/library/bignum.c:912
    5e1c:	f1007c3f 	cmp	x1, #0x1f
    5e20:	54fffc89 	b.ls	5db0 <mbedtls_mpi_shift_r+0x4c>  // b.plast
    5e24:	d2800001 	mov	x1, #0x0                   	// #0
    5e28:	17ffffdf 	b	5da4 <mbedtls_mpi_shift_r+0x40>

0000000000005e2c <mbedtls_mpi_cmp_abs>:
mbedtls_mpi_cmp_abs():
/home/hei/Desktop/optee-qemu/optee_os/lib/libmbedtls/mbedtls/library/bignum.c:947
    5e2c:	f9400402 	ldr	x2, [x0, #8]
/home/hei/Desktop/optee-qemu/optee_os/lib/libmbedtls/mbedtls/library/bignum.c:947 (discriminator 1)
    5e30:	b50000c2 	cbnz	x2, 5e48 <mbedtls_mpi_cmp_abs+0x1c>
/home/hei/Desktop/optee-qemu/optee_os/lib/libmbedtls/mbedtls/library/bignum.c:951
    5e34:	f9400423 	ldr	x3, [x1, #8]
/home/hei/Desktop/optee-qemu/optee_os/lib/libmbedtls/mbedtls/library/bignum.c:951 (discriminator 1)
    5e38:	b5000143 	cbnz	x3, 5e60 <mbedtls_mpi_cmp_abs+0x34>
/home/hei/Desktop/optee-qemu/optee_os/lib/libmbedtls/mbedtls/library/bignum.c:955
    5e3c:	f100005f 	cmp	x2, #0x0
    5e40:	1a9f07e0 	cset	w0, ne  // ne = any
/home/hei/Desktop/optee-qemu/optee_os/lib/libmbedtls/mbedtls/library/bignum.c:968
    5e44:	d65f03c0 	ret
/home/hei/Desktop/optee-qemu/optee_os/lib/libmbedtls/mbedtls/library/bignum.c:948
    5e48:	f9400803 	ldr	x3, [x0, #16]
    5e4c:	8b020863 	add	x3, x3, x2, lsl #2
    5e50:	b85fc063 	ldur	w3, [x3, #-4]
    5e54:	35ffff03 	cbnz	w3, 5e34 <mbedtls_mpi_cmp_abs+0x8>
/home/hei/Desktop/optee-qemu/optee_os/lib/libmbedtls/mbedtls/library/bignum.c:947 (discriminator 2)
    5e58:	d1000442 	sub	x2, x2, #0x1
    5e5c:	17fffff5 	b	5e30 <mbedtls_mpi_cmp_abs+0x4>
/home/hei/Desktop/optee-qemu/optee_os/lib/libmbedtls/mbedtls/library/bignum.c:952
    5e60:	f9400824 	ldr	x4, [x1, #16]
    5e64:	8b030885 	add	x5, x4, x3, lsl #2
    5e68:	b85fc0a5 	ldur	w5, [x5, #-4]
    5e6c:	340000a5 	cbz	w5, 5e80 <mbedtls_mpi_cmp_abs+0x54>
/home/hei/Desktop/optee-qemu/optee_os/lib/libmbedtls/mbedtls/library/bignum.c:958
    5e70:	eb03005f 	cmp	x2, x3
    5e74:	540000a9 	b.ls	5e88 <mbedtls_mpi_cmp_abs+0x5c>  // b.plast
    5e78:	52800020 	mov	w0, #0x1                   	// #1
    5e7c:	17fffff2 	b	5e44 <mbedtls_mpi_cmp_abs+0x18>
/home/hei/Desktop/optee-qemu/optee_os/lib/libmbedtls/mbedtls/library/bignum.c:951 (discriminator 2)
    5e80:	d1000463 	sub	x3, x3, #0x1
    5e84:	17ffffed 	b	5e38 <mbedtls_mpi_cmp_abs+0xc>
/home/hei/Desktop/optee-qemu/optee_os/lib/libmbedtls/mbedtls/library/bignum.c:959
    5e88:	540001c3 	b.cc	5ec0 <mbedtls_mpi_cmp_abs+0x94>  // b.lo, b.ul, b.last
    5e8c:	d1000442 	sub	x2, x2, #0x1
/home/hei/Desktop/optee-qemu/optee_os/lib/libmbedtls/mbedtls/library/bignum.c:961 (discriminator 1)
    5e90:	b100045f 	cmn	x2, #0x1
    5e94:	54000061 	b.ne	5ea0 <mbedtls_mpi_cmp_abs+0x74>  // b.any
/home/hei/Desktop/optee-qemu/optee_os/lib/libmbedtls/mbedtls/library/bignum.c:956
    5e98:	52800000 	mov	w0, #0x0                   	// #0
    5e9c:	17ffffea 	b	5e44 <mbedtls_mpi_cmp_abs+0x18>
/home/hei/Desktop/optee-qemu/optee_os/lib/libmbedtls/mbedtls/library/bignum.c:963
    5ea0:	f9400803 	ldr	x3, [x0, #16]
    5ea4:	d37ef441 	lsl	x1, x2, #2
    5ea8:	b8616863 	ldr	w3, [x3, x1]
    5eac:	b8616881 	ldr	w1, [x4, x1]
    5eb0:	6b01007f 	cmp	w3, w1
    5eb4:	54fffe28 	b.hi	5e78 <mbedtls_mpi_cmp_abs+0x4c>  // b.pmore
/home/hei/Desktop/optee-qemu/optee_os/lib/libmbedtls/mbedtls/library/bignum.c:964
    5eb8:	d1000442 	sub	x2, x2, #0x1
    5ebc:	54fffea2 	b.cs	5e90 <mbedtls_mpi_cmp_abs+0x64>  // b.hs, b.nlast
/home/hei/Desktop/optee-qemu/optee_os/lib/libmbedtls/mbedtls/library/bignum.c:959
    5ec0:	12800000 	mov	w0, #0xffffffff            	// #-1
    5ec4:	17ffffe0 	b	5e44 <mbedtls_mpi_cmp_abs+0x18>

0000000000005ec8 <mbedtls_mpi_cmp_mpi>:
mbedtls_mpi_cmp_mpi():
/home/hei/Desktop/optee-qemu/optee_os/lib/libmbedtls/mbedtls/library/bignum.c:979
    5ec8:	f9400403 	ldr	x3, [x0, #8]
/home/hei/Desktop/optee-qemu/optee_os/lib/libmbedtls/mbedtls/library/bignum.c:979 (discriminator 1)
    5ecc:	b5000103 	cbnz	x3, 5eec <mbedtls_mpi_cmp_mpi+0x24>
/home/hei/Desktop/optee-qemu/optee_os/lib/libmbedtls/mbedtls/library/bignum.c:983
    5ed0:	f9400422 	ldr	x2, [x1, #8]
/home/hei/Desktop/optee-qemu/optee_os/lib/libmbedtls/mbedtls/library/bignum.c:983 (discriminator 1)
    5ed4:	b5000182 	cbnz	x2, 5f04 <mbedtls_mpi_cmp_mpi+0x3c>
/home/hei/Desktop/optee-qemu/optee_os/lib/libmbedtls/mbedtls/library/bignum.c:987
    5ed8:	b4000603 	cbz	x3, 5f98 <mbedtls_mpi_cmp_mpi+0xd0>
/home/hei/Desktop/optee-qemu/optee_os/lib/libmbedtls/mbedtls/library/bignum.c:990
    5edc:	eb02007f 	cmp	x3, x2
    5ee0:	540001e9 	b.ls	5f1c <mbedtls_mpi_cmp_mpi+0x54>  // b.plast
/home/hei/Desktop/optee-qemu/optee_os/lib/libmbedtls/mbedtls/library/bignum.c:990 (discriminator 1)
    5ee4:	79c00000 	ldrsh	w0, [x0]
/home/hei/Desktop/optee-qemu/optee_os/lib/libmbedtls/mbedtls/library/bignum.c:1003
    5ee8:	d65f03c0 	ret
/home/hei/Desktop/optee-qemu/optee_os/lib/libmbedtls/mbedtls/library/bignum.c:980
    5eec:	f9400802 	ldr	x2, [x0, #16]
    5ef0:	8b030842 	add	x2, x2, x3, lsl #2
    5ef4:	b85fc042 	ldur	w2, [x2, #-4]
    5ef8:	35fffec2 	cbnz	w2, 5ed0 <mbedtls_mpi_cmp_mpi+0x8>
/home/hei/Desktop/optee-qemu/optee_os/lib/libmbedtls/mbedtls/library/bignum.c:979 (discriminator 2)
    5efc:	d1000463 	sub	x3, x3, #0x1
    5f00:	17fffff3 	b	5ecc <mbedtls_mpi_cmp_mpi+0x4>
/home/hei/Desktop/optee-qemu/optee_os/lib/libmbedtls/mbedtls/library/bignum.c:984
    5f04:	f9400824 	ldr	x4, [x1, #16]
    5f08:	8b020884 	add	x4, x4, x2, lsl #2
    5f0c:	b85fc084 	ldur	w4, [x4, #-4]
    5f10:	35fffe64 	cbnz	w4, 5edc <mbedtls_mpi_cmp_mpi+0x14>
/home/hei/Desktop/optee-qemu/optee_os/lib/libmbedtls/mbedtls/library/bignum.c:983 (discriminator 2)
    5f14:	d1000442 	sub	x2, x2, #0x1
    5f18:	17ffffef 	b	5ed4 <mbedtls_mpi_cmp_mpi+0xc>
/home/hei/Desktop/optee-qemu/optee_os/lib/libmbedtls/mbedtls/library/bignum.c:991
    5f1c:	79c00024 	ldrsh	w4, [x1]
    5f20:	54000062 	b.cs	5f2c <mbedtls_mpi_cmp_mpi+0x64>  // b.hs, b.nlast
/home/hei/Desktop/optee-qemu/optee_os/lib/libmbedtls/mbedtls/library/bignum.c:991 (discriminator 1)
    5f24:	4b0403e0 	neg	w0, w4
    5f28:	17fffff0 	b	5ee8 <mbedtls_mpi_cmp_mpi+0x20>
/home/hei/Desktop/optee-qemu/optee_os/lib/libmbedtls/mbedtls/library/bignum.c:993
    5f2c:	79c00002 	ldrsh	w2, [x0]
    5f30:	7100005f 	cmp	w2, #0x0
    5f34:	5400008d 	b.le	5f44 <mbedtls_mpi_cmp_mpi+0x7c>
/home/hei/Desktop/optee-qemu/optee_os/lib/libmbedtls/mbedtls/library/bignum.c:993 (discriminator 1)
    5f38:	36f802a4 	tbz	w4, #31, 5f8c <mbedtls_mpi_cmp_mpi+0xc4>
/home/hei/Desktop/optee-qemu/optee_os/lib/libmbedtls/mbedtls/library/bignum.c:993
    5f3c:	52800020 	mov	w0, #0x1                   	// #1
    5f40:	17ffffea 	b	5ee8 <mbedtls_mpi_cmp_mpi+0x20>
/home/hei/Desktop/optee-qemu/optee_os/lib/libmbedtls/mbedtls/library/bignum.c:994
    5f44:	7100009f 	cmp	w4, #0x0
    5f48:	5400022d 	b.le	5f8c <mbedtls_mpi_cmp_mpi+0xc4>
/home/hei/Desktop/optee-qemu/optee_os/lib/libmbedtls/mbedtls/library/bignum.c:994 (discriminator 1)
    5f4c:	34000202 	cbz	w2, 5f8c <mbedtls_mpi_cmp_mpi+0xc4>
/home/hei/Desktop/optee-qemu/optee_os/lib/libmbedtls/mbedtls/library/bignum.c:994
    5f50:	12800000 	mov	w0, #0xffffffff            	// #-1
    5f54:	17ffffe5 	b	5ee8 <mbedtls_mpi_cmp_mpi+0x20>
/home/hei/Desktop/optee-qemu/optee_os/lib/libmbedtls/mbedtls/library/bignum.c:998
    5f58:	f9400805 	ldr	x5, [x0, #16]
    5f5c:	d37ef464 	lsl	x4, x3, #2
    5f60:	f9400826 	ldr	x6, [x1, #16]
    5f64:	b86468a5 	ldr	w5, [x5, x4]
    5f68:	b86468c4 	ldr	w4, [x6, x4]
    5f6c:	6b0400bf 	cmp	w5, w4
    5f70:	54000069 	b.ls	5f7c <mbedtls_mpi_cmp_mpi+0xb4>  // b.plast
/home/hei/Desktop/optee-qemu/optee_os/lib/libmbedtls/mbedtls/library/bignum.c:998 (discriminator 1)
    5f74:	2a0203e0 	mov	w0, w2
    5f78:	17ffffdc 	b	5ee8 <mbedtls_mpi_cmp_mpi+0x20>
/home/hei/Desktop/optee-qemu/optee_os/lib/libmbedtls/mbedtls/library/bignum.c:999
    5f7c:	d1000463 	sub	x3, x3, #0x1
    5f80:	54000082 	b.cs	5f90 <mbedtls_mpi_cmp_mpi+0xc8>  // b.hs, b.nlast
/home/hei/Desktop/optee-qemu/optee_os/lib/libmbedtls/mbedtls/library/bignum.c:999 (discriminator 1)
    5f84:	4b0203e0 	neg	w0, w2
    5f88:	17ffffd8 	b	5ee8 <mbedtls_mpi_cmp_mpi+0x20>
    5f8c:	d1000463 	sub	x3, x3, #0x1
/home/hei/Desktop/optee-qemu/optee_os/lib/libmbedtls/mbedtls/library/bignum.c:996 (discriminator 1)
    5f90:	b100047f 	cmn	x3, #0x1
    5f94:	54fffe21 	b.ne	5f58 <mbedtls_mpi_cmp_mpi+0x90>  // b.any
/home/hei/Desktop/optee-qemu/optee_os/lib/libmbedtls/mbedtls/library/bignum.c:988
    5f98:	52800000 	mov	w0, #0x0                   	// #0
    5f9c:	17ffffd3 	b	5ee8 <mbedtls_mpi_cmp_mpi+0x20>

0000000000005fa0 <mbedtls_mpi_cmp_int>:
mbedtls_mpi_cmp_int():
/home/hei/Desktop/optee-qemu/optee_os/lib/libmbedtls/mbedtls/library/bignum.c:1009
    5fa0:	a9bd7bfd 	stp	x29, x30, [sp, #-48]!
/home/hei/Desktop/optee-qemu/optee_os/lib/libmbedtls/mbedtls/library/bignum.c:1014
    5fa4:	7100003f 	cmp	w1, #0x0
    5fa8:	5a81a422 	cneg	w2, w1, lt  // lt = tstop
/home/hei/Desktop/optee-qemu/optee_os/lib/libmbedtls/mbedtls/library/bignum.c:1009
    5fac:	910003fd 	mov	x29, sp
/home/hei/Desktop/optee-qemu/optee_os/lib/libmbedtls/mbedtls/library/bignum.c:1014
    5fb0:	b90013e2 	str	w2, [sp, #16]
/home/hei/Desktop/optee-qemu/optee_os/lib/libmbedtls/mbedtls/library/bignum.c:1015
    5fb4:	52800022 	mov	w2, #0x1                   	// #1
    5fb8:	5a82a442 	cneg	w2, w2, lt  // lt = tstop
/home/hei/Desktop/optee-qemu/optee_os/lib/libmbedtls/mbedtls/library/bignum.c:1016
    5fbc:	d2800021 	mov	x1, #0x1                   	// #1
    5fc0:	f90013e1 	str	x1, [sp, #32]
/home/hei/Desktop/optee-qemu/optee_os/lib/libmbedtls/mbedtls/library/bignum.c:1017
    5fc4:	910043e1 	add	x1, sp, #0x10
/home/hei/Desktop/optee-qemu/optee_os/lib/libmbedtls/mbedtls/library/bignum.c:1015
    5fc8:	790033e2 	strh	w2, [sp, #24]
/home/hei/Desktop/optee-qemu/optee_os/lib/libmbedtls/mbedtls/library/bignum.c:1017
    5fcc:	f90017e1 	str	x1, [sp, #40]
/home/hei/Desktop/optee-qemu/optee_os/lib/libmbedtls/mbedtls/library/bignum.c:1019
    5fd0:	910063e1 	add	x1, sp, #0x18
    5fd4:	97ffffbd 	bl	5ec8 <mbedtls_mpi_cmp_mpi>
/home/hei/Desktop/optee-qemu/optee_os/lib/libmbedtls/mbedtls/library/bignum.c:1020
    5fd8:	a8c37bfd 	ldp	x29, x30, [sp], #48
    5fdc:	d65f03c0 	ret

0000000000005fe0 <mbedtls_mpi_add_abs>:
mbedtls_mpi_add_abs():
/home/hei/Desktop/optee-qemu/optee_os/lib/libmbedtls/mbedtls/library/bignum.c:1026
    5fe0:	a9bc7bfd 	stp	x29, x30, [sp, #-64]!
/home/hei/Desktop/optee-qemu/optee_os/lib/libmbedtls/mbedtls/library/bignum.c:1034
    5fe4:	eb02001f 	cmp	x0, x2
/home/hei/Desktop/optee-qemu/optee_os/lib/libmbedtls/mbedtls/library/bignum.c:1026
    5fe8:	910003fd 	mov	x29, sp
    5fec:	a90153f3 	stp	x19, x20, [sp, #16]
    5ff0:	aa0103f4 	mov	x20, x1
    5ff4:	a9025bf5 	stp	x21, x22, [sp, #32]
    5ff8:	aa0003f5 	mov	x21, x0
    5ffc:	f9001bf7 	str	x23, [sp, #48]
/home/hei/Desktop/optee-qemu/optee_os/lib/libmbedtls/mbedtls/library/bignum.c:1034
    6000:	540000a0 	b.eq	6014 <mbedtls_mpi_add_abs+0x34>  // b.none
    6004:	aa0203f3 	mov	x19, x2
/home/hei/Desktop/optee-qemu/optee_os/lib/libmbedtls/mbedtls/library/bignum.c:1039
    6008:	eb01001f 	cmp	x0, x1
    600c:	54000481 	b.ne	609c <mbedtls_mpi_add_abs+0xbc>  // b.any
/home/hei/Desktop/optee-qemu/optee_os/lib/libmbedtls/mbedtls/library/bignum.c:1026
    6010:	aa1303f4 	mov	x20, x19
/home/hei/Desktop/optee-qemu/optee_os/lib/libmbedtls/mbedtls/library/bignum.c:1047
    6014:	f9400693 	ldr	x19, [x20, #8]
/home/hei/Desktop/optee-qemu/optee_os/lib/libmbedtls/mbedtls/library/bignum.c:1045
    6018:	52800020 	mov	w0, #0x1                   	// #1
    601c:	790002a0 	strh	w0, [x21]
/home/hei/Desktop/optee-qemu/optee_os/lib/libmbedtls/mbedtls/library/bignum.c:1047 (discriminator 1)
    6020:	b5000513 	cbnz	x19, 60c0 <mbedtls_mpi_add_abs+0xe0>
/home/hei/Desktop/optee-qemu/optee_os/lib/libmbedtls/mbedtls/library/bignum.c:1051
    6024:	aa1303e1 	mov	x1, x19
    6028:	aa1503e0 	mov	x0, x21
    602c:	97fffd00 	bl	542c <mbedtls_mpi_grow>
    6030:	2a0003f6 	mov	w22, w0
    6034:	350003a0 	cbnz	w0, 60a8 <mbedtls_mpi_add_abs+0xc8>
/home/hei/Desktop/optee-qemu/optee_os/lib/libmbedtls/mbedtls/library/bignum.c:1053
    6038:	f9400aa0 	ldr	x0, [x21, #16]
/home/hei/Desktop/optee-qemu/optee_os/lib/libmbedtls/mbedtls/library/bignum.c:1058
    603c:	d2800002 	mov	x2, #0x0                   	// #0
/home/hei/Desktop/optee-qemu/optee_os/lib/libmbedtls/mbedtls/library/bignum.c:1053
    6040:	f9400a84 	ldr	x4, [x20, #16]
    6044:	52800014 	mov	w20, #0x0                   	// #0
/home/hei/Desktop/optee-qemu/optee_os/lib/libmbedtls/mbedtls/library/bignum.c:1058 (discriminator 1)
    6048:	eb02027f 	cmp	x19, x2
    604c:	54000461 	b.ne	60d8 <mbedtls_mpi_add_abs+0xf8>  // b.any
    6050:	8b130800 	add	x0, x0, x19, lsl #2
/home/hei/Desktop/optee-qemu/optee_os/lib/libmbedtls/mbedtls/library/bignum.c:1065
    6054:	340002b4 	cbz	w20, 60a8 <mbedtls_mpi_add_abs+0xc8>
/home/hei/Desktop/optee-qemu/optee_os/lib/libmbedtls/mbedtls/library/bignum.c:1067
    6058:	f94006a1 	ldr	x1, [x21, #8]
    605c:	91000677 	add	x23, x19, #0x1
    6060:	eb13003f 	cmp	x1, x19
    6064:	540000e8 	b.hi	6080 <mbedtls_mpi_add_abs+0xa0>  // b.pmore
/home/hei/Desktop/optee-qemu/optee_os/lib/libmbedtls/mbedtls/library/bignum.c:1069
    6068:	aa1703e1 	mov	x1, x23
    606c:	aa1503e0 	mov	x0, x21
    6070:	97fffcef 	bl	542c <mbedtls_mpi_grow>
    6074:	35000480 	cbnz	w0, 6104 <mbedtls_mpi_add_abs+0x124>
/home/hei/Desktop/optee-qemu/optee_os/lib/libmbedtls/mbedtls/library/bignum.c:1070
    6078:	f9400aa0 	ldr	x0, [x21, #16]
    607c:	8b130800 	add	x0, x0, x19, lsl #2
/home/hei/Desktop/optee-qemu/optee_os/lib/libmbedtls/mbedtls/library/bignum.c:1073
    6080:	b9400001 	ldr	w1, [x0]
    6084:	aa1703f3 	mov	x19, x23
    6088:	0b010281 	add	w1, w20, w1
    608c:	b8004401 	str	w1, [x0], #4
    6090:	6b14003f 	cmp	w1, w20
    6094:	1a9f27f4 	cset	w20, cc  // cc = lo, ul, last
    6098:	17ffffef 	b	6054 <mbedtls_mpi_add_abs+0x74>
/home/hei/Desktop/optee-qemu/optee_os/lib/libmbedtls/mbedtls/library/bignum.c:1040
    609c:	97fffd6a 	bl	5644 <mbedtls_mpi_copy>
    60a0:	2a0003f6 	mov	w22, w0
    60a4:	34fffb60 	cbz	w0, 6010 <mbedtls_mpi_add_abs+0x30>
/home/hei/Desktop/optee-qemu/optee_os/lib/libmbedtls/mbedtls/library/bignum.c:1079
    60a8:	2a1603e0 	mov	w0, w22
    60ac:	a94153f3 	ldp	x19, x20, [sp, #16]
    60b0:	a9425bf5 	ldp	x21, x22, [sp, #32]
    60b4:	f9401bf7 	ldr	x23, [sp, #48]
    60b8:	a8c47bfd 	ldp	x29, x30, [sp], #64
    60bc:	d65f03c0 	ret
/home/hei/Desktop/optee-qemu/optee_os/lib/libmbedtls/mbedtls/library/bignum.c:1048
    60c0:	f9400a80 	ldr	x0, [x20, #16]
    60c4:	8b130800 	add	x0, x0, x19, lsl #2
    60c8:	b85fc000 	ldur	w0, [x0, #-4]
    60cc:	35fffac0 	cbnz	w0, 6024 <mbedtls_mpi_add_abs+0x44>
/home/hei/Desktop/optee-qemu/optee_os/lib/libmbedtls/mbedtls/library/bignum.c:1047 (discriminator 2)
    60d0:	d1000673 	sub	x19, x19, #0x1
    60d4:	17ffffd3 	b	6020 <mbedtls_mpi_add_abs+0x40>
/home/hei/Desktop/optee-qemu/optee_os/lib/libmbedtls/mbedtls/library/bignum.c:1061 (discriminator 3)
    60d8:	b8627801 	ldr	w1, [x0, x2, lsl #2]
/home/hei/Desktop/optee-qemu/optee_os/lib/libmbedtls/mbedtls/library/bignum.c:1060 (discriminator 3)
    60dc:	b8627883 	ldr	w3, [x4, x2, lsl #2]
/home/hei/Desktop/optee-qemu/optee_os/lib/libmbedtls/mbedtls/library/bignum.c:1061 (discriminator 3)
    60e0:	0b010281 	add	w1, w20, w1
    60e4:	6b14003f 	cmp	w1, w20
/home/hei/Desktop/optee-qemu/optee_os/lib/libmbedtls/mbedtls/library/bignum.c:1062 (discriminator 3)
    60e8:	0b030021 	add	w1, w1, w3
/home/hei/Desktop/optee-qemu/optee_os/lib/libmbedtls/mbedtls/library/bignum.c:1061 (discriminator 3)
    60ec:	1a9f27f4 	cset	w20, cc  // cc = lo, ul, last
/home/hei/Desktop/optee-qemu/optee_os/lib/libmbedtls/mbedtls/library/bignum.c:1062 (discriminator 3)
    60f0:	6b03003f 	cmp	w1, w3
    60f4:	1a942694 	cinc	w20, w20, cc  // cc = lo, ul, last
    60f8:	b8227801 	str	w1, [x0, x2, lsl #2]
/home/hei/Desktop/optee-qemu/optee_os/lib/libmbedtls/mbedtls/library/bignum.c:1058 (discriminator 3)
    60fc:	91000442 	add	x2, x2, #0x1
    6100:	17ffffd2 	b	6048 <mbedtls_mpi_add_abs+0x68>
/home/hei/Desktop/optee-qemu/optee_os/lib/libmbedtls/mbedtls/library/bignum.c:1069
    6104:	2a0003f6 	mov	w22, w0
/home/hei/Desktop/optee-qemu/optee_os/lib/libmbedtls/mbedtls/library/bignum.c:1078
    6108:	17ffffe8 	b	60a8 <mbedtls_mpi_add_abs+0xc8>

000000000000610c <mbedtls_mpi_sub_abs>:
mbedtls_mpi_sub_abs():
/home/hei/Desktop/optee-qemu/optee_os/lib/libmbedtls/mbedtls/library/bignum.c:1106
    610c:	a9ba7bfd 	stp	x29, x30, [sp, #-96]!
    6110:	910003fd 	mov	x29, sp
    6114:	f9001bf7 	str	x23, [sp, #48]
    6118:	aa0103f7 	mov	x23, x1
/home/hei/Desktop/optee-qemu/optee_os/lib/libmbedtls/mbedtls/library/bignum.c:1114
    611c:	aa0203e1 	mov	x1, x2
/home/hei/Desktop/optee-qemu/optee_os/lib/libmbedtls/mbedtls/library/bignum.c:1106
    6120:	a90153f3 	stp	x19, x20, [sp, #16]
    6124:	aa0203f4 	mov	x20, x2
    6128:	a9025bf5 	stp	x21, x22, [sp, #32]
    612c:	aa0003f5 	mov	x21, x0
/home/hei/Desktop/optee-qemu/optee_os/lib/libmbedtls/mbedtls/library/bignum.c:1114
    6130:	aa1703e0 	mov	x0, x23
    6134:	97ffff3e 	bl	5e2c <mbedtls_mpi_cmp_abs>
    6138:	37f80500 	tbnz	w0, #31, 61d8 <mbedtls_mpi_sub_abs+0xcc>
/home/hei/Desktop/optee-qemu/optee_os/lib/libmbedtls/mbedtls/library/bignum.c:1117
    613c:	910123f6 	add	x22, sp, #0x48
    6140:	aa1603e0 	mov	x0, x22
    6144:	97fffc95 	bl	5398 <mbedtls_mpi_init_mempool>
/home/hei/Desktop/optee-qemu/optee_os/lib/libmbedtls/mbedtls/library/bignum.c:1119
    6148:	eb15029f 	cmp	x20, x21
    614c:	540000e1 	b.ne	6168 <mbedtls_mpi_sub_abs+0x5c>  // b.any
/home/hei/Desktop/optee-qemu/optee_os/lib/libmbedtls/mbedtls/library/bignum.c:1121
    6150:	aa1403e1 	mov	x1, x20
    6154:	aa1603e0 	mov	x0, x22
    6158:	97fffd3b 	bl	5644 <mbedtls_mpi_copy>
    615c:	2a0003f3 	mov	w19, w0
    6160:	35000220 	cbnz	w0, 61a4 <mbedtls_mpi_sub_abs+0x98>
/home/hei/Desktop/optee-qemu/optee_os/lib/libmbedtls/mbedtls/library/bignum.c:1122
    6164:	aa1603f4 	mov	x20, x22
/home/hei/Desktop/optee-qemu/optee_os/lib/libmbedtls/mbedtls/library/bignum.c:1125
    6168:	eb1502ff 	cmp	x23, x21
    616c:	54000121 	b.ne	6190 <mbedtls_mpi_sub_abs+0x84>  // b.any
/home/hei/Desktop/optee-qemu/optee_os/lib/libmbedtls/mbedtls/library/bignum.c:1131
    6170:	52800020 	mov	w0, #0x1                   	// #1
    6174:	790002a0 	strh	w0, [x21]
/home/hei/Desktop/optee-qemu/optee_os/lib/libmbedtls/mbedtls/library/bignum.c:1135
    6178:	a9408680 	ldp	x0, x1, [x20, #8]
/home/hei/Desktop/optee-qemu/optee_os/lib/libmbedtls/mbedtls/library/bignum.c:1135 (discriminator 1)
    617c:	b5000240 	cbnz	x0, 61c4 <mbedtls_mpi_sub_abs+0xb8>
/home/hei/Desktop/optee-qemu/optee_os/lib/libmbedtls/mbedtls/library/bignum.c:1139
    6180:	f9400aa2 	ldr	x2, [x21, #16]
/home/hei/Desktop/optee-qemu/optee_os/lib/libmbedtls/mbedtls/library/bignum.c:1133
    6184:	52800013 	mov	w19, #0x0                   	// #0
/home/hei/Desktop/optee-qemu/optee_os/lib/libmbedtls/mbedtls/library/bignum.c:1139
    6188:	97fffb33 	bl	4e54 <mpi_sub_hlp>
    618c:	14000006 	b	61a4 <mbedtls_mpi_sub_abs+0x98>
/home/hei/Desktop/optee-qemu/optee_os/lib/libmbedtls/mbedtls/library/bignum.c:1126
    6190:	aa1703e1 	mov	x1, x23
    6194:	aa1503e0 	mov	x0, x21
    6198:	97fffd2b 	bl	5644 <mbedtls_mpi_copy>
    619c:	2a0003f3 	mov	w19, w0
    61a0:	34fffe80 	cbz	w0, 6170 <mbedtls_mpi_sub_abs+0x64>
/home/hei/Desktop/optee-qemu/optee_os/lib/libmbedtls/mbedtls/library/bignum.c:1143
    61a4:	aa1603e0 	mov	x0, x22
    61a8:	97fffc86 	bl	53c0 <mbedtls_mpi_free>
/home/hei/Desktop/optee-qemu/optee_os/lib/libmbedtls/mbedtls/library/bignum.c:1146
    61ac:	2a1303e0 	mov	w0, w19
    61b0:	a94153f3 	ldp	x19, x20, [sp, #16]
    61b4:	a9425bf5 	ldp	x21, x22, [sp, #32]
    61b8:	f9401bf7 	ldr	x23, [sp, #48]
    61bc:	a8c67bfd 	ldp	x29, x30, [sp], #96
    61c0:	d65f03c0 	ret
/home/hei/Desktop/optee-qemu/optee_os/lib/libmbedtls/mbedtls/library/bignum.c:1136
    61c4:	8b000822 	add	x2, x1, x0, lsl #2
    61c8:	b85fc042 	ldur	w2, [x2, #-4]
    61cc:	35fffda2 	cbnz	w2, 6180 <mbedtls_mpi_sub_abs+0x74>
/home/hei/Desktop/optee-qemu/optee_os/lib/libmbedtls/mbedtls/library/bignum.c:1135 (discriminator 2)
    61d0:	d1000400 	sub	x0, x0, #0x1
    61d4:	17ffffea 	b	617c <mbedtls_mpi_sub_abs+0x70>
/home/hei/Desktop/optee-qemu/optee_os/lib/libmbedtls/mbedtls/library/bignum.c:1115
    61d8:	12800133 	mov	w19, #0xfffffff6            	// #-10
    61dc:	17fffff4 	b	61ac <mbedtls_mpi_sub_abs+0xa0>

00000000000061e0 <mbedtls_mpi_add_mpi>:
mbedtls_mpi_add_mpi():
/home/hei/Desktop/optee-qemu/optee_os/lib/libmbedtls/mbedtls/library/bignum.c:1152
    61e0:	a9bd7bfd 	stp	x29, x30, [sp, #-48]!
    61e4:	910003fd 	mov	x29, sp
/home/hei/Desktop/optee-qemu/optee_os/lib/libmbedtls/mbedtls/library/bignum.c:1159
    61e8:	79c00043 	ldrsh	w3, [x2]
/home/hei/Desktop/optee-qemu/optee_os/lib/libmbedtls/mbedtls/library/bignum.c:1152
    61ec:	a90153f3 	stp	x19, x20, [sp, #16]
    61f0:	aa0003f4 	mov	x20, x0
/home/hei/Desktop/optee-qemu/optee_os/lib/libmbedtls/mbedtls/library/bignum.c:1158
    61f4:	79c00033 	ldrsh	w19, [x1]
/home/hei/Desktop/optee-qemu/optee_os/lib/libmbedtls/mbedtls/library/bignum.c:1152
    61f8:	a9025bf5 	stp	x21, x22, [sp, #32]
/home/hei/Desktop/optee-qemu/optee_os/lib/libmbedtls/mbedtls/library/bignum.c:1159
    61fc:	1b137c63 	mul	w3, w3, w19
    6200:	36f80303 	tbz	w3, #31, 6260 <mbedtls_mpi_add_mpi+0x80>
    6204:	aa0103f6 	mov	x22, x1
    6208:	aa0203f5 	mov	x21, x2
/home/hei/Desktop/optee-qemu/optee_os/lib/libmbedtls/mbedtls/library/bignum.c:1161
    620c:	aa0203e1 	mov	x1, x2
    6210:	aa1603e0 	mov	x0, x22
    6214:	97ffff06 	bl	5e2c <mbedtls_mpi_cmp_abs>
    6218:	37f80140 	tbnz	w0, #31, 6240 <mbedtls_mpi_add_mpi+0x60>
/home/hei/Desktop/optee-qemu/optee_os/lib/libmbedtls/mbedtls/library/bignum.c:1163
    621c:	aa1503e2 	mov	x2, x21
    6220:	aa1603e1 	mov	x1, x22
    6224:	aa1403e0 	mov	x0, x20
    6228:	97ffffb9 	bl	610c <mbedtls_mpi_sub_abs>
/home/hei/Desktop/optee-qemu/optee_os/lib/libmbedtls/mbedtls/library/bignum.c:1174
    622c:	34000160 	cbz	w0, 6258 <mbedtls_mpi_add_mpi+0x78>
/home/hei/Desktop/optee-qemu/optee_os/lib/libmbedtls/mbedtls/library/bignum.c:1181
    6230:	a94153f3 	ldp	x19, x20, [sp, #16]
    6234:	a9425bf5 	ldp	x21, x22, [sp, #32]
    6238:	a8c37bfd 	ldp	x29, x30, [sp], #48
    623c:	d65f03c0 	ret
/home/hei/Desktop/optee-qemu/optee_os/lib/libmbedtls/mbedtls/library/bignum.c:1168
    6240:	aa1603e2 	mov	x2, x22
    6244:	aa1503e1 	mov	x1, x21
    6248:	aa1403e0 	mov	x0, x20
    624c:	97ffffb0 	bl	610c <mbedtls_mpi_sub_abs>
    6250:	35ffff00 	cbnz	w0, 6230 <mbedtls_mpi_add_mpi+0x50>
/home/hei/Desktop/optee-qemu/optee_os/lib/libmbedtls/mbedtls/library/bignum.c:1169
    6254:	4b1303f3 	neg	w19, w19
/home/hei/Desktop/optee-qemu/optee_os/lib/libmbedtls/mbedtls/library/bignum.c:1175
    6258:	79000293 	strh	w19, [x20]
/home/hei/Desktop/optee-qemu/optee_os/lib/libmbedtls/mbedtls/library/bignum.c:1180
    625c:	17fffff5 	b	6230 <mbedtls_mpi_add_mpi+0x50>
/home/hei/Desktop/optee-qemu/optee_os/lib/libmbedtls/mbedtls/library/bignum.c:1174
    6260:	97ffff60 	bl	5fe0 <mbedtls_mpi_add_abs>
    6264:	17fffff2 	b	622c <mbedtls_mpi_add_mpi+0x4c>

0000000000006268 <mbedtls_mpi_sub_mpi>:
mbedtls_mpi_sub_mpi():
/home/hei/Desktop/optee-qemu/optee_os/lib/libmbedtls/mbedtls/library/bignum.c:1187
    6268:	a9bd7bfd 	stp	x29, x30, [sp, #-48]!
    626c:	910003fd 	mov	x29, sp
/home/hei/Desktop/optee-qemu/optee_os/lib/libmbedtls/mbedtls/library/bignum.c:1194
    6270:	79c00043 	ldrsh	w3, [x2]
/home/hei/Desktop/optee-qemu/optee_os/lib/libmbedtls/mbedtls/library/bignum.c:1187
    6274:	a90153f3 	stp	x19, x20, [sp, #16]
    6278:	aa0003f4 	mov	x20, x0
/home/hei/Desktop/optee-qemu/optee_os/lib/libmbedtls/mbedtls/library/bignum.c:1193
    627c:	79c00033 	ldrsh	w19, [x1]
/home/hei/Desktop/optee-qemu/optee_os/lib/libmbedtls/mbedtls/library/bignum.c:1187
    6280:	a9025bf5 	stp	x21, x22, [sp, #32]
/home/hei/Desktop/optee-qemu/optee_os/lib/libmbedtls/mbedtls/library/bignum.c:1194
    6284:	1b137c63 	mul	w3, w3, w19
    6288:	7100007f 	cmp	w3, #0x0
    628c:	5400030d 	b.le	62ec <mbedtls_mpi_sub_mpi+0x84>
    6290:	aa0103f6 	mov	x22, x1
    6294:	aa0203f5 	mov	x21, x2
/home/hei/Desktop/optee-qemu/optee_os/lib/libmbedtls/mbedtls/library/bignum.c:1196
    6298:	aa0203e1 	mov	x1, x2
    629c:	aa1603e0 	mov	x0, x22
    62a0:	97fffee3 	bl	5e2c <mbedtls_mpi_cmp_abs>
    62a4:	37f80140 	tbnz	w0, #31, 62cc <mbedtls_mpi_sub_mpi+0x64>
/home/hei/Desktop/optee-qemu/optee_os/lib/libmbedtls/mbedtls/library/bignum.c:1198
    62a8:	aa1503e2 	mov	x2, x21
    62ac:	aa1603e1 	mov	x1, x22
    62b0:	aa1403e0 	mov	x0, x20
    62b4:	97ffff96 	bl	610c <mbedtls_mpi_sub_abs>
/home/hei/Desktop/optee-qemu/optee_os/lib/libmbedtls/mbedtls/library/bignum.c:1209
    62b8:	34000160 	cbz	w0, 62e4 <mbedtls_mpi_sub_mpi+0x7c>
/home/hei/Desktop/optee-qemu/optee_os/lib/libmbedtls/mbedtls/library/bignum.c:1216
    62bc:	a94153f3 	ldp	x19, x20, [sp, #16]
    62c0:	a9425bf5 	ldp	x21, x22, [sp, #32]
    62c4:	a8c37bfd 	ldp	x29, x30, [sp], #48
    62c8:	d65f03c0 	ret
/home/hei/Desktop/optee-qemu/optee_os/lib/libmbedtls/mbedtls/library/bignum.c:1203
    62cc:	aa1603e2 	mov	x2, x22
    62d0:	aa1503e1 	mov	x1, x21
    62d4:	aa1403e0 	mov	x0, x20
    62d8:	97ffff8d 	bl	610c <mbedtls_mpi_sub_abs>
    62dc:	35ffff00 	cbnz	w0, 62bc <mbedtls_mpi_sub_mpi+0x54>
/home/hei/Desktop/optee-qemu/optee_os/lib/libmbedtls/mbedtls/library/bignum.c:1204
    62e0:	4b1303f3 	neg	w19, w19
/home/hei/Desktop/optee-qemu/optee_os/lib/libmbedtls/mbedtls/library/bignum.c:1210
    62e4:	79000293 	strh	w19, [x20]
/home/hei/Desktop/optee-qemu/optee_os/lib/libmbedtls/mbedtls/library/bignum.c:1215
    62e8:	17fffff5 	b	62bc <mbedtls_mpi_sub_mpi+0x54>
/home/hei/Desktop/optee-qemu/optee_os/lib/libmbedtls/mbedtls/library/bignum.c:1209
    62ec:	97ffff3d 	bl	5fe0 <mbedtls_mpi_add_abs>
    62f0:	17fffff2 	b	62b8 <mbedtls_mpi_sub_mpi+0x50>

00000000000062f4 <mbedtls_mpi_add_int>:
mbedtls_mpi_add_int():
/home/hei/Desktop/optee-qemu/optee_os/lib/libmbedtls/mbedtls/library/bignum.c:1222
    62f4:	a9bd7bfd 	stp	x29, x30, [sp, #-48]!
/home/hei/Desktop/optee-qemu/optee_os/lib/libmbedtls/mbedtls/library/bignum.c:1228
    62f8:	7100005f 	cmp	w2, #0x0
    62fc:	5a82a443 	cneg	w3, w2, lt  // lt = tstop
/home/hei/Desktop/optee-qemu/optee_os/lib/libmbedtls/mbedtls/library/bignum.c:1222
    6300:	910003fd 	mov	x29, sp
/home/hei/Desktop/optee-qemu/optee_os/lib/libmbedtls/mbedtls/library/bignum.c:1228
    6304:	b90013e3 	str	w3, [sp, #16]
/home/hei/Desktop/optee-qemu/optee_os/lib/libmbedtls/mbedtls/library/bignum.c:1229
    6308:	52800023 	mov	w3, #0x1                   	// #1
    630c:	5a83a463 	cneg	w3, w3, lt  // lt = tstop
/home/hei/Desktop/optee-qemu/optee_os/lib/libmbedtls/mbedtls/library/bignum.c:1230
    6310:	d2800022 	mov	x2, #0x1                   	// #1
    6314:	f90013e2 	str	x2, [sp, #32]
/home/hei/Desktop/optee-qemu/optee_os/lib/libmbedtls/mbedtls/library/bignum.c:1231
    6318:	910043e2 	add	x2, sp, #0x10
/home/hei/Desktop/optee-qemu/optee_os/lib/libmbedtls/mbedtls/library/bignum.c:1229
    631c:	790033e3 	strh	w3, [sp, #24]
/home/hei/Desktop/optee-qemu/optee_os/lib/libmbedtls/mbedtls/library/bignum.c:1231
    6320:	f90017e2 	str	x2, [sp, #40]
/home/hei/Desktop/optee-qemu/optee_os/lib/libmbedtls/mbedtls/library/bignum.c:1233
    6324:	910063e2 	add	x2, sp, #0x18
    6328:	97ffffae 	bl	61e0 <mbedtls_mpi_add_mpi>
/home/hei/Desktop/optee-qemu/optee_os/lib/libmbedtls/mbedtls/library/bignum.c:1234
    632c:	a8c37bfd 	ldp	x29, x30, [sp], #48
    6330:	d65f03c0 	ret

0000000000006334 <mbedtls_mpi_sub_int>:
mbedtls_mpi_sub_int():
/home/hei/Desktop/optee-qemu/optee_os/lib/libmbedtls/mbedtls/library/bignum.c:1240
    6334:	a9bd7bfd 	stp	x29, x30, [sp, #-48]!
/home/hei/Desktop/optee-qemu/optee_os/lib/libmbedtls/mbedtls/library/bignum.c:1246
    6338:	7100005f 	cmp	w2, #0x0
    633c:	5a82a443 	cneg	w3, w2, lt  // lt = tstop
/home/hei/Desktop/optee-qemu/optee_os/lib/libmbedtls/mbedtls/library/bignum.c:1240
    6340:	910003fd 	mov	x29, sp
/home/hei/Desktop/optee-qemu/optee_os/lib/libmbedtls/mbedtls/library/bignum.c:1246
    6344:	b90013e3 	str	w3, [sp, #16]
/home/hei/Desktop/optee-qemu/optee_os/lib/libmbedtls/mbedtls/library/bignum.c:1247
    6348:	52800023 	mov	w3, #0x1                   	// #1
    634c:	5a83a463 	cneg	w3, w3, lt  // lt = tstop
/home/hei/Desktop/optee-qemu/optee_os/lib/libmbedtls/mbedtls/library/bignum.c:1248
    6350:	d2800022 	mov	x2, #0x1                   	// #1
    6354:	f90013e2 	str	x2, [sp, #32]
/home/hei/Desktop/optee-qemu/optee_os/lib/libmbedtls/mbedtls/library/bignum.c:1249
    6358:	910043e2 	add	x2, sp, #0x10
/home/hei/Desktop/optee-qemu/optee_os/lib/libmbedtls/mbedtls/library/bignum.c:1247
    635c:	790033e3 	strh	w3, [sp, #24]
/home/hei/Desktop/optee-qemu/optee_os/lib/libmbedtls/mbedtls/library/bignum.c:1249
    6360:	f90017e2 	str	x2, [sp, #40]
/home/hei/Desktop/optee-qemu/optee_os/lib/libmbedtls/mbedtls/library/bignum.c:1251
    6364:	910063e2 	add	x2, sp, #0x18
    6368:	97ffffc0 	bl	6268 <mbedtls_mpi_sub_mpi>
/home/hei/Desktop/optee-qemu/optee_os/lib/libmbedtls/mbedtls/library/bignum.c:1252
    636c:	a8c37bfd 	ldp	x29, x30, [sp], #48
    6370:	d65f03c0 	ret

0000000000006374 <mbedtls_mpi_mul_mpi>:
mbedtls_mpi_mul_mpi():
/home/hei/Desktop/optee-qemu/optee_os/lib/libmbedtls/mbedtls/library/bignum.c:1330
    6374:	a9b87bfd 	stp	x29, x30, [sp, #-128]!
    6378:	910003fd 	mov	x29, sp
    637c:	a9046bf9 	stp	x25, x26, [sp, #64]
/home/hei/Desktop/optee-qemu/optee_os/lib/libmbedtls/mbedtls/library/bignum.c:1338
    6380:	910143f9 	add	x25, sp, #0x50
    6384:	9101a3fa 	add	x26, sp, #0x68
/home/hei/Desktop/optee-qemu/optee_os/lib/libmbedtls/mbedtls/library/bignum.c:1330
    6388:	a90153f3 	stp	x19, x20, [sp, #16]
    638c:	a9025bf5 	stp	x21, x22, [sp, #32]
    6390:	aa0003f5 	mov	x21, x0
    6394:	aa0203f6 	mov	x22, x2
/home/hei/Desktop/optee-qemu/optee_os/lib/libmbedtls/mbedtls/library/bignum.c:1338
    6398:	aa1903e0 	mov	x0, x25
/home/hei/Desktop/optee-qemu/optee_os/lib/libmbedtls/mbedtls/library/bignum.c:1330
    639c:	a90363f7 	stp	x23, x24, [sp, #48]
    63a0:	aa0103f7 	mov	x23, x1
/home/hei/Desktop/optee-qemu/optee_os/lib/libmbedtls/mbedtls/library/bignum.c:1338
    63a4:	97fffbfd 	bl	5398 <mbedtls_mpi_init_mempool>
    63a8:	aa1a03e0 	mov	x0, x26
    63ac:	97fffbfb 	bl	5398 <mbedtls_mpi_init_mempool>
/home/hei/Desktop/optee-qemu/optee_os/lib/libmbedtls/mbedtls/library/bignum.c:1340
    63b0:	eb1702bf 	cmp	x21, x23
    63b4:	540000e1 	b.ne	63d0 <mbedtls_mpi_mul_mpi+0x5c>  // b.any
/home/hei/Desktop/optee-qemu/optee_os/lib/libmbedtls/mbedtls/library/bignum.c:1340 (discriminator 1)
    63b8:	aa1503e1 	mov	x1, x21
    63bc:	aa1903e0 	mov	x0, x25
    63c0:	97fffca1 	bl	5644 <mbedtls_mpi_copy>
    63c4:	2a0003f4 	mov	w20, w0
    63c8:	35000300 	cbnz	w0, 6428 <mbedtls_mpi_mul_mpi+0xb4>
/home/hei/Desktop/optee-qemu/optee_os/lib/libmbedtls/mbedtls/library/bignum.c:1340
    63cc:	aa1903f7 	mov	x23, x25
/home/hei/Desktop/optee-qemu/optee_os/lib/libmbedtls/mbedtls/library/bignum.c:1341
    63d0:	eb1602bf 	cmp	x21, x22
    63d4:	540000e1 	b.ne	63f0 <mbedtls_mpi_mul_mpi+0x7c>  // b.any
/home/hei/Desktop/optee-qemu/optee_os/lib/libmbedtls/mbedtls/library/bignum.c:1341 (discriminator 1)
    63d8:	aa1503e1 	mov	x1, x21
    63dc:	aa1a03e0 	mov	x0, x26
    63e0:	97fffc99 	bl	5644 <mbedtls_mpi_copy>
    63e4:	2a0003f4 	mov	w20, w0
    63e8:	35000200 	cbnz	w0, 6428 <mbedtls_mpi_mul_mpi+0xb4>
/home/hei/Desktop/optee-qemu/optee_os/lib/libmbedtls/mbedtls/library/bignum.c:1341
    63ec:	aa1a03f6 	mov	x22, x26
/home/hei/Desktop/optee-qemu/optee_os/lib/libmbedtls/mbedtls/library/bignum.c:1343
    63f0:	f94006f8 	ldr	x24, [x23, #8]
/home/hei/Desktop/optee-qemu/optee_os/lib/libmbedtls/mbedtls/library/bignum.c:1343 (discriminator 1)
    63f4:	b5000318 	cbnz	x24, 6454 <mbedtls_mpi_mul_mpi+0xe0>
/home/hei/Desktop/optee-qemu/optee_os/lib/libmbedtls/mbedtls/library/bignum.c:1347
    63f8:	f94006d3 	ldr	x19, [x22, #8]
/home/hei/Desktop/optee-qemu/optee_os/lib/libmbedtls/mbedtls/library/bignum.c:1347 (discriminator 1)
    63fc:	b5000393 	cbnz	x19, 646c <mbedtls_mpi_mul_mpi+0xf8>
/home/hei/Desktop/optee-qemu/optee_os/lib/libmbedtls/mbedtls/library/bignum.c:1351
    6400:	8b130301 	add	x1, x24, x19
    6404:	aa1503e0 	mov	x0, x21
    6408:	97fffc09 	bl	542c <mbedtls_mpi_grow>
    640c:	2a0003f4 	mov	w20, w0
    6410:	350000c0 	cbnz	w0, 6428 <mbedtls_mpi_mul_mpi+0xb4>
/home/hei/Desktop/optee-qemu/optee_os/lib/libmbedtls/mbedtls/library/bignum.c:1352
    6414:	52800001 	mov	w1, #0x0                   	// #0
    6418:	aa1503e0 	mov	x0, x21
    641c:	97fffd38 	bl	58fc <mbedtls_mpi_lset>
    6420:	2a0003f4 	mov	w20, w0
    6424:	34000400 	cbz	w0, 64a4 <mbedtls_mpi_mul_mpi+0x130>
/home/hei/Desktop/optee-qemu/optee_os/lib/libmbedtls/mbedtls/library/bignum.c:1361
    6428:	aa1a03e0 	mov	x0, x26
    642c:	97fffbe5 	bl	53c0 <mbedtls_mpi_free>
    6430:	aa1903e0 	mov	x0, x25
    6434:	97fffbe3 	bl	53c0 <mbedtls_mpi_free>
/home/hei/Desktop/optee-qemu/optee_os/lib/libmbedtls/mbedtls/library/bignum.c:1364
    6438:	2a1403e0 	mov	w0, w20
    643c:	a94153f3 	ldp	x19, x20, [sp, #16]
    6440:	a9425bf5 	ldp	x21, x22, [sp, #32]
    6444:	a94363f7 	ldp	x23, x24, [sp, #48]
    6448:	a9446bf9 	ldp	x25, x26, [sp, #64]
    644c:	a8c87bfd 	ldp	x29, x30, [sp], #128
    6450:	d65f03c0 	ret
/home/hei/Desktop/optee-qemu/optee_os/lib/libmbedtls/mbedtls/library/bignum.c:1344
    6454:	f9400ae0 	ldr	x0, [x23, #16]
    6458:	8b180800 	add	x0, x0, x24, lsl #2
    645c:	b85fc000 	ldur	w0, [x0, #-4]
    6460:	35fffcc0 	cbnz	w0, 63f8 <mbedtls_mpi_mul_mpi+0x84>
/home/hei/Desktop/optee-qemu/optee_os/lib/libmbedtls/mbedtls/library/bignum.c:1343 (discriminator 2)
    6464:	d1000718 	sub	x24, x24, #0x1
    6468:	17ffffe3 	b	63f4 <mbedtls_mpi_mul_mpi+0x80>
/home/hei/Desktop/optee-qemu/optee_os/lib/libmbedtls/mbedtls/library/bignum.c:1348
    646c:	f9400ac0 	ldr	x0, [x22, #16]
    6470:	8b130800 	add	x0, x0, x19, lsl #2
    6474:	b85fc000 	ldur	w0, [x0, #-4]
    6478:	35fffc40 	cbnz	w0, 6400 <mbedtls_mpi_mul_mpi+0x8c>
/home/hei/Desktop/optee-qemu/optee_os/lib/libmbedtls/mbedtls/library/bignum.c:1347 (discriminator 2)
    647c:	d1000673 	sub	x19, x19, #0x1
    6480:	17ffffdf 	b	63fc <mbedtls_mpi_mul_mpi+0x88>
/home/hei/Desktop/optee-qemu/optee_os/lib/libmbedtls/mbedtls/library/bignum.c:1355 (discriminator 2)
    6484:	f9400ac1 	ldr	x1, [x22, #16]
    6488:	d37ef662 	lsl	x2, x19, #2
    648c:	f9400aa0 	ldr	x0, [x21, #16]
    6490:	b8626823 	ldr	w3, [x1, x2]
    6494:	f9400ae1 	ldr	x1, [x23, #16]
    6498:	8b020002 	add	x2, x0, x2
    649c:	aa1803e0 	mov	x0, x24
    64a0:	97fffa85 	bl	4eb4 <mpi_mul_hlp>
    64a4:	d1000673 	sub	x19, x19, #0x1
/home/hei/Desktop/optee-qemu/optee_os/lib/libmbedtls/mbedtls/library/bignum.c:1354 (discriminator 1)
    64a8:	b100067f 	cmn	x19, #0x1
    64ac:	54fffec1 	b.ne	6484 <mbedtls_mpi_mul_mpi+0x110>  // b.any
/home/hei/Desktop/optee-qemu/optee_os/lib/libmbedtls/mbedtls/library/bignum.c:1357
    64b0:	794002e0 	ldrh	w0, [x23]
    64b4:	794002c1 	ldrh	w1, [x22]
    64b8:	1b017c00 	mul	w0, w0, w1
    64bc:	790002a0 	strh	w0, [x21]
    64c0:	17ffffda 	b	6428 <mbedtls_mpi_mul_mpi+0xb4>

00000000000064c4 <mbedtls_mpi_mul_int>:
mbedtls_mpi_mul_int():
/home/hei/Desktop/optee-qemu/optee_os/lib/libmbedtls/mbedtls/library/bignum.c:1370
    64c4:	a9bd7bfd 	stp	x29, x30, [sp, #-48]!
/home/hei/Desktop/optee-qemu/optee_os/lib/libmbedtls/mbedtls/library/bignum.c:1376
    64c8:	52800023 	mov	w3, #0x1                   	// #1
/home/hei/Desktop/optee-qemu/optee_os/lib/libmbedtls/mbedtls/library/bignum.c:1370
    64cc:	910003fd 	mov	x29, sp
/home/hei/Desktop/optee-qemu/optee_os/lib/libmbedtls/mbedtls/library/bignum.c:1376
    64d0:	790033e3 	strh	w3, [sp, #24]
/home/hei/Desktop/optee-qemu/optee_os/lib/libmbedtls/mbedtls/library/bignum.c:1377
    64d4:	d2800023 	mov	x3, #0x1                   	// #1
    64d8:	f90013e3 	str	x3, [sp, #32]
/home/hei/Desktop/optee-qemu/optee_os/lib/libmbedtls/mbedtls/library/bignum.c:1378
    64dc:	910043e3 	add	x3, sp, #0x10
/home/hei/Desktop/optee-qemu/optee_os/lib/libmbedtls/mbedtls/library/bignum.c:1379
    64e0:	b90013e2 	str	w2, [sp, #16]
/home/hei/Desktop/optee-qemu/optee_os/lib/libmbedtls/mbedtls/library/bignum.c:1381
    64e4:	910063e2 	add	x2, sp, #0x18
/home/hei/Desktop/optee-qemu/optee_os/lib/libmbedtls/mbedtls/library/bignum.c:1378
    64e8:	f90017e3 	str	x3, [sp, #40]
/home/hei/Desktop/optee-qemu/optee_os/lib/libmbedtls/mbedtls/library/bignum.c:1381
    64ec:	97ffffa2 	bl	6374 <mbedtls_mpi_mul_mpi>
/home/hei/Desktop/optee-qemu/optee_os/lib/libmbedtls/mbedtls/library/bignum.c:1382
    64f0:	a8c37bfd 	ldp	x29, x30, [sp], #48
    64f4:	d65f03c0 	ret

00000000000064f8 <mbedtls_mpi_read_string>:
mbedtls_mpi_read_string():
/home/hei/Desktop/optee-qemu/optee_os/lib/libmbedtls/mbedtls/library/bignum.c:506
    64f8:	a9b87bfd 	stp	x29, x30, [sp, #-128]!
/home/hei/Desktop/optee-qemu/optee_os/lib/libmbedtls/mbedtls/library/bignum.c:514
    64fc:	51000823 	sub	w3, w1, #0x2
    6500:	7100387f 	cmp	w3, #0xe
/home/hei/Desktop/optee-qemu/optee_os/lib/libmbedtls/mbedtls/library/bignum.c:506
    6504:	910003fd 	mov	x29, sp
    6508:	a90153f3 	stp	x19, x20, [sp, #16]
    650c:	a9025bf5 	stp	x21, x22, [sp, #32]
    6510:	a90363f7 	stp	x23, x24, [sp, #48]
    6514:	a9046bf9 	stp	x25, x26, [sp, #64]
    6518:	f9002bfb 	str	x27, [sp, #80]
/home/hei/Desktop/optee-qemu/optee_os/lib/libmbedtls/mbedtls/library/bignum.c:514
    651c:	54000149 	b.ls	6544 <mbedtls_mpi_read_string+0x4c>  // b.plast
/home/hei/Desktop/optee-qemu/optee_os/lib/libmbedtls/mbedtls/library/bignum.c:515
    6520:	12800073 	mov	w19, #0xfffffffc            	// #-4
/home/hei/Desktop/optee-qemu/optee_os/lib/libmbedtls/mbedtls/library/bignum.c:574
    6524:	2a1303e0 	mov	w0, w19
    6528:	a94153f3 	ldp	x19, x20, [sp, #16]
    652c:	a9425bf5 	ldp	x21, x22, [sp, #32]
    6530:	a94363f7 	ldp	x23, x24, [sp, #48]
    6534:	a9446bf9 	ldp	x25, x26, [sp, #64]
    6538:	f9402bfb 	ldr	x27, [sp, #80]
    653c:	a8c87bfd 	ldp	x29, x30, [sp], #128
    6540:	d65f03c0 	ret
/home/hei/Desktop/optee-qemu/optee_os/lib/libmbedtls/mbedtls/library/bignum.c:517
    6544:	9101a3f8 	add	x24, sp, #0x68
    6548:	aa0203f6 	mov	x22, x2
    654c:	2a0103f7 	mov	w23, w1
    6550:	aa0003f4 	mov	x20, x0
    6554:	aa1803e0 	mov	x0, x24
    6558:	97fffb90 	bl	5398 <mbedtls_mpi_init_mempool>
/home/hei/Desktop/optee-qemu/optee_os/lib/libmbedtls/mbedtls/library/bignum.c:519
    655c:	aa1603e0 	mov	x0, x22
    6560:	97ffe807 	bl	57c <strlen>
/home/hei/Desktop/optee-qemu/optee_os/lib/libmbedtls/mbedtls/library/bignum.c:521
    6564:	710042ff 	cmp	w23, #0x10
/home/hei/Desktop/optee-qemu/optee_os/lib/libmbedtls/mbedtls/library/bignum.c:519
    6568:	aa0003f5 	mov	x21, x0
/home/hei/Desktop/optee-qemu/optee_os/lib/libmbedtls/mbedtls/library/bignum.c:521
    656c:	54000621 	b.ne	6630 <mbedtls_mpi_read_string+0x138>  // b.any
/home/hei/Desktop/optee-qemu/optee_os/lib/libmbedtls/mbedtls/library/bignum.c:523
    6570:	92f80000 	mov	x0, #0x3fffffffffffffff    	// #4611686018427387903
    6574:	eb0002bf 	cmp	x21, x0
    6578:	54fffd48 	b.hi	6520 <mbedtls_mpi_read_string+0x28>  // b.pmore
/home/hei/Desktop/optee-qemu/optee_os/lib/libmbedtls/mbedtls/library/bignum.c:526
    657c:	d37ef6a1 	lsl	x1, x21, #2
/home/hei/Desktop/optee-qemu/optee_os/lib/libmbedtls/mbedtls/library/bignum.c:528
    6580:	aa1403e0 	mov	x0, x20
/home/hei/Desktop/optee-qemu/optee_os/lib/libmbedtls/mbedtls/library/bignum.c:526
    6584:	f27e083f 	tst	x1, #0x1c
    6588:	d345fc21 	lsr	x1, x1, #5
/home/hei/Desktop/optee-qemu/optee_os/lib/libmbedtls/mbedtls/library/bignum.c:528
    658c:	9a810421 	cinc	x1, x1, ne  // ne = any
    6590:	97fffba7 	bl	542c <mbedtls_mpi_grow>
    6594:	2a0003f3 	mov	w19, w0
    6598:	35000240 	cbnz	w0, 65e0 <mbedtls_mpi_read_string+0xe8>
/home/hei/Desktop/optee-qemu/optee_os/lib/libmbedtls/mbedtls/library/bignum.c:529
    659c:	52800001 	mov	w1, #0x0                   	// #0
    65a0:	aa1403e0 	mov	x0, x20
    65a4:	97fffcd6 	bl	58fc <mbedtls_mpi_lset>
    65a8:	2a0003f3 	mov	w19, w0
    65ac:	350001a0 	cbnz	w0, 65e0 <mbedtls_mpi_read_string+0xe8>
/home/hei/Desktop/optee-qemu/optee_os/lib/libmbedtls/mbedtls/library/bignum.c:539
    65b0:	910193e6 	add	x6, sp, #0x64
/home/hei/Desktop/optee-qemu/optee_os/lib/libmbedtls/mbedtls/library/bignum.c:531
    65b4:	d2800005 	mov	x5, #0x0                   	// #0
/home/hei/Desktop/optee-qemu/optee_os/lib/libmbedtls/mbedtls/library/bignum.c:531 (discriminator 1)
    65b8:	b5000075 	cbnz	x21, 65c4 <mbedtls_mpi_read_string+0xcc>
/home/hei/Desktop/optee-qemu/optee_os/lib/libmbedtls/mbedtls/library/bignum.c:539
    65bc:	52800013 	mov	w19, #0x0                   	// #0
    65c0:	14000008 	b	65e0 <mbedtls_mpi_read_string+0xe8>
/home/hei/Desktop/optee-qemu/optee_os/lib/libmbedtls/mbedtls/library/bignum.c:533
    65c4:	f10006bf 	cmp	x21, #0x1
    65c8:	54000121 	b.ne	65ec <mbedtls_mpi_read_string+0xf4>  // b.any
/home/hei/Desktop/optee-qemu/optee_os/lib/libmbedtls/mbedtls/library/bignum.c:533 (discriminator 1)
    65cc:	394002c0 	ldrb	w0, [x22]
    65d0:	7100b41f 	cmp	w0, #0x2d
    65d4:	540000c1 	b.ne	65ec <mbedtls_mpi_read_string+0xf4>  // b.any
/home/hei/Desktop/optee-qemu/optee_os/lib/libmbedtls/mbedtls/library/bignum.c:535
    65d8:	12800000 	mov	w0, #0xffffffff            	// #-1
    65dc:	79000280 	strh	w0, [x20]
/home/hei/Desktop/optee-qemu/optee_os/lib/libmbedtls/mbedtls/library/bignum.c:571
    65e0:	aa1803e0 	mov	x0, x24
    65e4:	97fffb77 	bl	53c0 <mbedtls_mpi_free>
/home/hei/Desktop/optee-qemu/optee_os/lib/libmbedtls/mbedtls/library/bignum.c:573
    65e8:	17ffffcf 	b	6524 <mbedtls_mpi_read_string+0x2c>
/home/hei/Desktop/optee-qemu/optee_os/lib/libmbedtls/mbedtls/library/bignum.c:539
    65ec:	d10006b5 	sub	x21, x21, #0x1
    65f0:	52800201 	mov	w1, #0x10                  	// #16
    65f4:	aa0603e0 	mov	x0, x6
    65f8:	38756ac2 	ldrb	w2, [x22, x21]
    65fc:	97fff9fd 	bl	4df0 <mpi_get_digit>
    6600:	350006a0 	cbnz	w0, 66d4 <mbedtls_mpi_read_string+0x1dc>
/home/hei/Desktop/optee-qemu/optee_os/lib/libmbedtls/mbedtls/library/bignum.c:540 (discriminator 2)
    6604:	d343fca0 	lsr	x0, x5, #3
    6608:	b94067e1 	ldr	w1, [sp, #100]
    660c:	f9400a83 	ldr	x3, [x20, #16]
    6610:	d37ef400 	lsl	x0, x0, #2
    6614:	531e08a2 	ubfiz	w2, w5, #2, #3
/home/hei/Desktop/optee-qemu/optee_os/lib/libmbedtls/mbedtls/library/bignum.c:531 (discriminator 2)
    6618:	910004a5 	add	x5, x5, #0x1
/home/hei/Desktop/optee-qemu/optee_os/lib/libmbedtls/mbedtls/library/bignum.c:540 (discriminator 2)
    661c:	1ac22022 	lsl	w2, w1, w2
    6620:	b8606861 	ldr	w1, [x3, x0]
    6624:	2a020021 	orr	w1, w1, w2
    6628:	b8206861 	str	w1, [x3, x0]
    662c:	17ffffe3 	b	65b8 <mbedtls_mpi_read_string+0xc0>
/home/hei/Desktop/optee-qemu/optee_os/lib/libmbedtls/mbedtls/library/bignum.c:545
    6630:	52800001 	mov	w1, #0x0                   	// #0
    6634:	aa1403e0 	mov	x0, x20
    6638:	97fffcb1 	bl	58fc <mbedtls_mpi_lset>
    663c:	2a0003f3 	mov	w19, w0
    6640:	35fffd00 	cbnz	w0, 65e0 <mbedtls_mpi_read_string+0xe8>
/home/hei/Desktop/optee-qemu/optee_os/lib/libmbedtls/mbedtls/library/bignum.c:555
    6644:	910193fa 	add	x26, sp, #0x64
/home/hei/Desktop/optee-qemu/optee_os/lib/libmbedtls/mbedtls/library/bignum.c:547
    6648:	d2800019 	mov	x25, #0x0                   	// #0
/home/hei/Desktop/optee-qemu/optee_os/lib/libmbedtls/mbedtls/library/bignum.c:551
    664c:	1280001b 	mov	w27, #0xffffffff            	// #-1
/home/hei/Desktop/optee-qemu/optee_os/lib/libmbedtls/mbedtls/library/bignum.c:547 (discriminator 1)
    6650:	eb15033f 	cmp	x25, x21
    6654:	54fffb40 	b.eq	65bc <mbedtls_mpi_read_string+0xc4>  // b.none
/home/hei/Desktop/optee-qemu/optee_os/lib/libmbedtls/mbedtls/library/bignum.c:549
    6658:	b50000f9 	cbnz	x25, 6674 <mbedtls_mpi_read_string+0x17c>
/home/hei/Desktop/optee-qemu/optee_os/lib/libmbedtls/mbedtls/library/bignum.c:549 (discriminator 1)
    665c:	394002c0 	ldrb	w0, [x22]
    6660:	7100b41f 	cmp	w0, #0x2d
    6664:	54000081 	b.ne	6674 <mbedtls_mpi_read_string+0x17c>  // b.any
/home/hei/Desktop/optee-qemu/optee_os/lib/libmbedtls/mbedtls/library/bignum.c:551
    6668:	7900029b 	strh	w27, [x20]
/home/hei/Desktop/optee-qemu/optee_os/lib/libmbedtls/mbedtls/library/bignum.c:547 (discriminator 2)
    666c:	91000739 	add	x25, x25, #0x1
    6670:	17fffff8 	b	6650 <mbedtls_mpi_read_string+0x158>
/home/hei/Desktop/optee-qemu/optee_os/lib/libmbedtls/mbedtls/library/bignum.c:555
    6674:	38796ac2 	ldrb	w2, [x22, x25]
    6678:	2a1703e1 	mov	w1, w23
    667c:	aa1a03e0 	mov	x0, x26
    6680:	97fff9dc 	bl	4df0 <mpi_get_digit>
    6684:	2a0003f3 	mov	w19, w0
    6688:	35fffac0 	cbnz	w0, 65e0 <mbedtls_mpi_read_string+0xe8>
/home/hei/Desktop/optee-qemu/optee_os/lib/libmbedtls/mbedtls/library/bignum.c:556
    668c:	2a1703e2 	mov	w2, w23
    6690:	aa1403e1 	mov	x1, x20
    6694:	aa1803e0 	mov	x0, x24
    6698:	97ffff8b 	bl	64c4 <mbedtls_mpi_mul_int>
    669c:	2a0003f3 	mov	w19, w0
    66a0:	35fffa00 	cbnz	w0, 65e0 <mbedtls_mpi_read_string+0xe8>
/home/hei/Desktop/optee-qemu/optee_os/lib/libmbedtls/mbedtls/library/bignum.c:558
    66a4:	79c00280 	ldrsh	w0, [x20]
/home/hei/Desktop/optee-qemu/optee_os/lib/libmbedtls/mbedtls/library/bignum.c:560
    66a8:	aa1803e1 	mov	x1, x24
    66ac:	b94067e2 	ldr	w2, [sp, #100]
/home/hei/Desktop/optee-qemu/optee_os/lib/libmbedtls/mbedtls/library/bignum.c:558
    66b0:	7100041f 	cmp	w0, #0x1
/home/hei/Desktop/optee-qemu/optee_os/lib/libmbedtls/mbedtls/library/bignum.c:560
    66b4:	aa1403e0 	mov	x0, x20
/home/hei/Desktop/optee-qemu/optee_os/lib/libmbedtls/mbedtls/library/bignum.c:558
    66b8:	540000a1 	b.ne	66cc <mbedtls_mpi_read_string+0x1d4>  // b.any
/home/hei/Desktop/optee-qemu/optee_os/lib/libmbedtls/mbedtls/library/bignum.c:560
    66bc:	97ffff0e 	bl	62f4 <mbedtls_mpi_add_int>
/home/hei/Desktop/optee-qemu/optee_os/lib/libmbedtls/mbedtls/library/bignum.c:564
    66c0:	2a0003f3 	mov	w19, w0
    66c4:	34fffd40 	cbz	w0, 666c <mbedtls_mpi_read_string+0x174>
    66c8:	17ffffc6 	b	65e0 <mbedtls_mpi_read_string+0xe8>
    66cc:	97ffff1a 	bl	6334 <mbedtls_mpi_sub_int>
    66d0:	17fffffc 	b	66c0 <mbedtls_mpi_read_string+0x1c8>
/home/hei/Desktop/optee-qemu/optee_os/lib/libmbedtls/mbedtls/library/bignum.c:539
    66d4:	2a0003f3 	mov	w19, w0
    66d8:	17ffffc2 	b	65e0 <mbedtls_mpi_read_string+0xe8>

00000000000066dc <mbedtls_mpi_div_mpi>:
mbedtls_mpi_div_mpi():
/home/hei/Desktop/optee-qemu/optee_os/lib/libmbedtls/mbedtls/library/bignum.c:1485
    66dc:	a9ad7bfd 	stp	x29, x30, [sp, #-304]!
    66e0:	910003fd 	mov	x29, sp
    66e4:	a90153f3 	stp	x19, x20, [sp, #16]
    66e8:	a9025bf5 	stp	x21, x22, [sp, #32]
    66ec:	a90363f7 	stp	x23, x24, [sp, #48]
    66f0:	aa0103f7 	mov	x23, x1
    66f4:	aa0203f8 	mov	x24, x2
/home/hei/Desktop/optee-qemu/optee_os/lib/libmbedtls/mbedtls/library/bignum.c:1492
    66f8:	52800001 	mov	w1, #0x0                   	// #0
/home/hei/Desktop/optee-qemu/optee_os/lib/libmbedtls/mbedtls/library/bignum.c:1485
    66fc:	a9046bf9 	stp	x25, x26, [sp, #64]
    6700:	a90573fb 	stp	x27, x28, [sp, #80]
    6704:	aa0003fb 	mov	x27, x0
/home/hei/Desktop/optee-qemu/optee_os/lib/libmbedtls/mbedtls/library/bignum.c:1492
    6708:	aa0303e0 	mov	x0, x3
/home/hei/Desktop/optee-qemu/optee_os/lib/libmbedtls/mbedtls/library/bignum.c:1485
    670c:	fd0033e8 	str	d8, [sp, #96]
    6710:	f90047e3 	str	x3, [sp, #136]
/home/hei/Desktop/optee-qemu/optee_os/lib/libmbedtls/mbedtls/library/bignum.c:1492
    6714:	97fffe23 	bl	5fa0 <mbedtls_mpi_cmp_int>
    6718:	34002740 	cbz	w0, 6c00 <mbedtls_mpi_div_mpi+0x524>
/home/hei/Desktop/optee-qemu/optee_os/lib/libmbedtls/mbedtls/library/bignum.c:1495
    671c:	9102e3f4 	add	x20, sp, #0xb8
    6720:	910343f6 	add	x22, sp, #0xd0
    6724:	aa1403e0 	mov	x0, x20
    6728:	97fffb1c 	bl	5398 <mbedtls_mpi_init_mempool>
    672c:	aa1603e0 	mov	x0, x22
/home/hei/Desktop/optee-qemu/optee_os/lib/libmbedtls/mbedtls/library/bignum.c:1496
    6730:	9103a3fa 	add	x26, sp, #0xe8
/home/hei/Desktop/optee-qemu/optee_os/lib/libmbedtls/mbedtls/library/bignum.c:1495
    6734:	97fffb19 	bl	5398 <mbedtls_mpi_init_mempool>
/home/hei/Desktop/optee-qemu/optee_os/lib/libmbedtls/mbedtls/library/bignum.c:1496
    6738:	910403f5 	add	x21, sp, #0x100
    673c:	aa1a03e0 	mov	x0, x26
    6740:	97fffb16 	bl	5398 <mbedtls_mpi_init_mempool>
    6744:	aa1503e0 	mov	x0, x21
    6748:	97fffb14 	bl	5398 <mbedtls_mpi_init_mempool>
/home/hei/Desktop/optee-qemu/optee_os/lib/libmbedtls/mbedtls/library/bignum.c:1497
    674c:	910463e0 	add	x0, sp, #0x118
    6750:	f9003fe0 	str	x0, [sp, #120]
    6754:	97fffb11 	bl	5398 <mbedtls_mpi_init_mempool>
/home/hei/Desktop/optee-qemu/optee_os/lib/libmbedtls/mbedtls/library/bignum.c:1499
    6758:	f94047e1 	ldr	x1, [sp, #136]
    675c:	aa1803e0 	mov	x0, x24
    6760:	97fffdb3 	bl	5e2c <mbedtls_mpi_cmp_abs>
    6764:	36f80460 	tbz	w0, #31, 67f0 <mbedtls_mpi_div_mpi+0x114>
/home/hei/Desktop/optee-qemu/optee_os/lib/libmbedtls/mbedtls/library/bignum.c:1501
    6768:	b500019b 	cbnz	x27, 6798 <mbedtls_mpi_div_mpi+0xbc>
/home/hei/Desktop/optee-qemu/optee_os/lib/libmbedtls/mbedtls/library/bignum.c:1502
    676c:	b5000377 	cbnz	x23, 67d8 <mbedtls_mpi_div_mpi+0xfc>
/home/hei/Desktop/optee-qemu/optee_os/lib/libmbedtls/mbedtls/library/bignum.c:1503
    6770:	52800019 	mov	w25, #0x0                   	// #0
/home/hei/Desktop/optee-qemu/optee_os/lib/libmbedtls/mbedtls/library/bignum.c:1597
    6774:	2a1903e0 	mov	w0, w25
    6778:	fd4033e8 	ldr	d8, [sp, #96]
    677c:	a94153f3 	ldp	x19, x20, [sp, #16]
    6780:	a9425bf5 	ldp	x21, x22, [sp, #32]
    6784:	a94363f7 	ldp	x23, x24, [sp, #48]
    6788:	a9446bf9 	ldp	x25, x26, [sp, #64]
    678c:	a94573fb 	ldp	x27, x28, [sp, #80]
    6790:	a8d37bfd 	ldp	x29, x30, [sp], #304
    6794:	d65f03c0 	ret
/home/hei/Desktop/optee-qemu/optee_os/lib/libmbedtls/mbedtls/library/bignum.c:1501 (discriminator 1)
    6798:	52800001 	mov	w1, #0x0                   	// #0
    679c:	aa1b03e0 	mov	x0, x27
    67a0:	97fffc57 	bl	58fc <mbedtls_mpi_lset>
    67a4:	2a0003f9 	mov	w25, w0
    67a8:	34fffe20 	cbz	w0, 676c <mbedtls_mpi_div_mpi+0x90>
/home/hei/Desktop/optee-qemu/optee_os/lib/libmbedtls/mbedtls/library/bignum.c:1593
    67ac:	aa1403e0 	mov	x0, x20
    67b0:	97fffb04 	bl	53c0 <mbedtls_mpi_free>
    67b4:	aa1603e0 	mov	x0, x22
    67b8:	97fffb02 	bl	53c0 <mbedtls_mpi_free>
    67bc:	aa1a03e0 	mov	x0, x26
    67c0:	97fffb00 	bl	53c0 <mbedtls_mpi_free>
/home/hei/Desktop/optee-qemu/optee_os/lib/libmbedtls/mbedtls/library/bignum.c:1594
    67c4:	aa1503e0 	mov	x0, x21
    67c8:	97fffafe 	bl	53c0 <mbedtls_mpi_free>
    67cc:	f9403fe0 	ldr	x0, [sp, #120]
    67d0:	97fffafc 	bl	53c0 <mbedtls_mpi_free>
/home/hei/Desktop/optee-qemu/optee_os/lib/libmbedtls/mbedtls/library/bignum.c:1596
    67d4:	17ffffe8 	b	6774 <mbedtls_mpi_div_mpi+0x98>
/home/hei/Desktop/optee-qemu/optee_os/lib/libmbedtls/mbedtls/library/bignum.c:1502 (discriminator 1)
    67d8:	aa1803e1 	mov	x1, x24
    67dc:	aa1703e0 	mov	x0, x23
    67e0:	97fffb99 	bl	5644 <mbedtls_mpi_copy>
    67e4:	2a0003f9 	mov	w25, w0
    67e8:	35fffe20 	cbnz	w0, 67ac <mbedtls_mpi_div_mpi+0xd0>
    67ec:	17ffffe1 	b	6770 <mbedtls_mpi_div_mpi+0x94>
/home/hei/Desktop/optee-qemu/optee_os/lib/libmbedtls/mbedtls/library/bignum.c:1506
    67f0:	aa1803e1 	mov	x1, x24
    67f4:	aa1403e0 	mov	x0, x20
    67f8:	97fffb93 	bl	5644 <mbedtls_mpi_copy>
    67fc:	2a0003f9 	mov	w25, w0
    6800:	35fffd60 	cbnz	w0, 67ac <mbedtls_mpi_div_mpi+0xd0>
/home/hei/Desktop/optee-qemu/optee_os/lib/libmbedtls/mbedtls/library/bignum.c:1507
    6804:	f94047e1 	ldr	x1, [sp, #136]
    6808:	aa1603e0 	mov	x0, x22
    680c:	97fffb8e 	bl	5644 <mbedtls_mpi_copy>
    6810:	2a0003f9 	mov	w25, w0
    6814:	35fffcc0 	cbnz	w0, 67ac <mbedtls_mpi_div_mpi+0xd0>
/home/hei/Desktop/optee-qemu/optee_os/lib/libmbedtls/mbedtls/library/bignum.c:1510
    6818:	f9400701 	ldr	x1, [x24, #8]
/home/hei/Desktop/optee-qemu/optee_os/lib/libmbedtls/mbedtls/library/bignum.c:1508
    681c:	52800020 	mov	w0, #0x1                   	// #1
    6820:	790173e0 	strh	w0, [sp, #184]
/home/hei/Desktop/optee-qemu/optee_os/lib/libmbedtls/mbedtls/library/bignum.c:1510
    6824:	91000821 	add	x1, x1, #0x2
/home/hei/Desktop/optee-qemu/optee_os/lib/libmbedtls/mbedtls/library/bignum.c:1508
    6828:	7901a3e0 	strh	w0, [sp, #208]
/home/hei/Desktop/optee-qemu/optee_os/lib/libmbedtls/mbedtls/library/bignum.c:1510
    682c:	aa1a03e0 	mov	x0, x26
    6830:	97fffaff 	bl	542c <mbedtls_mpi_grow>
    6834:	2a0003f9 	mov	w25, w0
    6838:	35fffba0 	cbnz	w0, 67ac <mbedtls_mpi_div_mpi+0xd0>
/home/hei/Desktop/optee-qemu/optee_os/lib/libmbedtls/mbedtls/library/bignum.c:1511
    683c:	52800001 	mov	w1, #0x0                   	// #0
    6840:	aa1a03e0 	mov	x0, x26
    6844:	97fffc2e 	bl	58fc <mbedtls_mpi_lset>
    6848:	2a0003f9 	mov	w25, w0
    684c:	35fffb00 	cbnz	w0, 67ac <mbedtls_mpi_div_mpi+0xd0>
/home/hei/Desktop/optee-qemu/optee_os/lib/libmbedtls/mbedtls/library/bignum.c:1512
    6850:	d2800041 	mov	x1, #0x2                   	// #2
    6854:	aa1503e0 	mov	x0, x21
    6858:	97fffaf5 	bl	542c <mbedtls_mpi_grow>
    685c:	2a0003f9 	mov	w25, w0
    6860:	35fffa60 	cbnz	w0, 67ac <mbedtls_mpi_div_mpi+0xd0>
/home/hei/Desktop/optee-qemu/optee_os/lib/libmbedtls/mbedtls/library/bignum.c:1513
    6864:	f9403fe0 	ldr	x0, [sp, #120]
    6868:	d2800061 	mov	x1, #0x3                   	// #3
    686c:	97fffaf0 	bl	542c <mbedtls_mpi_grow>
    6870:	2a0003f9 	mov	w25, w0
    6874:	35fff9c0 	cbnz	w0, 67ac <mbedtls_mpi_div_mpi+0xd0>
/home/hei/Desktop/optee-qemu/optee_os/lib/libmbedtls/mbedtls/library/bignum.c:1515
    6878:	aa1603e0 	mov	x0, x22
    687c:	97fffc7d 	bl	5a70 <mbedtls_mpi_bitlen>
    6880:	92401000 	and	x0, x0, #0x1f
/home/hei/Desktop/optee-qemu/optee_os/lib/libmbedtls/mbedtls/library/bignum.c:1516
    6884:	f1007c1f 	cmp	x0, #0x1f
    6888:	54000a00 	b.eq	69c8 <mbedtls_mpi_div_mpi+0x2ec>  // b.none
/home/hei/Desktop/optee-qemu/optee_os/lib/libmbedtls/mbedtls/library/bignum.c:1518
    688c:	d28003e1 	mov	x1, #0x1f                  	// #31
    6890:	cb000020 	sub	x0, x1, x0
/home/hei/Desktop/optee-qemu/optee_os/lib/libmbedtls/mbedtls/library/bignum.c:1519
    6894:	aa0003e1 	mov	x1, x0
/home/hei/Desktop/optee-qemu/optee_os/lib/libmbedtls/mbedtls/library/bignum.c:1518
    6898:	f90043e0 	str	x0, [sp, #128]
/home/hei/Desktop/optee-qemu/optee_os/lib/libmbedtls/mbedtls/library/bignum.c:1519
    689c:	aa1403e0 	mov	x0, x20
    68a0:	97fffcf1 	bl	5c64 <mbedtls_mpi_shift_l>
    68a4:	2a0003f9 	mov	w25, w0
    68a8:	35fff820 	cbnz	w0, 67ac <mbedtls_mpi_div_mpi+0xd0>
/home/hei/Desktop/optee-qemu/optee_os/lib/libmbedtls/mbedtls/library/bignum.c:1520
    68ac:	f94043e1 	ldr	x1, [sp, #128]
    68b0:	aa1603e0 	mov	x0, x22
    68b4:	97fffcec 	bl	5c64 <mbedtls_mpi_shift_l>
    68b8:	2a0003f9 	mov	w25, w0
    68bc:	35fff780 	cbnz	w0, 67ac <mbedtls_mpi_div_mpi+0xd0>
/home/hei/Desktop/optee-qemu/optee_os/lib/libmbedtls/mbedtls/library/bignum.c:1524
    68c0:	f94063fc 	ldr	x28, [sp, #192]
/home/hei/Desktop/optee-qemu/optee_os/lib/libmbedtls/mbedtls/library/bignum.c:1525
    68c4:	f9406fe0 	ldr	x0, [sp, #216]
    68c8:	f9004be0 	str	x0, [sp, #144]
/home/hei/Desktop/optee-qemu/optee_os/lib/libmbedtls/mbedtls/library/bignum.c:1526
    68cc:	cb000393 	sub	x19, x28, x0
    68d0:	9e670260 	fmov	d0, x19
    68d4:	aa1603e0 	mov	x0, x22
    68d8:	5f455408 	shl	d8, d0, #5
    68dc:	9e660101 	fmov	x1, d8
    68e0:	97fffce1 	bl	5c64 <mbedtls_mpi_shift_l>
    68e4:	2a0003f9 	mov	w25, w0
    68e8:	35fff620 	cbnz	w0, 67ac <mbedtls_mpi_div_mpi+0xd0>
/home/hei/Desktop/optee-qemu/optee_os/lib/libmbedtls/mbedtls/library/bignum.c:1530
    68ec:	d37ef673 	lsl	x19, x19, #2
/home/hei/Desktop/optee-qemu/optee_os/lib/libmbedtls/mbedtls/library/bignum.c:1528
    68f0:	aa1603e1 	mov	x1, x22
    68f4:	aa1403e0 	mov	x0, x20
    68f8:	97fffd74 	bl	5ec8 <mbedtls_mpi_cmp_mpi>
    68fc:	36f806a0 	tbz	w0, #31, 69d0 <mbedtls_mpi_div_mpi+0x2f4>
/home/hei/Desktop/optee-qemu/optee_os/lib/libmbedtls/mbedtls/library/bignum.c:1533
    6900:	9e660101 	fmov	x1, d8
    6904:	aa1603e0 	mov	x0, x22
    6908:	97fffd17 	bl	5d64 <mbedtls_mpi_shift_r>
    690c:	2a0003f9 	mov	w25, w0
    6910:	35fff4e0 	cbnz	w0, 67ac <mbedtls_mpi_div_mpi+0xd0>
/home/hei/Desktop/optee-qemu/optee_os/lib/libmbedtls/mbedtls/library/bignum.c:1524
    6914:	d1000780 	sub	x0, x28, #0x1
    6918:	f9003be0 	str	x0, [sp, #112]
/home/hei/Desktop/optee-qemu/optee_os/lib/libmbedtls/mbedtls/library/bignum.c:1525
    691c:	f9404be0 	ldr	x0, [sp, #144]
    6920:	d1001273 	sub	x19, x19, #0x4
    6924:	d1000400 	sub	x0, x0, #0x1
    6928:	f90053e0 	str	x0, [sp, #160]
/home/hei/Desktop/optee-qemu/optee_os/lib/libmbedtls/mbedtls/library/bignum.c:1537
    692c:	d37ef400 	lsl	x0, x0, #2
    6930:	f9004be0 	str	x0, [sp, #144]
    6934:	d37ef780 	lsl	x0, x28, #2
    6938:	d100201c 	sub	x28, x0, #0x8
    693c:	d1003000 	sub	x0, x0, #0xc
    6940:	f9004fe0 	str	x0, [sp, #152]
/home/hei/Desktop/optee-qemu/optee_os/lib/libmbedtls/mbedtls/library/bignum.c:1535 (discriminator 2)
    6944:	f9403be0 	ldr	x0, [sp, #112]
    6948:	f94053e1 	ldr	x1, [sp, #160]
    694c:	eb01001f 	cmp	x0, x1
    6950:	54000568 	b.hi	69fc <mbedtls_mpi_div_mpi+0x320>  // b.pmore
/home/hei/Desktop/optee-qemu/optee_os/lib/libmbedtls/mbedtls/library/bignum.c:1575
    6954:	b400015b 	cbz	x27, 697c <mbedtls_mpi_div_mpi+0x2a0>
/home/hei/Desktop/optee-qemu/optee_os/lib/libmbedtls/mbedtls/library/bignum.c:1577
    6958:	aa1a03e1 	mov	x1, x26
    695c:	aa1b03e0 	mov	x0, x27
    6960:	97fffb39 	bl	5644 <mbedtls_mpi_copy>
    6964:	350014a0 	cbnz	w0, 6bf8 <mbedtls_mpi_div_mpi+0x51c>
/home/hei/Desktop/optee-qemu/optee_os/lib/libmbedtls/mbedtls/library/bignum.c:1578
    6968:	f94047e1 	ldr	x1, [sp, #136]
    696c:	79400300 	ldrh	w0, [x24]
    6970:	79400021 	ldrh	w1, [x1]
    6974:	1b017c00 	mul	w0, w0, w1
    6978:	79000360 	strh	w0, [x27]
/home/hei/Desktop/optee-qemu/optee_os/lib/libmbedtls/mbedtls/library/bignum.c:1581
    697c:	b4fff197 	cbz	x23, 67ac <mbedtls_mpi_div_mpi+0xd0>
/home/hei/Desktop/optee-qemu/optee_os/lib/libmbedtls/mbedtls/library/bignum.c:1583
    6980:	f94043e1 	ldr	x1, [sp, #128]
    6984:	aa1403e0 	mov	x0, x20
    6988:	97fffcf7 	bl	5d64 <mbedtls_mpi_shift_r>
    698c:	35001360 	cbnz	w0, 6bf8 <mbedtls_mpi_div_mpi+0x51c>
/home/hei/Desktop/optee-qemu/optee_os/lib/libmbedtls/mbedtls/library/bignum.c:1584
    6990:	79400300 	ldrh	w0, [x24]
/home/hei/Desktop/optee-qemu/optee_os/lib/libmbedtls/mbedtls/library/bignum.c:1585
    6994:	aa1403e1 	mov	x1, x20
/home/hei/Desktop/optee-qemu/optee_os/lib/libmbedtls/mbedtls/library/bignum.c:1584
    6998:	790173e0 	strh	w0, [sp, #184]
/home/hei/Desktop/optee-qemu/optee_os/lib/libmbedtls/mbedtls/library/bignum.c:1585
    699c:	aa1703e0 	mov	x0, x23
    69a0:	97fffb29 	bl	5644 <mbedtls_mpi_copy>
    69a4:	350012a0 	cbnz	w0, 6bf8 <mbedtls_mpi_div_mpi+0x51c>
/home/hei/Desktop/optee-qemu/optee_os/lib/libmbedtls/mbedtls/library/bignum.c:1587
    69a8:	52800001 	mov	w1, #0x0                   	// #0
    69ac:	aa1703e0 	mov	x0, x23
    69b0:	97fffd7c 	bl	5fa0 <mbedtls_mpi_cmp_int>
    69b4:	35ffefc0 	cbnz	w0, 67ac <mbedtls_mpi_div_mpi+0xd0>
/home/hei/Desktop/optee-qemu/optee_os/lib/libmbedtls/mbedtls/library/bignum.c:1588
    69b8:	52800020 	mov	w0, #0x1                   	// #1
/home/hei/Desktop/optee-qemu/optee_os/lib/libmbedtls/mbedtls/library/bignum.c:1585
    69bc:	52800019 	mov	w25, #0x0                   	// #0
/home/hei/Desktop/optee-qemu/optee_os/lib/libmbedtls/mbedtls/library/bignum.c:1588
    69c0:	790002e0 	strh	w0, [x23]
    69c4:	17ffff7a 	b	67ac <mbedtls_mpi_div_mpi+0xd0>
/home/hei/Desktop/optee-qemu/optee_os/lib/libmbedtls/mbedtls/library/bignum.c:1522
    69c8:	f90043ff 	str	xzr, [sp, #128]
    69cc:	17ffffbd 	b	68c0 <mbedtls_mpi_div_mpi+0x1e4>
/home/hei/Desktop/optee-qemu/optee_os/lib/libmbedtls/mbedtls/library/bignum.c:1530
    69d0:	f9407fe1 	ldr	x1, [sp, #248]
/home/hei/Desktop/optee-qemu/optee_os/lib/libmbedtls/mbedtls/library/bignum.c:1531
    69d4:	aa1603e2 	mov	x2, x22
/home/hei/Desktop/optee-qemu/optee_os/lib/libmbedtls/mbedtls/library/bignum.c:1530
    69d8:	b8736820 	ldr	w0, [x1, x19]
    69dc:	11000400 	add	w0, w0, #0x1
    69e0:	b8336820 	str	w0, [x1, x19]
/home/hei/Desktop/optee-qemu/optee_os/lib/libmbedtls/mbedtls/library/bignum.c:1531
    69e4:	aa1403e1 	mov	x1, x20
    69e8:	aa1403e0 	mov	x0, x20
    69ec:	97fffe1f 	bl	6268 <mbedtls_mpi_sub_mpi>
    69f0:	2a0003f9 	mov	w25, w0
    69f4:	34fff7e0 	cbz	w0, 68f0 <mbedtls_mpi_div_mpi+0x214>
    69f8:	17ffff6d 	b	67ac <mbedtls_mpi_div_mpi+0xd0>
/home/hei/Desktop/optee-qemu/optee_os/lib/libmbedtls/mbedtls/library/bignum.c:1537
    69fc:	f9403be1 	ldr	x1, [sp, #112]
    6a00:	f9404be3 	ldr	x3, [sp, #144]
    6a04:	f94067e0 	ldr	x0, [sp, #200]
    6a08:	d37ef421 	lsl	x1, x1, #2
    6a0c:	f94073e2 	ldr	x2, [sp, #224]
    6a10:	f90057e1 	str	x1, [sp, #168]
    6a14:	f9407fe5 	ldr	x5, [sp, #248]
    6a18:	b8636842 	ldr	w2, [x2, x3]
    6a1c:	b8616801 	ldr	w1, [x0, x1]
    6a20:	8b1300a4 	add	x4, x5, x19
    6a24:	6b02003f 	cmp	w1, w2
    6a28:	54000c63 	b.cc	6bb4 <mbedtls_mpi_div_mpi+0x4d8>  // b.lo, b.ul, b.last
/home/hei/Desktop/optee-qemu/optee_os/lib/libmbedtls/mbedtls/library/bignum.c:1538
    6a2c:	12800000 	mov	w0, #0xffffffff            	// #-1
    6a30:	b83368a0 	str	w0, [x5, x19]
/home/hei/Desktop/optee-qemu/optee_os/lib/libmbedtls/mbedtls/library/bignum.c:1545
    6a34:	b9400080 	ldr	w0, [x4]
    6a38:	11000400 	add	w0, w0, #0x1
    6a3c:	b9000080 	str	w0, [x4]
/home/hei/Desktop/optee-qemu/optee_os/lib/libmbedtls/mbedtls/library/bignum.c:1548
    6a40:	f9407fe1 	ldr	x1, [sp, #248]
    6a44:	b8736820 	ldr	w0, [x1, x19]
    6a48:	51000400 	sub	w0, w0, #0x1
    6a4c:	b8336820 	str	w0, [x1, x19]
/home/hei/Desktop/optee-qemu/optee_os/lib/libmbedtls/mbedtls/library/bignum.c:1550
    6a50:	52800001 	mov	w1, #0x0                   	// #0
    6a54:	aa1503e0 	mov	x0, x21
    6a58:	97fffba9 	bl	58fc <mbedtls_mpi_lset>
    6a5c:	35000ce0 	cbnz	w0, 6bf8 <mbedtls_mpi_div_mpi+0x51c>
/home/hei/Desktop/optee-qemu/optee_os/lib/libmbedtls/mbedtls/library/bignum.c:1551
    6a60:	f94053e0 	ldr	x0, [sp, #160]
    6a64:	f94073e1 	ldr	x1, [sp, #224]
    6a68:	b4000c00 	cbz	x0, 6be8 <mbedtls_mpi_div_mpi+0x50c>
/home/hei/Desktop/optee-qemu/optee_os/lib/libmbedtls/mbedtls/library/bignum.c:1551 (discriminator 1)
    6a6c:	f9404be0 	ldr	x0, [sp, #144]
    6a70:	8b000020 	add	x0, x1, x0
    6a74:	b85fc002 	ldur	w2, [x0, #-4]
/home/hei/Desktop/optee-qemu/optee_os/lib/libmbedtls/mbedtls/library/bignum.c:1551 (discriminator 4)
    6a78:	f9408be0 	ldr	x0, [sp, #272]
    6a7c:	b9000002 	str	w2, [x0]
/home/hei/Desktop/optee-qemu/optee_os/lib/libmbedtls/mbedtls/library/bignum.c:1552 (discriminator 4)
    6a80:	f9404be2 	ldr	x2, [sp, #144]
    6a84:	b8626821 	ldr	w1, [x1, x2]
    6a88:	b9000401 	str	w1, [x0, #4]
/home/hei/Desktop/optee-qemu/optee_os/lib/libmbedtls/mbedtls/library/bignum.c:1553 (discriminator 4)
    6a8c:	aa1503e1 	mov	x1, x21
    6a90:	f9407fe0 	ldr	x0, [sp, #248]
    6a94:	b8736802 	ldr	w2, [x0, x19]
    6a98:	aa1503e0 	mov	x0, x21
    6a9c:	97fffe8a 	bl	64c4 <mbedtls_mpi_mul_int>
    6aa0:	35000ac0 	cbnz	w0, 6bf8 <mbedtls_mpi_div_mpi+0x51c>
/home/hei/Desktop/optee-qemu/optee_os/lib/libmbedtls/mbedtls/library/bignum.c:1555
    6aa4:	f9403fe0 	ldr	x0, [sp, #120]
    6aa8:	52800001 	mov	w1, #0x0                   	// #0
    6aac:	97fffb94 	bl	58fc <mbedtls_mpi_lset>
    6ab0:	35000a40 	cbnz	w0, 6bf8 <mbedtls_mpi_div_mpi+0x51c>
/home/hei/Desktop/optee-qemu/optee_os/lib/libmbedtls/mbedtls/library/bignum.c:1556
    6ab4:	f9403be0 	ldr	x0, [sp, #112]
    6ab8:	f94067e1 	ldr	x1, [sp, #200]
    6abc:	f100041f 	cmp	x0, #0x1
    6ac0:	54000980 	b.eq	6bf0 <mbedtls_mpi_div_mpi+0x514>  // b.none
/home/hei/Desktop/optee-qemu/optee_os/lib/libmbedtls/mbedtls/library/bignum.c:1556 (discriminator 1)
    6ac4:	f9404fe0 	ldr	x0, [sp, #152]
    6ac8:	b8606822 	ldr	w2, [x1, x0]
/home/hei/Desktop/optee-qemu/optee_os/lib/libmbedtls/mbedtls/library/bignum.c:1556 (discriminator 4)
    6acc:	f94097e0 	ldr	x0, [sp, #296]
    6ad0:	b9000002 	str	w2, [x0]
/home/hei/Desktop/optee-qemu/optee_os/lib/libmbedtls/mbedtls/library/bignum.c:1557 (discriminator 4)
    6ad4:	b87c6822 	ldr	w2, [x1, x28]
    6ad8:	b9000402 	str	w2, [x0, #4]
/home/hei/Desktop/optee-qemu/optee_os/lib/libmbedtls/mbedtls/library/bignum.c:1558 (discriminator 4)
    6adc:	f94057e2 	ldr	x2, [sp, #168]
    6ae0:	b8626821 	ldr	w1, [x1, x2]
    6ae4:	b9000801 	str	w1, [x0, #8]
/home/hei/Desktop/optee-qemu/optee_os/lib/libmbedtls/mbedtls/library/bignum.c:1560 (discriminator 4)
    6ae8:	aa1503e0 	mov	x0, x21
    6aec:	f9403fe1 	ldr	x1, [sp, #120]
    6af0:	97fffcf6 	bl	5ec8 <mbedtls_mpi_cmp_mpi>
    6af4:	7100001f 	cmp	w0, #0x0
    6af8:	54fffa4c 	b.gt	6a40 <mbedtls_mpi_div_mpi+0x364>
/home/hei/Desktop/optee-qemu/optee_os/lib/libmbedtls/mbedtls/library/bignum.c:1562
    6afc:	f9407fe0 	ldr	x0, [sp, #248]
    6b00:	aa1603e1 	mov	x1, x22
    6b04:	b8736802 	ldr	w2, [x0, x19]
    6b08:	aa1503e0 	mov	x0, x21
    6b0c:	97fffe6e 	bl	64c4 <mbedtls_mpi_mul_int>
    6b10:	35000740 	cbnz	w0, 6bf8 <mbedtls_mpi_div_mpi+0x51c>
/home/hei/Desktop/optee-qemu/optee_os/lib/libmbedtls/mbedtls/library/bignum.c:1563
    6b14:	d37df260 	lsl	x0, x19, #3
    6b18:	f90057e0 	str	x0, [sp, #168]
    6b1c:	aa0003e1 	mov	x1, x0
    6b20:	aa1503e0 	mov	x0, x21
    6b24:	97fffc50 	bl	5c64 <mbedtls_mpi_shift_l>
    6b28:	35000680 	cbnz	w0, 6bf8 <mbedtls_mpi_div_mpi+0x51c>
/home/hei/Desktop/optee-qemu/optee_os/lib/libmbedtls/mbedtls/library/bignum.c:1564
    6b2c:	aa1503e2 	mov	x2, x21
    6b30:	aa1403e1 	mov	x1, x20
    6b34:	aa1403e0 	mov	x0, x20
    6b38:	97fffdcc 	bl	6268 <mbedtls_mpi_sub_mpi>
    6b3c:	350005e0 	cbnz	w0, 6bf8 <mbedtls_mpi_div_mpi+0x51c>
/home/hei/Desktop/optee-qemu/optee_os/lib/libmbedtls/mbedtls/library/bignum.c:1566
    6b40:	52800001 	mov	w1, #0x0                   	// #0
    6b44:	aa1403e0 	mov	x0, x20
    6b48:	97fffd16 	bl	5fa0 <mbedtls_mpi_cmp_int>
    6b4c:	36f80240 	tbz	w0, #31, 6b94 <mbedtls_mpi_div_mpi+0x4b8>
/home/hei/Desktop/optee-qemu/optee_os/lib/libmbedtls/mbedtls/library/bignum.c:1568
    6b50:	aa1603e1 	mov	x1, x22
    6b54:	aa1503e0 	mov	x0, x21
    6b58:	97fffabb 	bl	5644 <mbedtls_mpi_copy>
    6b5c:	350004e0 	cbnz	w0, 6bf8 <mbedtls_mpi_div_mpi+0x51c>
/home/hei/Desktop/optee-qemu/optee_os/lib/libmbedtls/mbedtls/library/bignum.c:1569
    6b60:	d37df261 	lsl	x1, x19, #3
    6b64:	aa1503e0 	mov	x0, x21
    6b68:	97fffc3f 	bl	5c64 <mbedtls_mpi_shift_l>
    6b6c:	35000460 	cbnz	w0, 6bf8 <mbedtls_mpi_div_mpi+0x51c>
/home/hei/Desktop/optee-qemu/optee_os/lib/libmbedtls/mbedtls/library/bignum.c:1570
    6b70:	aa1503e2 	mov	x2, x21
    6b74:	aa1403e1 	mov	x1, x20
    6b78:	aa1403e0 	mov	x0, x20
    6b7c:	97fffd99 	bl	61e0 <mbedtls_mpi_add_mpi>
    6b80:	350003c0 	cbnz	w0, 6bf8 <mbedtls_mpi_div_mpi+0x51c>
/home/hei/Desktop/optee-qemu/optee_os/lib/libmbedtls/mbedtls/library/bignum.c:1571
    6b84:	f9407fe1 	ldr	x1, [sp, #248]
    6b88:	b8736820 	ldr	w0, [x1, x19]
    6b8c:	51000400 	sub	w0, w0, #0x1
    6b90:	b8336820 	str	w0, [x1, x19]
/home/hei/Desktop/optee-qemu/optee_os/lib/libmbedtls/mbedtls/library/bignum.c:1535 (discriminator 2)
    6b94:	f9403be0 	ldr	x0, [sp, #112]
    6b98:	d1001273 	sub	x19, x19, #0x4
    6b9c:	d100139c 	sub	x28, x28, #0x4
    6ba0:	d1000400 	sub	x0, x0, #0x1
    6ba4:	f9003be0 	str	x0, [sp, #112]
    6ba8:	f9404fe0 	ldr	x0, [sp, #152]
    6bac:	d1001000 	sub	x0, x0, #0x4
    6bb0:	17ffff64 	b	6940 <mbedtls_mpi_div_mpi+0x264>
/home/hei/Desktop/optee-qemu/optee_os/lib/libmbedtls/mbedtls/library/bignum.c:1541
    6bb4:	b87c6800 	ldr	w0, [x0, x28]
mbedtls_int_div_int():
/home/hei/Desktop/optee-qemu/optee_os/lib/libmbedtls/mbedtls/library/bignum.c:1404
    6bb8:	34000142 	cbz	w2, 6be0 <mbedtls_mpi_div_mpi+0x504>
/home/hei/Desktop/optee-qemu/optee_os/lib/libmbedtls/mbedtls/library/bignum.c:1413
    6bbc:	2a0003e0 	mov	w0, w0
/home/hei/Desktop/optee-qemu/optee_os/lib/libmbedtls/mbedtls/library/bignum.c:1414
    6bc0:	2a0203e2 	mov	w2, w2
/home/hei/Desktop/optee-qemu/optee_os/lib/libmbedtls/mbedtls/library/bignum.c:1413
    6bc4:	aa018000 	orr	x0, x0, x1, lsl #32
/home/hei/Desktop/optee-qemu/optee_os/lib/libmbedtls/mbedtls/library/bignum.c:1421
    6bc8:	b2407fe1 	mov	x1, #0xffffffff            	// #4294967295
/home/hei/Desktop/optee-qemu/optee_os/lib/libmbedtls/mbedtls/library/bignum.c:1414
    6bcc:	9ac20800 	udiv	x0, x0, x2
/home/hei/Desktop/optee-qemu/optee_os/lib/libmbedtls/mbedtls/library/bignum.c:1421
    6bd0:	eb01001f 	cmp	x0, x1
    6bd4:	9a819000 	csel	x0, x0, x1, ls  // ls = plast
mbedtls_mpi_div_mpi():
/home/hei/Desktop/optee-qemu/optee_os/lib/libmbedtls/mbedtls/library/bignum.c:1541
    6bd8:	b9000080 	str	w0, [x4]
    6bdc:	17ffff96 	b	6a34 <mbedtls_mpi_div_mpi+0x358>
mbedtls_int_div_int():
/home/hei/Desktop/optee-qemu/optee_os/lib/libmbedtls/mbedtls/library/bignum.c:1408
    6be0:	12800000 	mov	w0, #0xffffffff            	// #-1
    6be4:	17fffffd 	b	6bd8 <mbedtls_mpi_div_mpi+0x4fc>
mbedtls_mpi_div_mpi():
/home/hei/Desktop/optee-qemu/optee_os/lib/libmbedtls/mbedtls/library/bignum.c:1551
    6be8:	52800002 	mov	w2, #0x0                   	// #0
    6bec:	17ffffa3 	b	6a78 <mbedtls_mpi_div_mpi+0x39c>
/home/hei/Desktop/optee-qemu/optee_os/lib/libmbedtls/mbedtls/library/bignum.c:1556
    6bf0:	52800002 	mov	w2, #0x0                   	// #0
    6bf4:	17ffffb6 	b	6acc <mbedtls_mpi_div_mpi+0x3f0>
    6bf8:	2a0003f9 	mov	w25, w0
    6bfc:	17fffeec 	b	67ac <mbedtls_mpi_div_mpi+0xd0>
/home/hei/Desktop/optee-qemu/optee_os/lib/libmbedtls/mbedtls/library/bignum.c:1493
    6c00:	12800179 	mov	w25, #0xfffffff4            	// #-12
    6c04:	17fffedc 	b	6774 <mbedtls_mpi_div_mpi+0x98>

0000000000006c08 <mbedtls_mpi_div_int>:
mbedtls_mpi_div_int():
/home/hei/Desktop/optee-qemu/optee_os/lib/libmbedtls/mbedtls/library/bignum.c:1605
    6c08:	a9bd7bfd 	stp	x29, x30, [sp, #-48]!
/home/hei/Desktop/optee-qemu/optee_os/lib/libmbedtls/mbedtls/library/bignum.c:1610
    6c0c:	7100007f 	cmp	w3, #0x0
    6c10:	5a83a464 	cneg	w4, w3, lt  // lt = tstop
/home/hei/Desktop/optee-qemu/optee_os/lib/libmbedtls/mbedtls/library/bignum.c:1605
    6c14:	910003fd 	mov	x29, sp
/home/hei/Desktop/optee-qemu/optee_os/lib/libmbedtls/mbedtls/library/bignum.c:1610
    6c18:	b90013e4 	str	w4, [sp, #16]
/home/hei/Desktop/optee-qemu/optee_os/lib/libmbedtls/mbedtls/library/bignum.c:1611
    6c1c:	52800024 	mov	w4, #0x1                   	// #1
    6c20:	5a84a484 	cneg	w4, w4, lt  // lt = tstop
/home/hei/Desktop/optee-qemu/optee_os/lib/libmbedtls/mbedtls/library/bignum.c:1612
    6c24:	d2800023 	mov	x3, #0x1                   	// #1
    6c28:	f90013e3 	str	x3, [sp, #32]
/home/hei/Desktop/optee-qemu/optee_os/lib/libmbedtls/mbedtls/library/bignum.c:1613
    6c2c:	910043e3 	add	x3, sp, #0x10
/home/hei/Desktop/optee-qemu/optee_os/lib/libmbedtls/mbedtls/library/bignum.c:1611
    6c30:	790033e4 	strh	w4, [sp, #24]
/home/hei/Desktop/optee-qemu/optee_os/lib/libmbedtls/mbedtls/library/bignum.c:1613
    6c34:	f90017e3 	str	x3, [sp, #40]
/home/hei/Desktop/optee-qemu/optee_os/lib/libmbedtls/mbedtls/library/bignum.c:1615
    6c38:	910063e3 	add	x3, sp, #0x18
    6c3c:	97fffea8 	bl	66dc <mbedtls_mpi_div_mpi>
/home/hei/Desktop/optee-qemu/optee_os/lib/libmbedtls/mbedtls/library/bignum.c:1616
    6c40:	a8c37bfd 	ldp	x29, x30, [sp], #48
    6c44:	d65f03c0 	ret

0000000000006c48 <mbedtls_mpi_mod_mpi>:
mbedtls_mpi_mod_mpi():
/home/hei/Desktop/optee-qemu/optee_os/lib/libmbedtls/mbedtls/library/bignum.c:1622
    6c48:	a9bd7bfd 	stp	x29, x30, [sp, #-48]!
    6c4c:	910003fd 	mov	x29, sp
    6c50:	a90153f3 	stp	x19, x20, [sp, #16]
    6c54:	aa0003f3 	mov	x19, x0
    6c58:	aa0103f4 	mov	x20, x1
/home/hei/Desktop/optee-qemu/optee_os/lib/libmbedtls/mbedtls/library/bignum.c:1628
    6c5c:	aa0203e0 	mov	x0, x2
    6c60:	52800001 	mov	w1, #0x0                   	// #0
/home/hei/Desktop/optee-qemu/optee_os/lib/libmbedtls/mbedtls/library/bignum.c:1622
    6c64:	f90013f5 	str	x21, [sp, #32]
    6c68:	aa0203f5 	mov	x21, x2
/home/hei/Desktop/optee-qemu/optee_os/lib/libmbedtls/mbedtls/library/bignum.c:1628
    6c6c:	97fffccd 	bl	5fa0 <mbedtls_mpi_cmp_int>
    6c70:	37f80420 	tbnz	w0, #31, 6cf4 <mbedtls_mpi_mod_mpi+0xac>
/home/hei/Desktop/optee-qemu/optee_os/lib/libmbedtls/mbedtls/library/bignum.c:1631
    6c74:	aa1403e2 	mov	x2, x20
    6c78:	aa1503e3 	mov	x3, x21
    6c7c:	aa1303e1 	mov	x1, x19
    6c80:	d2800000 	mov	x0, #0x0                   	// #0
    6c84:	97fffe96 	bl	66dc <mbedtls_mpi_div_mpi>
    6c88:	2a0003f4 	mov	w20, w0
    6c8c:	34000160 	cbz	w0, 6cb8 <mbedtls_mpi_mod_mpi+0x70>
/home/hei/Desktop/optee-qemu/optee_os/lib/libmbedtls/mbedtls/library/bignum.c:1642
    6c90:	2a1403e0 	mov	w0, w20
    6c94:	a94153f3 	ldp	x19, x20, [sp, #16]
    6c98:	f94013f5 	ldr	x21, [sp, #32]
    6c9c:	a8c37bfd 	ldp	x29, x30, [sp], #48
    6ca0:	d65f03c0 	ret
/home/hei/Desktop/optee-qemu/optee_os/lib/libmbedtls/mbedtls/library/bignum.c:1634
    6ca4:	aa1503e2 	mov	x2, x21
    6ca8:	aa1303e1 	mov	x1, x19
    6cac:	aa1303e0 	mov	x0, x19
    6cb0:	97fffd4c 	bl	61e0 <mbedtls_mpi_add_mpi>
    6cb4:	350001c0 	cbnz	w0, 6cec <mbedtls_mpi_mod_mpi+0xa4>
/home/hei/Desktop/optee-qemu/optee_os/lib/libmbedtls/mbedtls/library/bignum.c:1633
    6cb8:	52800001 	mov	w1, #0x0                   	// #0
    6cbc:	aa1303e0 	mov	x0, x19
    6cc0:	97fffcb8 	bl	5fa0 <mbedtls_mpi_cmp_int>
    6cc4:	37ffff00 	tbnz	w0, #31, 6ca4 <mbedtls_mpi_mod_mpi+0x5c>
/home/hei/Desktop/optee-qemu/optee_os/lib/libmbedtls/mbedtls/library/bignum.c:1636
    6cc8:	aa1503e1 	mov	x1, x21
    6ccc:	aa1303e0 	mov	x0, x19
    6cd0:	97fffc7e 	bl	5ec8 <mbedtls_mpi_cmp_mpi>
    6cd4:	37fffde0 	tbnz	w0, #31, 6c90 <mbedtls_mpi_mod_mpi+0x48>
/home/hei/Desktop/optee-qemu/optee_os/lib/libmbedtls/mbedtls/library/bignum.c:1637
    6cd8:	aa1503e2 	mov	x2, x21
    6cdc:	aa1303e1 	mov	x1, x19
    6ce0:	aa1303e0 	mov	x0, x19
    6ce4:	97fffd61 	bl	6268 <mbedtls_mpi_sub_mpi>
    6ce8:	34ffff00 	cbz	w0, 6cc8 <mbedtls_mpi_mod_mpi+0x80>
    6cec:	2a0003f4 	mov	w20, w0
    6cf0:	17ffffe8 	b	6c90 <mbedtls_mpi_mod_mpi+0x48>
/home/hei/Desktop/optee-qemu/optee_os/lib/libmbedtls/mbedtls/library/bignum.c:1629
    6cf4:	12800134 	mov	w20, #0xfffffff6            	// #-10
    6cf8:	17ffffe6 	b	6c90 <mbedtls_mpi_mod_mpi+0x48>

0000000000006cfc <mbedtls_mpi_mod_int>:
mbedtls_mpi_mod_int():
/home/hei/Desktop/optee-qemu/optee_os/lib/libmbedtls/mbedtls/library/bignum.c:1654
    6cfc:	7100005f 	cmp	w2, #0x0
    6d00:	54000460 	b.eq	6d8c <mbedtls_mpi_mod_int+0x90>  // b.none
/home/hei/Desktop/optee-qemu/optee_os/lib/libmbedtls/mbedtls/library/bignum.c:1657
    6d04:	5400048b 	b.lt	6d94 <mbedtls_mpi_mod_int+0x98>  // b.tstop
/home/hei/Desktop/optee-qemu/optee_os/lib/libmbedtls/mbedtls/library/bignum.c:1663
    6d08:	7100045f 	cmp	w2, #0x1
    6d0c:	54000081 	b.ne	6d1c <mbedtls_mpi_mod_int+0x20>  // b.any
/home/hei/Desktop/optee-qemu/optee_os/lib/libmbedtls/mbedtls/library/bignum.c:1665
    6d10:	b900001f 	str	wzr, [x0]
/home/hei/Desktop/optee-qemu/optee_os/lib/libmbedtls/mbedtls/library/bignum.c:1698
    6d14:	52800000 	mov	w0, #0x0                   	// #0
/home/hei/Desktop/optee-qemu/optee_os/lib/libmbedtls/mbedtls/library/bignum.c:1701
    6d18:	d65f03c0 	ret
/home/hei/Desktop/optee-qemu/optee_os/lib/libmbedtls/mbedtls/library/bignum.c:1669
    6d1c:	7100085f 	cmp	w2, #0x2
    6d20:	540000c1 	b.ne	6d38 <mbedtls_mpi_mod_int+0x3c>  // b.any
/home/hei/Desktop/optee-qemu/optee_os/lib/libmbedtls/mbedtls/library/bignum.c:1671
    6d24:	f9400821 	ldr	x1, [x1, #16]
    6d28:	b9400021 	ldr	w1, [x1]
    6d2c:	12000021 	and	w1, w1, #0x1
    6d30:	b9000001 	str	w1, [x0]
/home/hei/Desktop/optee-qemu/optee_os/lib/libmbedtls/mbedtls/library/bignum.c:1672
    6d34:	17fffff8 	b	6d14 <mbedtls_mpi_mod_int+0x18>
/home/hei/Desktop/optee-qemu/optee_os/lib/libmbedtls/mbedtls/library/bignum.c:1678
    6d38:	f9400425 	ldr	x5, [x1, #8]
    6d3c:	52800003 	mov	w3, #0x0                   	// #0
    6d40:	d10004a5 	sub	x5, x5, #0x1
    6d44:	b10004bf 	cmn	x5, #0x1
    6d48:	540000e1 	b.ne	6d64 <mbedtls_mpi_mod_int+0x68>  // b.any
/home/hei/Desktop/optee-qemu/optee_os/lib/libmbedtls/mbedtls/library/bignum.c:1695
    6d4c:	79c00021 	ldrsh	w1, [x1]
    6d50:	36f80061 	tbz	w1, #31, 6d5c <mbedtls_mpi_mod_int+0x60>
    6d54:	34000043 	cbz	w3, 6d5c <mbedtls_mpi_mod_int+0x60>
/home/hei/Desktop/optee-qemu/optee_os/lib/libmbedtls/mbedtls/library/bignum.c:1696
    6d58:	4b030043 	sub	w3, w2, w3
/home/hei/Desktop/optee-qemu/optee_os/lib/libmbedtls/mbedtls/library/bignum.c:1698
    6d5c:	b9000003 	str	w3, [x0]
    6d60:	17ffffed 	b	6d14 <mbedtls_mpi_mod_int+0x18>
/home/hei/Desktop/optee-qemu/optee_os/lib/libmbedtls/mbedtls/library/bignum.c:1680
    6d64:	f9400824 	ldr	x4, [x1, #16]
    6d68:	b8657886 	ldr	w6, [x4, x5, lsl #2]
/home/hei/Desktop/optee-qemu/optee_os/lib/libmbedtls/mbedtls/library/bignum.c:1681
    6d6c:	13864063 	extr	w3, w3, w6, #16
/home/hei/Desktop/optee-qemu/optee_os/lib/libmbedtls/mbedtls/library/bignum.c:1686
    6d70:	1ac20864 	udiv	w4, w3, w2
    6d74:	1b028c83 	msub	w3, w4, w2, w3
    6d78:	12003cc4 	and	w4, w6, #0xffff
    6d7c:	2a034084 	orr	w4, w4, w3, lsl #16
    6d80:	1ac20883 	udiv	w3, w4, w2
    6d84:	1b029063 	msub	w3, w3, w2, w4
    6d88:	17ffffee 	b	6d40 <mbedtls_mpi_mod_int+0x44>
/home/hei/Desktop/optee-qemu/optee_os/lib/libmbedtls/mbedtls/library/bignum.c:1655
    6d8c:	12800160 	mov	w0, #0xfffffff4            	// #-12
    6d90:	17ffffe2 	b	6d18 <mbedtls_mpi_mod_int+0x1c>
/home/hei/Desktop/optee-qemu/optee_os/lib/libmbedtls/mbedtls/library/bignum.c:1658
    6d94:	12800120 	mov	w0, #0xfffffff6            	// #-10
    6d98:	17ffffe0 	b	6d18 <mbedtls_mpi_mod_int+0x1c>

0000000000006d9c <mpi_write_hlp>:
mpi_write_hlp():
/home/hei/Desktop/optee-qemu/optee_os/lib/libmbedtls/mbedtls/library/bignum.c:580
    6d9c:	a9bc7bfd 	stp	x29, x30, [sp, #-64]!
/home/hei/Desktop/optee-qemu/optee_os/lib/libmbedtls/mbedtls/library/bignum.c:584
    6da0:	51000823 	sub	w3, w1, #0x2
    6da4:	7100387f 	cmp	w3, #0xe
/home/hei/Desktop/optee-qemu/optee_os/lib/libmbedtls/mbedtls/library/bignum.c:580
    6da8:	910003fd 	mov	x29, sp
    6dac:	a90153f3 	stp	x19, x20, [sp, #16]
    6db0:	a9025bf5 	stp	x21, x22, [sp, #32]
/home/hei/Desktop/optee-qemu/optee_os/lib/libmbedtls/mbedtls/library/bignum.c:584
    6db4:	540005a8 	b.hi	6e68 <mpi_write_hlp+0xcc>  // b.pmore
    6db8:	aa0203f5 	mov	x21, x2
    6dbc:	2a0103f6 	mov	w22, w1
/home/hei/Desktop/optee-qemu/optee_os/lib/libmbedtls/mbedtls/library/bignum.c:587
    6dc0:	2a0103e2 	mov	w2, w1
    6dc4:	aa0003f3 	mov	x19, x0
    6dc8:	aa0003e1 	mov	x1, x0
    6dcc:	9100f3e0 	add	x0, sp, #0x3c
    6dd0:	97ffffcb 	bl	6cfc <mbedtls_mpi_mod_int>
    6dd4:	2a0003f4 	mov	w20, w0
    6dd8:	350003e0 	cbnz	w0, 6e54 <mpi_write_hlp+0xb8>
/home/hei/Desktop/optee-qemu/optee_os/lib/libmbedtls/mbedtls/library/bignum.c:588
    6ddc:	2a1603e3 	mov	w3, w22
    6de0:	aa1303e2 	mov	x2, x19
    6de4:	d2800001 	mov	x1, #0x0                   	// #0
    6de8:	aa1303e0 	mov	x0, x19
    6dec:	97ffff87 	bl	6c08 <mbedtls_mpi_div_int>
    6df0:	2a0003f4 	mov	w20, w0
    6df4:	35000300 	cbnz	w0, 6e54 <mpi_write_hlp+0xb8>
/home/hei/Desktop/optee-qemu/optee_os/lib/libmbedtls/mbedtls/library/bignum.c:590
    6df8:	52800001 	mov	w1, #0x0                   	// #0
    6dfc:	aa1303e0 	mov	x0, x19
    6e00:	97fffc68 	bl	5fa0 <mbedtls_mpi_cmp_int>
    6e04:	35000140 	cbnz	w0, 6e2c <mpi_write_hlp+0x90>
/home/hei/Desktop/optee-qemu/optee_os/lib/libmbedtls/mbedtls/library/bignum.c:593
    6e08:	f94002a1 	ldr	x1, [x21]
    6e0c:	b9403fe3 	ldr	w3, [sp, #60]
    6e10:	91000422 	add	x2, x1, #0x1
    6e14:	12001c60 	and	w0, w3, #0xff
    6e18:	7100247f 	cmp	w3, #0x9
    6e1c:	54000169 	b.ls	6e48 <mpi_write_hlp+0xac>  // b.plast
/home/hei/Desktop/optee-qemu/optee_os/lib/libmbedtls/mbedtls/library/bignum.c:596
    6e20:	1100dc00 	add	w0, w0, #0x37
    6e24:	f90002a2 	str	x2, [x21]
    6e28:	1400000a 	b	6e50 <mpi_write_hlp+0xb4>
/home/hei/Desktop/optee-qemu/optee_os/lib/libmbedtls/mbedtls/library/bignum.c:591
    6e2c:	aa1503e2 	mov	x2, x21
    6e30:	2a1603e1 	mov	w1, w22
    6e34:	aa1303e0 	mov	x0, x19
    6e38:	97ffffd9 	bl	6d9c <mpi_write_hlp>
    6e3c:	34fffe60 	cbz	w0, 6e08 <mpi_write_hlp+0x6c>
    6e40:	2a0003f4 	mov	w20, w0
    6e44:	14000004 	b	6e54 <mpi_write_hlp+0xb8>
/home/hei/Desktop/optee-qemu/optee_os/lib/libmbedtls/mbedtls/library/bignum.c:594
    6e48:	1100c000 	add	w0, w0, #0x30
    6e4c:	f90002a2 	str	x2, [x21]
/home/hei/Desktop/optee-qemu/optee_os/lib/libmbedtls/mbedtls/library/bignum.c:596
    6e50:	39000020 	strb	w0, [x1]
/home/hei/Desktop/optee-qemu/optee_os/lib/libmbedtls/mbedtls/library/bignum.c:601
    6e54:	2a1403e0 	mov	w0, w20
    6e58:	a94153f3 	ldp	x19, x20, [sp, #16]
    6e5c:	a9425bf5 	ldp	x21, x22, [sp, #32]
    6e60:	a8c47bfd 	ldp	x29, x30, [sp], #64
    6e64:	d65f03c0 	ret
/home/hei/Desktop/optee-qemu/optee_os/lib/libmbedtls/mbedtls/library/bignum.c:585
    6e68:	12800074 	mov	w20, #0xfffffffc            	// #-4
    6e6c:	17fffffa 	b	6e54 <mpi_write_hlp+0xb8>

0000000000006e70 <mbedtls_mpi_write_string>:
mbedtls_mpi_write_string():
/home/hei/Desktop/optee-qemu/optee_os/lib/libmbedtls/mbedtls/library/bignum.c:608
    6e70:	a9ba7bfd 	stp	x29, x30, [sp, #-96]!
/home/hei/Desktop/optee-qemu/optee_os/lib/libmbedtls/mbedtls/library/bignum.c:617
    6e74:	51000825 	sub	w5, w1, #0x2
    6e78:	710038bf 	cmp	w5, #0xe
/home/hei/Desktop/optee-qemu/optee_os/lib/libmbedtls/mbedtls/library/bignum.c:608
    6e7c:	910003fd 	mov	x29, sp
    6e80:	a90153f3 	stp	x19, x20, [sp, #16]
    6e84:	a9025bf5 	stp	x21, x22, [sp, #32]
    6e88:	f9001bf7 	str	x23, [sp, #48]
/home/hei/Desktop/optee-qemu/optee_os/lib/libmbedtls/mbedtls/library/bignum.c:617
    6e8c:	54000d88 	b.hi	703c <mbedtls_mpi_write_string+0x1cc>  // b.pmore
    6e90:	2a0103f4 	mov	w20, w1
/home/hei/Desktop/optee-qemu/optee_os/lib/libmbedtls/mbedtls/library/bignum.c:620
    6e94:	aa0003f3 	mov	x19, x0
    6e98:	aa0403f5 	mov	x21, x4
    6e9c:	aa0303f6 	mov	x22, x3
    6ea0:	aa0203f7 	mov	x23, x2
    6ea4:	97fffaf3 	bl	5a70 <mbedtls_mpi_bitlen>
/home/hei/Desktop/optee-qemu/optee_os/lib/libmbedtls/mbedtls/library/bignum.c:621
    6ea8:	71000e9f 	cmp	w20, #0x3
    6eac:	5400004d 	b.le	6eb4 <mbedtls_mpi_write_string+0x44>
/home/hei/Desktop/optee-qemu/optee_os/lib/libmbedtls/mbedtls/library/bignum.c:621 (discriminator 1)
    6eb0:	d341fc00 	lsr	x0, x0, #1
/home/hei/Desktop/optee-qemu/optee_os/lib/libmbedtls/mbedtls/library/bignum.c:622
    6eb4:	7100429f 	cmp	w20, #0x10
    6eb8:	54000041 	b.ne	6ec0 <mbedtls_mpi_write_string+0x50>  // b.any
/home/hei/Desktop/optee-qemu/optee_os/lib/libmbedtls/mbedtls/library/bignum.c:622 (discriminator 1)
    6ebc:	d341fc00 	lsr	x0, x0, #1
/home/hei/Desktop/optee-qemu/optee_os/lib/libmbedtls/mbedtls/library/bignum.c:628
    6ec0:	91000401 	add	x1, x0, #0x1
    6ec4:	91000c05 	add	x5, x0, #0x3
    6ec8:	92400021 	and	x1, x1, #0x1
    6ecc:	8b050020 	add	x0, x1, x5
/home/hei/Desktop/optee-qemu/optee_os/lib/libmbedtls/mbedtls/library/bignum.c:630
    6ed0:	eb16001f 	cmp	x0, x22
    6ed4:	54000129 	b.ls	6ef8 <mbedtls_mpi_write_string+0x88>  // b.plast
/home/hei/Desktop/optee-qemu/optee_os/lib/libmbedtls/mbedtls/library/bignum.c:633
    6ed8:	128000f3 	mov	w19, #0xfffffff8            	// #-8
/home/hei/Desktop/optee-qemu/optee_os/lib/libmbedtls/mbedtls/library/bignum.c:632
    6edc:	f90002a0 	str	x0, [x21]
/home/hei/Desktop/optee-qemu/optee_os/lib/libmbedtls/mbedtls/library/bignum.c:680
    6ee0:	2a1303e0 	mov	w0, w19
    6ee4:	a94153f3 	ldp	x19, x20, [sp, #16]
    6ee8:	a9425bf5 	ldp	x21, x22, [sp, #32]
    6eec:	f9401bf7 	ldr	x23, [sp, #48]
    6ef0:	a8c67bfd 	ldp	x29, x30, [sp], #96
    6ef4:	d65f03c0 	ret
/home/hei/Desktop/optee-qemu/optee_os/lib/libmbedtls/mbedtls/library/bignum.c:637
    6ef8:	910123f6 	add	x22, sp, #0x48
/home/hei/Desktop/optee-qemu/optee_os/lib/libmbedtls/mbedtls/library/bignum.c:636
    6efc:	f90023f7 	str	x23, [sp, #64]
/home/hei/Desktop/optee-qemu/optee_os/lib/libmbedtls/mbedtls/library/bignum.c:637
    6f00:	aa1603e0 	mov	x0, x22
    6f04:	97fff925 	bl	5398 <mbedtls_mpi_init_mempool>
/home/hei/Desktop/optee-qemu/optee_os/lib/libmbedtls/mbedtls/library/bignum.c:639
    6f08:	79c00260 	ldrsh	w0, [x19]
    6f0c:	3100041f 	cmn	w0, #0x1
    6f10:	540000c1 	b.ne	6f28 <mbedtls_mpi_write_string+0xb8>  // b.any
/home/hei/Desktop/optee-qemu/optee_os/lib/libmbedtls/mbedtls/library/bignum.c:640
    6f14:	f94023e0 	ldr	x0, [sp, #64]
    6f18:	91000401 	add	x1, x0, #0x1
    6f1c:	f90023e1 	str	x1, [sp, #64]
    6f20:	528005a1 	mov	w1, #0x2d                  	// #45
    6f24:	39000001 	strb	w1, [x0]
/home/hei/Desktop/optee-qemu/optee_os/lib/libmbedtls/mbedtls/library/bignum.c:642
    6f28:	7100429f 	cmp	w20, #0x10
    6f2c:	54000661 	b.ne	6ff8 <mbedtls_mpi_write_string+0x188>  // b.any
/home/hei/Desktop/optee-qemu/optee_os/lib/libmbedtls/mbedtls/library/bignum.c:647
    6f30:	f9400660 	ldr	x0, [x19, #8]
/home/hei/Desktop/optee-qemu/optee_os/lib/libmbedtls/mbedtls/library/bignum.c:656
    6f34:	b0000022 	adrp	x2, b000 <__func__.3755+0x98>
    6f38:	91139442 	add	x2, x2, #0x4e5
/home/hei/Desktop/optee-qemu/optee_os/lib/libmbedtls/mbedtls/library/bignum.c:647
    6f3c:	d2800005 	mov	x5, #0x0                   	// #0
/home/hei/Desktop/optee-qemu/optee_os/lib/libmbedtls/mbedtls/library/bignum.c:647 (discriminator 1)
    6f40:	b5000180 	cbnz	x0, 6f70 <mbedtls_mpi_write_string+0x100>
/home/hei/Desktop/optee-qemu/optee_os/lib/libmbedtls/mbedtls/library/bignum.c:672
    6f44:	f94023e0 	ldr	x0, [sp, #64]
/home/hei/Desktop/optee-qemu/optee_os/lib/libmbedtls/mbedtls/library/bignum.c:673
    6f48:	52800013 	mov	w19, #0x0                   	// #0
/home/hei/Desktop/optee-qemu/optee_os/lib/libmbedtls/mbedtls/library/bignum.c:672
    6f4c:	91000401 	add	x1, x0, #0x1
    6f50:	f90023e1 	str	x1, [sp, #64]
    6f54:	3900001f 	strb	wzr, [x0]
/home/hei/Desktop/optee-qemu/optee_os/lib/libmbedtls/mbedtls/library/bignum.c:673
    6f58:	f94023e2 	ldr	x2, [sp, #64]
    6f5c:	cb170057 	sub	x23, x2, x23
    6f60:	f90002b7 	str	x23, [x21]
/home/hei/Desktop/optee-qemu/optee_os/lib/libmbedtls/mbedtls/library/bignum.c:677
    6f64:	aa1603e0 	mov	x0, x22
    6f68:	97fff916 	bl	53c0 <mbedtls_mpi_free>
/home/hei/Desktop/optee-qemu/optee_os/lib/libmbedtls/mbedtls/library/bignum.c:679
    6f6c:	17ffffdd 	b	6ee0 <mbedtls_mpi_write_string+0x70>
/home/hei/Desktop/optee-qemu/optee_os/lib/libmbedtls/mbedtls/library/bignum.c:651
    6f70:	d37ef404 	lsl	x4, x0, #2
/home/hei/Desktop/optee-qemu/optee_os/lib/libmbedtls/mbedtls/library/bignum.c:649
    6f74:	d2800081 	mov	x1, #0x4                   	// #4
/home/hei/Desktop/optee-qemu/optee_os/lib/libmbedtls/mbedtls/library/bignum.c:651
    6f78:	d1001084 	sub	x4, x4, #0x4
    6f7c:	f9400a67 	ldr	x7, [x19, #16]
    6f80:	531d7023 	lsl	w3, w1, #3
    6f84:	51002066 	sub	w6, w3, #0x8
/home/hei/Desktop/optee-qemu/optee_os/lib/libmbedtls/mbedtls/library/bignum.c:653
    6f88:	520000a5 	eor	w5, w5, #0x1
/home/hei/Desktop/optee-qemu/optee_os/lib/libmbedtls/mbedtls/library/bignum.c:651
    6f8c:	b86468e3 	ldr	w3, [x7, x4]
    6f90:	1ac62463 	lsr	w3, w3, w6
/home/hei/Desktop/optee-qemu/optee_os/lib/libmbedtls/mbedtls/library/bignum.c:653
    6f94:	72001c66 	ands	w6, w3, #0xff
    6f98:	1a9f00a5 	csel	w5, w5, wzr, eq  // eq = none
    6f9c:	34000085 	cbz	w5, 6fac <mbedtls_mpi_write_string+0x13c>
/home/hei/Desktop/optee-qemu/optee_os/lib/libmbedtls/mbedtls/library/bignum.c:653 (discriminator 1)
    6fa0:	8b010005 	add	x5, x0, x1
    6fa4:	f10008bf 	cmp	x5, #0x2
    6fa8:	54000241 	b.ne	6ff0 <mbedtls_mpi_write_string+0x180>  // b.any
/home/hei/Desktop/optee-qemu/optee_os/lib/libmbedtls/mbedtls/library/bignum.c:656
    6fac:	f94023e7 	ldr	x7, [sp, #64]
/home/hei/Desktop/optee-qemu/optee_os/lib/libmbedtls/mbedtls/library/bignum.c:657
    6fb0:	92400c63 	and	x3, x3, #0xf
/home/hei/Desktop/optee-qemu/optee_os/lib/libmbedtls/mbedtls/library/bignum.c:656
    6fb4:	910004e5 	add	x5, x7, #0x1
    6fb8:	f90023e5 	str	x5, [sp, #64]
    6fbc:	d3441cc5 	ubfx	x5, x6, #4, #4
/home/hei/Desktop/optee-qemu/optee_os/lib/libmbedtls/mbedtls/library/bignum.c:657
    6fc0:	38636843 	ldrb	w3, [x2, x3]
/home/hei/Desktop/optee-qemu/optee_os/lib/libmbedtls/mbedtls/library/bignum.c:656
    6fc4:	38656845 	ldrb	w5, [x2, x5]
    6fc8:	390000e5 	strb	w5, [x7]
/home/hei/Desktop/optee-qemu/optee_os/lib/libmbedtls/mbedtls/library/bignum.c:657
    6fcc:	f94023e5 	ldr	x5, [sp, #64]
    6fd0:	910004a6 	add	x6, x5, #0x1
    6fd4:	f90023e6 	str	x6, [sp, #64]
    6fd8:	390000a3 	strb	w3, [x5]
/home/hei/Desktop/optee-qemu/optee_os/lib/libmbedtls/mbedtls/library/bignum.c:658
    6fdc:	d2800025 	mov	x5, #0x1                   	// #1
/home/hei/Desktop/optee-qemu/optee_os/lib/libmbedtls/mbedtls/library/bignum.c:649 (discriminator 2)
    6fe0:	f1000421 	subs	x1, x1, #0x1
    6fe4:	54fffcc1 	b.ne	6f7c <mbedtls_mpi_write_string+0x10c>  // b.any
/home/hei/Desktop/optee-qemu/optee_os/lib/libmbedtls/mbedtls/library/bignum.c:647 (discriminator 2)
    6fe8:	d1000400 	sub	x0, x0, #0x1
    6fec:	17ffffd5 	b	6f40 <mbedtls_mpi_write_string+0xd0>
    6ff0:	d2800005 	mov	x5, #0x0                   	// #0
    6ff4:	17fffffb 	b	6fe0 <mbedtls_mpi_write_string+0x170>
/home/hei/Desktop/optee-qemu/optee_os/lib/libmbedtls/mbedtls/library/bignum.c:664
    6ff8:	aa1303e1 	mov	x1, x19
    6ffc:	aa1603e0 	mov	x0, x22
    7000:	97fff991 	bl	5644 <mbedtls_mpi_copy>
    7004:	2a0003f3 	mov	w19, w0
    7008:	35fffae0 	cbnz	w0, 6f64 <mbedtls_mpi_write_string+0xf4>
/home/hei/Desktop/optee-qemu/optee_os/lib/libmbedtls/mbedtls/library/bignum.c:666
    700c:	79c093e0 	ldrsh	w0, [sp, #72]
    7010:	3100041f 	cmn	w0, #0x1
    7014:	54000061 	b.ne	7020 <mbedtls_mpi_write_string+0x1b0>  // b.any
/home/hei/Desktop/optee-qemu/optee_os/lib/libmbedtls/mbedtls/library/bignum.c:667
    7018:	52800020 	mov	w0, #0x1                   	// #1
    701c:	790093e0 	strh	w0, [sp, #72]
/home/hei/Desktop/optee-qemu/optee_os/lib/libmbedtls/mbedtls/library/bignum.c:669
    7020:	910103e2 	add	x2, sp, #0x40
    7024:	2a1403e1 	mov	w1, w20
    7028:	aa1603e0 	mov	x0, x22
    702c:	97ffff5c 	bl	6d9c <mpi_write_hlp>
    7030:	2a0003f3 	mov	w19, w0
    7034:	34fff880 	cbz	w0, 6f44 <mbedtls_mpi_write_string+0xd4>
    7038:	17ffffcb 	b	6f64 <mbedtls_mpi_write_string+0xf4>
/home/hei/Desktop/optee-qemu/optee_os/lib/libmbedtls/mbedtls/library/bignum.c:618
    703c:	12800073 	mov	w19, #0xfffffffc            	// #-4
    7040:	17ffffa8 	b	6ee0 <mbedtls_mpi_write_string+0x70>

0000000000007044 <mpi_check_small_factors>:
mpi_check_small_factors():
/home/hei/Desktop/optee-qemu/optee_os/lib/libmbedtls/mbedtls/library/bignum.c:2233
    7044:	f9400801 	ldr	x1, [x0, #16]
    7048:	b9400021 	ldr	w1, [x1]
    704c:	36000441 	tbz	w1, #0, 70d4 <mpi_check_small_factors+0x90>
/home/hei/Desktop/optee-qemu/optee_os/lib/libmbedtls/mbedtls/library/bignum.c:2228
    7050:	a9bc7bfd 	stp	x29, x30, [sp, #-64]!
    7054:	910003fd 	mov	x29, sp
    7058:	a90153f3 	stp	x19, x20, [sp, #16]
    705c:	f0000013 	adrp	x19, a000 <__text_end+0x12f4>
    7060:	aa0003f4 	mov	x20, x0
    7064:	91235273 	add	x19, x19, #0x8d4
    7068:	a9025bf5 	stp	x21, x22, [sp, #32]
/home/hei/Desktop/optee-qemu/optee_os/lib/libmbedtls/mbedtls/library/bignum.c:2241
    706c:	9100f3f6 	add	x22, sp, #0x3c
/home/hei/Desktop/optee-qemu/optee_os/lib/libmbedtls/mbedtls/library/bignum.c:2236
    7070:	b9400275 	ldr	w21, [x19]
    7074:	710002bf 	cmp	w21, #0x0
    7078:	540000cc 	b.gt	7090 <mpi_check_small_factors+0x4c>
    707c:	52800000 	mov	w0, #0x0                   	// #0
/home/hei/Desktop/optee-qemu/optee_os/lib/libmbedtls/mbedtls/library/bignum.c:2249
    7080:	a94153f3 	ldp	x19, x20, [sp, #16]
    7084:	a9425bf5 	ldp	x21, x22, [sp, #32]
    7088:	a8c47bfd 	ldp	x29, x30, [sp], #64
    708c:	d65f03c0 	ret
/home/hei/Desktop/optee-qemu/optee_os/lib/libmbedtls/mbedtls/library/bignum.c:2238
    7090:	2a1503e1 	mov	w1, w21
    7094:	aa1403e0 	mov	x0, x20
    7098:	97fffbc2 	bl	5fa0 <mbedtls_mpi_cmp_int>
    709c:	7100001f 	cmp	w0, #0x0
    70a0:	5400016d 	b.le	70cc <mpi_check_small_factors+0x88>
/home/hei/Desktop/optee-qemu/optee_os/lib/libmbedtls/mbedtls/library/bignum.c:2241
    70a4:	2a1503e2 	mov	w2, w21
    70a8:	aa1403e1 	mov	x1, x20
    70ac:	aa1603e0 	mov	x0, x22
    70b0:	97ffff13 	bl	6cfc <mbedtls_mpi_mod_int>
    70b4:	35fffe60 	cbnz	w0, 7080 <mpi_check_small_factors+0x3c>
/home/hei/Desktop/optee-qemu/optee_os/lib/libmbedtls/mbedtls/library/bignum.c:2243
    70b8:	b9403fe0 	ldr	w0, [sp, #60]
    70bc:	91001273 	add	x19, x19, #0x4
    70c0:	35fffd80 	cbnz	w0, 7070 <mpi_check_small_factors+0x2c>
/home/hei/Desktop/optee-qemu/optee_os/lib/libmbedtls/mbedtls/library/bignum.c:2244
    70c4:	128001a0 	mov	w0, #0xfffffff2            	// #-14
    70c8:	17ffffee 	b	7080 <mpi_check_small_factors+0x3c>
/home/hei/Desktop/optee-qemu/optee_os/lib/libmbedtls/mbedtls/library/bignum.c:2239
    70cc:	52800020 	mov	w0, #0x1                   	// #1
    70d0:	17ffffec 	b	7080 <mpi_check_small_factors+0x3c>
/home/hei/Desktop/optee-qemu/optee_os/lib/libmbedtls/mbedtls/library/bignum.c:2234
    70d4:	128001a0 	mov	w0, #0xfffffff2            	// #-14
/home/hei/Desktop/optee-qemu/optee_os/lib/libmbedtls/mbedtls/library/bignum.c:2249
    70d8:	d65f03c0 	ret

00000000000070dc <mbedtls_mpi_montg_init>:
mbedtls_mpi_montg_init():
/home/hei/Desktop/optee-qemu/optee_os/lib/libmbedtls/mbedtls/library/bignum.c:1708
    70dc:	f9400821 	ldr	x1, [x1, #16]
/home/hei/Desktop/optee-qemu/optee_os/lib/libmbedtls/mbedtls/library/bignum.c:1712
    70e0:	52800062 	mov	w2, #0x3                   	// #3
/home/hei/Desktop/optee-qemu/optee_os/lib/libmbedtls/mbedtls/library/bignum.c:1715
    70e4:	52800045 	mov	w5, #0x2                   	// #2
/home/hei/Desktop/optee-qemu/optee_os/lib/libmbedtls/mbedtls/library/bignum.c:1708
    70e8:	b9400023 	ldr	w3, [x1]
/home/hei/Desktop/optee-qemu/optee_os/lib/libmbedtls/mbedtls/library/bignum.c:1712
    70ec:	11000861 	add	w1, w3, #0x2
    70f0:	531f7821 	lsl	w1, w1, #1
    70f4:	121d0021 	and	w1, w1, #0x8
    70f8:	0b030021 	add	w1, w1, w3
/home/hei/Desktop/optee-qemu/optee_os/lib/libmbedtls/mbedtls/library/bignum.c:1715 (discriminator 3)
    70fc:	1b019464 	msub	w4, w3, w1, w5
/home/hei/Desktop/optee-qemu/optee_os/lib/libmbedtls/mbedtls/library/bignum.c:1714 (discriminator 3)
    7100:	71000442 	subs	w2, w2, #0x1
/home/hei/Desktop/optee-qemu/optee_os/lib/libmbedtls/mbedtls/library/bignum.c:1715 (discriminator 3)
    7104:	1b047c21 	mul	w1, w1, w4
/home/hei/Desktop/optee-qemu/optee_os/lib/libmbedtls/mbedtls/library/bignum.c:1714 (discriminator 3)
    7108:	54ffffa1 	b.ne	70fc <mbedtls_mpi_montg_init+0x20>  // b.any
/home/hei/Desktop/optee-qemu/optee_os/lib/libmbedtls/mbedtls/library/bignum.c:1717
    710c:	4b0103e1 	neg	w1, w1
    7110:	b9000001 	str	w1, [x0]
/home/hei/Desktop/optee-qemu/optee_os/lib/libmbedtls/mbedtls/library/bignum.c:1718
    7114:	d65f03c0 	ret

0000000000007118 <mbedtls_mpi_montmul>:
mbedtls_mpi_montmul():
/home/hei/Desktop/optee-qemu/optee_os/lib/libmbedtls/mbedtls/library/bignum.c:1730
    7118:	f9400445 	ldr	x5, [x2, #8]
    711c:	f9400486 	ldr	x6, [x4, #8]
    7120:	910004a5 	add	x5, x5, #0x1
    7124:	eb0500df 	cmp	x6, x5
    7128:	540008e3 	b.cc	7244 <mbedtls_mpi_montmul+0x12c>  // b.lo, b.ul, b.last
/home/hei/Desktop/optee-qemu/optee_os/lib/libmbedtls/mbedtls/library/bignum.c:1730 (discriminator 1)
    712c:	f9400885 	ldr	x5, [x4, #16]
    7130:	b40008a5 	cbz	x5, 7244 <mbedtls_mpi_montmul+0x12c>
/home/hei/Desktop/optee-qemu/optee_os/lib/libmbedtls/mbedtls/library/bignum.c:1726
    7134:	a9bb7bfd 	stp	x29, x30, [sp, #-80]!
    7138:	910003fd 	mov	x29, sp
    713c:	a90153f3 	stp	x19, x20, [sp, #16]
    7140:	aa0203f3 	mov	x19, x2
/home/hei/Desktop/optee-qemu/optee_os/lib/libmbedtls/mbedtls/library/bignum.c:1733
    7144:	d37ef4c2 	lsl	x2, x6, #2
/home/hei/Desktop/optee-qemu/optee_os/lib/libmbedtls/mbedtls/library/bignum.c:1726
    7148:	a90363f7 	stp	x23, x24, [sp, #48]
    714c:	aa0103f8 	mov	x24, x1
    7150:	2a0303f7 	mov	w23, w3
/home/hei/Desktop/optee-qemu/optee_os/lib/libmbedtls/mbedtls/library/bignum.c:1733
    7154:	52800001 	mov	w1, #0x0                   	// #0
/home/hei/Desktop/optee-qemu/optee_os/lib/libmbedtls/mbedtls/library/bignum.c:1726
    7158:	a9025bf5 	stp	x21, x22, [sp, #32]
    715c:	aa0403f6 	mov	x22, x4
    7160:	aa0003f5 	mov	x21, x0
/home/hei/Desktop/optee-qemu/optee_os/lib/libmbedtls/mbedtls/library/bignum.c:1733
    7164:	aa0503e0 	mov	x0, x5
/home/hei/Desktop/optee-qemu/optee_os/lib/libmbedtls/mbedtls/library/bignum.c:1726
    7168:	f90023f9 	str	x25, [sp, #64]
/home/hei/Desktop/optee-qemu/optee_os/lib/libmbedtls/mbedtls/library/bignum.c:1733
    716c:	97ffe94b 	bl	1698 <memset>
/home/hei/Desktop/optee-qemu/optee_os/lib/libmbedtls/mbedtls/library/bignum.c:1736
    7170:	f940066d 	ldr	x13, [x19, #8]
/home/hei/Desktop/optee-qemu/optee_os/lib/libmbedtls/mbedtls/library/bignum.c:1739
    7174:	d2800014 	mov	x20, #0x0                   	// #0
/home/hei/Desktop/optee-qemu/optee_os/lib/libmbedtls/mbedtls/library/bignum.c:1737
    7178:	f9400700 	ldr	x0, [x24, #8]
/home/hei/Desktop/optee-qemu/optee_os/lib/libmbedtls/mbedtls/library/bignum.c:1750
    717c:	910005ac 	add	x12, x13, #0x1
/home/hei/Desktop/optee-qemu/optee_os/lib/libmbedtls/mbedtls/library/bignum.c:1735
    7180:	f9400ad9 	ldr	x25, [x22, #16]
/home/hei/Desktop/optee-qemu/optee_os/lib/libmbedtls/mbedtls/library/bignum.c:1737
    7184:	eb0d001f 	cmp	x0, x13
/home/hei/Desktop/optee-qemu/optee_os/lib/libmbedtls/mbedtls/library/bignum.c:1750
    7188:	d37ef58c 	lsl	x12, x12, #2
/home/hei/Desktop/optee-qemu/optee_os/lib/libmbedtls/mbedtls/library/bignum.c:1737
    718c:	9a8d900f 	csel	x15, x0, x13, ls  // ls = plast
/home/hei/Desktop/optee-qemu/optee_os/lib/libmbedtls/mbedtls/library/bignum.c:1735
    7190:	aa1903eb 	mov	x11, x25
/home/hei/Desktop/optee-qemu/optee_os/lib/libmbedtls/mbedtls/library/bignum.c:1739 (discriminator 1)
    7194:	eb0d029f 	cmp	x20, x13
    7198:	f9400aa0 	ldr	x0, [x21, #16]
    719c:	54000281 	b.ne	71ec <mbedtls_mpi_montmul+0xd4>  // b.any
/home/hei/Desktop/optee-qemu/optee_os/lib/libmbedtls/mbedtls/library/bignum.c:1753
    71a0:	aa0c03e2 	mov	x2, x12
    71a4:	d1001181 	sub	x1, x12, #0x4
    71a8:	8b010321 	add	x1, x25, x1
    71ac:	97ffe4e6 	bl	544 <memcpy>
/home/hei/Desktop/optee-qemu/optee_os/lib/libmbedtls/mbedtls/library/bignum.c:1755
    71b0:	aa1303e1 	mov	x1, x19
    71b4:	aa1503e0 	mov	x0, x21
    71b8:	97fffb1d 	bl	5e2c <mbedtls_mpi_cmp_abs>
    71bc:	37f803e0 	tbnz	w0, #31, 7238 <mbedtls_mpi_montmul+0x120>
/home/hei/Desktop/optee-qemu/optee_os/lib/libmbedtls/mbedtls/library/bignum.c:1756
    71c0:	f9400a61 	ldr	x1, [x19, #16]
    71c4:	f9400aa2 	ldr	x2, [x21, #16]
/home/hei/Desktop/optee-qemu/optee_os/lib/libmbedtls/mbedtls/library/bignum.c:1759
    71c8:	aa1403e0 	mov	x0, x20
    71cc:	97fff722 	bl	4e54 <mpi_sub_hlp>
/home/hei/Desktop/optee-qemu/optee_os/lib/libmbedtls/mbedtls/library/bignum.c:1761
    71d0:	52800000 	mov	w0, #0x0                   	// #0
/home/hei/Desktop/optee-qemu/optee_os/lib/libmbedtls/mbedtls/library/bignum.c:1762
    71d4:	a94153f3 	ldp	x19, x20, [sp, #16]
    71d8:	a9425bf5 	ldp	x21, x22, [sp, #32]
    71dc:	a94363f7 	ldp	x23, x24, [sp, #48]
    71e0:	f94023f9 	ldr	x25, [sp, #64]
    71e4:	a8c57bfd 	ldp	x29, x30, [sp], #80
    71e8:	d65f03c0 	ret
/home/hei/Desktop/optee-qemu/optee_os/lib/libmbedtls/mbedtls/library/bignum.c:1745 (discriminator 3)
    71ec:	f9400b01 	ldr	x1, [x24, #16]
/home/hei/Desktop/optee-qemu/optee_os/lib/libmbedtls/mbedtls/library/bignum.c:1747 (discriminator 3)
    71f0:	aa0b03e2 	mov	x2, x11
/home/hei/Desktop/optee-qemu/optee_os/lib/libmbedtls/mbedtls/library/bignum.c:1744 (discriminator 3)
    71f4:	b8747812 	ldr	w18, [x0, x20, lsl #2]
/home/hei/Desktop/optee-qemu/optee_os/lib/libmbedtls/mbedtls/library/bignum.c:1739 (discriminator 3)
    71f8:	91000694 	add	x20, x20, #0x1
/home/hei/Desktop/optee-qemu/optee_os/lib/libmbedtls/mbedtls/library/bignum.c:1745 (discriminator 3)
    71fc:	b9400160 	ldr	w0, [x11]
    7200:	b940002e 	ldr	w14, [x1]
/home/hei/Desktop/optee-qemu/optee_os/lib/libmbedtls/mbedtls/library/bignum.c:1747 (discriminator 3)
    7204:	2a1203e3 	mov	w3, w18
/home/hei/Desktop/optee-qemu/optee_os/lib/libmbedtls/mbedtls/library/bignum.c:1745 (discriminator 3)
    7208:	1b0e024e 	madd	w14, w18, w14, w0
/home/hei/Desktop/optee-qemu/optee_os/lib/libmbedtls/mbedtls/library/bignum.c:1747 (discriminator 3)
    720c:	aa0f03e0 	mov	x0, x15
/home/hei/Desktop/optee-qemu/optee_os/lib/libmbedtls/mbedtls/library/bignum.c:1745 (discriminator 3)
    7210:	1b177dce 	mul	w14, w14, w23
/home/hei/Desktop/optee-qemu/optee_os/lib/libmbedtls/mbedtls/library/bignum.c:1747 (discriminator 3)
    7214:	97fff728 	bl	4eb4 <mpi_mul_hlp>
/home/hei/Desktop/optee-qemu/optee_os/lib/libmbedtls/mbedtls/library/bignum.c:1748 (discriminator 3)
    7218:	aa0b03e2 	mov	x2, x11
    721c:	f9400a61 	ldr	x1, [x19, #16]
    7220:	2a0e03e3 	mov	w3, w14
    7224:	aa0d03e0 	mov	x0, x13
    7228:	97fff723 	bl	4eb4 <mpi_mul_hlp>
/home/hei/Desktop/optee-qemu/optee_os/lib/libmbedtls/mbedtls/library/bignum.c:1750 (discriminator 3)
    722c:	b8004572 	str	w18, [x11], #4
    7230:	b82c697f 	str	wzr, [x11, x12]
    7234:	17ffffd8 	b	7194 <mbedtls_mpi_montmul+0x7c>
/home/hei/Desktop/optee-qemu/optee_os/lib/libmbedtls/mbedtls/library/bignum.c:1759
    7238:	f9400aa1 	ldr	x1, [x21, #16]
    723c:	f9400ac2 	ldr	x2, [x22, #16]
    7240:	17ffffe2 	b	71c8 <mbedtls_mpi_montmul+0xb0>
/home/hei/Desktop/optee-qemu/optee_os/lib/libmbedtls/mbedtls/library/bignum.c:1731
    7244:	12800060 	mov	w0, #0xfffffffc            	// #-4
/home/hei/Desktop/optee-qemu/optee_os/lib/libmbedtls/mbedtls/library/bignum.c:1762
    7248:	d65f03c0 	ret

000000000000724c <mbedtls_mpi_montred>:
mbedtls_mpi_montred():
/home/hei/Desktop/optee-qemu/optee_os/lib/libmbedtls/mbedtls/library/bignum.c:1769
    724c:	a9bd7bfd 	stp	x29, x30, [sp, #-48]!
/home/hei/Desktop/optee-qemu/optee_os/lib/libmbedtls/mbedtls/library/bignum.c:1770
    7250:	52800024 	mov	w4, #0x1                   	// #1
/home/hei/Desktop/optee-qemu/optee_os/lib/libmbedtls/mbedtls/library/bignum.c:1769
    7254:	910003fd 	mov	x29, sp
/home/hei/Desktop/optee-qemu/optee_os/lib/libmbedtls/mbedtls/library/bignum.c:1770
    7258:	b90017e4 	str	w4, [sp, #20]
/home/hei/Desktop/optee-qemu/optee_os/lib/libmbedtls/mbedtls/library/bignum.c:1773
    725c:	790033e4 	strh	w4, [sp, #24]
    7260:	d2800024 	mov	x4, #0x1                   	// #1
    7264:	f90013e4 	str	x4, [sp, #32]
/home/hei/Desktop/optee-qemu/optee_os/lib/libmbedtls/mbedtls/library/bignum.c:1774
    7268:	910053e4 	add	x4, sp, #0x14
    726c:	f90017e4 	str	x4, [sp, #40]
/home/hei/Desktop/optee-qemu/optee_os/lib/libmbedtls/mbedtls/library/bignum.c:1776
    7270:	aa0303e4 	mov	x4, x3
    7274:	2a0203e3 	mov	w3, w2
    7278:	aa0103e2 	mov	x2, x1
    727c:	910063e1 	add	x1, sp, #0x18
    7280:	97ffffa6 	bl	7118 <mbedtls_mpi_montmul>
/home/hei/Desktop/optee-qemu/optee_os/lib/libmbedtls/mbedtls/library/bignum.c:1777
    7284:	a8c37bfd 	ldp	x29, x30, [sp], #48
    7288:	d65f03c0 	ret

000000000000728c <mbedtls_mpi_exp_mod>:
mbedtls_mpi_exp_mod():
/home/hei/Desktop/optee-qemu/optee_os/lib/libmbedtls/mbedtls/library/bignum.c:1785
    728c:	a9b07bfd 	stp	x29, x30, [sp, #-256]!
    7290:	910003fd 	mov	x29, sp
    7294:	a90153f3 	stp	x19, x20, [sp, #16]
    7298:	aa0303f3 	mov	x19, x3
    729c:	a9025bf5 	stp	x21, x22, [sp, #32]
    72a0:	aa0003f5 	mov	x21, x0
/home/hei/Desktop/optee-qemu/optee_os/lib/libmbedtls/mbedtls/library/bignum.c:1801
    72a4:	aa0303e0 	mov	x0, x3
/home/hei/Desktop/optee-qemu/optee_os/lib/libmbedtls/mbedtls/library/bignum.c:1785
    72a8:	a90363f7 	stp	x23, x24, [sp, #48]
    72ac:	a9046bf9 	stp	x25, x26, [sp, #64]
    72b0:	aa0103fa 	mov	x26, x1
    72b4:	aa0403f9 	mov	x25, x4
/home/hei/Desktop/optee-qemu/optee_os/lib/libmbedtls/mbedtls/library/bignum.c:1801
    72b8:	52800001 	mov	w1, #0x0                   	// #0
/home/hei/Desktop/optee-qemu/optee_os/lib/libmbedtls/mbedtls/library/bignum.c:1785
    72bc:	a90573fb 	stp	x27, x28, [sp, #80]
    72c0:	aa0203fc 	mov	x28, x2
/home/hei/Desktop/optee-qemu/optee_os/lib/libmbedtls/mbedtls/library/bignum.c:1801
    72c4:	97fffb37 	bl	5fa0 <mbedtls_mpi_cmp_int>
    72c8:	7100001f 	cmp	w0, #0x0
    72cc:	5400014c 	b.gt	72f4 <mbedtls_mpi_exp_mod+0x68>
/home/hei/Desktop/optee-qemu/optee_os/lib/libmbedtls/mbedtls/library/bignum.c:1802
    72d0:	12800062 	mov	w2, #0xfffffffc            	// #-4
/home/hei/Desktop/optee-qemu/optee_os/lib/libmbedtls/mbedtls/library/bignum.c:2005
    72d4:	2a0203e0 	mov	w0, w2
    72d8:	a94153f3 	ldp	x19, x20, [sp, #16]
    72dc:	a9425bf5 	ldp	x21, x22, [sp, #32]
    72e0:	a94363f7 	ldp	x23, x24, [sp, #48]
    72e4:	a9446bf9 	ldp	x25, x26, [sp, #64]
    72e8:	a94573fb 	ldp	x27, x28, [sp, #80]
    72ec:	a8d07bfd 	ldp	x29, x30, [sp], #256
    72f0:	d65f03c0 	ret
/home/hei/Desktop/optee-qemu/optee_os/lib/libmbedtls/mbedtls/library/bignum.c:1801 (discriminator 1)
    72f4:	f9400a60 	ldr	x0, [x19, #16]
    72f8:	b9400000 	ldr	w0, [x0]
    72fc:	12000001 	and	w1, w0, #0x1
    7300:	b9008fe1 	str	w1, [sp, #140]
    7304:	3607fe60 	tbz	w0, #0, 72d0 <mbedtls_mpi_exp_mod+0x44>
/home/hei/Desktop/optee-qemu/optee_os/lib/libmbedtls/mbedtls/library/bignum.c:1804
    7308:	52800001 	mov	w1, #0x0                   	// #0
    730c:	aa1c03e0 	mov	x0, x28
    7310:	97fffb24 	bl	5fa0 <mbedtls_mpi_cmp_int>
    7314:	37fffde0 	tbnz	w0, #31, 72d0 <mbedtls_mpi_exp_mod+0x44>
/home/hei/Desktop/optee-qemu/optee_os/lib/libmbedtls/mbedtls/library/bignum.c:1810
    7318:	aa1303e1 	mov	x1, x19
    731c:	9102d3e0 	add	x0, sp, #0xb4
/home/hei/Desktop/optee-qemu/optee_os/lib/libmbedtls/mbedtls/library/bignum.c:1811
    7320:	9102e3f8 	add	x24, sp, #0xb8
/home/hei/Desktop/optee-qemu/optee_os/lib/libmbedtls/mbedtls/library/bignum.c:1810
    7324:	97ffff6e 	bl	70dc <mbedtls_mpi_montg_init>
/home/hei/Desktop/optee-qemu/optee_os/lib/libmbedtls/mbedtls/library/bignum.c:1811
    7328:	aa1803e0 	mov	x0, x24
    732c:	910343f6 	add	x22, sp, #0xd0
    7330:	97fff81a 	bl	5398 <mbedtls_mpi_init_mempool>
    7334:	aa1603e0 	mov	x0, x22
    7338:	97fff818 	bl	5398 <mbedtls_mpi_init_mempool>
/home/hei/Desktop/optee-qemu/optee_os/lib/libmbedtls/mbedtls/library/bignum.c:1812
    733c:	9103a3e0 	add	x0, sp, #0xe8
    7340:	f9003be0 	str	x0, [sp, #112]
    7344:	97fff815 	bl	5398 <mbedtls_mpi_init_mempool>
/home/hei/Desktop/optee-qemu/optee_os/lib/libmbedtls/mbedtls/library/bignum.c:1814
    7348:	aa1c03e0 	mov	x0, x28
    734c:	97fff9c9 	bl	5a70 <mbedtls_mpi_bitlen>
/home/hei/Desktop/optee-qemu/optee_os/lib/libmbedtls/mbedtls/library/bignum.c:1816
    7350:	f10a7c1f 	cmp	x0, #0x29f
    7354:	540012c8 	b.hi	75ac <mbedtls_mpi_exp_mod+0x320>  // b.pmore
/home/hei/Desktop/optee-qemu/optee_os/lib/libmbedtls/mbedtls/library/bignum.c:1816 (discriminator 1)
    7358:	f103bc1f 	cmp	x0, #0xef
    735c:	540012c8 	b.hi	75b4 <mbedtls_mpi_exp_mod+0x328>  // b.pmore
/home/hei/Desktop/optee-qemu/optee_os/lib/libmbedtls/mbedtls/library/bignum.c:1816 (discriminator 3)
    7360:	f1013c1f 	cmp	x0, #0x4f
    7364:	540012c8 	b.hi	75bc <mbedtls_mpi_exp_mod+0x330>  // b.pmore
/home/hei/Desktop/optee-qemu/optee_os/lib/libmbedtls/mbedtls/library/bignum.c:1816 (discriminator 5)
    7368:	f1005c1f 	cmp	x0, #0x17
    736c:	d2800077 	mov	x23, #0x3                   	// #3
    7370:	9a9f86f7 	csinc	x23, x23, xzr, hi  // hi = pmore
/home/hei/Desktop/optee-qemu/optee_os/lib/libmbedtls/mbedtls/library/bignum.c:1822
    7374:	f9400660 	ldr	x0, [x19, #8]
    7378:	91000400 	add	x0, x0, #0x1
    737c:	f9003fe0 	str	x0, [sp, #120]
/home/hei/Desktop/optee-qemu/optee_os/lib/libmbedtls/mbedtls/library/bignum.c:1823
    7380:	aa0003e1 	mov	x1, x0
    7384:	aa1503e0 	mov	x0, x21
    7388:	97fff829 	bl	542c <mbedtls_mpi_grow>
    738c:	2a0003e2 	mov	w2, w0
    7390:	b0000020 	adrp	x0, c000 <_DYNAMIC>
    7394:	f90053e0 	str	x0, [sp, #160]
    7398:	35002b82 	cbnz	w2, 7908 <mbedtls_mpi_exp_mod+0x67c>
/home/hei/Desktop/optee-qemu/optee_os/lib/libmbedtls/mbedtls/library/bignum.c:1825
    739c:	f9403fe0 	ldr	x0, [sp, #120]
    73a0:	d37ff801 	lsl	x1, x0, #1
    73a4:	aa1603e0 	mov	x0, x22
    73a8:	97fff821 	bl	542c <mbedtls_mpi_grow>
    73ac:	2a0003e2 	mov	w2, w0
    73b0:	35002ac0 	cbnz	w0, 7908 <mbedtls_mpi_exp_mod+0x67c>
/home/hei/Desktop/optee-qemu/optee_os/lib/libmbedtls/mbedtls/library/bignum.c:1830
    73b4:	79c00340 	ldrsh	w0, [x26]
    73b8:	b9008be0 	str	w0, [sp, #136]
/home/hei/Desktop/optee-qemu/optee_os/lib/libmbedtls/mbedtls/library/bignum.c:1831
    73bc:	3100041f 	cmn	w0, #0x1
    73c0:	54000121 	b.ne	73e4 <mbedtls_mpi_exp_mod+0x158>  // b.any
/home/hei/Desktop/optee-qemu/optee_os/lib/libmbedtls/mbedtls/library/bignum.c:1833
    73c4:	f9403be0 	ldr	x0, [sp, #112]
    73c8:	aa1a03e1 	mov	x1, x26
    73cc:	97fff89e 	bl	5644 <mbedtls_mpi_copy>
    73d0:	2a0003e2 	mov	w2, w0
    73d4:	350029a0 	cbnz	w0, 7908 <mbedtls_mpi_exp_mod+0x67c>
/home/hei/Desktop/optee-qemu/optee_os/lib/libmbedtls/mbedtls/library/bignum.c:1835
    73d8:	f9403bfa 	ldr	x26, [sp, #112]
/home/hei/Desktop/optee-qemu/optee_os/lib/libmbedtls/mbedtls/library/bignum.c:1834
    73dc:	52800020 	mov	w0, #0x1                   	// #1
    73e0:	7901d3e0 	strh	w0, [sp, #232]
/home/hei/Desktop/optee-qemu/optee_os/lib/libmbedtls/mbedtls/library/bignum.c:1841
    73e4:	b4000079 	cbz	x25, 73f0 <mbedtls_mpi_exp_mod+0x164>
/home/hei/Desktop/optee-qemu/optee_os/lib/libmbedtls/mbedtls/library/bignum.c:1841 (discriminator 1)
    73e8:	f9400b20 	ldr	x0, [x25, #16]
    73ec:	b5000ec0 	cbnz	x0, 75c4 <mbedtls_mpi_exp_mod+0x338>
/home/hei/Desktop/optee-qemu/optee_os/lib/libmbedtls/mbedtls/library/bignum.c:1843
    73f0:	52800021 	mov	w1, #0x1                   	// #1
    73f4:	aa1803e0 	mov	x0, x24
    73f8:	97fff941 	bl	58fc <mbedtls_mpi_lset>
    73fc:	2a0003e2 	mov	w2, w0
    7400:	35002840 	cbnz	w0, 7908 <mbedtls_mpi_exp_mod+0x67c>
/home/hei/Desktop/optee-qemu/optee_os/lib/libmbedtls/mbedtls/library/bignum.c:1844
    7404:	f9400661 	ldr	x1, [x19, #8]
    7408:	aa1803e0 	mov	x0, x24
    740c:	d37ae421 	lsl	x1, x1, #6
    7410:	97fffa15 	bl	5c64 <mbedtls_mpi_shift_l>
    7414:	2a0003e2 	mov	w2, w0
    7418:	35002780 	cbnz	w0, 7908 <mbedtls_mpi_exp_mod+0x67c>
/home/hei/Desktop/optee-qemu/optee_os/lib/libmbedtls/mbedtls/library/bignum.c:1845
    741c:	aa1303e2 	mov	x2, x19
    7420:	aa1803e1 	mov	x1, x24
    7424:	aa1803e0 	mov	x0, x24
    7428:	97fffe08 	bl	6c48 <mbedtls_mpi_mod_mpi>
    742c:	2a0003e2 	mov	w2, w0
    7430:	350026c0 	cbnz	w0, 7908 <mbedtls_mpi_exp_mod+0x67c>
/home/hei/Desktop/optee-qemu/optee_os/lib/libmbedtls/mbedtls/library/bignum.c:1847
    7434:	b40000b9 	cbz	x25, 7448 <mbedtls_mpi_exp_mod+0x1bc>
/home/hei/Desktop/optee-qemu/optee_os/lib/libmbedtls/mbedtls/library/bignum.c:1848
    7438:	aa1803e1 	mov	x1, x24
    743c:	aa1903e0 	mov	x0, x25
    7440:	d2800302 	mov	x2, #0x18                  	// #24
/home/hei/Desktop/optee-qemu/optee_os/lib/libmbedtls/mbedtls/library/bignum.c:1851
    7444:	97ffe440 	bl	544 <memcpy>
/home/hei/Desktop/optee-qemu/optee_os/lib/libmbedtls/mbedtls/library/bignum.c:1853
    7448:	b0000020 	adrp	x0, c000 <_DYNAMIC>
    744c:	d2818001 	mov	x1, #0xc00                 	// #3072
    7450:	f940d000 	ldr	x0, [x0, #416]
    7454:	f9400000 	ldr	x0, [x0]
    7458:	940005c1 	bl	8b5c <mempool_alloc>
    745c:	aa0003f4 	mov	x20, x0
/home/hei/Desktop/optee-qemu/optee_os/lib/libmbedtls/mbedtls/library/bignum.c:1855
    7460:	b4002580 	cbz	x0, 7910 <mbedtls_mpi_exp_mod+0x684>
    7464:	aa1403fb 	mov	x27, x20
    7468:	91300000 	add	x0, x0, #0xc00
    746c:	f90037f4 	str	x20, [sp, #104]
    7470:	f9004be0 	str	x0, [sp, #144]
/home/hei/Desktop/optee-qemu/optee_os/lib/libmbedtls/mbedtls/library/bignum.c:1860 (discriminator 3)
    7474:	aa1b03e0 	mov	x0, x27
    7478:	97fff7c8 	bl	5398 <mbedtls_mpi_init_mempool>
/home/hei/Desktop/optee-qemu/optee_os/lib/libmbedtls/mbedtls/library/bignum.c:1859 (discriminator 3)
    747c:	f9404be0 	ldr	x0, [sp, #144]
    7480:	9100637b 	add	x27, x27, #0x18
    7484:	eb00037f 	cmp	x27, x0
    7488:	54ffff61 	b.ne	7474 <mbedtls_mpi_exp_mod+0x1e8>  // b.any
/home/hei/Desktop/optee-qemu/optee_os/lib/libmbedtls/mbedtls/library/bignum.c:1861
    748c:	f9403fe1 	ldr	x1, [sp, #120]
    7490:	9100629b 	add	x27, x20, #0x18
    7494:	aa1b03e0 	mov	x0, x27
    7498:	97fff7e5 	bl	542c <mbedtls_mpi_grow>
    749c:	2a0003e2 	mov	w2, w0
    74a0:	35001fa0 	cbnz	w0, 7894 <mbedtls_mpi_exp_mod+0x608>
/home/hei/Desktop/optee-qemu/optee_os/lib/libmbedtls/mbedtls/library/bignum.c:1866
    74a4:	aa1303e1 	mov	x1, x19
    74a8:	aa1a03e0 	mov	x0, x26
    74ac:	97fffa87 	bl	5ec8 <mbedtls_mpi_cmp_mpi>
    74b0:	37f80920 	tbnz	w0, #31, 75d4 <mbedtls_mpi_exp_mod+0x348>
/home/hei/Desktop/optee-qemu/optee_os/lib/libmbedtls/mbedtls/library/bignum.c:1867
    74b4:	aa1303e2 	mov	x2, x19
    74b8:	aa1a03e1 	mov	x1, x26
    74bc:	aa1b03e0 	mov	x0, x27
    74c0:	97fffde2 	bl	6c48 <mbedtls_mpi_mod_mpi>
    74c4:	2a0003e2 	mov	w2, w0
    74c8:	35001e60 	cbnz	w0, 7894 <mbedtls_mpi_exp_mod+0x608>
/home/hei/Desktop/optee-qemu/optee_os/lib/libmbedtls/mbedtls/library/bignum.c:1871
    74cc:	b940b7e3 	ldr	w3, [sp, #180]
    74d0:	aa1303e2 	mov	x2, x19
    74d4:	aa1603e4 	mov	x4, x22
    74d8:	aa1803e1 	mov	x1, x24
    74dc:	aa1b03e0 	mov	x0, x27
    74e0:	97ffff0e 	bl	7118 <mbedtls_mpi_montmul>
    74e4:	2a0003e2 	mov	w2, w0
    74e8:	35001d60 	cbnz	w0, 7894 <mbedtls_mpi_exp_mod+0x608>
/home/hei/Desktop/optee-qemu/optee_os/lib/libmbedtls/mbedtls/library/bignum.c:1876
    74ec:	aa1803e1 	mov	x1, x24
    74f0:	aa1503e0 	mov	x0, x21
    74f4:	97fff854 	bl	5644 <mbedtls_mpi_copy>
    74f8:	2a0003e2 	mov	w2, w0
    74fc:	35001cc0 	cbnz	w0, 7894 <mbedtls_mpi_exp_mod+0x608>
/home/hei/Desktop/optee-qemu/optee_os/lib/libmbedtls/mbedtls/library/bignum.c:1877
    7500:	b940b7e2 	ldr	w2, [sp, #180]
    7504:	aa1603e3 	mov	x3, x22
    7508:	aa1303e1 	mov	x1, x19
    750c:	aa1503e0 	mov	x0, x21
    7510:	97ffff4f 	bl	724c <mbedtls_mpi_montred>
    7514:	2a0003e2 	mov	w2, w0
    7518:	35001be0 	cbnz	w0, 7894 <mbedtls_mpi_exp_mod+0x608>
/home/hei/Desktop/optee-qemu/optee_os/lib/libmbedtls/mbedtls/library/bignum.c:1879
    751c:	f10006ff 	cmp	x23, #0x1
    7520:	54000621 	b.ne	75e4 <mbedtls_mpi_exp_mod+0x358>  // b.any
/home/hei/Desktop/optee-qemu/optee_os/lib/libmbedtls/mbedtls/library/bignum.c:1904
    7524:	f940079a 	ldr	x26, [x28, #8]
/home/hei/Desktop/optee-qemu/optee_os/lib/libmbedtls/mbedtls/library/bignum.c:1908
    7528:	52800003 	mov	w3, #0x0                   	// #0
/home/hei/Desktop/optee-qemu/optee_os/lib/libmbedtls/mbedtls/library/bignum.c:1906
    752c:	d2800005 	mov	x5, #0x0                   	// #0
/home/hei/Desktop/optee-qemu/optee_os/lib/libmbedtls/mbedtls/library/bignum.c:1905
    7530:	d2800007 	mov	x7, #0x0                   	// #0
/home/hei/Desktop/optee-qemu/optee_os/lib/libmbedtls/mbedtls/library/bignum.c:1907
    7534:	d2800006 	mov	x6, #0x0                   	// #0
/home/hei/Desktop/optee-qemu/optee_os/lib/libmbedtls/mbedtls/library/bignum.c:1912
    7538:	b5000fc7 	cbnz	x7, 7730 <mbedtls_mpi_exp_mod+0x4a4>
/home/hei/Desktop/optee-qemu/optee_os/lib/libmbedtls/mbedtls/library/bignum.c:1914
    753c:	b5000f7a 	cbnz	x26, 7728 <mbedtls_mpi_exp_mod+0x49c>
/home/hei/Desktop/optee-qemu/optee_os/lib/libmbedtls/mbedtls/library/bignum.c:1977
    7540:	d2800020 	mov	x0, #0x1                   	// #1
    7544:	9ad72017 	lsl	x23, x0, x23
/home/hei/Desktop/optee-qemu/optee_os/lib/libmbedtls/mbedtls/library/bignum.c:1971 (discriminator 1)
    7548:	eb05035f 	cmp	x26, x5
    754c:	b940b7e2 	ldr	w2, [sp, #180]
    7550:	54001701 	b.ne	7830 <mbedtls_mpi_exp_mod+0x5a4>  // b.any
/home/hei/Desktop/optee-qemu/optee_os/lib/libmbedtls/mbedtls/library/bignum.c:1984
    7554:	aa1603e3 	mov	x3, x22
    7558:	aa1303e1 	mov	x1, x19
    755c:	aa1503e0 	mov	x0, x21
    7560:	97ffff3b 	bl	724c <mbedtls_mpi_montred>
    7564:	2a0003e2 	mov	w2, w0
    7568:	35001960 	cbnz	w0, 7894 <mbedtls_mpi_exp_mod+0x608>
/home/hei/Desktop/optee-qemu/optee_os/lib/libmbedtls/mbedtls/library/bignum.c:1986
    756c:	b9408be0 	ldr	w0, [sp, #136]
    7570:	3100041f 	cmn	w0, #0x1
    7574:	54001901 	b.ne	7894 <mbedtls_mpi_exp_mod+0x608>  // b.any
/home/hei/Desktop/optee-qemu/optee_os/lib/libmbedtls/mbedtls/library/bignum.c:1986 (discriminator 1)
    7578:	f9400780 	ldr	x0, [x28, #8]
    757c:	b40018c0 	cbz	x0, 7894 <mbedtls_mpi_exp_mod+0x608>
/home/hei/Desktop/optee-qemu/optee_os/lib/libmbedtls/mbedtls/library/bignum.c:1986 (discriminator 2)
    7580:	f9400b80 	ldr	x0, [x28, #16]
    7584:	b9400000 	ldr	w0, [x0]
    7588:	36001860 	tbz	w0, #0, 7894 <mbedtls_mpi_exp_mod+0x608>
/home/hei/Desktop/optee-qemu/optee_os/lib/libmbedtls/mbedtls/library/bignum.c:1988
    758c:	794113e0 	ldrh	w0, [sp, #136]
/home/hei/Desktop/optee-qemu/optee_os/lib/libmbedtls/mbedtls/library/bignum.c:1989
    7590:	aa1503e2 	mov	x2, x21
/home/hei/Desktop/optee-qemu/optee_os/lib/libmbedtls/mbedtls/library/bignum.c:1988
    7594:	790002a0 	strh	w0, [x21]
/home/hei/Desktop/optee-qemu/optee_os/lib/libmbedtls/mbedtls/library/bignum.c:1989
    7598:	aa1303e1 	mov	x1, x19
    759c:	aa1503e0 	mov	x0, x21
    75a0:	97fffb10 	bl	61e0 <mbedtls_mpi_add_mpi>
    75a4:	2a0003e2 	mov	w2, w0
/home/hei/Desktop/optee-qemu/optee_os/lib/libmbedtls/mbedtls/library/bignum.c:1992
    75a8:	140000bb 	b	7894 <mbedtls_mpi_exp_mod+0x608>
/home/hei/Desktop/optee-qemu/optee_os/lib/libmbedtls/mbedtls/library/bignum.c:1816
    75ac:	d28000d7 	mov	x23, #0x6                   	// #6
    75b0:	17ffff71 	b	7374 <mbedtls_mpi_exp_mod+0xe8>
    75b4:	d28000b7 	mov	x23, #0x5                   	// #5
    75b8:	17ffff6f 	b	7374 <mbedtls_mpi_exp_mod+0xe8>
    75bc:	d2800097 	mov	x23, #0x4                   	// #4
    75c0:	17ffff6d 	b	7374 <mbedtls_mpi_exp_mod+0xe8>
/home/hei/Desktop/optee-qemu/optee_os/lib/libmbedtls/mbedtls/library/bignum.c:1851
    75c4:	d2800302 	mov	x2, #0x18                  	// #24
    75c8:	aa1903e1 	mov	x1, x25
    75cc:	aa1803e0 	mov	x0, x24
    75d0:	17ffff9d 	b	7444 <mbedtls_mpi_exp_mod+0x1b8>
/home/hei/Desktop/optee-qemu/optee_os/lib/libmbedtls/mbedtls/library/bignum.c:1869
    75d4:	aa1a03e1 	mov	x1, x26
    75d8:	aa1b03e0 	mov	x0, x27
    75dc:	97fff81a 	bl	5644 <mbedtls_mpi_copy>
    75e0:	17ffffb9 	b	74c4 <mbedtls_mpi_exp_mod+0x238>
/home/hei/Desktop/optee-qemu/optee_os/lib/libmbedtls/mbedtls/library/bignum.c:1884
    75e4:	510006e0 	sub	w0, w23, #0x1
    75e8:	b9007be0 	str	w0, [sp, #120]
/home/hei/Desktop/optee-qemu/optee_os/lib/libmbedtls/mbedtls/library/bignum.c:1886
    75ec:	f9400661 	ldr	x1, [x19, #8]
    75f0:	d280031a 	mov	x26, #0x18                  	// #24
    75f4:	3941e3e0 	ldrb	w0, [sp, #120]
    75f8:	91000421 	add	x1, x1, #0x1
/home/hei/Desktop/optee-qemu/optee_os/lib/libmbedtls/mbedtls/library/bignum.c:1884
    75fc:	b9009bf7 	str	w23, [sp, #152]
/home/hei/Desktop/optee-qemu/optee_os/lib/libmbedtls/mbedtls/library/bignum.c:1886
    7600:	9ac0235a 	lsl	x26, x26, x0
    7604:	8b1a029a 	add	x26, x20, x26
    7608:	aa1a03e0 	mov	x0, x26
    760c:	97fff788 	bl	542c <mbedtls_mpi_grow>
    7610:	2a0003e2 	mov	w2, w0
    7614:	35001400 	cbnz	w0, 7894 <mbedtls_mpi_exp_mod+0x608>
/home/hei/Desktop/optee-qemu/optee_os/lib/libmbedtls/mbedtls/library/bignum.c:1887
    7618:	aa1b03e1 	mov	x1, x27
    761c:	aa1a03e0 	mov	x0, x26
    7620:	97fff809 	bl	5644 <mbedtls_mpi_copy>
    7624:	2a0003e2 	mov	w2, w0
    7628:	35001360 	cbnz	w0, 7894 <mbedtls_mpi_exp_mod+0x608>
/home/hei/Desktop/optee-qemu/optee_os/lib/libmbedtls/mbedtls/library/bignum.c:1889
    762c:	d10006e6 	sub	x6, x23, #0x1
    7630:	d2800005 	mov	x5, #0x0                   	// #0
/home/hei/Desktop/optee-qemu/optee_os/lib/libmbedtls/mbedtls/library/bignum.c:1890
    7634:	b940b7e3 	ldr	w3, [sp, #180]
    7638:	aa1303e2 	mov	x2, x19
    763c:	aa1603e4 	mov	x4, x22
    7640:	aa1a03e1 	mov	x1, x26
    7644:	aa1a03e0 	mov	x0, x26
    7648:	f90043e5 	str	x5, [sp, #128]
    764c:	f90057e6 	str	x6, [sp, #168]
    7650:	97fffeb2 	bl	7118 <mbedtls_mpi_montmul>
    7654:	2a0003e2 	mov	w2, w0
    7658:	350011e0 	cbnz	w0, 7894 <mbedtls_mpi_exp_mod+0x608>
/home/hei/Desktop/optee-qemu/optee_os/lib/libmbedtls/mbedtls/library/bignum.c:1889 (discriminator 2)
    765c:	f94043e5 	ldr	x5, [sp, #128]
    7660:	f94057e6 	ldr	x6, [sp, #168]
    7664:	910004a5 	add	x5, x5, #0x1
    7668:	eb0500df 	cmp	x6, x5
    766c:	54fffe48 	b.hi	7634 <mbedtls_mpi_exp_mod+0x3a8>  // b.pmore
/home/hei/Desktop/optee-qemu/optee_os/lib/libmbedtls/mbedtls/library/bignum.c:1884
    7670:	3941e3e1 	ldrb	w1, [sp, #120]
    7674:	d2800020 	mov	x0, #0x1                   	// #1
    7678:	d2800303 	mov	x3, #0x18                  	// #24
    767c:	9ac12001 	lsl	x1, x0, x1
/home/hei/Desktop/optee-qemu/optee_os/lib/libmbedtls/mbedtls/library/bignum.c:1895
    7680:	8b000021 	add	x1, x1, x0
    7684:	f90043e1 	str	x1, [sp, #128]
    7688:	394263e1 	ldrb	w1, [sp, #152]
    768c:	9ac12000 	lsl	x0, x0, x1
    7690:	f9004fe0 	str	x0, [sp, #152]
    7694:	3941e3e0 	ldrb	w0, [sp, #120]
    7698:	9ac02063 	lsl	x3, x3, x0
    769c:	8b030283 	add	x3, x20, x3
/home/hei/Desktop/optee-qemu/optee_os/lib/libmbedtls/mbedtls/library/bignum.c:1895 (discriminator 1)
    76a0:	f94043e1 	ldr	x1, [sp, #128]
    76a4:	f9404fe0 	ldr	x0, [sp, #152]
    76a8:	eb01001f 	cmp	x0, x1
    76ac:	54fff3c9 	b.ls	7524 <mbedtls_mpi_exp_mod+0x298>  // b.plast
/home/hei/Desktop/optee-qemu/optee_os/lib/libmbedtls/mbedtls/library/bignum.c:1897
    76b0:	f9400661 	ldr	x1, [x19, #8]
    76b4:	9100607a 	add	x26, x3, #0x18
    76b8:	aa1a03e0 	mov	x0, x26
    76bc:	f9003fe3 	str	x3, [sp, #120]
    76c0:	91000421 	add	x1, x1, #0x1
    76c4:	97fff75a 	bl	542c <mbedtls_mpi_grow>
    76c8:	2a0003e2 	mov	w2, w0
    76cc:	35000e40 	cbnz	w0, 7894 <mbedtls_mpi_exp_mod+0x608>
/home/hei/Desktop/optee-qemu/optee_os/lib/libmbedtls/mbedtls/library/bignum.c:1898
    76d0:	f9403fe3 	ldr	x3, [sp, #120]
    76d4:	aa1a03e0 	mov	x0, x26
    76d8:	aa0303e1 	mov	x1, x3
    76dc:	97fff7da 	bl	5644 <mbedtls_mpi_copy>
    76e0:	2a0003e2 	mov	w2, w0
    76e4:	35000d80 	cbnz	w0, 7894 <mbedtls_mpi_exp_mod+0x608>
/home/hei/Desktop/optee-qemu/optee_os/lib/libmbedtls/mbedtls/library/bignum.c:1900
    76e8:	b940b7e3 	ldr	w3, [sp, #180]
    76ec:	aa1303e2 	mov	x2, x19
    76f0:	aa1603e4 	mov	x4, x22
    76f4:	aa1b03e1 	mov	x1, x27
    76f8:	aa1a03e0 	mov	x0, x26
    76fc:	97fffe87 	bl	7118 <mbedtls_mpi_montmul>
    7700:	2a0003e2 	mov	w2, w0
    7704:	35000c80 	cbnz	w0, 7894 <mbedtls_mpi_exp_mod+0x608>
/home/hei/Desktop/optee-qemu/optee_os/lib/libmbedtls/mbedtls/library/bignum.c:1895 (discriminator 2)
    7708:	f94043e0 	ldr	x0, [sp, #128]
    770c:	aa1a03e3 	mov	x3, x26
    7710:	91000400 	add	x0, x0, #0x1
    7714:	f90043e0 	str	x0, [sp, #128]
    7718:	17ffffe2 	b	76a0 <mbedtls_mpi_exp_mod+0x414>
/home/hei/Desktop/optee-qemu/optee_os/lib/libmbedtls/mbedtls/library/bignum.c:1944
    771c:	52800040 	mov	w0, #0x2                   	// #2
/home/hei/Desktop/optee-qemu/optee_os/lib/libmbedtls/mbedtls/library/bignum.c:1964
    7720:	2a0003e3 	mov	w3, w0
    7724:	17ffff85 	b	7538 <mbedtls_mpi_exp_mod+0x2ac>
/home/hei/Desktop/optee-qemu/optee_os/lib/libmbedtls/mbedtls/library/bignum.c:1917
    7728:	d100075a 	sub	x26, x26, #0x1
/home/hei/Desktop/optee-qemu/optee_os/lib/libmbedtls/mbedtls/library/bignum.c:1919
    772c:	d2800407 	mov	x7, #0x20                  	// #32
/home/hei/Desktop/optee-qemu/optee_os/lib/libmbedtls/mbedtls/library/bignum.c:1924
    7730:	f9400b80 	ldr	x0, [x28, #16]
/home/hei/Desktop/optee-qemu/optee_os/lib/libmbedtls/mbedtls/library/bignum.c:1922
    7734:	d10004e7 	sub	x7, x7, #0x1
/home/hei/Desktop/optee-qemu/optee_os/lib/libmbedtls/mbedtls/library/bignum.c:1924
    7738:	b87a7802 	ldr	w2, [x0, x26, lsl #2]
    773c:	1ac72442 	lsr	w2, w2, w7
    7740:	12000041 	and	w1, w2, #0x1
/home/hei/Desktop/optee-qemu/optee_os/lib/libmbedtls/mbedtls/library/bignum.c:1929
    7744:	2a010060 	orr	w0, w3, w1
    7748:	34fffec0 	cbz	w0, 7720 <mbedtls_mpi_exp_mod+0x494>
/home/hei/Desktop/optee-qemu/optee_os/lib/libmbedtls/mbedtls/library/bignum.c:1932
    774c:	7100047f 	cmp	w3, #0x1
    7750:	1a9f17e0 	cset	w0, eq  // eq = none
    7754:	6a22001f 	bics	wzr, w0, w2
    7758:	540001e0 	b.eq	7794 <mbedtls_mpi_exp_mod+0x508>  // b.none
/home/hei/Desktop/optee-qemu/optee_os/lib/libmbedtls/mbedtls/library/bignum.c:1937
    775c:	b940b7e3 	ldr	w3, [sp, #180]
    7760:	aa1303e2 	mov	x2, x19
    7764:	aa1603e4 	mov	x4, x22
    7768:	aa1503e1 	mov	x1, x21
    776c:	aa1503e0 	mov	x0, x21
    7770:	a9079fe6 	stp	x6, x7, [sp, #120]
    7774:	f9004fe5 	str	x5, [sp, #152]
    7778:	97fffe68 	bl	7118 <mbedtls_mpi_montmul>
    777c:	2a0003e2 	mov	w2, w0
    7780:	350008a0 	cbnz	w0, 7894 <mbedtls_mpi_exp_mod+0x608>
    7784:	b9408fe0 	ldr	w0, [sp, #140]
    7788:	a9479fe6 	ldp	x6, x7, [sp, #120]
    778c:	f9404fe5 	ldr	x5, [sp, #152]
    7790:	17ffffe4 	b	7720 <mbedtls_mpi_exp_mod+0x494>
/home/hei/Desktop/optee-qemu/optee_os/lib/libmbedtls/mbedtls/library/bignum.c:1946
    7794:	910004a5 	add	x5, x5, #0x1
/home/hei/Desktop/optee-qemu/optee_os/lib/libmbedtls/mbedtls/library/bignum.c:1947
    7798:	4b0502e0 	sub	w0, w23, w5
/home/hei/Desktop/optee-qemu/optee_os/lib/libmbedtls/mbedtls/library/bignum.c:1949
    779c:	eb0502ff 	cmp	x23, x5
/home/hei/Desktop/optee-qemu/optee_os/lib/libmbedtls/mbedtls/library/bignum.c:1947
    77a0:	1ac02021 	lsl	w1, w1, w0
    77a4:	aa0100c6 	orr	x6, x6, x1
/home/hei/Desktop/optee-qemu/optee_os/lib/libmbedtls/mbedtls/library/bignum.c:1949
    77a8:	54fffba1 	b.ne	771c <mbedtls_mpi_exp_mod+0x490>  // b.any
/home/hei/Desktop/optee-qemu/optee_os/lib/libmbedtls/mbedtls/library/bignum.c:1954
    77ac:	d2800008 	mov	x8, #0x0                   	// #0
/home/hei/Desktop/optee-qemu/optee_os/lib/libmbedtls/mbedtls/library/bignum.c:1955
    77b0:	b940b7e3 	ldr	w3, [sp, #180]
    77b4:	aa1303e2 	mov	x2, x19
    77b8:	aa1603e4 	mov	x4, x22
    77bc:	aa1503e1 	mov	x1, x21
    77c0:	aa1503e0 	mov	x0, x21
    77c4:	a9079fe6 	stp	x6, x7, [sp, #120]
    77c8:	f9004fe5 	str	x5, [sp, #152]
    77cc:	f90057e8 	str	x8, [sp, #168]
    77d0:	97fffe52 	bl	7118 <mbedtls_mpi_montmul>
    77d4:	2a0003e2 	mov	w2, w0
    77d8:	350005e0 	cbnz	w0, 7894 <mbedtls_mpi_exp_mod+0x608>
/home/hei/Desktop/optee-qemu/optee_os/lib/libmbedtls/mbedtls/library/bignum.c:1954 (discriminator 2)
    77dc:	f94057e8 	ldr	x8, [sp, #168]
    77e0:	f9404fe5 	ldr	x5, [sp, #152]
    77e4:	91000508 	add	x8, x8, #0x1
    77e8:	a9479fe6 	ldp	x6, x7, [sp, #120]
    77ec:	eb0800bf 	cmp	x5, x8
    77f0:	54fffe08 	b.hi	77b0 <mbedtls_mpi_exp_mod+0x524>  // b.pmore
/home/hei/Desktop/optee-qemu/optee_os/lib/libmbedtls/mbedtls/library/bignum.c:1960
    77f4:	d2800300 	mov	x0, #0x18                  	// #24
    77f8:	b940b7e3 	ldr	w3, [sp, #180]
    77fc:	aa1303e2 	mov	x2, x19
    7800:	aa1603e4 	mov	x4, x22
    7804:	9b0050c1 	madd	x1, x6, x0, x20
    7808:	aa1503e0 	mov	x0, x21
    780c:	f9003fe7 	str	x7, [sp, #120]
    7810:	97fffe42 	bl	7118 <mbedtls_mpi_montmul>
    7814:	2a0003e2 	mov	w2, w0
    7818:	350003e0 	cbnz	w0, 7894 <mbedtls_mpi_exp_mod+0x608>
/home/hei/Desktop/optee-qemu/optee_os/lib/libmbedtls/mbedtls/library/bignum.c:1963
    781c:	d2800005 	mov	x5, #0x0                   	// #0
/home/hei/Desktop/optee-qemu/optee_os/lib/libmbedtls/mbedtls/library/bignum.c:1964
    7820:	d2800006 	mov	x6, #0x0                   	// #0
/home/hei/Desktop/optee-qemu/optee_os/lib/libmbedtls/mbedtls/library/bignum.c:1962
    7824:	b9408fe0 	ldr	w0, [sp, #140]
    7828:	f9403fe7 	ldr	x7, [sp, #120]
    782c:	17ffffbd 	b	7720 <mbedtls_mpi_exp_mod+0x494>
/home/hei/Desktop/optee-qemu/optee_os/lib/libmbedtls/mbedtls/library/bignum.c:1973
    7830:	2a0203e3 	mov	w3, w2
    7834:	aa1303e2 	mov	x2, x19
    7838:	aa1603e4 	mov	x4, x22
    783c:	aa1503e1 	mov	x1, x21
    7840:	aa1503e0 	mov	x0, x21
    7844:	a90797e6 	stp	x6, x5, [sp, #120]
    7848:	97fffe34 	bl	7118 <mbedtls_mpi_montmul>
    784c:	2a0003e2 	mov	w2, w0
    7850:	35000220 	cbnz	w0, 7894 <mbedtls_mpi_exp_mod+0x608>
/home/hei/Desktop/optee-qemu/optee_os/lib/libmbedtls/mbedtls/library/bignum.c:1977
    7854:	a94797e6 	ldp	x6, x5, [sp, #120]
/home/hei/Desktop/optee-qemu/optee_os/lib/libmbedtls/mbedtls/library/bignum.c:1975
    7858:	d37ff8c6 	lsl	x6, x6, #1
/home/hei/Desktop/optee-qemu/optee_os/lib/libmbedtls/mbedtls/library/bignum.c:1977
    785c:	ea0602ff 	tst	x23, x6
    7860:	54000061 	b.ne	786c <mbedtls_mpi_exp_mod+0x5e0>  // b.any
/home/hei/Desktop/optee-qemu/optee_os/lib/libmbedtls/mbedtls/library/bignum.c:1971
    7864:	9100075a 	add	x26, x26, #0x1
    7868:	17ffff38 	b	7548 <mbedtls_mpi_exp_mod+0x2bc>
/home/hei/Desktop/optee-qemu/optee_os/lib/libmbedtls/mbedtls/library/bignum.c:1978
    786c:	b940b7e3 	ldr	w3, [sp, #180]
    7870:	aa1303e2 	mov	x2, x19
    7874:	aa1603e4 	mov	x4, x22
    7878:	aa1b03e1 	mov	x1, x27
    787c:	aa1503e0 	mov	x0, x21
    7880:	a90797e6 	stp	x6, x5, [sp, #120]
    7884:	97fffe25 	bl	7118 <mbedtls_mpi_montmul>
    7888:	2a0003e2 	mov	w2, w0
    788c:	a94797e6 	ldp	x6, x5, [sp, #120]
    7890:	34fffea0 	cbz	w0, 7864 <mbedtls_mpi_exp_mod+0x5d8>
/home/hei/Desktop/optee-qemu/optee_os/lib/libmbedtls/mbedtls/library/bignum.c:1996 (discriminator 3)
    7894:	f94037e0 	ldr	x0, [sp, #104]
    7898:	b9008be2 	str	w2, [sp, #136]
    789c:	97fff6c9 	bl	53c0 <mbedtls_mpi_free>
    78a0:	f94037e0 	ldr	x0, [sp, #104]
/home/hei/Desktop/optee-qemu/optee_os/lib/libmbedtls/mbedtls/library/bignum.c:1995 (discriminator 3)
    78a4:	f9404be1 	ldr	x1, [sp, #144]
    78a8:	91006000 	add	x0, x0, #0x18
    78ac:	f90037e0 	str	x0, [sp, #104]
    78b0:	b9408be2 	ldr	w2, [sp, #136]
    78b4:	eb01001f 	cmp	x0, x1
    78b8:	54fffee1 	b.ne	7894 <mbedtls_mpi_exp_mod+0x608>  // b.any
/home/hei/Desktop/optee-qemu/optee_os/lib/libmbedtls/mbedtls/library/bignum.c:1997
    78bc:	f94053e0 	ldr	x0, [sp, #160]
    78c0:	aa1403e1 	mov	x1, x20
    78c4:	b9006be2 	str	w2, [sp, #104]
    78c8:	f940d000 	ldr	x0, [x0, #416]
    78cc:	f9400000 	ldr	x0, [x0]
    78d0:	940004e2 	bl	8c58 <mempool_free>
/home/hei/Desktop/optee-qemu/optee_os/lib/libmbedtls/mbedtls/library/bignum.c:1999
    78d4:	aa1603e0 	mov	x0, x22
    78d8:	97fff6ba 	bl	53c0 <mbedtls_mpi_free>
    78dc:	f9403be0 	ldr	x0, [sp, #112]
    78e0:	97fff6b8 	bl	53c0 <mbedtls_mpi_free>
/home/hei/Desktop/optee-qemu/optee_os/lib/libmbedtls/mbedtls/library/bignum.c:2001
    78e4:	b9406be2 	ldr	w2, [sp, #104]
    78e8:	b4000079 	cbz	x25, 78f4 <mbedtls_mpi_exp_mod+0x668>
/home/hei/Desktop/optee-qemu/optee_os/lib/libmbedtls/mbedtls/library/bignum.c:2001 (discriminator 1)
    78ec:	f9400b20 	ldr	x0, [x25, #16]
    78f0:	b5ffcf20 	cbnz	x0, 72d4 <mbedtls_mpi_exp_mod+0x48>
/home/hei/Desktop/optee-qemu/optee_os/lib/libmbedtls/mbedtls/library/bignum.c:2002
    78f4:	aa1803e0 	mov	x0, x24
    78f8:	b9006be2 	str	w2, [sp, #104]
    78fc:	97fff6b1 	bl	53c0 <mbedtls_mpi_free>
    7900:	b9406be2 	ldr	w2, [sp, #104]
    7904:	17fffe74 	b	72d4 <mbedtls_mpi_exp_mod+0x48>
/home/hei/Desktop/optee-qemu/optee_os/lib/libmbedtls/mbedtls/library/bignum.c:1792
    7908:	d2800014 	mov	x20, #0x0                   	// #0
    790c:	17ffffec 	b	78bc <mbedtls_mpi_exp_mod+0x630>
/home/hei/Desktop/optee-qemu/optee_os/lib/libmbedtls/mbedtls/library/bignum.c:1856
    7910:	128001e2 	mov	w2, #0xfffffff0            	// #-16
    7914:	17ffffea 	b	78bc <mbedtls_mpi_exp_mod+0x630>

0000000000007918 <mbedtls_mpi_gcd>:
mbedtls_mpi_gcd():
/home/hei/Desktop/optee-qemu/optee_os/lib/libmbedtls/mbedtls/library/bignum.c:2011
    7918:	a9b67bfd 	stp	x29, x30, [sp, #-160]!
    791c:	910003fd 	mov	x29, sp
    7920:	a90363f7 	stp	x23, x24, [sp, #48]
/home/hei/Desktop/optee-qemu/optee_os/lib/libmbedtls/mbedtls/library/bignum.c:2020
    7924:	910163f7 	add	x23, sp, #0x58
/home/hei/Desktop/optee-qemu/optee_os/lib/libmbedtls/mbedtls/library/bignum.c:2011
    7928:	aa0003f8 	mov	x24, x0
/home/hei/Desktop/optee-qemu/optee_os/lib/libmbedtls/mbedtls/library/bignum.c:2020
    792c:	aa1703e0 	mov	x0, x23
/home/hei/Desktop/optee-qemu/optee_os/lib/libmbedtls/mbedtls/library/bignum.c:2011
    7930:	a90153f3 	stp	x19, x20, [sp, #16]
/home/hei/Desktop/optee-qemu/optee_os/lib/libmbedtls/mbedtls/library/bignum.c:2021
    7934:	910223f4 	add	x20, sp, #0x88
/home/hei/Desktop/optee-qemu/optee_os/lib/libmbedtls/mbedtls/library/bignum.c:2011
    7938:	a9025bf5 	stp	x21, x22, [sp, #32]
/home/hei/Desktop/optee-qemu/optee_os/lib/libmbedtls/mbedtls/library/bignum.c:2020
    793c:	9101c3f5 	add	x21, sp, #0x70
/home/hei/Desktop/optee-qemu/optee_os/lib/libmbedtls/mbedtls/library/bignum.c:2011
    7940:	a90407e2 	stp	x2, x1, [sp, #64]
/home/hei/Desktop/optee-qemu/optee_os/lib/libmbedtls/mbedtls/library/bignum.c:2020
    7944:	97fff695 	bl	5398 <mbedtls_mpi_init_mempool>
    7948:	aa1503e0 	mov	x0, x21
    794c:	97fff693 	bl	5398 <mbedtls_mpi_init_mempool>
/home/hei/Desktop/optee-qemu/optee_os/lib/libmbedtls/mbedtls/library/bignum.c:2021
    7950:	aa1403e0 	mov	x0, x20
    7954:	97fff691 	bl	5398 <mbedtls_mpi_init_mempool>
/home/hei/Desktop/optee-qemu/optee_os/lib/libmbedtls/mbedtls/library/bignum.c:2023
    7958:	f94027e1 	ldr	x1, [sp, #72]
    795c:	aa1503e0 	mov	x0, x21
    7960:	97fff739 	bl	5644 <mbedtls_mpi_copy>
    7964:	2a0003f3 	mov	w19, w0
    7968:	350008c0 	cbnz	w0, 7a80 <mbedtls_mpi_gcd+0x168>
/home/hei/Desktop/optee-qemu/optee_os/lib/libmbedtls/mbedtls/library/bignum.c:2024
    796c:	f94023e2 	ldr	x2, [sp, #64]
    7970:	aa1403e0 	mov	x0, x20
    7974:	aa0203e1 	mov	x1, x2
    7978:	97fff733 	bl	5644 <mbedtls_mpi_copy>
    797c:	2a0003f3 	mov	w19, w0
    7980:	35000800 	cbnz	w0, 7a80 <mbedtls_mpi_gcd+0x168>
/home/hei/Desktop/optee-qemu/optee_os/lib/libmbedtls/mbedtls/library/bignum.c:2026
    7984:	aa1503e0 	mov	x0, x21
    7988:	97fff825 	bl	5a1c <mbedtls_mpi_lsb>
    798c:	aa0003f6 	mov	x22, x0
/home/hei/Desktop/optee-qemu/optee_os/lib/libmbedtls/mbedtls/library/bignum.c:2027
    7990:	aa1403e0 	mov	x0, x20
    7994:	97fff822 	bl	5a1c <mbedtls_mpi_lsb>
/home/hei/Desktop/optee-qemu/optee_os/lib/libmbedtls/mbedtls/library/bignum.c:2029
    7998:	eb0002df 	cmp	x22, x0
    799c:	9a8092d6 	csel	x22, x22, x0, ls  // ls = plast
/home/hei/Desktop/optee-qemu/optee_os/lib/libmbedtls/mbedtls/library/bignum.c:2032
    79a0:	aa1503e0 	mov	x0, x21
    79a4:	aa1603e1 	mov	x1, x22
    79a8:	97fff8ef 	bl	5d64 <mbedtls_mpi_shift_r>
    79ac:	2a0003f3 	mov	w19, w0
    79b0:	35000680 	cbnz	w0, 7a80 <mbedtls_mpi_gcd+0x168>
/home/hei/Desktop/optee-qemu/optee_os/lib/libmbedtls/mbedtls/library/bignum.c:2033
    79b4:	aa1603e1 	mov	x1, x22
    79b8:	aa1403e0 	mov	x0, x20
    79bc:	97fff8ea 	bl	5d64 <mbedtls_mpi_shift_r>
    79c0:	2a0003f3 	mov	w19, w0
    79c4:	350005e0 	cbnz	w0, 7a80 <mbedtls_mpi_gcd+0x168>
/home/hei/Desktop/optee-qemu/optee_os/lib/libmbedtls/mbedtls/library/bignum.c:2035
    79c8:	52800020 	mov	w0, #0x1                   	// #1
    79cc:	7900e3e0 	strh	w0, [sp, #112]
    79d0:	790113e0 	strh	w0, [sp, #136]
/home/hei/Desktop/optee-qemu/optee_os/lib/libmbedtls/mbedtls/library/bignum.c:2037
    79d4:	52800001 	mov	w1, #0x0                   	// #0
    79d8:	aa1503e0 	mov	x0, x21
    79dc:	97fff971 	bl	5fa0 <mbedtls_mpi_cmp_int>
    79e0:	35000160 	cbnz	w0, 7a0c <mbedtls_mpi_gcd+0xf4>
/home/hei/Desktop/optee-qemu/optee_os/lib/libmbedtls/mbedtls/library/bignum.c:2054
    79e4:	aa1603e1 	mov	x1, x22
    79e8:	aa1403e0 	mov	x0, x20
    79ec:	97fff89e 	bl	5c64 <mbedtls_mpi_shift_l>
    79f0:	2a0003f3 	mov	w19, w0
    79f4:	35000460 	cbnz	w0, 7a80 <mbedtls_mpi_gcd+0x168>
/home/hei/Desktop/optee-qemu/optee_os/lib/libmbedtls/mbedtls/library/bignum.c:2055
    79f8:	aa1403e1 	mov	x1, x20
    79fc:	aa1803e0 	mov	x0, x24
    7a00:	97fff711 	bl	5644 <mbedtls_mpi_copy>
    7a04:	2a0003f3 	mov	w19, w0
/home/hei/Desktop/optee-qemu/optee_os/lib/libmbedtls/mbedtls/library/bignum.c:2057
    7a08:	1400001e 	b	7a80 <mbedtls_mpi_gcd+0x168>
/home/hei/Desktop/optee-qemu/optee_os/lib/libmbedtls/mbedtls/library/bignum.c:2039
    7a0c:	aa1503e0 	mov	x0, x21
    7a10:	97fff803 	bl	5a1c <mbedtls_mpi_lsb>
    7a14:	aa0003e1 	mov	x1, x0
    7a18:	aa1503e0 	mov	x0, x21
    7a1c:	97fff8d2 	bl	5d64 <mbedtls_mpi_shift_r>
    7a20:	2a0003f3 	mov	w19, w0
    7a24:	350002e0 	cbnz	w0, 7a80 <mbedtls_mpi_gcd+0x168>
/home/hei/Desktop/optee-qemu/optee_os/lib/libmbedtls/mbedtls/library/bignum.c:2040
    7a28:	aa1403e0 	mov	x0, x20
    7a2c:	97fff7fc 	bl	5a1c <mbedtls_mpi_lsb>
    7a30:	aa0003e1 	mov	x1, x0
    7a34:	aa1403e0 	mov	x0, x20
    7a38:	97fff8cb 	bl	5d64 <mbedtls_mpi_shift_r>
    7a3c:	2a0003f3 	mov	w19, w0
    7a40:	35000200 	cbnz	w0, 7a80 <mbedtls_mpi_gcd+0x168>
/home/hei/Desktop/optee-qemu/optee_os/lib/libmbedtls/mbedtls/library/bignum.c:2042
    7a44:	aa1403e1 	mov	x1, x20
    7a48:	aa1503e0 	mov	x0, x21
    7a4c:	97fff91f 	bl	5ec8 <mbedtls_mpi_cmp_mpi>
    7a50:	37f80300 	tbnz	w0, #31, 7ab0 <mbedtls_mpi_gcd+0x198>
/home/hei/Desktop/optee-qemu/optee_os/lib/libmbedtls/mbedtls/library/bignum.c:2044
    7a54:	aa1403e2 	mov	x2, x20
    7a58:	aa1503e1 	mov	x1, x21
    7a5c:	aa1503e0 	mov	x0, x21
    7a60:	97fff9ab 	bl	610c <mbedtls_mpi_sub_abs>
    7a64:	2a0003f3 	mov	w19, w0
    7a68:	350000c0 	cbnz	w0, 7a80 <mbedtls_mpi_gcd+0x168>
/home/hei/Desktop/optee-qemu/optee_os/lib/libmbedtls/mbedtls/library/bignum.c:2045
    7a6c:	aa1503e0 	mov	x0, x21
    7a70:	d2800021 	mov	x1, #0x1                   	// #1
/home/hei/Desktop/optee-qemu/optee_os/lib/libmbedtls/mbedtls/library/bignum.c:2050
    7a74:	97fff8bc 	bl	5d64 <mbedtls_mpi_shift_r>
    7a78:	2a0003f3 	mov	w19, w0
    7a7c:	34fffac0 	cbz	w0, 79d4 <mbedtls_mpi_gcd+0xbc>
/home/hei/Desktop/optee-qemu/optee_os/lib/libmbedtls/mbedtls/library/bignum.c:2059
    7a80:	aa1703e0 	mov	x0, x23
    7a84:	97fff64f 	bl	53c0 <mbedtls_mpi_free>
    7a88:	aa1503e0 	mov	x0, x21
    7a8c:	97fff64d 	bl	53c0 <mbedtls_mpi_free>
    7a90:	aa1403e0 	mov	x0, x20
    7a94:	97fff64b 	bl	53c0 <mbedtls_mpi_free>
/home/hei/Desktop/optee-qemu/optee_os/lib/libmbedtls/mbedtls/library/bignum.c:2062
    7a98:	2a1303e0 	mov	w0, w19
    7a9c:	a94153f3 	ldp	x19, x20, [sp, #16]
    7aa0:	a9425bf5 	ldp	x21, x22, [sp, #32]
    7aa4:	a94363f7 	ldp	x23, x24, [sp, #48]
    7aa8:	a8ca7bfd 	ldp	x29, x30, [sp], #160
    7aac:	d65f03c0 	ret
/home/hei/Desktop/optee-qemu/optee_os/lib/libmbedtls/mbedtls/library/bignum.c:2049
    7ab0:	aa1503e2 	mov	x2, x21
    7ab4:	aa1403e1 	mov	x1, x20
    7ab8:	aa1403e0 	mov	x0, x20
    7abc:	97fff994 	bl	610c <mbedtls_mpi_sub_abs>
    7ac0:	2a0003f3 	mov	w19, w0
    7ac4:	35fffde0 	cbnz	w0, 7a80 <mbedtls_mpi_gcd+0x168>
/home/hei/Desktop/optee-qemu/optee_os/lib/libmbedtls/mbedtls/library/bignum.c:2050
    7ac8:	d2800021 	mov	x1, #0x1                   	// #1
    7acc:	aa1403e0 	mov	x0, x20
    7ad0:	17ffffe9 	b	7a74 <mbedtls_mpi_gcd+0x15c>

0000000000007ad4 <mbedtls_mpi_fill_random>:
mbedtls_mpi_fill_random():
/home/hei/Desktop/optee-qemu/optee_os/lib/libmbedtls/mbedtls/library/bignum.c:2074
    7ad4:	d110c3ff 	sub	sp, sp, #0x430
/home/hei/Desktop/optee-qemu/optee_os/lib/libmbedtls/mbedtls/library/bignum.c:2080
    7ad8:	f110003f 	cmp	x1, #0x400
/home/hei/Desktop/optee-qemu/optee_os/lib/libmbedtls/mbedtls/library/bignum.c:2074
    7adc:	a9007bfd 	stp	x29, x30, [sp]
    7ae0:	910003fd 	mov	x29, sp
    7ae4:	a90153f3 	stp	x19, x20, [sp, #16]
    7ae8:	a9025bf5 	stp	x21, x22, [sp, #32]
/home/hei/Desktop/optee-qemu/optee_os/lib/libmbedtls/mbedtls/library/bignum.c:2080
    7aec:	54000328 	b.hi	7b50 <mbedtls_mpi_fill_random+0x7c>  // b.pmore
/home/hei/Desktop/optee-qemu/optee_os/lib/libmbedtls/mbedtls/library/bignum.c:2083
    7af0:	9100c3f5 	add	x21, sp, #0x30
    7af4:	aa0203e4 	mov	x4, x2
    7af8:	aa0003f6 	mov	x22, x0
    7afc:	aa0103e2 	mov	x2, x1
    7b00:	aa0303e0 	mov	x0, x3
    7b04:	aa0103f3 	mov	x19, x1
    7b08:	aa1503e1 	mov	x1, x21
    7b0c:	d63f0080 	blr	x4
    7b10:	2a0003f4 	mov	w20, w0
    7b14:	350000c0 	cbnz	w0, 7b2c <mbedtls_mpi_fill_random+0x58>
/home/hei/Desktop/optee-qemu/optee_os/lib/libmbedtls/mbedtls/library/bignum.c:2084
    7b18:	aa1303e2 	mov	x2, x19
    7b1c:	aa1503e1 	mov	x1, x21
    7b20:	aa1603e0 	mov	x0, x22
    7b24:	97fff7f1 	bl	5ae8 <mbedtls_mpi_read_binary>
    7b28:	2a0003f4 	mov	w20, w0
/home/hei/Desktop/optee-qemu/optee_os/lib/libmbedtls/mbedtls/library/bignum.c:2087
    7b2c:	d2808001 	mov	x1, #0x400                 	// #1024
    7b30:	aa1503e0 	mov	x0, x21
    7b34:	940003a1 	bl	89b8 <mbedtls_platform_zeroize>
/home/hei/Desktop/optee-qemu/optee_os/lib/libmbedtls/mbedtls/library/bignum.c:2089
    7b38:	2a1403e0 	mov	w0, w20
    7b3c:	a9407bfd 	ldp	x29, x30, [sp]
    7b40:	a94153f3 	ldp	x19, x20, [sp, #16]
    7b44:	a9425bf5 	ldp	x21, x22, [sp, #32]
    7b48:	9110c3ff 	add	sp, sp, #0x430
    7b4c:	d65f03c0 	ret
/home/hei/Desktop/optee-qemu/optee_os/lib/libmbedtls/mbedtls/library/bignum.c:2081
    7b50:	12800074 	mov	w20, #0xfffffffc            	// #-4
    7b54:	17fffff9 	b	7b38 <mbedtls_mpi_fill_random+0x64>

0000000000007b58 <mpi_miller_rabin>:
mpi_miller_rabin():
/home/hei/Desktop/optee-qemu/optee_os/lib/libmbedtls/mbedtls/library/bignum.c:2257
    7b58:	a9b07bfd 	stp	x29, x30, [sp, #-256]!
    7b5c:	910003fd 	mov	x29, sp
    7b60:	6d0627e8 	stp	d8, d9, [sp, #96]
    7b64:	9e670048 	fmov	d8, x2
    7b68:	9e670069 	fmov	d9, x3
    7b6c:	a9025bf5 	stp	x21, x22, [sp, #32]
/home/hei/Desktop/optee-qemu/optee_os/lib/libmbedtls/mbedtls/library/bignum.c:2265
    7b70:	910223f5 	add	x21, sp, #0x88
    7b74:	910283f6 	add	x22, sp, #0xa0
/home/hei/Desktop/optee-qemu/optee_os/lib/libmbedtls/mbedtls/library/bignum.c:2257
    7b78:	a90153f3 	stp	x19, x20, [sp, #16]
/home/hei/Desktop/optee-qemu/optee_os/lib/libmbedtls/mbedtls/library/bignum.c:2266
    7b7c:	910343f3 	add	x19, sp, #0xd0
/home/hei/Desktop/optee-qemu/optee_os/lib/libmbedtls/mbedtls/library/bignum.c:2257
    7b80:	a90363f7 	stp	x23, x24, [sp, #48]
    7b84:	aa0003f7 	mov	x23, x0
/home/hei/Desktop/optee-qemu/optee_os/lib/libmbedtls/mbedtls/library/bignum.c:2265
    7b88:	aa1503e0 	mov	x0, x21
/home/hei/Desktop/optee-qemu/optee_os/lib/libmbedtls/mbedtls/library/bignum.c:2257
    7b8c:	a9046bf9 	stp	x25, x26, [sp, #64]
/home/hei/Desktop/optee-qemu/optee_os/lib/libmbedtls/mbedtls/library/bignum.c:2266
    7b90:	9102e3f8 	add	x24, sp, #0xb8
/home/hei/Desktop/optee-qemu/optee_os/lib/libmbedtls/mbedtls/library/bignum.c:2267
    7b94:	9103a3f9 	add	x25, sp, #0xe8
/home/hei/Desktop/optee-qemu/optee_os/lib/libmbedtls/mbedtls/library/bignum.c:2257
    7b98:	a90573fb 	stp	x27, x28, [sp, #80]
    7b9c:	f9003be1 	str	x1, [sp, #112]
/home/hei/Desktop/optee-qemu/optee_os/lib/libmbedtls/mbedtls/library/bignum.c:2265
    7ba0:	97fff5fe 	bl	5398 <mbedtls_mpi_init_mempool>
    7ba4:	aa1603e0 	mov	x0, x22
    7ba8:	97fff5fc 	bl	5398 <mbedtls_mpi_init_mempool>
/home/hei/Desktop/optee-qemu/optee_os/lib/libmbedtls/mbedtls/library/bignum.c:2266
    7bac:	aa1803e0 	mov	x0, x24
    7bb0:	97fff5fa 	bl	5398 <mbedtls_mpi_init_mempool>
    7bb4:	aa1303e0 	mov	x0, x19
    7bb8:	97fff5f8 	bl	5398 <mbedtls_mpi_init_mempool>
/home/hei/Desktop/optee-qemu/optee_os/lib/libmbedtls/mbedtls/library/bignum.c:2267
    7bbc:	aa1903e0 	mov	x0, x25
    7bc0:	97fff5f6 	bl	5398 <mbedtls_mpi_init_mempool>
/home/hei/Desktop/optee-qemu/optee_os/lib/libmbedtls/mbedtls/library/bignum.c:2273
    7bc4:	52800022 	mov	w2, #0x1                   	// #1
    7bc8:	aa1703e1 	mov	x1, x23
    7bcc:	aa1503e0 	mov	x0, x21
    7bd0:	97fff9d9 	bl	6334 <mbedtls_mpi_sub_int>
    7bd4:	2a0003f4 	mov	w20, w0
    7bd8:	35000660 	cbnz	w0, 7ca4 <mpi_miller_rabin+0x14c>
/home/hei/Desktop/optee-qemu/optee_os/lib/libmbedtls/mbedtls/library/bignum.c:2274
    7bdc:	aa1503e0 	mov	x0, x21
    7be0:	97fff78f 	bl	5a1c <mbedtls_mpi_lsb>
/home/hei/Desktop/optee-qemu/optee_os/lib/libmbedtls/mbedtls/library/bignum.c:2275
    7be4:	aa1503e1 	mov	x1, x21
/home/hei/Desktop/optee-qemu/optee_os/lib/libmbedtls/mbedtls/library/bignum.c:2274
    7be8:	aa0003fc 	mov	x28, x0
/home/hei/Desktop/optee-qemu/optee_os/lib/libmbedtls/mbedtls/library/bignum.c:2275
    7bec:	aa1603e0 	mov	x0, x22
    7bf0:	97fff695 	bl	5644 <mbedtls_mpi_copy>
    7bf4:	2a0003f4 	mov	w20, w0
    7bf8:	35000560 	cbnz	w0, 7ca4 <mpi_miller_rabin+0x14c>
/home/hei/Desktop/optee-qemu/optee_os/lib/libmbedtls/mbedtls/library/bignum.c:2276
    7bfc:	aa1c03e1 	mov	x1, x28
    7c00:	aa1603e0 	mov	x0, x22
    7c04:	97fff858 	bl	5d64 <mbedtls_mpi_shift_r>
    7c08:	2a0003f4 	mov	w20, w0
    7c0c:	350004c0 	cbnz	w0, 7ca4 <mpi_miller_rabin+0x14c>
/home/hei/Desktop/optee-qemu/optee_os/lib/libmbedtls/mbedtls/library/bignum.c:2280
    7c10:	d280001a 	mov	x26, #0x0                   	// #0
/home/hei/Desktop/optee-qemu/optee_os/lib/libmbedtls/mbedtls/library/bignum.c:2278
    7c14:	aa1703e0 	mov	x0, x23
    7c18:	97fff796 	bl	5a70 <mbedtls_mpi_bitlen>
/home/hei/Desktop/optee-qemu/optee_os/lib/libmbedtls/mbedtls/library/bignum.c:2280 (discriminator 1)
    7c1c:	f9403be0 	ldr	x0, [sp, #112]
    7c20:	eb00035f 	cmp	x26, x0
    7c24:	54000400 	b.eq	7ca4 <mpi_miller_rabin+0x14c>  // b.none
    7c28:	528025db 	mov	w27, #0x12e                 	// #302
/home/hei/Desktop/optee-qemu/optee_os/lib/libmbedtls/mbedtls/library/bignum.c:2287
    7c2c:	9e660123 	fmov	x3, d9
    7c30:	9e660102 	fmov	x2, d8
    7c34:	f94006e1 	ldr	x1, [x23, #8]
    7c38:	aa1303e0 	mov	x0, x19
    7c3c:	d37ef421 	lsl	x1, x1, #2
    7c40:	97ffffa5 	bl	7ad4 <mbedtls_mpi_fill_random>
    7c44:	35000ca0 	cbnz	w0, 7dd8 <mpi_miller_rabin+0x280>
/home/hei/Desktop/optee-qemu/optee_os/lib/libmbedtls/mbedtls/library/bignum.c:2289
    7c48:	aa1303e0 	mov	x0, x19
    7c4c:	97fff789 	bl	5a70 <mbedtls_mpi_bitlen>
    7c50:	aa0003e1 	mov	x1, x0
/home/hei/Desktop/optee-qemu/optee_os/lib/libmbedtls/mbedtls/library/bignum.c:2290
    7c54:	aa1503e0 	mov	x0, x21
/home/hei/Desktop/optee-qemu/optee_os/lib/libmbedtls/mbedtls/library/bignum.c:2289
    7c58:	f9003fe1 	str	x1, [sp, #120]
/home/hei/Desktop/optee-qemu/optee_os/lib/libmbedtls/mbedtls/library/bignum.c:2290
    7c5c:	97fff785 	bl	5a70 <mbedtls_mpi_bitlen>
/home/hei/Desktop/optee-qemu/optee_os/lib/libmbedtls/mbedtls/library/bignum.c:2291
    7c60:	f9403fe1 	ldr	x1, [sp, #120]
    7c64:	eb00003f 	cmp	x1, x0
    7c68:	54000189 	b.ls	7c98 <mpi_miller_rabin+0x140>  // b.plast
/home/hei/Desktop/optee-qemu/optee_os/lib/libmbedtls/mbedtls/library/bignum.c:2292
    7c6c:	a94d8fe1 	ldp	x1, x3, [sp, #216]
    7c70:	128003e4 	mov	w4, #0xffffffe0            	// #-32
    7c74:	d37ef422 	lsl	x2, x1, #2
    7c78:	1b010081 	madd	w1, w4, w1, w0
    7c7c:	d1001042 	sub	x2, x2, #0x4
    7c80:	12800000 	mov	w0, #0xffffffff            	// #-1
    7c84:	11007c21 	add	w1, w1, #0x1f
    7c88:	1ac12001 	lsl	w1, w0, w1
    7c8c:	b8626860 	ldr	w0, [x3, x2]
    7c90:	0a210001 	bic	w1, w0, w1
    7c94:	b8226861 	str	w1, [x3, x2]
/home/hei/Desktop/optee-qemu/optee_os/lib/libmbedtls/mbedtls/library/bignum.c:2295
    7c98:	7100077b 	subs	w27, w27, #0x1
    7c9c:	540002a1 	b.ne	7cf0 <mpi_miller_rabin+0x198>  // b.any
/home/hei/Desktop/optee-qemu/optee_os/lib/libmbedtls/mbedtls/library/bignum.c:2296
    7ca0:	128001b4 	mov	w20, #0xfffffff2            	// #-14
/home/hei/Desktop/optee-qemu/optee_os/lib/libmbedtls/mbedtls/library/bignum.c:2339
    7ca4:	aa1503e0 	mov	x0, x21
    7ca8:	97fff5c6 	bl	53c0 <mbedtls_mpi_free>
    7cac:	aa1603e0 	mov	x0, x22
    7cb0:	97fff5c4 	bl	53c0 <mbedtls_mpi_free>
/home/hei/Desktop/optee-qemu/optee_os/lib/libmbedtls/mbedtls/library/bignum.c:2340
    7cb4:	aa1803e0 	mov	x0, x24
    7cb8:	97fff5c2 	bl	53c0 <mbedtls_mpi_free>
    7cbc:	aa1303e0 	mov	x0, x19
    7cc0:	97fff5c0 	bl	53c0 <mbedtls_mpi_free>
/home/hei/Desktop/optee-qemu/optee_os/lib/libmbedtls/mbedtls/library/bignum.c:2341
    7cc4:	aa1903e0 	mov	x0, x25
    7cc8:	97fff5be 	bl	53c0 <mbedtls_mpi_free>
/home/hei/Desktop/optee-qemu/optee_os/lib/libmbedtls/mbedtls/library/bignum.c:2344
    7ccc:	2a1403e0 	mov	w0, w20
    7cd0:	a94153f3 	ldp	x19, x20, [sp, #16]
    7cd4:	a9425bf5 	ldp	x21, x22, [sp, #32]
    7cd8:	a94363f7 	ldp	x23, x24, [sp, #48]
    7cdc:	a9446bf9 	ldp	x25, x26, [sp, #64]
    7ce0:	a94573fb 	ldp	x27, x28, [sp, #80]
    7ce4:	6d4627e8 	ldp	d8, d9, [sp, #96]
    7ce8:	a8d07bfd 	ldp	x29, x30, [sp], #256
    7cec:	d65f03c0 	ret
/home/hei/Desktop/optee-qemu/optee_os/lib/libmbedtls/mbedtls/library/bignum.c:2300
    7cf0:	aa1503e1 	mov	x1, x21
    7cf4:	aa1303e0 	mov	x0, x19
    7cf8:	97fff874 	bl	5ec8 <mbedtls_mpi_cmp_mpi>
/home/hei/Desktop/optee-qemu/optee_os/lib/libmbedtls/mbedtls/library/bignum.c:2301
    7cfc:	36fff980 	tbz	w0, #31, 7c2c <mpi_miller_rabin+0xd4>
/home/hei/Desktop/optee-qemu/optee_os/lib/libmbedtls/mbedtls/library/bignum.c:2301 (discriminator 1)
    7d00:	52800021 	mov	w1, #0x1                   	// #1
    7d04:	aa1303e0 	mov	x0, x19
    7d08:	97fff8a6 	bl	5fa0 <mbedtls_mpi_cmp_int>
/home/hei/Desktop/optee-qemu/optee_os/lib/libmbedtls/mbedtls/library/bignum.c:2300 (discriminator 1)
    7d0c:	7100001f 	cmp	w0, #0x0
    7d10:	54fff8ed 	b.le	7c2c <mpi_miller_rabin+0xd4>
/home/hei/Desktop/optee-qemu/optee_os/lib/libmbedtls/mbedtls/library/bignum.c:2306
    7d14:	aa1903e4 	mov	x4, x25
    7d18:	aa1703e3 	mov	x3, x23
    7d1c:	aa1603e2 	mov	x2, x22
    7d20:	aa1303e1 	mov	x1, x19
    7d24:	aa1303e0 	mov	x0, x19
    7d28:	97fffd59 	bl	728c <mbedtls_mpi_exp_mod>
    7d2c:	35000560 	cbnz	w0, 7dd8 <mpi_miller_rabin+0x280>
/home/hei/Desktop/optee-qemu/optee_os/lib/libmbedtls/mbedtls/library/bignum.c:2308
    7d30:	aa1503e1 	mov	x1, x21
    7d34:	aa1303e0 	mov	x0, x19
    7d38:	97fff864 	bl	5ec8 <mbedtls_mpi_cmp_mpi>
    7d3c:	35000060 	cbnz	w0, 7d48 <mpi_miller_rabin+0x1f0>
/home/hei/Desktop/optee-qemu/optee_os/lib/libmbedtls/mbedtls/library/bignum.c:2280
    7d40:	9100075a 	add	x26, x26, #0x1
    7d44:	17ffffb6 	b	7c1c <mpi_miller_rabin+0xc4>
/home/hei/Desktop/optee-qemu/optee_os/lib/libmbedtls/mbedtls/library/bignum.c:2309 (discriminator 1)
    7d48:	52800021 	mov	w1, #0x1                   	// #1
    7d4c:	aa1303e0 	mov	x0, x19
    7d50:	97fff894 	bl	5fa0 <mbedtls_mpi_cmp_int>
/home/hei/Desktop/optee-qemu/optee_os/lib/libmbedtls/mbedtls/library/bignum.c:2308 (discriminator 1)
    7d54:	34ffff60 	cbz	w0, 7d40 <mpi_miller_rabin+0x1e8>
/home/hei/Desktop/optee-qemu/optee_os/lib/libmbedtls/mbedtls/library/bignum.c:2312
    7d58:	d280003b 	mov	x27, #0x1                   	// #1
/home/hei/Desktop/optee-qemu/optee_os/lib/libmbedtls/mbedtls/library/bignum.c:2313
    7d5c:	eb1c037f 	cmp	x27, x28
    7d60:	54000262 	b.cs	7dac <mpi_miller_rabin+0x254>  // b.hs, b.nlast
/home/hei/Desktop/optee-qemu/optee_os/lib/libmbedtls/mbedtls/library/bignum.c:2313 (discriminator 1)
    7d64:	aa1503e1 	mov	x1, x21
    7d68:	aa1303e0 	mov	x0, x19
    7d6c:	97fff857 	bl	5ec8 <mbedtls_mpi_cmp_mpi>
    7d70:	340001e0 	cbz	w0, 7dac <mpi_miller_rabin+0x254>
/home/hei/Desktop/optee-qemu/optee_os/lib/libmbedtls/mbedtls/library/bignum.c:2318
    7d74:	aa1303e2 	mov	x2, x19
    7d78:	aa1303e1 	mov	x1, x19
    7d7c:	aa1803e0 	mov	x0, x24
    7d80:	97fff97d 	bl	6374 <mbedtls_mpi_mul_mpi>
    7d84:	350002a0 	cbnz	w0, 7dd8 <mpi_miller_rabin+0x280>
/home/hei/Desktop/optee-qemu/optee_os/lib/libmbedtls/mbedtls/library/bignum.c:2319
    7d88:	aa1703e2 	mov	x2, x23
    7d8c:	aa1803e1 	mov	x1, x24
    7d90:	aa1303e0 	mov	x0, x19
    7d94:	97fffbad 	bl	6c48 <mbedtls_mpi_mod_mpi>
    7d98:	35000200 	cbnz	w0, 7dd8 <mpi_miller_rabin+0x280>
/home/hei/Desktop/optee-qemu/optee_os/lib/libmbedtls/mbedtls/library/bignum.c:2321
    7d9c:	52800021 	mov	w1, #0x1                   	// #1
    7da0:	aa1303e0 	mov	x0, x19
    7da4:	97fff87f 	bl	5fa0 <mbedtls_mpi_cmp_int>
    7da8:	35000140 	cbnz	w0, 7dd0 <mpi_miller_rabin+0x278>
/home/hei/Desktop/optee-qemu/optee_os/lib/libmbedtls/mbedtls/library/bignum.c:2330
    7dac:	aa1503e1 	mov	x1, x21
    7db0:	aa1303e0 	mov	x0, x19
    7db4:	97fff845 	bl	5ec8 <mbedtls_mpi_cmp_mpi>
    7db8:	35fff740 	cbnz	w0, 7ca0 <mpi_miller_rabin+0x148>
/home/hei/Desktop/optee-qemu/optee_os/lib/libmbedtls/mbedtls/library/bignum.c:2331 (discriminator 1)
    7dbc:	52800021 	mov	w1, #0x1                   	// #1
    7dc0:	aa1303e0 	mov	x0, x19
    7dc4:	97fff877 	bl	5fa0 <mbedtls_mpi_cmp_int>
/home/hei/Desktop/optee-qemu/optee_os/lib/libmbedtls/mbedtls/library/bignum.c:2330 (discriminator 1)
    7dc8:	35fffbc0 	cbnz	w0, 7d40 <mpi_miller_rabin+0x1e8>
    7dcc:	17ffffb5 	b	7ca0 <mpi_miller_rabin+0x148>
/home/hei/Desktop/optee-qemu/optee_os/lib/libmbedtls/mbedtls/library/bignum.c:2324
    7dd0:	9100077b 	add	x27, x27, #0x1
    7dd4:	17ffffe2 	b	7d5c <mpi_miller_rabin+0x204>
    7dd8:	2a0003f4 	mov	w20, w0
    7ddc:	17ffffb2 	b	7ca4 <mpi_miller_rabin+0x14c>

0000000000007de0 <mbedtls_mpi_inv_mod>:
mbedtls_mpi_inv_mod():
/home/hei/Desktop/optee-qemu/optee_os/lib/libmbedtls/mbedtls/library/bignum.c:2095
    7de0:	a9aa7bfd 	stp	x29, x30, [sp, #-352]!
    7de4:	910003fd 	mov	x29, sp
    7de8:	6d0627e8 	stp	d8, d9, [sp, #96]
    7dec:	9e670029 	fmov	d9, x1
    7df0:	9e670048 	fmov	d8, x2
    7df4:	fd003bea 	str	d10, [sp, #112]
    7df8:	9e67000a 	fmov	d10, x0
/home/hei/Desktop/optee-qemu/optee_os/lib/libmbedtls/mbedtls/library/bignum.c:2102
    7dfc:	52800021 	mov	w1, #0x1                   	// #1
    7e00:	aa0203e0 	mov	x0, x2
/home/hei/Desktop/optee-qemu/optee_os/lib/libmbedtls/mbedtls/library/bignum.c:2095
    7e04:	a90153f3 	stp	x19, x20, [sp, #16]
    7e08:	a9025bf5 	stp	x21, x22, [sp, #32]
    7e0c:	a90363f7 	stp	x23, x24, [sp, #48]
    7e10:	a9046bf9 	stp	x25, x26, [sp, #64]
    7e14:	a90573fb 	stp	x27, x28, [sp, #80]
/home/hei/Desktop/optee-qemu/optee_os/lib/libmbedtls/mbedtls/library/bignum.c:2102
    7e18:	97fff862 	bl	5fa0 <mbedtls_mpi_cmp_int>
    7e1c:	7100001f 	cmp	w0, #0x0
    7e20:	54001f8d 	b.le	8210 <mbedtls_mpi_inv_mod+0x430>
/home/hei/Desktop/optee-qemu/optee_os/lib/libmbedtls/mbedtls/library/bignum.c:2105
    7e24:	910283fa 	add	x26, sp, #0xa0
    7e28:	9102e3f8 	add	x24, sp, #0xb8
    7e2c:	aa1a03e0 	mov	x0, x26
    7e30:	97fff55a 	bl	5398 <mbedtls_mpi_init_mempool>
    7e34:	aa1803e0 	mov	x0, x24
/home/hei/Desktop/optee-qemu/optee_os/lib/libmbedtls/mbedtls/library/bignum.c:2106
    7e38:	910343f7 	add	x23, sp, #0xd0
/home/hei/Desktop/optee-qemu/optee_os/lib/libmbedtls/mbedtls/library/bignum.c:2105
    7e3c:	97fff557 	bl	5398 <mbedtls_mpi_init_mempool>
/home/hei/Desktop/optee-qemu/optee_os/lib/libmbedtls/mbedtls/library/bignum.c:2106
    7e40:	9103a3f6 	add	x22, sp, #0xe8
    7e44:	aa1703e0 	mov	x0, x23
    7e48:	97fff554 	bl	5398 <mbedtls_mpi_init_mempool>
    7e4c:	aa1603e0 	mov	x0, x22
/home/hei/Desktop/optee-qemu/optee_os/lib/libmbedtls/mbedtls/library/bignum.c:2107
    7e50:	910223fc 	add	x28, sp, #0x88
/home/hei/Desktop/optee-qemu/optee_os/lib/libmbedtls/mbedtls/library/bignum.c:2106
    7e54:	97fff551 	bl	5398 <mbedtls_mpi_init_mempool>
/home/hei/Desktop/optee-qemu/optee_os/lib/libmbedtls/mbedtls/library/bignum.c:2107
    7e58:	910403fb 	add	x27, sp, #0x100
    7e5c:	aa1c03e0 	mov	x0, x28
    7e60:	97fff54e 	bl	5398 <mbedtls_mpi_init_mempool>
    7e64:	aa1b03e0 	mov	x0, x27
/home/hei/Desktop/optee-qemu/optee_os/lib/libmbedtls/mbedtls/library/bignum.c:2108
    7e68:	910463f9 	add	x25, sp, #0x118
/home/hei/Desktop/optee-qemu/optee_os/lib/libmbedtls/mbedtls/library/bignum.c:2107
    7e6c:	97fff54b 	bl	5398 <mbedtls_mpi_init_mempool>
/home/hei/Desktop/optee-qemu/optee_os/lib/libmbedtls/mbedtls/library/bignum.c:2108
    7e70:	9104c3f4 	add	x20, sp, #0x130
    7e74:	aa1903e0 	mov	x0, x25
    7e78:	97fff548 	bl	5398 <mbedtls_mpi_init_mempool>
    7e7c:	aa1403e0 	mov	x0, x20
/home/hei/Desktop/optee-qemu/optee_os/lib/libmbedtls/mbedtls/library/bignum.c:2109
    7e80:	910523f5 	add	x21, sp, #0x148
/home/hei/Desktop/optee-qemu/optee_os/lib/libmbedtls/mbedtls/library/bignum.c:2108
    7e84:	97fff545 	bl	5398 <mbedtls_mpi_init_mempool>
/home/hei/Desktop/optee-qemu/optee_os/lib/libmbedtls/mbedtls/library/bignum.c:2109
    7e88:	aa1503e0 	mov	x0, x21
    7e8c:	97fff543 	bl	5398 <mbedtls_mpi_init_mempool>
/home/hei/Desktop/optee-qemu/optee_os/lib/libmbedtls/mbedtls/library/bignum.c:2111
    7e90:	9e660102 	fmov	x2, d8
    7e94:	9e660121 	fmov	x1, d9
    7e98:	aa1c03e0 	mov	x0, x28
    7e9c:	97fffe9f 	bl	7918 <mbedtls_mpi_gcd>
    7ea0:	2a0003f3 	mov	w19, w0
    7ea4:	35000d60 	cbnz	w0, 8050 <mbedtls_mpi_inv_mod+0x270>
/home/hei/Desktop/optee-qemu/optee_os/lib/libmbedtls/mbedtls/library/bignum.c:2113
    7ea8:	52800021 	mov	w1, #0x1                   	// #1
    7eac:	aa1c03e0 	mov	x0, x28
    7eb0:	97fff83c 	bl	5fa0 <mbedtls_mpi_cmp_int>
    7eb4:	35001aa0 	cbnz	w0, 8208 <mbedtls_mpi_inv_mod+0x428>
/home/hei/Desktop/optee-qemu/optee_os/lib/libmbedtls/mbedtls/library/bignum.c:2119
    7eb8:	9e660102 	fmov	x2, d8
    7ebc:	9e660121 	fmov	x1, d9
    7ec0:	aa1a03e0 	mov	x0, x26
    7ec4:	97fffb61 	bl	6c48 <mbedtls_mpi_mod_mpi>
    7ec8:	2a0003f3 	mov	w19, w0
    7ecc:	35000c20 	cbnz	w0, 8050 <mbedtls_mpi_inv_mod+0x270>
/home/hei/Desktop/optee-qemu/optee_os/lib/libmbedtls/mbedtls/library/bignum.c:2120
    7ed0:	aa1a03e1 	mov	x1, x26
    7ed4:	aa1803e0 	mov	x0, x24
    7ed8:	97fff5db 	bl	5644 <mbedtls_mpi_copy>
    7edc:	2a0003f3 	mov	w19, w0
    7ee0:	35000b80 	cbnz	w0, 8050 <mbedtls_mpi_inv_mod+0x270>
/home/hei/Desktop/optee-qemu/optee_os/lib/libmbedtls/mbedtls/library/bignum.c:2121
    7ee4:	9e660101 	fmov	x1, d8
    7ee8:	aa1b03e0 	mov	x0, x27
    7eec:	97fff5d6 	bl	5644 <mbedtls_mpi_copy>
    7ef0:	2a0003f3 	mov	w19, w0
    7ef4:	35000ae0 	cbnz	w0, 8050 <mbedtls_mpi_inv_mod+0x270>
/home/hei/Desktop/optee-qemu/optee_os/lib/libmbedtls/mbedtls/library/bignum.c:2122
    7ef8:	9e660101 	fmov	x1, d8
    7efc:	aa1903e0 	mov	x0, x25
    7f00:	97fff5d1 	bl	5644 <mbedtls_mpi_copy>
    7f04:	2a0003f3 	mov	w19, w0
    7f08:	35000a40 	cbnz	w0, 8050 <mbedtls_mpi_inv_mod+0x270>
/home/hei/Desktop/optee-qemu/optee_os/lib/libmbedtls/mbedtls/library/bignum.c:2124
    7f0c:	52800021 	mov	w1, #0x1                   	// #1
    7f10:	aa1703e0 	mov	x0, x23
    7f14:	97fff67a 	bl	58fc <mbedtls_mpi_lset>
    7f18:	2a0003f3 	mov	w19, w0
    7f1c:	350009a0 	cbnz	w0, 8050 <mbedtls_mpi_inv_mod+0x270>
/home/hei/Desktop/optee-qemu/optee_os/lib/libmbedtls/mbedtls/library/bignum.c:2125
    7f20:	52800001 	mov	w1, #0x0                   	// #0
    7f24:	aa1603e0 	mov	x0, x22
    7f28:	97fff675 	bl	58fc <mbedtls_mpi_lset>
    7f2c:	2a0003f3 	mov	w19, w0
    7f30:	35000900 	cbnz	w0, 8050 <mbedtls_mpi_inv_mod+0x270>
/home/hei/Desktop/optee-qemu/optee_os/lib/libmbedtls/mbedtls/library/bignum.c:2126
    7f34:	52800001 	mov	w1, #0x0                   	// #0
    7f38:	aa1403e0 	mov	x0, x20
    7f3c:	97fff670 	bl	58fc <mbedtls_mpi_lset>
    7f40:	2a0003f3 	mov	w19, w0
    7f44:	35000860 	cbnz	w0, 8050 <mbedtls_mpi_inv_mod+0x270>
/home/hei/Desktop/optee-qemu/optee_os/lib/libmbedtls/mbedtls/library/bignum.c:2127
    7f48:	52800021 	mov	w1, #0x1                   	// #1
    7f4c:	aa1503e0 	mov	x0, x21
    7f50:	97fff66b 	bl	58fc <mbedtls_mpi_lset>
/home/hei/Desktop/optee-qemu/optee_os/lib/libmbedtls/mbedtls/library/bignum.c:2142
    7f54:	2a0003f3 	mov	w19, w0
    7f58:	350007c0 	cbnz	w0, 8050 <mbedtls_mpi_inv_mod+0x270>
/home/hei/Desktop/optee-qemu/optee_os/lib/libmbedtls/mbedtls/library/bignum.c:2131
    7f5c:	f94067e0 	ldr	x0, [sp, #200]
    7f60:	b9400000 	ldr	w0, [x0]
    7f64:	36000560 	tbz	w0, #0, 8010 <mbedtls_mpi_inv_mod+0x230>
/home/hei/Desktop/optee-qemu/optee_os/lib/libmbedtls/mbedtls/library/bignum.c:2145
    7f68:	f94097e0 	ldr	x0, [sp, #296]
    7f6c:	b9400000 	ldr	w0, [x0]
    7f70:	36000ca0 	tbz	w0, #0, 8104 <mbedtls_mpi_inv_mod+0x324>
/home/hei/Desktop/optee-qemu/optee_os/lib/libmbedtls/mbedtls/library/bignum.c:2159
    7f74:	aa1903e1 	mov	x1, x25
    7f78:	aa1803e0 	mov	x0, x24
    7f7c:	97fff7d3 	bl	5ec8 <mbedtls_mpi_cmp_mpi>
    7f80:	37f81080 	tbnz	w0, #31, 8190 <mbedtls_mpi_inv_mod+0x3b0>
/home/hei/Desktop/optee-qemu/optee_os/lib/libmbedtls/mbedtls/library/bignum.c:2161
    7f84:	aa1903e2 	mov	x2, x25
    7f88:	aa1803e1 	mov	x1, x24
    7f8c:	aa1803e0 	mov	x0, x24
    7f90:	97fff8b6 	bl	6268 <mbedtls_mpi_sub_mpi>
    7f94:	2a0003f3 	mov	w19, w0
    7f98:	350005c0 	cbnz	w0, 8050 <mbedtls_mpi_inv_mod+0x270>
/home/hei/Desktop/optee-qemu/optee_os/lib/libmbedtls/mbedtls/library/bignum.c:2162
    7f9c:	aa1403e2 	mov	x2, x20
    7fa0:	aa1703e1 	mov	x1, x23
    7fa4:	aa1703e0 	mov	x0, x23
    7fa8:	97fff8b0 	bl	6268 <mbedtls_mpi_sub_mpi>
    7fac:	2a0003f3 	mov	w19, w0
    7fb0:	35000500 	cbnz	w0, 8050 <mbedtls_mpi_inv_mod+0x270>
/home/hei/Desktop/optee-qemu/optee_os/lib/libmbedtls/mbedtls/library/bignum.c:2163
    7fb4:	aa1503e2 	mov	x2, x21
    7fb8:	aa1603e1 	mov	x1, x22
    7fbc:	aa1603e0 	mov	x0, x22
    7fc0:	97fff8aa 	bl	6268 <mbedtls_mpi_sub_mpi>
    7fc4:	2a0003f3 	mov	w19, w0
    7fc8:	35000440 	cbnz	w0, 8050 <mbedtls_mpi_inv_mod+0x270>
/home/hei/Desktop/optee-qemu/optee_os/lib/libmbedtls/mbedtls/library/bignum.c:2172
    7fcc:	52800001 	mov	w1, #0x0                   	// #0
    7fd0:	aa1803e0 	mov	x0, x24
    7fd4:	97fff7f3 	bl	5fa0 <mbedtls_mpi_cmp_int>
    7fd8:	35fffc20 	cbnz	w0, 7f5c <mbedtls_mpi_inv_mod+0x17c>
/home/hei/Desktop/optee-qemu/optee_os/lib/libmbedtls/mbedtls/library/bignum.c:2174
    7fdc:	52800001 	mov	w1, #0x0                   	// #0
    7fe0:	aa1403e0 	mov	x0, x20
    7fe4:	97fff7ef 	bl	5fa0 <mbedtls_mpi_cmp_int>
    7fe8:	37f80f40 	tbnz	w0, #31, 81d0 <mbedtls_mpi_inv_mod+0x3f0>
/home/hei/Desktop/optee-qemu/optee_os/lib/libmbedtls/mbedtls/library/bignum.c:2177
    7fec:	9e660101 	fmov	x1, d8
    7ff0:	aa1403e0 	mov	x0, x20
    7ff4:	97fff7b5 	bl	5ec8 <mbedtls_mpi_cmp_mpi>
    7ff8:	36f80fa0 	tbz	w0, #31, 81ec <mbedtls_mpi_inv_mod+0x40c>
/home/hei/Desktop/optee-qemu/optee_os/lib/libmbedtls/mbedtls/library/bignum.c:2180
    7ffc:	9e660140 	fmov	x0, d10
    8000:	aa1403e1 	mov	x1, x20
    8004:	97fff590 	bl	5644 <mbedtls_mpi_copy>
    8008:	2a0003f3 	mov	w19, w0
/home/hei/Desktop/optee-qemu/optee_os/lib/libmbedtls/mbedtls/library/bignum.c:2182
    800c:	14000011 	b	8050 <mbedtls_mpi_inv_mod+0x270>
/home/hei/Desktop/optee-qemu/optee_os/lib/libmbedtls/mbedtls/library/bignum.c:2133
    8010:	d2800021 	mov	x1, #0x1                   	// #1
    8014:	aa1803e0 	mov	x0, x24
    8018:	97fff753 	bl	5d64 <mbedtls_mpi_shift_r>
    801c:	2a0003f3 	mov	w19, w0
    8020:	35000180 	cbnz	w0, 8050 <mbedtls_mpi_inv_mod+0x270>
/home/hei/Desktop/optee-qemu/optee_os/lib/libmbedtls/mbedtls/library/bignum.c:2135
    8024:	f94073e0 	ldr	x0, [sp, #224]
    8028:	b9400000 	ldr	w0, [x0]
    802c:	370004a0 	tbnz	w0, #0, 80c0 <mbedtls_mpi_inv_mod+0x2e0>
/home/hei/Desktop/optee-qemu/optee_os/lib/libmbedtls/mbedtls/library/bignum.c:2135 (discriminator 1)
    8030:	f9407fe0 	ldr	x0, [sp, #248]
    8034:	b9400000 	ldr	w0, [x0]
    8038:	37000440 	tbnz	w0, #0, 80c0 <mbedtls_mpi_inv_mod+0x2e0>
/home/hei/Desktop/optee-qemu/optee_os/lib/libmbedtls/mbedtls/library/bignum.c:2141
    803c:	d2800021 	mov	x1, #0x1                   	// #1
    8040:	aa1703e0 	mov	x0, x23
    8044:	97fff748 	bl	5d64 <mbedtls_mpi_shift_r>
    8048:	2a0003f3 	mov	w19, w0
    804c:	34000540 	cbz	w0, 80f4 <mbedtls_mpi_inv_mod+0x314>
/home/hei/Desktop/optee-qemu/optee_os/lib/libmbedtls/mbedtls/library/bignum.c:2184
    8050:	aa1a03e0 	mov	x0, x26
    8054:	97fff4db 	bl	53c0 <mbedtls_mpi_free>
    8058:	aa1803e0 	mov	x0, x24
    805c:	97fff4d9 	bl	53c0 <mbedtls_mpi_free>
    8060:	aa1703e0 	mov	x0, x23
    8064:	97fff4d7 	bl	53c0 <mbedtls_mpi_free>
    8068:	aa1603e0 	mov	x0, x22
    806c:	97fff4d5 	bl	53c0 <mbedtls_mpi_free>
/home/hei/Desktop/optee-qemu/optee_os/lib/libmbedtls/mbedtls/library/bignum.c:2185
    8070:	aa1c03e0 	mov	x0, x28
    8074:	97fff4d3 	bl	53c0 <mbedtls_mpi_free>
    8078:	aa1b03e0 	mov	x0, x27
    807c:	97fff4d1 	bl	53c0 <mbedtls_mpi_free>
    8080:	aa1903e0 	mov	x0, x25
    8084:	97fff4cf 	bl	53c0 <mbedtls_mpi_free>
/home/hei/Desktop/optee-qemu/optee_os/lib/libmbedtls/mbedtls/library/bignum.c:2186
    8088:	aa1403e0 	mov	x0, x20
    808c:	97fff4cd 	bl	53c0 <mbedtls_mpi_free>
    8090:	aa1503e0 	mov	x0, x21
    8094:	97fff4cb 	bl	53c0 <mbedtls_mpi_free>
/home/hei/Desktop/optee-qemu/optee_os/lib/libmbedtls/mbedtls/library/bignum.c:2189
    8098:	2a1303e0 	mov	w0, w19
    809c:	fd403bea 	ldr	d10, [sp, #112]
    80a0:	a94153f3 	ldp	x19, x20, [sp, #16]
    80a4:	a9425bf5 	ldp	x21, x22, [sp, #32]
    80a8:	a94363f7 	ldp	x23, x24, [sp, #48]
    80ac:	a9446bf9 	ldp	x25, x26, [sp, #64]
    80b0:	a94573fb 	ldp	x27, x28, [sp, #80]
    80b4:	6d4627e8 	ldp	d8, d9, [sp, #96]
    80b8:	a8d67bfd 	ldp	x29, x30, [sp], #352
    80bc:	d65f03c0 	ret
/home/hei/Desktop/optee-qemu/optee_os/lib/libmbedtls/mbedtls/library/bignum.c:2137
    80c0:	aa1b03e2 	mov	x2, x27
    80c4:	aa1703e1 	mov	x1, x23
    80c8:	aa1703e0 	mov	x0, x23
    80cc:	97fff845 	bl	61e0 <mbedtls_mpi_add_mpi>
    80d0:	2a0003f3 	mov	w19, w0
    80d4:	35fffbe0 	cbnz	w0, 8050 <mbedtls_mpi_inv_mod+0x270>
/home/hei/Desktop/optee-qemu/optee_os/lib/libmbedtls/mbedtls/library/bignum.c:2138
    80d8:	aa1a03e2 	mov	x2, x26
    80dc:	aa1603e1 	mov	x1, x22
    80e0:	aa1603e0 	mov	x0, x22
    80e4:	97fff861 	bl	6268 <mbedtls_mpi_sub_mpi>
    80e8:	2a0003f3 	mov	w19, w0
    80ec:	34fffa80 	cbz	w0, 803c <mbedtls_mpi_inv_mod+0x25c>
    80f0:	17ffffd8 	b	8050 <mbedtls_mpi_inv_mod+0x270>
/home/hei/Desktop/optee-qemu/optee_os/lib/libmbedtls/mbedtls/library/bignum.c:2142
    80f4:	d2800021 	mov	x1, #0x1                   	// #1
    80f8:	aa1603e0 	mov	x0, x22
    80fc:	97fff71a 	bl	5d64 <mbedtls_mpi_shift_r>
    8100:	17ffff95 	b	7f54 <mbedtls_mpi_inv_mod+0x174>
/home/hei/Desktop/optee-qemu/optee_os/lib/libmbedtls/mbedtls/library/bignum.c:2147
    8104:	d2800021 	mov	x1, #0x1                   	// #1
    8108:	aa1903e0 	mov	x0, x25
    810c:	97fff716 	bl	5d64 <mbedtls_mpi_shift_r>
    8110:	2a0003f3 	mov	w19, w0
    8114:	35fff9e0 	cbnz	w0, 8050 <mbedtls_mpi_inv_mod+0x270>
/home/hei/Desktop/optee-qemu/optee_os/lib/libmbedtls/mbedtls/library/bignum.c:2149
    8118:	f940a3e0 	ldr	x0, [sp, #320]
    811c:	b9400000 	ldr	w0, [x0]
    8120:	370001e0 	tbnz	w0, #0, 815c <mbedtls_mpi_inv_mod+0x37c>
/home/hei/Desktop/optee-qemu/optee_os/lib/libmbedtls/mbedtls/library/bignum.c:2149 (discriminator 1)
    8124:	f940afe0 	ldr	x0, [sp, #344]
    8128:	b9400000 	ldr	w0, [x0]
    812c:	37000180 	tbnz	w0, #0, 815c <mbedtls_mpi_inv_mod+0x37c>
/home/hei/Desktop/optee-qemu/optee_os/lib/libmbedtls/mbedtls/library/bignum.c:2155
    8130:	d2800021 	mov	x1, #0x1                   	// #1
    8134:	aa1403e0 	mov	x0, x20
    8138:	97fff70b 	bl	5d64 <mbedtls_mpi_shift_r>
    813c:	2a0003f3 	mov	w19, w0
    8140:	35fff880 	cbnz	w0, 8050 <mbedtls_mpi_inv_mod+0x270>
/home/hei/Desktop/optee-qemu/optee_os/lib/libmbedtls/mbedtls/library/bignum.c:2156
    8144:	d2800021 	mov	x1, #0x1                   	// #1
    8148:	aa1503e0 	mov	x0, x21
    814c:	97fff706 	bl	5d64 <mbedtls_mpi_shift_r>
    8150:	2a0003f3 	mov	w19, w0
    8154:	34fff0a0 	cbz	w0, 7f68 <mbedtls_mpi_inv_mod+0x188>
    8158:	17ffffbe 	b	8050 <mbedtls_mpi_inv_mod+0x270>
/home/hei/Desktop/optee-qemu/optee_os/lib/libmbedtls/mbedtls/library/bignum.c:2151
    815c:	aa1b03e2 	mov	x2, x27
    8160:	aa1403e1 	mov	x1, x20
    8164:	aa1403e0 	mov	x0, x20
    8168:	97fff81e 	bl	61e0 <mbedtls_mpi_add_mpi>
    816c:	2a0003f3 	mov	w19, w0
    8170:	35fff700 	cbnz	w0, 8050 <mbedtls_mpi_inv_mod+0x270>
/home/hei/Desktop/optee-qemu/optee_os/lib/libmbedtls/mbedtls/library/bignum.c:2152
    8174:	aa1a03e2 	mov	x2, x26
    8178:	aa1503e1 	mov	x1, x21
    817c:	aa1503e0 	mov	x0, x21
    8180:	97fff83a 	bl	6268 <mbedtls_mpi_sub_mpi>
    8184:	2a0003f3 	mov	w19, w0
    8188:	34fffd40 	cbz	w0, 8130 <mbedtls_mpi_inv_mod+0x350>
    818c:	17ffffb1 	b	8050 <mbedtls_mpi_inv_mod+0x270>
/home/hei/Desktop/optee-qemu/optee_os/lib/libmbedtls/mbedtls/library/bignum.c:2167
    8190:	aa1803e2 	mov	x2, x24
    8194:	aa1903e1 	mov	x1, x25
    8198:	aa1903e0 	mov	x0, x25
    819c:	97fff833 	bl	6268 <mbedtls_mpi_sub_mpi>
    81a0:	2a0003f3 	mov	w19, w0
    81a4:	35fff560 	cbnz	w0, 8050 <mbedtls_mpi_inv_mod+0x270>
/home/hei/Desktop/optee-qemu/optee_os/lib/libmbedtls/mbedtls/library/bignum.c:2168
    81a8:	aa1703e2 	mov	x2, x23
    81ac:	aa1403e1 	mov	x1, x20
    81b0:	aa1403e0 	mov	x0, x20
    81b4:	97fff82d 	bl	6268 <mbedtls_mpi_sub_mpi>
    81b8:	2a0003f3 	mov	w19, w0
    81bc:	35fff4a0 	cbnz	w0, 8050 <mbedtls_mpi_inv_mod+0x270>
/home/hei/Desktop/optee-qemu/optee_os/lib/libmbedtls/mbedtls/library/bignum.c:2169
    81c0:	aa1603e2 	mov	x2, x22
    81c4:	aa1503e1 	mov	x1, x21
    81c8:	aa1503e0 	mov	x0, x21
    81cc:	17ffff7d 	b	7fc0 <mbedtls_mpi_inv_mod+0x1e0>
/home/hei/Desktop/optee-qemu/optee_os/lib/libmbedtls/mbedtls/library/bignum.c:2175
    81d0:	9e660102 	fmov	x2, d8
    81d4:	aa1403e1 	mov	x1, x20
    81d8:	aa1403e0 	mov	x0, x20
    81dc:	97fff801 	bl	61e0 <mbedtls_mpi_add_mpi>
    81e0:	2a0003f3 	mov	w19, w0
    81e4:	34ffefc0 	cbz	w0, 7fdc <mbedtls_mpi_inv_mod+0x1fc>
    81e8:	17ffff9a 	b	8050 <mbedtls_mpi_inv_mod+0x270>
/home/hei/Desktop/optee-qemu/optee_os/lib/libmbedtls/mbedtls/library/bignum.c:2178
    81ec:	9e660102 	fmov	x2, d8
    81f0:	aa1403e1 	mov	x1, x20
    81f4:	aa1403e0 	mov	x0, x20
    81f8:	97fff81c 	bl	6268 <mbedtls_mpi_sub_mpi>
    81fc:	2a0003f3 	mov	w19, w0
    8200:	34ffef60 	cbz	w0, 7fec <mbedtls_mpi_inv_mod+0x20c>
    8204:	17ffff93 	b	8050 <mbedtls_mpi_inv_mod+0x270>
/home/hei/Desktop/optee-qemu/optee_os/lib/libmbedtls/mbedtls/library/bignum.c:2115
    8208:	128001b3 	mov	w19, #0xfffffff2            	// #-14
    820c:	17ffff91 	b	8050 <mbedtls_mpi_inv_mod+0x270>
/home/hei/Desktop/optee-qemu/optee_os/lib/libmbedtls/mbedtls/library/bignum.c:2103
    8210:	12800073 	mov	w19, #0xfffffffc            	// #-4
    8214:	17ffffa1 	b	8098 <mbedtls_mpi_inv_mod+0x2b8>

0000000000008218 <mbedtls_mpi_is_prime_ext>:
mbedtls_mpi_is_prime_ext():
/home/hei/Desktop/optee-qemu/optee_os/lib/libmbedtls/mbedtls/library/bignum.c:2352
    8218:	a9bb7bfd 	stp	x29, x30, [sp, #-80]!
    821c:	910003fd 	mov	x29, sp
    8220:	a90153f3 	stp	x19, x20, [sp, #16]
    8224:	2a0103f4 	mov	w20, w1
/home/hei/Desktop/optee-qemu/optee_os/lib/libmbedtls/mbedtls/library/bignum.c:2358
    8228:	52800021 	mov	w1, #0x1                   	// #1
    822c:	790073e1 	strh	w1, [sp, #56]
/home/hei/Desktop/optee-qemu/optee_os/lib/libmbedtls/mbedtls/library/bignum.c:2362
    8230:	9100e3f3 	add	x19, sp, #0x38
/home/hei/Desktop/optee-qemu/optee_os/lib/libmbedtls/mbedtls/library/bignum.c:2360
    8234:	a9408001 	ldp	x1, x0, [x0, #8]
/home/hei/Desktop/optee-qemu/optee_os/lib/libmbedtls/mbedtls/library/bignum.c:2352
    8238:	a9025bf5 	stp	x21, x22, [sp, #32]
    823c:	aa0203f5 	mov	x21, x2
    8240:	aa0303f6 	mov	x22, x3
/home/hei/Desktop/optee-qemu/optee_os/lib/libmbedtls/mbedtls/library/bignum.c:2360
    8244:	a90403e1 	stp	x1, x0, [sp, #64]
/home/hei/Desktop/optee-qemu/optee_os/lib/libmbedtls/mbedtls/library/bignum.c:2362
    8248:	52800001 	mov	w1, #0x0                   	// #0
    824c:	aa1303e0 	mov	x0, x19
    8250:	97fff754 	bl	5fa0 <mbedtls_mpi_cmp_int>
    8254:	350000c0 	cbnz	w0, 826c <mbedtls_mpi_is_prime_ext+0x54>
/home/hei/Desktop/optee-qemu/optee_os/lib/libmbedtls/mbedtls/library/bignum.c:2364
    8258:	128001a0 	mov	w0, #0xfffffff2            	// #-14
/home/hei/Desktop/optee-qemu/optee_os/lib/libmbedtls/mbedtls/library/bignum.c:2378
    825c:	a94153f3 	ldp	x19, x20, [sp, #16]
    8260:	a9425bf5 	ldp	x21, x22, [sp, #32]
    8264:	a8c57bfd 	ldp	x29, x30, [sp], #80
    8268:	d65f03c0 	ret
/home/hei/Desktop/optee-qemu/optee_os/lib/libmbedtls/mbedtls/library/bignum.c:2363 (discriminator 1)
    826c:	52800021 	mov	w1, #0x1                   	// #1
    8270:	aa1303e0 	mov	x0, x19
    8274:	97fff74b 	bl	5fa0 <mbedtls_mpi_cmp_int>
/home/hei/Desktop/optee-qemu/optee_os/lib/libmbedtls/mbedtls/library/bignum.c:2362 (discriminator 1)
    8278:	34ffff00 	cbz	w0, 8258 <mbedtls_mpi_is_prime_ext+0x40>
/home/hei/Desktop/optee-qemu/optee_os/lib/libmbedtls/mbedtls/library/bignum.c:2366
    827c:	52800041 	mov	w1, #0x2                   	// #2
    8280:	aa1303e0 	mov	x0, x19
    8284:	97fff747 	bl	5fa0 <mbedtls_mpi_cmp_int>
    8288:	340000c0 	cbz	w0, 82a0 <mbedtls_mpi_is_prime_ext+0x88>
/home/hei/Desktop/optee-qemu/optee_os/lib/libmbedtls/mbedtls/library/bignum.c:2369
    828c:	aa1303e0 	mov	x0, x19
    8290:	97fffb6d 	bl	7044 <mpi_check_small_factors>
    8294:	340000a0 	cbz	w0, 82a8 <mbedtls_mpi_is_prime_ext+0x90>
/home/hei/Desktop/optee-qemu/optee_os/lib/libmbedtls/mbedtls/library/bignum.c:2371
    8298:	7100041f 	cmp	w0, #0x1
    829c:	54fffe01 	b.ne	825c <mbedtls_mpi_is_prime_ext+0x44>  // b.any
/home/hei/Desktop/optee-qemu/optee_os/lib/libmbedtls/mbedtls/library/bignum.c:2372
    82a0:	52800000 	mov	w0, #0x0                   	// #0
    82a4:	17ffffee 	b	825c <mbedtls_mpi_is_prime_ext+0x44>
/home/hei/Desktop/optee-qemu/optee_os/lib/libmbedtls/mbedtls/library/bignum.c:2377
    82a8:	aa1603e3 	mov	x3, x22
    82ac:	aa1503e2 	mov	x2, x21
    82b0:	93407e81 	sxtw	x1, w20
    82b4:	aa1303e0 	mov	x0, x19
    82b8:	97fffe28 	bl	7b58 <mpi_miller_rabin>
    82bc:	17ffffe8 	b	825c <mbedtls_mpi_is_prime_ext+0x44>

00000000000082c0 <mbedtls_mpi_is_prime>:
mbedtls_mpi_is_prime():
/home/hei/Desktop/optee-qemu/optee_os/lib/libmbedtls/mbedtls/library/bignum.c:2396
    82c0:	aa0203e3 	mov	x3, x2
    82c4:	aa0103e2 	mov	x2, x1
    82c8:	52800501 	mov	w1, #0x28                  	// #40
    82cc:	17ffffd3 	b	8218 <mbedtls_mpi_is_prime_ext>

00000000000082d0 <mbedtls_mpi_gen_prime>:
mbedtls_mpi_gen_prime():
/home/hei/Desktop/optee-qemu/optee_os/lib/libmbedtls/mbedtls/library/bignum.c:2410
    82d0:	a9b67bfd 	stp	x29, x30, [sp, #-160]!
/home/hei/Desktop/optee-qemu/optee_os/lib/libmbedtls/mbedtls/library/bignum.c:2427
    82d4:	d1000c26 	sub	x6, x1, #0x3
    82d8:	d283ffa5 	mov	x5, #0x1ffd                	// #8189
/home/hei/Desktop/optee-qemu/optee_os/lib/libmbedtls/mbedtls/library/bignum.c:2410
    82dc:	910003fd 	mov	x29, sp
    82e0:	a90153f3 	stp	x19, x20, [sp, #16]
/home/hei/Desktop/optee-qemu/optee_os/lib/libmbedtls/mbedtls/library/bignum.c:2427
    82e4:	eb0500df 	cmp	x6, x5
/home/hei/Desktop/optee-qemu/optee_os/lib/libmbedtls/mbedtls/library/bignum.c:2410
    82e8:	a9025bf5 	stp	x21, x22, [sp, #32]
    82ec:	a90363f7 	stp	x23, x24, [sp, #48]
    82f0:	a9046bf9 	stp	x25, x26, [sp, #64]
    82f4:	a90573fb 	stp	x27, x28, [sp, #80]
    82f8:	6d0627e8 	stp	d8, d9, [sp, #96]
/home/hei/Desktop/optee-qemu/optee_os/lib/libmbedtls/mbedtls/library/bignum.c:2427
    82fc:	540016c8 	b.hi	85d4 <mbedtls_mpi_gen_prime+0x304>  // b.pmore
    8300:	9e670089 	fmov	d9, x4
    8304:	9e670068 	fmov	d8, x3
    8308:	aa0103fa 	mov	x26, x1
/home/hei/Desktop/optee-qemu/optee_os/lib/libmbedtls/mbedtls/library/bignum.c:2430
    830c:	910223f6 	add	x22, sp, #0x88
    8310:	2a0203f8 	mov	w24, w2
    8314:	aa0003f5 	mov	x21, x0
    8318:	aa1603e0 	mov	x0, x22
    831c:	97fff41f 	bl	5398 <mbedtls_mpi_init_mempool>
/home/hei/Desktop/optee-qemu/optee_os/lib/libmbedtls/mbedtls/library/bignum.c:2432
    8320:	f240135f 	tst	x26, #0x1f
    8324:	d345ff57 	lsr	x23, x26, #5
    8328:	9a9706f7 	cinc	x23, x23, ne  // ne = any
/home/hei/Desktop/optee-qemu/optee_os/lib/libmbedtls/mbedtls/library/bignum.c:2434
    832c:	37080cf8 	tbnz	w24, #1, 84c8 <mbedtls_mpi_gen_prime+0x1f8>
/home/hei/Desktop/optee-qemu/optee_os/lib/libmbedtls/mbedtls/library/bignum.c:2439
    8330:	f1144f5f 	cmp	x26, #0x513
    8334:	54000ee8 	b.hi	8510 <mbedtls_mpi_gen_prime+0x240>  // b.pmore
/home/hei/Desktop/optee-qemu/optee_os/lib/libmbedtls/mbedtls/library/bignum.c:2439 (discriminator 1)
    8338:	f10d475f 	cmp	x26, #0x351
    833c:	54000ee8 	b.hi	8518 <mbedtls_mpi_gen_prime+0x248>  // b.pmore
/home/hei/Desktop/optee-qemu/optee_os/lib/libmbedtls/mbedtls/library/bignum.c:2440
    8340:	f10a275f 	cmp	x26, #0x289
    8344:	54000f28 	b.hi	8528 <mbedtls_mpi_gen_prime+0x258>  // b.pmore
/home/hei/Desktop/optee-qemu/optee_os/lib/libmbedtls/mbedtls/library/bignum.c:2440 (discriminator 1)
    8348:	f105775f 	cmp	x26, #0x15d
    834c:	54000fe8 	b.hi	8548 <mbedtls_mpi_gen_prime+0x278>  // b.pmore
/home/hei/Desktop/optee-qemu/optee_os/lib/libmbedtls/mbedtls/library/bignum.c:2441
    8350:	f103e75f 	cmp	x26, #0xf9
    8354:	54000e68 	b.hi	8520 <mbedtls_mpi_gen_prime+0x250>  // b.pmore
/home/hei/Desktop/optee-qemu/optee_os/lib/libmbedtls/mbedtls/library/bignum.c:2441 (discriminator 1)
    8358:	f102575f 	cmp	x26, #0x95
    835c:	d2800254 	mov	x20, #0x12                  	// #18
    8360:	d2800360 	mov	x0, #0x1b                  	// #27
/home/hei/Desktop/optee-qemu/optee_os/lib/libmbedtls/mbedtls/library/bignum.c:2452 (discriminator 1)
    8364:	9a808294 	csel	x20, x20, x0, hi  // hi = pmore
/home/hei/Desktop/optee-qemu/optee_os/lib/libmbedtls/mbedtls/library/bignum.c:2457
    8368:	d37ef6f9 	lsl	x25, x23, #2
/home/hei/Desktop/optee-qemu/optee_os/lib/libmbedtls/mbedtls/library/bignum.c:2461
    836c:	d37beaf7 	lsl	x23, x23, #5
/home/hei/Desktop/optee-qemu/optee_os/lib/libmbedtls/mbedtls/library/bignum.c:2459
    8370:	529e667c 	mov	w28, #0xf333                	// #62259
/home/hei/Desktop/optee-qemu/optee_os/lib/libmbedtls/mbedtls/library/bignum.c:2462
    8374:	cb1a02fb 	sub	x27, x23, x26
/home/hei/Desktop/optee-qemu/optee_os/lib/libmbedtls/mbedtls/library/bignum.c:2465
    8378:	12000318 	and	w24, w24, #0x1
/home/hei/Desktop/optee-qemu/optee_os/lib/libmbedtls/mbedtls/library/bignum.c:2459
    837c:	d1001320 	sub	x0, x25, #0x4
    8380:	72b6a09c 	movk	w28, #0xb504, lsl #16
    8384:	f9003fe0 	str	x0, [sp, #120]
/home/hei/Desktop/optee-qemu/optee_os/lib/libmbedtls/mbedtls/library/bignum.c:2457
    8388:	9e660123 	fmov	x3, d9
    838c:	9e660102 	fmov	x2, d8
    8390:	aa1903e1 	mov	x1, x25
    8394:	aa1503e0 	mov	x0, x21
    8398:	97fffdcf 	bl	7ad4 <mbedtls_mpi_fill_random>
    839c:	2a0003f3 	mov	w19, w0
    83a0:	35000ea0 	cbnz	w0, 8574 <mbedtls_mpi_gen_prime+0x2a4>
/home/hei/Desktop/optee-qemu/optee_os/lib/libmbedtls/mbedtls/library/bignum.c:2459
    83a4:	f9400aa0 	ldr	x0, [x21, #16]
    83a8:	f9403fe1 	ldr	x1, [sp, #120]
    83ac:	b8616800 	ldr	w0, [x0, x1]
    83b0:	6b1c001f 	cmp	w0, w28
    83b4:	54fffea9 	b.ls	8388 <mbedtls_mpi_gen_prime+0xb8>  // b.plast
/home/hei/Desktop/optee-qemu/optee_os/lib/libmbedtls/mbedtls/library/bignum.c:2462
    83b8:	eb17035f 	cmp	x26, x23
    83bc:	54000d23 	b.cc	8560 <mbedtls_mpi_gen_prime+0x290>  // b.lo, b.ul, b.last
/home/hei/Desktop/optee-qemu/optee_os/lib/libmbedtls/mbedtls/library/bignum.c:2463
    83c0:	f9400aa1 	ldr	x1, [x21, #16]
    83c4:	b9400020 	ldr	w0, [x1]
    83c8:	32000002 	orr	w2, w0, #0x1
    83cc:	b9000022 	str	w2, [x1]
/home/hei/Desktop/optee-qemu/optee_os/lib/libmbedtls/mbedtls/library/bignum.c:2465
    83d0:	34000e98 	cbz	w24, 85a0 <mbedtls_mpi_gen_prime+0x2d0>
/home/hei/Desktop/optee-qemu/optee_os/lib/libmbedtls/mbedtls/library/bignum.c:2480
    83d4:	32000400 	orr	w0, w0, #0x3
    83d8:	b9000020 	str	w0, [x1]
/home/hei/Desktop/optee-qemu/optee_os/lib/libmbedtls/mbedtls/library/bignum.c:2482
    83dc:	52800062 	mov	w2, #0x3                   	// #3
    83e0:	aa1503e1 	mov	x1, x21
    83e4:	910213e0 	add	x0, sp, #0x84
    83e8:	97fffa45 	bl	6cfc <mbedtls_mpi_mod_int>
    83ec:	2a0003f3 	mov	w19, w0
    83f0:	35000c20 	cbnz	w0, 8574 <mbedtls_mpi_gen_prime+0x2a4>
/home/hei/Desktop/optee-qemu/optee_os/lib/libmbedtls/mbedtls/library/bignum.c:2483
    83f4:	b94087e0 	ldr	w0, [sp, #132]
    83f8:	35000e60 	cbnz	w0, 85c4 <mbedtls_mpi_gen_prime+0x2f4>
/home/hei/Desktop/optee-qemu/optee_os/lib/libmbedtls/mbedtls/library/bignum.c:2484
    83fc:	52800102 	mov	w2, #0x8                   	// #8
    8400:	aa1503e1 	mov	x1, x21
    8404:	aa1503e0 	mov	x0, x21
    8408:	97fff7bb 	bl	62f4 <mbedtls_mpi_add_int>
    840c:	2a0003f3 	mov	w19, w0
    8410:	35000b20 	cbnz	w0, 8574 <mbedtls_mpi_gen_prime+0x2a4>
/home/hei/Desktop/optee-qemu/optee_os/lib/libmbedtls/mbedtls/library/bignum.c:2489
    8414:	aa1503e1 	mov	x1, x21
    8418:	aa1603e0 	mov	x0, x22
    841c:	97fff48a 	bl	5644 <mbedtls_mpi_copy>
    8420:	2a0003f3 	mov	w19, w0
    8424:	35000a80 	cbnz	w0, 8574 <mbedtls_mpi_gen_prime+0x2a4>
/home/hei/Desktop/optee-qemu/optee_os/lib/libmbedtls/mbedtls/library/bignum.c:2490
    8428:	d2800021 	mov	x1, #0x1                   	// #1
    842c:	aa1603e0 	mov	x0, x22
    8430:	97fff64d 	bl	5d64 <mbedtls_mpi_shift_r>
    8434:	2a0003f3 	mov	w19, w0
    8438:	350009e0 	cbnz	w0, 8574 <mbedtls_mpi_gen_prime+0x2a4>
/home/hei/Desktop/optee-qemu/optee_os/lib/libmbedtls/mbedtls/library/bignum.c:2498
    843c:	aa1503e0 	mov	x0, x21
    8440:	97fffb01 	bl	7044 <mpi_check_small_factors>
    8444:	2a0003f3 	mov	w19, w0
    8448:	35000260 	cbnz	w0, 8494 <mbedtls_mpi_gen_prime+0x1c4>
/home/hei/Desktop/optee-qemu/optee_os/lib/libmbedtls/mbedtls/library/bignum.c:2499 (discriminator 1)
    844c:	aa1603e0 	mov	x0, x22
    8450:	97fffafd 	bl	7044 <mpi_check_small_factors>
    8454:	2a0003f3 	mov	w19, w0
/home/hei/Desktop/optee-qemu/optee_os/lib/libmbedtls/mbedtls/library/bignum.c:2498 (discriminator 1)
    8458:	350001e0 	cbnz	w0, 8494 <mbedtls_mpi_gen_prime+0x1c4>
/home/hei/Desktop/optee-qemu/optee_os/lib/libmbedtls/mbedtls/library/bignum.c:2500
    845c:	9e660123 	fmov	x3, d9
    8460:	9e660102 	fmov	x2, d8
    8464:	aa1403e1 	mov	x1, x20
    8468:	aa1503e0 	mov	x0, x21
    846c:	97fffdbb 	bl	7b58 <mpi_miller_rabin>
    8470:	2a0003f3 	mov	w19, w0
/home/hei/Desktop/optee-qemu/optee_os/lib/libmbedtls/mbedtls/library/bignum.c:2499
    8474:	35000100 	cbnz	w0, 8494 <mbedtls_mpi_gen_prime+0x1c4>
/home/hei/Desktop/optee-qemu/optee_os/lib/libmbedtls/mbedtls/library/bignum.c:2502
    8478:	9e660123 	fmov	x3, d9
    847c:	9e660102 	fmov	x2, d8
    8480:	aa1403e1 	mov	x1, x20
    8484:	aa1603e0 	mov	x0, x22
    8488:	97fffdb4 	bl	7b58 <mpi_miller_rabin>
    848c:	2a0003f3 	mov	w19, w0
/home/hei/Desktop/optee-qemu/optee_os/lib/libmbedtls/mbedtls/library/bignum.c:2501
    8490:	34000720 	cbz	w0, 8574 <mbedtls_mpi_gen_prime+0x2a4>
/home/hei/Desktop/optee-qemu/optee_os/lib/libmbedtls/mbedtls/library/bignum.c:2506
    8494:	31003a7f 	cmn	w19, #0xe
    8498:	540006e1 	b.ne	8574 <mbedtls_mpi_gen_prime+0x2a4>  // b.any
/home/hei/Desktop/optee-qemu/optee_os/lib/libmbedtls/mbedtls/library/bignum.c:2514
    849c:	52800182 	mov	w2, #0xc                   	// #12
    84a0:	aa1503e1 	mov	x1, x21
    84a4:	aa1503e0 	mov	x0, x21
    84a8:	97fff793 	bl	62f4 <mbedtls_mpi_add_int>
    84ac:	2a0003f3 	mov	w19, w0
    84b0:	35000620 	cbnz	w0, 8574 <mbedtls_mpi_gen_prime+0x2a4>
/home/hei/Desktop/optee-qemu/optee_os/lib/libmbedtls/mbedtls/library/bignum.c:2515
    84b4:	528000c2 	mov	w2, #0x6                   	// #6
    84b8:	aa1603e1 	mov	x1, x22
    84bc:	aa1603e0 	mov	x0, x22
    84c0:	97fff78d 	bl	62f4 <mbedtls_mpi_add_int>
    84c4:	17ffffdc 	b	8434 <mbedtls_mpi_gen_prime+0x164>
/home/hei/Desktop/optee-qemu/optee_os/lib/libmbedtls/mbedtls/library/bignum.c:2449
    84c8:	f116a75f 	cmp	x26, #0x5a9
    84cc:	540002e8 	b.hi	8528 <mbedtls_mpi_gen_prime+0x258>  // b.pmore
/home/hei/Desktop/optee-qemu/optee_os/lib/libmbedtls/mbedtls/library/bignum.c:2449 (discriminator 1)
    84d0:	f111f75f 	cmp	x26, #0x47d
    84d4:	540002e8 	b.hi	8530 <mbedtls_mpi_gen_prime+0x260>  // b.pmore
/home/hei/Desktop/optee-qemu/optee_os/lib/libmbedtls/mbedtls/library/bignum.c:2450
    84d8:	f10f9f5f 	cmp	x26, #0x3e7
    84dc:	540002e8 	b.hi	8538 <mbedtls_mpi_gen_prime+0x268>  // b.pmore
/home/hei/Desktop/optee-qemu/optee_os/lib/libmbedtls/mbedtls/library/bignum.c:2450 (discriminator 1)
    84e0:	f10d475f 	cmp	x26, #0x351
    84e4:	540002e8 	b.hi	8540 <mbedtls_mpi_gen_prime+0x270>  // b.pmore
/home/hei/Desktop/optee-qemu/optee_os/lib/libmbedtls/mbedtls/library/bignum.c:2451
    84e8:	f10bb75f 	cmp	x26, #0x2ed
    84ec:	540002e8 	b.hi	8548 <mbedtls_mpi_gen_prime+0x278>  // b.pmore
/home/hei/Desktop/optee-qemu/optee_os/lib/libmbedtls/mbedtls/library/bignum.c:2451 (discriminator 1)
    84f0:	f107cf5f 	cmp	x26, #0x1f3
    84f4:	540002e8 	b.hi	8550 <mbedtls_mpi_gen_prime+0x280>  // b.pmore
/home/hei/Desktop/optee-qemu/optee_os/lib/libmbedtls/mbedtls/library/bignum.c:2452
    84f8:	f103e75f 	cmp	x26, #0xf9
    84fc:	540002e8 	b.hi	8558 <mbedtls_mpi_gen_prime+0x288>  // b.pmore
/home/hei/Desktop/optee-qemu/optee_os/lib/libmbedtls/mbedtls/library/bignum.c:2452 (discriminator 1)
    8500:	f102575f 	cmp	x26, #0x95
    8504:	d2800514 	mov	x20, #0x28                  	// #40
    8508:	d2800660 	mov	x0, #0x33                  	// #51
    850c:	17ffff96 	b	8364 <mbedtls_mpi_gen_prime+0x94>
/home/hei/Desktop/optee-qemu/optee_os/lib/libmbedtls/mbedtls/library/bignum.c:2439
    8510:	d2800054 	mov	x20, #0x2                   	// #2
    8514:	17ffff95 	b	8368 <mbedtls_mpi_gen_prime+0x98>
    8518:	d2800074 	mov	x20, #0x3                   	// #3
    851c:	17ffff93 	b	8368 <mbedtls_mpi_gen_prime+0x98>
/home/hei/Desktop/optee-qemu/optee_os/lib/libmbedtls/mbedtls/library/bignum.c:2441
    8520:	d2800194 	mov	x20, #0xc                   	// #12
    8524:	17ffff91 	b	8368 <mbedtls_mpi_gen_prime+0x98>
/home/hei/Desktop/optee-qemu/optee_os/lib/libmbedtls/mbedtls/library/bignum.c:2440
    8528:	d2800094 	mov	x20, #0x4                   	// #4
    852c:	17ffff8f 	b	8368 <mbedtls_mpi_gen_prime+0x98>
/home/hei/Desktop/optee-qemu/optee_os/lib/libmbedtls/mbedtls/library/bignum.c:2449
    8530:	d28000b4 	mov	x20, #0x5                   	// #5
    8534:	17ffff8d 	b	8368 <mbedtls_mpi_gen_prime+0x98>
/home/hei/Desktop/optee-qemu/optee_os/lib/libmbedtls/mbedtls/library/bignum.c:2450
    8538:	d28000d4 	mov	x20, #0x6                   	// #6
    853c:	17ffff8b 	b	8368 <mbedtls_mpi_gen_prime+0x98>
    8540:	d28000f4 	mov	x20, #0x7                   	// #7
    8544:	17ffff89 	b	8368 <mbedtls_mpi_gen_prime+0x98>
/home/hei/Desktop/optee-qemu/optee_os/lib/libmbedtls/mbedtls/library/bignum.c:2440
    8548:	d2800114 	mov	x20, #0x8                   	// #8
    854c:	17ffff87 	b	8368 <mbedtls_mpi_gen_prime+0x98>
/home/hei/Desktop/optee-qemu/optee_os/lib/libmbedtls/mbedtls/library/bignum.c:2451
    8550:	d28001b4 	mov	x20, #0xd                   	// #13
    8554:	17ffff85 	b	8368 <mbedtls_mpi_gen_prime+0x98>
/home/hei/Desktop/optee-qemu/optee_os/lib/libmbedtls/mbedtls/library/bignum.c:2452
    8558:	d2800394 	mov	x20, #0x1c                  	// #28
    855c:	17ffff83 	b	8368 <mbedtls_mpi_gen_prime+0x98>
/home/hei/Desktop/optee-qemu/optee_os/lib/libmbedtls/mbedtls/library/bignum.c:2462 (discriminator 1)
    8560:	aa1b03e1 	mov	x1, x27
    8564:	aa1503e0 	mov	x0, x21
    8568:	97fff5ff 	bl	5d64 <mbedtls_mpi_shift_r>
    856c:	2a0003f3 	mov	w19, w0
    8570:	34fff280 	cbz	w0, 83c0 <mbedtls_mpi_gen_prime+0xf0>
/home/hei/Desktop/optee-qemu/optee_os/lib/libmbedtls/mbedtls/library/bignum.c:2522
    8574:	aa1603e0 	mov	x0, x22
    8578:	97fff392 	bl	53c0 <mbedtls_mpi_free>
/home/hei/Desktop/optee-qemu/optee_os/lib/libmbedtls/mbedtls/library/bignum.c:2525
    857c:	2a1303e0 	mov	w0, w19
    8580:	a94153f3 	ldp	x19, x20, [sp, #16]
    8584:	a9425bf5 	ldp	x21, x22, [sp, #32]
    8588:	a94363f7 	ldp	x23, x24, [sp, #48]
    858c:	a9446bf9 	ldp	x25, x26, [sp, #64]
    8590:	a94573fb 	ldp	x27, x28, [sp, #80]
    8594:	6d4627e8 	ldp	d8, d9, [sp, #96]
    8598:	a8ca7bfd 	ldp	x29, x30, [sp], #160
    859c:	d65f03c0 	ret
/home/hei/Desktop/optee-qemu/optee_os/lib/libmbedtls/mbedtls/library/bignum.c:2467
    85a0:	9e660123 	fmov	x3, d9
    85a4:	9e660102 	fmov	x2, d8
    85a8:	2a1403e1 	mov	w1, w20
    85ac:	aa1503e0 	mov	x0, x21
    85b0:	97ffff1a 	bl	8218 <mbedtls_mpi_is_prime_ext>
    85b4:	2a0003f3 	mov	w19, w0
/home/hei/Desktop/optee-qemu/optee_os/lib/libmbedtls/mbedtls/library/bignum.c:2469
    85b8:	3100381f 	cmn	w0, #0xe
    85bc:	54ffee60 	b.eq	8388 <mbedtls_mpi_gen_prime+0xb8>  // b.none
    85c0:	17ffffed 	b	8574 <mbedtls_mpi_gen_prime+0x2a4>
/home/hei/Desktop/optee-qemu/optee_os/lib/libmbedtls/mbedtls/library/bignum.c:2485
    85c4:	7100041f 	cmp	w0, #0x1
    85c8:	54fff261 	b.ne	8414 <mbedtls_mpi_gen_prime+0x144>  // b.any
/home/hei/Desktop/optee-qemu/optee_os/lib/libmbedtls/mbedtls/library/bignum.c:2486
    85cc:	52800082 	mov	w2, #0x4                   	// #4
    85d0:	17ffff8c 	b	8400 <mbedtls_mpi_gen_prime+0x130>
/home/hei/Desktop/optee-qemu/optee_os/lib/libmbedtls/mbedtls/library/bignum.c:2428
    85d4:	12800073 	mov	w19, #0xfffffffc            	// #-4
    85d8:	17ffffe9 	b	857c <mbedtls_mpi_gen_prime+0x2ac>

00000000000085dc <mbedtls_mpi_self_test>:
mbedtls_mpi_self_test():
/home/hei/Desktop/optee-qemu/optee_os/lib/libmbedtls/mbedtls/library/bignum.c:2544
    85dc:	a9ae7bfd 	stp	x29, x30, [sp, #-288]!
    85e0:	910003fd 	mov	x29, sp
    85e4:	a9025bf5 	stp	x21, x22, [sp, #32]
/home/hei/Desktop/optee-qemu/optee_os/lib/libmbedtls/mbedtls/library/bignum.c:2548
    85e8:	9101e3f6 	add	x22, sp, #0x78
/home/hei/Desktop/optee-qemu/optee_os/lib/libmbedtls/mbedtls/library/bignum.c:2550
    85ec:	9103c3f5 	add	x21, sp, #0xf0
/home/hei/Desktop/optee-qemu/optee_os/lib/libmbedtls/mbedtls/library/bignum.c:2544
    85f0:	a90153f3 	stp	x19, x20, [sp, #16]
    85f4:	2a0003f3 	mov	w19, w0
/home/hei/Desktop/optee-qemu/optee_os/lib/libmbedtls/mbedtls/library/bignum.c:2548
    85f8:	aa1603e0 	mov	x0, x22
/home/hei/Desktop/optee-qemu/optee_os/lib/libmbedtls/mbedtls/library/bignum.c:2544
    85fc:	a90363f7 	stp	x23, x24, [sp, #48]
/home/hei/Desktop/optee-qemu/optee_os/lib/libmbedtls/mbedtls/library/bignum.c:2549
    8600:	9102a3f8 	add	x24, sp, #0xa8
    8604:	910303f4 	add	x20, sp, #0xc0
/home/hei/Desktop/optee-qemu/optee_os/lib/libmbedtls/mbedtls/library/bignum.c:2544
    8608:	a9046bf9 	stp	x25, x26, [sp, #64]
/home/hei/Desktop/optee-qemu/optee_os/lib/libmbedtls/mbedtls/library/bignum.c:2550
    860c:	910363f9 	add	x25, sp, #0xd8
/home/hei/Desktop/optee-qemu/optee_os/lib/libmbedtls/mbedtls/library/bignum.c:2544
    8610:	a90573fb 	stp	x27, x28, [sp, #80]
/home/hei/Desktop/optee-qemu/optee_os/lib/libmbedtls/mbedtls/library/bignum.c:2548
    8614:	97fff361 	bl	5398 <mbedtls_mpi_init_mempool>
    8618:	910243fc 	add	x28, sp, #0x90
    861c:	aa1c03e0 	mov	x0, x28
    8620:	97fff35e 	bl	5398 <mbedtls_mpi_init_mempool>
/home/hei/Desktop/optee-qemu/optee_os/lib/libmbedtls/mbedtls/library/bignum.c:2549
    8624:	aa1803e0 	mov	x0, x24
    8628:	97fff35c 	bl	5398 <mbedtls_mpi_init_mempool>
    862c:	aa1403e0 	mov	x0, x20
    8630:	97fff35a 	bl	5398 <mbedtls_mpi_init_mempool>
/home/hei/Desktop/optee-qemu/optee_os/lib/libmbedtls/mbedtls/library/bignum.c:2550
    8634:	aa1903e0 	mov	x0, x25
    8638:	97fff358 	bl	5398 <mbedtls_mpi_init_mempool>
    863c:	aa1503e0 	mov	x0, x21
    8640:	97fff356 	bl	5398 <mbedtls_mpi_init_mempool>
/home/hei/Desktop/optee-qemu/optee_os/lib/libmbedtls/mbedtls/library/bignum.c:2551
    8644:	910423e0 	add	x0, sp, #0x108
    8648:	f90037e0 	str	x0, [sp, #104]
    864c:	97fff353 	bl	5398 <mbedtls_mpi_init_mempool>
/home/hei/Desktop/optee-qemu/optee_os/lib/libmbedtls/mbedtls/library/bignum.c:2553
    8650:	f0000002 	adrp	x2, b000 <__func__.3755+0x98>
    8654:	52800201 	mov	w1, #0x10                  	// #16
    8658:	9113d842 	add	x2, x2, #0x4f6
    865c:	aa1603e0 	mov	x0, x22
    8660:	97fff7a6 	bl	64f8 <mbedtls_mpi_read_string>
    8664:	2a0003fb 	mov	w27, w0
    8668:	350004c0 	cbnz	w0, 8700 <mbedtls_mpi_self_test+0x124>
/home/hei/Desktop/optee-qemu/optee_os/lib/libmbedtls/mbedtls/library/bignum.c:2559
    866c:	f0000002 	adrp	x2, b000 <__func__.3755+0x98>
    8670:	52800201 	mov	w1, #0x10                  	// #16
    8674:	9115dc42 	add	x2, x2, #0x577
    8678:	aa1c03e0 	mov	x0, x28
    867c:	97fff79f 	bl	64f8 <mbedtls_mpi_read_string>
    8680:	2a0003fb 	mov	w27, w0
    8684:	350003e0 	cbnz	w0, 8700 <mbedtls_mpi_self_test+0x124>
/home/hei/Desktop/optee-qemu/optee_os/lib/libmbedtls/mbedtls/library/bignum.c:2565
    8688:	f0000002 	adrp	x2, b000 <__func__.3755+0x98>
    868c:	52800201 	mov	w1, #0x10                  	// #16
    8690:	9117e042 	add	x2, x2, #0x5f8
    8694:	aa1803e0 	mov	x0, x24
    8698:	97fff798 	bl	64f8 <mbedtls_mpi_read_string>
    869c:	2a0003fb 	mov	w27, w0
    86a0:	35000300 	cbnz	w0, 8700 <mbedtls_mpi_self_test+0x124>
/home/hei/Desktop/optee-qemu/optee_os/lib/libmbedtls/mbedtls/library/bignum.c:2570
    86a4:	aa1803e2 	mov	x2, x24
    86a8:	aa1603e1 	mov	x1, x22
    86ac:	aa1403e0 	mov	x0, x20
    86b0:	97fff731 	bl	6374 <mbedtls_mpi_mul_mpi>
    86b4:	2a0003fb 	mov	w27, w0
    86b8:	35000240 	cbnz	w0, 8700 <mbedtls_mpi_self_test+0x124>
/home/hei/Desktop/optee-qemu/optee_os/lib/libmbedtls/mbedtls/library/bignum.c:2572
    86bc:	f0000002 	adrp	x2, b000 <__func__.3755+0x98>
    86c0:	52800201 	mov	w1, #0x10                  	// #16
    86c4:	91196442 	add	x2, x2, #0x659
    86c8:	aa1503e0 	mov	x0, x21
    86cc:	97fff78b 	bl	64f8 <mbedtls_mpi_read_string>
    86d0:	2a0003fb 	mov	w27, w0
    86d4:	35000160 	cbnz	w0, 8700 <mbedtls_mpi_self_test+0x124>
/home/hei/Desktop/optee-qemu/optee_os/lib/libmbedtls/mbedtls/library/bignum.c:2581
    86d8:	34000093 	cbz	w19, 86e8 <mbedtls_mpi_self_test+0x10c>
/home/hei/Desktop/optee-qemu/optee_os/lib/libmbedtls/mbedtls/library/bignum.c:2582
    86dc:	f0000000 	adrp	x0, b000 <__func__.3755+0x98>
    86e0:	911ce000 	add	x0, x0, #0x738
    86e4:	97ffe74a 	bl	240c <printf>
/home/hei/Desktop/optee-qemu/optee_os/lib/libmbedtls/mbedtls/library/bignum.c:2584
    86e8:	aa1503e1 	mov	x1, x21
    86ec:	aa1403e0 	mov	x0, x20
    86f0:	97fff5f6 	bl	5ec8 <mbedtls_mpi_cmp_mpi>
    86f4:	340004e0 	cbz	w0, 8790 <mbedtls_mpi_self_test+0x1b4>
/home/hei/Desktop/optee-qemu/optee_os/lib/libmbedtls/mbedtls/library/bignum.c:2586
    86f8:	35000453 	cbnz	w19, 8780 <mbedtls_mpi_self_test+0x1a4>
/home/hei/Desktop/optee-qemu/optee_os/lib/libmbedtls/mbedtls/library/bignum.c:2681
    86fc:	5280003b 	mov	w27, #0x1                   	// #1
/home/hei/Desktop/optee-qemu/optee_os/lib/libmbedtls/mbedtls/library/bignum.c:2691
    8700:	7100037f 	cmp	w27, #0x0
    8704:	7a401a64 	ccmp	w19, #0x0, #0x4, ne  // ne = any
    8708:	540000a0 	b.eq	871c <mbedtls_mpi_self_test+0x140>  // b.none
/home/hei/Desktop/optee-qemu/optee_os/lib/libmbedtls/mbedtls/library/bignum.c:2692
    870c:	f0000000 	adrp	x0, b000 <__func__.3755+0x98>
    8710:	2a1b03e1 	mov	w1, w27
    8714:	91247000 	add	x0, x0, #0x91c
    8718:	97ffe73d 	bl	240c <printf>
/home/hei/Desktop/optee-qemu/optee_os/lib/libmbedtls/mbedtls/library/bignum.c:2694
    871c:	aa1603e0 	mov	x0, x22
    8720:	97fff328 	bl	53c0 <mbedtls_mpi_free>
    8724:	aa1c03e0 	mov	x0, x28
    8728:	97fff326 	bl	53c0 <mbedtls_mpi_free>
    872c:	aa1803e0 	mov	x0, x24
    8730:	97fff324 	bl	53c0 <mbedtls_mpi_free>
    8734:	aa1403e0 	mov	x0, x20
    8738:	97fff322 	bl	53c0 <mbedtls_mpi_free>
/home/hei/Desktop/optee-qemu/optee_os/lib/libmbedtls/mbedtls/library/bignum.c:2695
    873c:	aa1903e0 	mov	x0, x25
    8740:	97fff320 	bl	53c0 <mbedtls_mpi_free>
    8744:	aa1503e0 	mov	x0, x21
    8748:	97fff31e 	bl	53c0 <mbedtls_mpi_free>
    874c:	f94037e0 	ldr	x0, [sp, #104]
    8750:	97fff31c 	bl	53c0 <mbedtls_mpi_free>
/home/hei/Desktop/optee-qemu/optee_os/lib/libmbedtls/mbedtls/library/bignum.c:2697
    8754:	34000073 	cbz	w19, 8760 <mbedtls_mpi_self_test+0x184>
/home/hei/Desktop/optee-qemu/optee_os/lib/libmbedtls/mbedtls/library/bignum.c:2698
    8758:	52800140 	mov	w0, #0xa                   	// #10
    875c:	97ffe76e 	bl	2514 <putchar>
/home/hei/Desktop/optee-qemu/optee_os/lib/libmbedtls/mbedtls/library/bignum.c:2701
    8760:	2a1b03e0 	mov	w0, w27
    8764:	a94153f3 	ldp	x19, x20, [sp, #16]
    8768:	a9425bf5 	ldp	x21, x22, [sp, #32]
    876c:	a94363f7 	ldp	x23, x24, [sp, #48]
    8770:	a9446bf9 	ldp	x25, x26, [sp, #64]
    8774:	a94573fb 	ldp	x27, x28, [sp, #80]
    8778:	a8d27bfd 	ldp	x29, x30, [sp], #288
    877c:	d65f03c0 	ret
/home/hei/Desktop/optee-qemu/optee_os/lib/libmbedtls/mbedtls/library/bignum.c:2587
    8780:	f0000000 	adrp	x0, b000 <__func__.3755+0x98>
    8784:	911d4800 	add	x0, x0, #0x752
    8788:	97ffe753 	bl	24d4 <puts>
    878c:	17ffffdc 	b	86fc <mbedtls_mpi_self_test+0x120>
/home/hei/Desktop/optee-qemu/optee_os/lib/libmbedtls/mbedtls/library/bignum.c:2593
    8790:	34000093 	cbz	w19, 87a0 <mbedtls_mpi_self_test+0x1c4>
/home/hei/Desktop/optee-qemu/optee_os/lib/libmbedtls/mbedtls/library/bignum.c:2594
    8794:	f0000000 	adrp	x0, b000 <__func__.3755+0x98>
    8798:	911d6400 	add	x0, x0, #0x759
    879c:	97ffe74e 	bl	24d4 <puts>
/home/hei/Desktop/optee-qemu/optee_os/lib/libmbedtls/mbedtls/library/bignum.c:2596
    87a0:	aa1803e3 	mov	x3, x24
    87a4:	aa1603e2 	mov	x2, x22
    87a8:	aa1903e1 	mov	x1, x25
    87ac:	aa1403e0 	mov	x0, x20
    87b0:	97fff7cb 	bl	66dc <mbedtls_mpi_div_mpi>
    87b4:	2a0003fb 	mov	w27, w0
    87b8:	35fffa40 	cbnz	w0, 8700 <mbedtls_mpi_self_test+0x124>
/home/hei/Desktop/optee-qemu/optee_os/lib/libmbedtls/mbedtls/library/bignum.c:2598
    87bc:	f0000002 	adrp	x2, b000 <__func__.3755+0x98>
    87c0:	52800201 	mov	w1, #0x10                  	// #16
    87c4:	911d8042 	add	x2, x2, #0x760
    87c8:	aa1503e0 	mov	x0, x21
    87cc:	97fff74b 	bl	64f8 <mbedtls_mpi_read_string>
    87d0:	2a0003fb 	mov	w27, w0
    87d4:	35fff960 	cbnz	w0, 8700 <mbedtls_mpi_self_test+0x124>
/home/hei/Desktop/optee-qemu/optee_os/lib/libmbedtls/mbedtls/library/bignum.c:2601
    87d8:	f94037e0 	ldr	x0, [sp, #104]
    87dc:	f0000002 	adrp	x2, b000 <__func__.3755+0x98>
    87e0:	52800201 	mov	w1, #0x10                  	// #16
    87e4:	911e1042 	add	x2, x2, #0x784
    87e8:	97fff744 	bl	64f8 <mbedtls_mpi_read_string>
    87ec:	2a0003fb 	mov	w27, w0
    87f0:	35fff880 	cbnz	w0, 8700 <mbedtls_mpi_self_test+0x124>
/home/hei/Desktop/optee-qemu/optee_os/lib/libmbedtls/mbedtls/library/bignum.c:2606
    87f4:	34000093 	cbz	w19, 8804 <mbedtls_mpi_self_test+0x228>
/home/hei/Desktop/optee-qemu/optee_os/lib/libmbedtls/mbedtls/library/bignum.c:2607
    87f8:	f0000000 	adrp	x0, b000 <__func__.3755+0x98>
    87fc:	911f8c00 	add	x0, x0, #0x7e3
    8800:	97ffe703 	bl	240c <printf>
/home/hei/Desktop/optee-qemu/optee_os/lib/libmbedtls/mbedtls/library/bignum.c:2609
    8804:	aa1503e1 	mov	x1, x21
    8808:	aa1403e0 	mov	x0, x20
    880c:	97fff5af 	bl	5ec8 <mbedtls_mpi_cmp_mpi>
    8810:	35fff740 	cbnz	w0, 86f8 <mbedtls_mpi_self_test+0x11c>
/home/hei/Desktop/optee-qemu/optee_os/lib/libmbedtls/mbedtls/library/bignum.c:2610 (discriminator 1)
    8814:	f94037e1 	ldr	x1, [sp, #104]
    8818:	aa1903e0 	mov	x0, x25
    881c:	97fff5ab 	bl	5ec8 <mbedtls_mpi_cmp_mpi>
/home/hei/Desktop/optee-qemu/optee_os/lib/libmbedtls/mbedtls/library/bignum.c:2609 (discriminator 1)
    8820:	35fff6c0 	cbnz	w0, 86f8 <mbedtls_mpi_self_test+0x11c>
/home/hei/Desktop/optee-qemu/optee_os/lib/libmbedtls/mbedtls/library/bignum.c:2619
    8824:	34000093 	cbz	w19, 8834 <mbedtls_mpi_self_test+0x258>
/home/hei/Desktop/optee-qemu/optee_os/lib/libmbedtls/mbedtls/library/bignum.c:2620
    8828:	f0000000 	adrp	x0, b000 <__func__.3755+0x98>
    882c:	911d6400 	add	x0, x0, #0x759
    8830:	97ffe729 	bl	24d4 <puts>
/home/hei/Desktop/optee-qemu/optee_os/lib/libmbedtls/mbedtls/library/bignum.c:2622
    8834:	d2800004 	mov	x4, #0x0                   	// #0
    8838:	aa1803e3 	mov	x3, x24
    883c:	aa1c03e2 	mov	x2, x28
    8840:	aa1603e1 	mov	x1, x22
    8844:	aa1403e0 	mov	x0, x20
    8848:	97fffa91 	bl	728c <mbedtls_mpi_exp_mod>
    884c:	2a0003fb 	mov	w27, w0
    8850:	35fff580 	cbnz	w0, 8700 <mbedtls_mpi_self_test+0x124>
/home/hei/Desktop/optee-qemu/optee_os/lib/libmbedtls/mbedtls/library/bignum.c:2624
    8854:	f0000002 	adrp	x2, b000 <__func__.3755+0x98>
    8858:	52800201 	mov	w1, #0x10                  	// #16
    885c:	911ff442 	add	x2, x2, #0x7fd
    8860:	aa1503e0 	mov	x0, x21
    8864:	97fff725 	bl	64f8 <mbedtls_mpi_read_string>
    8868:	2a0003fb 	mov	w27, w0
    886c:	35fff4a0 	cbnz	w0, 8700 <mbedtls_mpi_self_test+0x124>
/home/hei/Desktop/optee-qemu/optee_os/lib/libmbedtls/mbedtls/library/bignum.c:2629
    8870:	34000093 	cbz	w19, 8880 <mbedtls_mpi_self_test+0x2a4>
/home/hei/Desktop/optee-qemu/optee_os/lib/libmbedtls/mbedtls/library/bignum.c:2630
    8874:	f0000000 	adrp	x0, b000 <__func__.3755+0x98>
    8878:	91217000 	add	x0, x0, #0x85c
    887c:	97ffe6e4 	bl	240c <printf>
/home/hei/Desktop/optee-qemu/optee_os/lib/libmbedtls/mbedtls/library/bignum.c:2632
    8880:	aa1503e1 	mov	x1, x21
    8884:	aa1403e0 	mov	x0, x20
    8888:	97fff590 	bl	5ec8 <mbedtls_mpi_cmp_mpi>
    888c:	35fff360 	cbnz	w0, 86f8 <mbedtls_mpi_self_test+0x11c>
/home/hei/Desktop/optee-qemu/optee_os/lib/libmbedtls/mbedtls/library/bignum.c:2641
    8890:	34000093 	cbz	w19, 88a0 <mbedtls_mpi_self_test+0x2c4>
/home/hei/Desktop/optee-qemu/optee_os/lib/libmbedtls/mbedtls/library/bignum.c:2642
    8894:	f0000000 	adrp	x0, b000 <__func__.3755+0x98>
    8898:	911d6400 	add	x0, x0, #0x759
    889c:	97ffe70e 	bl	24d4 <puts>
/home/hei/Desktop/optee-qemu/optee_os/lib/libmbedtls/mbedtls/library/bignum.c:2644
    88a0:	aa1803e2 	mov	x2, x24
    88a4:	aa1603e1 	mov	x1, x22
    88a8:	aa1403e0 	mov	x0, x20
    88ac:	97fffd4d 	bl	7de0 <mbedtls_mpi_inv_mod>
    88b0:	2a0003fb 	mov	w27, w0
    88b4:	35fff260 	cbnz	w0, 8700 <mbedtls_mpi_self_test+0x124>
/home/hei/Desktop/optee-qemu/optee_os/lib/libmbedtls/mbedtls/library/bignum.c:2646
    88b8:	f0000002 	adrp	x2, b000 <__func__.3755+0x98>
    88bc:	52800201 	mov	w1, #0x10                  	// #16
    88c0:	9121d842 	add	x2, x2, #0x876
    88c4:	aa1503e0 	mov	x0, x21
    88c8:	97fff70c 	bl	64f8 <mbedtls_mpi_read_string>
    88cc:	2a0003fb 	mov	w27, w0
    88d0:	35fff180 	cbnz	w0, 8700 <mbedtls_mpi_self_test+0x124>
/home/hei/Desktop/optee-qemu/optee_os/lib/libmbedtls/mbedtls/library/bignum.c:2651
    88d4:	34000093 	cbz	w19, 88e4 <mbedtls_mpi_self_test+0x308>
/home/hei/Desktop/optee-qemu/optee_os/lib/libmbedtls/mbedtls/library/bignum.c:2652
    88d8:	f0000000 	adrp	x0, b000 <__func__.3755+0x98>
    88dc:	91235c00 	add	x0, x0, #0x8d7
    88e0:	97ffe6cb 	bl	240c <printf>
/home/hei/Desktop/optee-qemu/optee_os/lib/libmbedtls/mbedtls/library/bignum.c:2654
    88e4:	aa1503e1 	mov	x1, x21
    88e8:	aa1403e0 	mov	x0, x20
    88ec:	97fff577 	bl	5ec8 <mbedtls_mpi_cmp_mpi>
    88f0:	2a0003fa 	mov	w26, w0
    88f4:	35fff020 	cbnz	w0, 86f8 <mbedtls_mpi_self_test+0x11c>
/home/hei/Desktop/optee-qemu/optee_os/lib/libmbedtls/mbedtls/library/bignum.c:2663
    88f8:	340000f3 	cbz	w19, 8914 <mbedtls_mpi_self_test+0x338>
/home/hei/Desktop/optee-qemu/optee_os/lib/libmbedtls/mbedtls/library/bignum.c:2664
    88fc:	f0000000 	adrp	x0, b000 <__func__.3755+0x98>
    8900:	911d6400 	add	x0, x0, #0x759
    8904:	97ffe6f4 	bl	24d4 <puts>
/home/hei/Desktop/optee-qemu/optee_os/lib/libmbedtls/mbedtls/library/bignum.c:2667
    8908:	f0000000 	adrp	x0, b000 <__func__.3755+0x98>
    890c:	9123c400 	add	x0, x0, #0x8f1
    8910:	97ffe6bf 	bl	240c <printf>
    8914:	d0000017 	adrp	x23, a000 <__text_end+0x12f4>
    8918:	912352f7 	add	x23, x23, #0x8d4
    891c:	910a82f7 	add	x23, x23, #0x2a0
/home/hei/Desktop/optee-qemu/optee_os/lib/libmbedtls/mbedtls/library/bignum.c:2671
    8920:	b94002e1 	ldr	w1, [x23]
    8924:	aa1403e0 	mov	x0, x20
    8928:	97fff3f5 	bl	58fc <mbedtls_mpi_lset>
    892c:	2a0003fb 	mov	w27, w0
    8930:	35ffee80 	cbnz	w0, 8700 <mbedtls_mpi_self_test+0x124>
/home/hei/Desktop/optee-qemu/optee_os/lib/libmbedtls/mbedtls/library/bignum.c:2672
    8934:	b94006e1 	ldr	w1, [x23, #4]
    8938:	aa1903e0 	mov	x0, x25
    893c:	97fff3f0 	bl	58fc <mbedtls_mpi_lset>
    8940:	2a0003fb 	mov	w27, w0
    8944:	35ffede0 	cbnz	w0, 8700 <mbedtls_mpi_self_test+0x124>
/home/hei/Desktop/optee-qemu/optee_os/lib/libmbedtls/mbedtls/library/bignum.c:2674
    8948:	aa1903e2 	mov	x2, x25
    894c:	aa1403e1 	mov	x1, x20
    8950:	aa1603e0 	mov	x0, x22
    8954:	97fffbf1 	bl	7918 <mbedtls_mpi_gcd>
    8958:	2a0003fb 	mov	w27, w0
    895c:	35ffed20 	cbnz	w0, 8700 <mbedtls_mpi_self_test+0x124>
/home/hei/Desktop/optee-qemu/optee_os/lib/libmbedtls/mbedtls/library/bignum.c:2676
    8960:	b9400ae1 	ldr	w1, [x23, #8]
    8964:	aa1603e0 	mov	x0, x22
    8968:	97fff58e 	bl	5fa0 <mbedtls_mpi_cmp_int>
    896c:	2a0003fb 	mov	w27, w0
    8970:	340000e0 	cbz	w0, 898c <mbedtls_mpi_self_test+0x3b0>
/home/hei/Desktop/optee-qemu/optee_os/lib/libmbedtls/mbedtls/library/bignum.c:2678
    8974:	34ffec53 	cbz	w19, 86fc <mbedtls_mpi_self_test+0x120>
/home/hei/Desktop/optee-qemu/optee_os/lib/libmbedtls/mbedtls/library/bignum.c:2679
    8978:	2a1a03e1 	mov	w1, w26
    897c:	f0000000 	adrp	x0, b000 <__func__.3755+0x98>
    8980:	91243800 	add	x0, x0, #0x90e
    8984:	97ffe6a2 	bl	240c <printf>
    8988:	17ffff5d 	b	86fc <mbedtls_mpi_self_test+0x120>
/home/hei/Desktop/optee-qemu/optee_os/lib/libmbedtls/mbedtls/library/bignum.c:2669 (discriminator 2)
    898c:	1100075a 	add	w26, w26, #0x1
    8990:	910032f7 	add	x23, x23, #0xc
    8994:	71000f5f 	cmp	w26, #0x3
    8998:	54fffc41 	b.ne	8920 <mbedtls_mpi_self_test+0x344>  // b.any
/home/hei/Desktop/optee-qemu/optee_os/lib/libmbedtls/mbedtls/library/bignum.c:2686
    899c:	340000b3 	cbz	w19, 89b0 <mbedtls_mpi_self_test+0x3d4>
/home/hei/Desktop/optee-qemu/optee_os/lib/libmbedtls/mbedtls/library/bignum.c:2687
    89a0:	f0000000 	adrp	x0, b000 <__func__.3755+0x98>
    89a4:	911d6400 	add	x0, x0, #0x759
    89a8:	97ffe6cb 	bl	24d4 <puts>
    89ac:	17ffff55 	b	8700 <mbedtls_mpi_self_test+0x124>
/home/hei/Desktop/optee-qemu/optee_os/lib/libmbedtls/mbedtls/library/bignum.c:2689
    89b0:	2a1303fb 	mov	w27, w19
    89b4:	17ffff53 	b	8700 <mbedtls_mpi_self_test+0x124>

00000000000089b8 <mbedtls_platform_zeroize>:
mbedtls_platform_zeroize():
/home/hei/Desktop/optee-qemu/optee_os/lib/libmbedtls/mbedtls/library/platform_util.c:75
    89b8:	90000022 	adrp	x2, c000 <_DYNAMIC>
    89bc:	f9424043 	ldr	x3, [x2, #1152]
    89c0:	aa0103e2 	mov	x2, x1
    89c4:	52800001 	mov	w1, #0x0                   	// #0
    89c8:	d61f0060 	br	x3

00000000000089cc <snprintf>:
snprintf():
/home/hei/Desktop/optee-qemu/optee_os/lib/libutils/isoc/snprintf.c:10
    89cc:	a9b07bfd 	stp	x29, x30, [sp, #-256]!
    89d0:	910003fd 	mov	x29, sp
    89d4:	a90d93e3 	stp	x3, x4, [sp, #216]
/home/hei/Desktop/optee-qemu/optee_os/lib/libutils/isoc/snprintf.c:14
    89d8:	910403e3 	add	x3, sp, #0x100
    89dc:	a9030fe3 	stp	x3, x3, [sp, #48]
    89e0:	910343e3 	add	x3, sp, #0xd0
    89e4:	f90023e3 	str	x3, [sp, #64]
    89e8:	128004e3 	mov	w3, #0xffffffd8            	// #-40
    89ec:	b9004be3 	str	w3, [sp, #72]
    89f0:	12800fe3 	mov	w3, #0xffffff80            	// #-128
    89f4:	b9004fe3 	str	w3, [sp, #76]
/home/hei/Desktop/optee-qemu/optee_os/lib/libutils/isoc/snprintf.c:15
    89f8:	910043e3 	add	x3, sp, #0x10
/home/hei/Desktop/optee-qemu/optee_os/lib/libutils/isoc/snprintf.c:10
    89fc:	a90e9be5 	stp	x5, x6, [sp, #232]
/home/hei/Desktop/optee-qemu/optee_os/lib/libutils/isoc/snprintf.c:15
    8a00:	a94317e4 	ldp	x4, x5, [sp, #48]
    8a04:	a90117e4 	stp	x4, x5, [sp, #16]
    8a08:	a94417e4 	ldp	x4, x5, [sp, #64]
    8a0c:	a90217e4 	stp	x4, x5, [sp, #32]
/home/hei/Desktop/optee-qemu/optee_os/lib/libutils/isoc/snprintf.c:10
    8a10:	3d8017e0 	str	q0, [sp, #80]
/home/hei/Desktop/optee-qemu/optee_os/lib/libutils/isoc/snprintf.c:15
    8a14:	52800004 	mov	w4, #0x0                   	// #0
/home/hei/Desktop/optee-qemu/optee_os/lib/libutils/isoc/snprintf.c:10
    8a18:	3d801be1 	str	q1, [sp, #96]
    8a1c:	3d801fe2 	str	q2, [sp, #112]
    8a20:	3d8023e3 	str	q3, [sp, #128]
    8a24:	3d8027e4 	str	q4, [sp, #144]
    8a28:	3d802be5 	str	q5, [sp, #160]
    8a2c:	3d802fe6 	str	q6, [sp, #176]
    8a30:	3d8033e7 	str	q7, [sp, #192]
    8a34:	f9007fe7 	str	x7, [sp, #248]
/home/hei/Desktop/optee-qemu/optee_os/lib/libutils/isoc/snprintf.c:15
    8a38:	97ffe31f 	bl	16b4 <__vsnprintf>
/home/hei/Desktop/optee-qemu/optee_os/lib/libutils/isoc/snprintf.c:19
    8a3c:	a8d07bfd 	ldp	x29, x30, [sp], #256
    8a40:	d65f03c0 	ret

0000000000008a44 <vsnprintf>:
vsnprintf():
/home/hei/Desktop/optee-qemu/optee_os/lib/libutils/isoc/snprintf.c:22
    8a44:	a9bb7bfd 	stp	x29, x30, [sp, #-80]!
    8a48:	910003fd 	mov	x29, sp
    8a4c:	a90153f3 	stp	x19, x20, [sp, #16]
    8a50:	aa0003f3 	mov	x19, x0
    8a54:	aa0103f4 	mov	x20, x1
/home/hei/Desktop/optee-qemu/optee_os/lib/libutils/isoc/snprintf.c:23
    8a58:	9100c3e0 	add	x0, sp, #0x30
    8a5c:	aa0303e1 	mov	x1, x3
/home/hei/Desktop/optee-qemu/optee_os/lib/libutils/isoc/snprintf.c:22
    8a60:	f90013f5 	str	x21, [sp, #32]
    8a64:	aa0203f5 	mov	x21, x2
/home/hei/Desktop/optee-qemu/optee_os/lib/libutils/isoc/snprintf.c:23
    8a68:	d2800402 	mov	x2, #0x20                  	// #32
    8a6c:	97ffdeb6 	bl	544 <memcpy>
    8a70:	aa1503e2 	mov	x2, x21
    8a74:	aa0003e3 	mov	x3, x0
    8a78:	aa1403e1 	mov	x1, x20
    8a7c:	52800004 	mov	w4, #0x0                   	// #0
    8a80:	aa1303e0 	mov	x0, x19
    8a84:	97ffe30c 	bl	16b4 <__vsnprintf>
/home/hei/Desktop/optee-qemu/optee_os/lib/libutils/isoc/snprintf.c:24
    8a88:	a94153f3 	ldp	x19, x20, [sp, #16]
    8a8c:	f94013f5 	ldr	x21, [sp, #32]
    8a90:	a8c57bfd 	ldp	x29, x30, [sp], #80
    8a94:	d65f03c0 	ret

0000000000008a98 <memmove>:
memmove():
/home/hei/Desktop/optee-qemu/optee_os/lib/libutils/isoc/newlib/memmove.c:96
    8a98:	eb01001f 	cmp	x0, x1
    8a9c:	54000289 	b.ls	8aec <memmove+0x54>  // b.plast
/home/hei/Desktop/optee-qemu/optee_os/lib/libutils/isoc/newlib/memmove.c:96 (discriminator 1)
    8aa0:	8b020023 	add	x3, x1, x2
    8aa4:	eb00007f 	cmp	x3, x0
    8aa8:	54000229 	b.ls	8aec <memmove+0x54>  // b.plast
/home/hei/Desktop/optee-qemu/optee_os/lib/libutils/isoc/newlib/memmove.c:99
    8aac:	8b020004 	add	x4, x0, x2
/home/hei/Desktop/optee-qemu/optee_os/lib/libutils/isoc/newlib/memmove.c:100
    8ab0:	aa2203e2 	mvn	x2, x2
    8ab4:	d2800001 	mov	x1, #0x0                   	// #0
    8ab8:	d1000421 	sub	x1, x1, #0x1
    8abc:	eb01005f 	cmp	x2, x1
    8ac0:	54000041 	b.ne	8ac8 <memmove+0x30>  // b.any
/home/hei/Desktop/optee-qemu/optee_os/lib/libutils/isoc/newlib/memmove.c:157
    8ac4:	d65f03c0 	ret
/home/hei/Desktop/optee-qemu/optee_os/lib/libutils/isoc/newlib/memmove.c:101
    8ac8:	38616865 	ldrb	w5, [x3, x1]
    8acc:	38216885 	strb	w5, [x4, x1]
    8ad0:	17fffffa 	b	8ab8 <memmove+0x20>
/home/hei/Desktop/optee-qemu/optee_os/lib/libutils/isoc/newlib/memmove.c:104
    8ad4:	38636824 	ldrb	w4, [x1, x3]
    8ad8:	38236804 	strb	w4, [x0, x3]
    8adc:	91000463 	add	x3, x3, #0x1
/home/hei/Desktop/optee-qemu/optee_os/lib/libutils/isoc/newlib/memmove.c:103
    8ae0:	eb03005f 	cmp	x2, x3
    8ae4:	54ffff81 	b.ne	8ad4 <memmove+0x3c>  // b.any
    8ae8:	17fffff7 	b	8ac4 <memmove+0x2c>
    8aec:	d2800003 	mov	x3, #0x0                   	// #0
    8af0:	17fffffc 	b	8ae0 <memmove+0x48>

0000000000008af4 <mempool_alloc_pool>:
mempool_alloc_pool():
/home/hei/Desktop/optee-qemu/optee_os/lib/libutils/ext/mempool.c:133
    8af4:	a9be7bfd 	stp	x29, x30, [sp, #-32]!
    8af8:	910003fd 	mov	x29, sp
    8afc:	a90153f3 	stp	x19, x20, [sp, #16]
    8b00:	aa0003f3 	mov	x19, x0
    8b04:	aa0103f4 	mov	x20, x1
/home/hei/Desktop/optee-qemu/optee_os/lib/libutils/ext/mempool.c:134
    8b08:	d2800020 	mov	x0, #0x1                   	// #1
    8b0c:	d2800301 	mov	x1, #0x18                  	// #24
    8b10:	97ffe1da 	bl	1278 <calloc>
/home/hei/Desktop/optee-qemu/optee_os/lib/libutils/ext/mempool.c:137
    8b14:	f2400a7f 	tst	x19, #0x7
    8b18:	54000140 	b.eq	8b40 <mempool_alloc_pool+0x4c>  // b.none
/home/hei/Desktop/optee-qemu/optee_os/lib/libutils/ext/mempool.c:137 (discriminator 1)
    8b1c:	f0000003 	adrp	x3, b000 <__func__.3755+0x98>
    8b20:	f0000001 	adrp	x1, b000 <__func__.3755+0x98>
    8b24:	91250863 	add	x3, x3, #0x942
    8b28:	91258c21 	add	x1, x1, #0x963
    8b2c:	f0000000 	adrp	x0, b000 <__func__.3755+0x98>
    8b30:	9125f800 	add	x0, x0, #0x97e
    8b34:	52801122 	mov	w2, #0x89                  	// #137
    8b38:	97ffe686 	bl	2550 <_assert_log>
    8b3c:	97ffe696 	bl	2594 <_assert_break>
/home/hei/Desktop/optee-qemu/optee_os/lib/libutils/ext/mempool.c:139
    8b40:	b4000080 	cbz	x0, 8b50 <mempool_alloc_pool+0x5c>
/home/hei/Desktop/optee-qemu/optee_os/lib/libutils/ext/mempool.c:142
    8b44:	92800001 	mov	x1, #0xffffffffffffffff    	// #-1
    8b48:	a9000414 	stp	x20, x1, [x0]
/home/hei/Desktop/optee-qemu/optee_os/lib/libutils/ext/mempool.c:141
    8b4c:	f9000813 	str	x19, [x0, #16]
/home/hei/Desktop/optee-qemu/optee_os/lib/libutils/ext/mempool.c:152
    8b50:	a94153f3 	ldp	x19, x20, [sp, #16]
    8b54:	a8c27bfd 	ldp	x29, x30, [sp], #32
    8b58:	d65f03c0 	ret

0000000000008b5c <mempool_alloc>:
mempool_alloc():
/home/hei/Desktop/optee-qemu/optee_os/lib/libutils/ext/mempool.c:162
    8b5c:	a9401003 	ldp	x3, x4, [x0]
    8b60:	b7f80304 	tbnz	x4, #63, 8bc0 <mempool_alloc+0x64>
/home/hei/Desktop/optee-qemu/optee_os/lib/libutils/ext/mempool.c:165
    8b64:	f9400806 	ldr	x6, [x0, #16]
/home/hei/Desktop/optee-qemu/optee_os/lib/libutils/ext/mempool.c:169
    8b68:	91001c82 	add	x2, x4, #0x7
/home/hei/Desktop/optee-qemu/optee_os/lib/libutils/ext/mempool.c:165
    8b6c:	8b060085 	add	x5, x4, x6
/home/hei/Desktop/optee-qemu/optee_os/lib/libutils/ext/mempool.c:169
    8b70:	f8666886 	ldr	x6, [x4, x6]
    8b74:	8b060042 	add	x2, x2, x6
    8b78:	927df042 	and	x2, x2, #0xfffffffffffffff8
/home/hei/Desktop/optee-qemu/optee_os/lib/libutils/ext/mempool.c:170
    8b7c:	eb02007f 	cmp	x3, x2
    8b80:	54000242 	b.cs	8bc8 <mempool_alloc+0x6c>  // b.hs, b.nlast
/home/hei/Desktop/optee-qemu/optee_os/lib/libutils/ext/mempool.c:155
    8b84:	a9bf7bfd 	stp	x29, x30, [sp, #-16]!
/home/hei/Desktop/optee-qemu/optee_os/lib/libutils/ext/mempool.c:197
    8b88:	f0000000 	adrp	x0, b000 <__func__.3755+0x98>
    8b8c:	91250800 	add	x0, x0, #0x942
/home/hei/Desktop/optee-qemu/optee_os/lib/libutils/ext/mempool.c:155
    8b90:	910003fd 	mov	x29, sp
/home/hei/Desktop/optee-qemu/optee_os/lib/libutils/ext/mempool.c:197
    8b94:	aa0103e5 	mov	x5, x1
    8b98:	52800023 	mov	w3, #0x1                   	// #1
    8b9c:	52800022 	mov	w2, #0x1                   	// #1
    8ba0:	528018a1 	mov	w1, #0xc5                  	// #197
    8ba4:	91004c00 	add	x0, x0, #0x13
    8ba8:	f0000004 	adrp	x4, b000 <__func__.3755+0x98>
    8bac:	91269484 	add	x4, x4, #0x9a5
    8bb0:	97ffdf32 	bl	878 <trace_printf>
/home/hei/Desktop/optee-qemu/optee_os/lib/libutils/ext/mempool.c:199
    8bb4:	d2800000 	mov	x0, #0x0                   	// #0
/home/hei/Desktop/optee-qemu/optee_os/lib/libutils/ext/mempool.c:200
    8bb8:	a8c17bfd 	ldp	x29, x30, [sp], #16
    8bbc:	d65f03c0 	ret
/home/hei/Desktop/optee-qemu/optee_os/lib/libutils/ext/mempool.c:158
    8bc0:	d2800005 	mov	x5, #0x0                   	// #0
/home/hei/Desktop/optee-qemu/optee_os/lib/libutils/ext/mempool.c:163
    8bc4:	d2800002 	mov	x2, #0x0                   	// #0
/home/hei/Desktop/optee-qemu/optee_os/lib/libutils/ext/mempool.c:175
    8bc8:	91007c21 	add	x1, x1, #0x1f
    8bcc:	927df021 	and	x1, x1, #0xfffffffffffffff8
/home/hei/Desktop/optee-qemu/optee_os/lib/libutils/ext/mempool.c:176
    8bd0:	8b010046 	add	x6, x2, x1
    8bd4:	eb0300df 	cmp	x6, x3
    8bd8:	54fffd68 	b.hi	8b84 <mempool_alloc+0x28>  // b.pmore
/home/hei/Desktop/optee-qemu/optee_os/lib/libutils/ext/mempool.c:179
    8bdc:	f9400806 	ldr	x6, [x0, #16]
    8be0:	8b060043 	add	x3, x2, x6
/home/hei/Desktop/optee-qemu/optee_os/lib/libutils/ext/mempool.c:180
    8be4:	f8266841 	str	x1, [x2, x6]
/home/hei/Desktop/optee-qemu/optee_os/lib/libutils/ext/mempool.c:181
    8be8:	f9000464 	str	x4, [x3, #8]
/home/hei/Desktop/optee-qemu/optee_os/lib/libutils/ext/mempool.c:182
    8bec:	b4000045 	cbz	x5, 8bf4 <mempool_alloc+0x98>
/home/hei/Desktop/optee-qemu/optee_os/lib/libutils/ext/mempool.c:183
    8bf0:	f90008a2 	str	x2, [x5, #16]
/home/hei/Desktop/optee-qemu/optee_os/lib/libutils/ext/mempool.c:184
    8bf4:	92800001 	mov	x1, #0xffffffffffffffff    	// #-1
    8bf8:	f9000861 	str	x1, [x3, #16]
/home/hei/Desktop/optee-qemu/optee_os/lib/libutils/ext/mempool.c:185
    8bfc:	f9000402 	str	x2, [x0, #8]
/home/hei/Desktop/optee-qemu/optee_os/lib/libutils/ext/mempool.c:194
    8c00:	91006060 	add	x0, x3, #0x18
/home/hei/Desktop/optee-qemu/optee_os/lib/libutils/ext/mempool.c:200
    8c04:	d65f03c0 	ret

0000000000008c08 <mempool_calloc>:
mempool_calloc():
/home/hei/Desktop/optee-qemu/optee_os/lib/libutils/ext/mempool.c:203
    8c08:	a9be7bfd 	stp	x29, x30, [sp, #-32]!
    8c0c:	910003fd 	mov	x29, sp
    8c10:	a90153f3 	stp	x19, x20, [sp, #16]
/home/hei/Desktop/optee-qemu/optee_os/lib/libutils/ext/mempool.c:207
    8c14:	9b027c34 	mul	x20, x1, x2
    8c18:	9bc27c21 	umulh	x1, x1, x2
    8c1c:	b5000121 	cbnz	x1, 8c40 <mempool_calloc+0x38>
/home/hei/Desktop/optee-qemu/optee_os/lib/libutils/ext/mempool.c:210
    8c20:	aa1403e1 	mov	x1, x20
    8c24:	97ffffce 	bl	8b5c <mempool_alloc>
    8c28:	aa0003f3 	mov	x19, x0
/home/hei/Desktop/optee-qemu/optee_os/lib/libutils/ext/mempool.c:211
    8c2c:	b50000e0 	cbnz	x0, 8c48 <mempool_calloc+0x40>
/home/hei/Desktop/optee-qemu/optee_os/lib/libutils/ext/mempool.c:215
    8c30:	aa1303e0 	mov	x0, x19
    8c34:	a94153f3 	ldp	x19, x20, [sp, #16]
    8c38:	a8c27bfd 	ldp	x29, x30, [sp], #32
    8c3c:	d65f03c0 	ret
/home/hei/Desktop/optee-qemu/optee_os/lib/libutils/ext/mempool.c:208
    8c40:	d2800013 	mov	x19, #0x0                   	// #0
    8c44:	17fffffb 	b	8c30 <mempool_calloc+0x28>
/home/hei/Desktop/optee-qemu/optee_os/lib/libutils/ext/mempool.c:212
    8c48:	aa1403e2 	mov	x2, x20
    8c4c:	52800001 	mov	w1, #0x0                   	// #0
    8c50:	97ffe292 	bl	1698 <memset>
    8c54:	17fffff7 	b	8c30 <mempool_calloc+0x28>

0000000000008c58 <mempool_free>:
mempool_free():
/home/hei/Desktop/optee-qemu/optee_os/lib/libutils/ext/mempool.c:224
    8c58:	b40001c1 	cbz	x1, 8c90 <mempool_free+0x38>
/home/hei/Desktop/optee-qemu/optee_os/lib/libutils/ext/mempool.c:229
    8c5c:	f85f0022 	ldur	x2, [x1, #-16]
    8c60:	b7f801a2 	tbnz	x2, #63, 8c94 <mempool_free+0x3c>
/home/hei/Desktop/optee-qemu/optee_os/lib/libutils/ext/mempool.c:232
    8c64:	f9400803 	ldr	x3, [x0, #16]
    8c68:	f85f8024 	ldur	x4, [x1, #-8]
    8c6c:	8b020063 	add	x3, x3, x2
    8c70:	f9000864 	str	x4, [x3, #16]
    8c74:	aa0203e3 	mov	x3, x2
/home/hei/Desktop/optee-qemu/optee_os/lib/libutils/ext/mempool.c:236
    8c78:	f85f8024 	ldur	x4, [x1, #-8]
    8c7c:	b7f80084 	tbnz	x4, #63, 8c8c <mempool_free+0x34>
/home/hei/Desktop/optee-qemu/optee_os/lib/libutils/ext/mempool.c:239
    8c80:	a9408403 	ldp	x3, x1, [x0, #8]
    8c84:	8b040021 	add	x1, x1, x4
    8c88:	f9000422 	str	x2, [x1, #8]
/home/hei/Desktop/optee-qemu/optee_os/lib/libutils/ext/mempool.c:243
    8c8c:	f9000403 	str	x3, [x0, #8]
/home/hei/Desktop/optee-qemu/optee_os/lib/libutils/ext/mempool.c:245
    8c90:	d65f03c0 	ret
/home/hei/Desktop/optee-qemu/optee_os/lib/libutils/ext/mempool.c:222
    8c94:	92800003 	mov	x3, #0xffffffffffffffff    	// #-1
    8c98:	17fffff8 	b	8c78 <mempool_free+0x20>

0000000000008c9c <consttime_memcmp>:
consttime_memcmp():
/home/hei/Desktop/optee-qemu/optee_os/lib/libutils/ext/consttime_memcmp.c:36
    8c9c:	d10043ff 	sub	sp, sp, #0x10
/home/hei/Desktop/optee-qemu/optee_os/lib/libutils/ext/consttime_memcmp.c:41
    8ca0:	52802003 	mov	w3, #0x100                 	// #256
/home/hei/Desktop/optee-qemu/optee_os/lib/libutils/ext/consttime_memcmp.c:43
    8ca4:	d2800005 	mov	x5, #0x0                   	// #0
/home/hei/Desktop/optee-qemu/optee_os/lib/libutils/ext/consttime_memcmp.c:39
    8ca8:	52800006 	mov	w6, #0x0                   	// #0
/home/hei/Desktop/optee-qemu/optee_os/lib/libutils/ext/consttime_memcmp.c:41
    8cac:	b9000fe3 	str	w3, [sp, #12]
/home/hei/Desktop/optee-qemu/optee_os/lib/libutils/ext/consttime_memcmp.c:40
    8cb0:	52800003 	mov	w3, #0x0                   	// #0
/home/hei/Desktop/optee-qemu/optee_os/lib/libutils/ext/consttime_memcmp.c:43 (discriminator 1)
    8cb4:	eb0200bf 	cmp	x5, x2
    8cb8:	540000a1 	b.ne	8ccc <consttime_memcmp+0x30>  // b.any
/home/hei/Desktop/optee-qemu/optee_os/lib/libutils/ext/consttime_memcmp.c:50
    8cbc:	53087c63 	lsr	w3, w3, #8
/home/hei/Desktop/optee-qemu/optee_os/lib/libutils/ext/consttime_memcmp.c:51
    8cc0:	4b462060 	sub	w0, w3, w6, lsr #8
    8cc4:	910043ff 	add	sp, sp, #0x10
    8cc8:	d65f03c0 	ret
/home/hei/Desktop/optee-qemu/optee_os/lib/libutils/ext/consttime_memcmp.c:45 (discriminator 2)
    8ccc:	38656808 	ldrb	w8, [x0, x5]
    8cd0:	38656824 	ldrb	w4, [x1, x5]
    8cd4:	910004a5 	add	x5, x5, #0x1
/home/hei/Desktop/optee-qemu/optee_os/lib/libutils/ext/consttime_memcmp.c:44 (discriminator 2)
    8cd8:	b9400fe9 	ldr	w9, [sp, #12]
/home/hei/Desktop/optee-qemu/optee_os/lib/libutils/ext/consttime_memcmp.c:45 (discriminator 2)
    8cdc:	4b040107 	sub	w7, w8, w4
/home/hei/Desktop/optee-qemu/optee_os/lib/libutils/ext/consttime_memcmp.c:47 (discriminator 2)
    8ce0:	4b080084 	sub	w4, w4, w8
/home/hei/Desktop/optee-qemu/optee_os/lib/libutils/ext/consttime_memcmp.c:44 (discriminator 2)
    8ce4:	0a0900e7 	and	w7, w7, w9
    8ce8:	2a0700c6 	orr	w6, w6, w7
/home/hei/Desktop/optee-qemu/optee_os/lib/libutils/ext/consttime_memcmp.c:46 (discriminator 2)
    8cec:	b9400fe7 	ldr	w7, [sp, #12]
    8cf0:	0a070084 	and	w4, w4, w7
/home/hei/Desktop/optee-qemu/optee_os/lib/libutils/ext/consttime_memcmp.c:48 (discriminator 2)
    8cf4:	b9400fe7 	ldr	w7, [sp, #12]
/home/hei/Desktop/optee-qemu/optee_os/lib/libutils/ext/consttime_memcmp.c:46 (discriminator 2)
    8cf8:	2a040063 	orr	w3, w3, w4
/home/hei/Desktop/optee-qemu/optee_os/lib/libutils/ext/consttime_memcmp.c:48 (discriminator 2)
    8cfc:	2a0300c4 	orr	w4, w6, w3
    8d00:	0a2400e4 	bic	w4, w7, w4
    8d04:	b9000fe4 	str	w4, [sp, #12]
    8d08:	17ffffeb 	b	8cb4 <consttime_memcmp+0x18>
